(lp0
(imain2
Polygon
p1
(dp2
S'origin'
p3
(I39
I29
tp4
sS'h'
p5
I200
sS'color'
p6
(I192
I23
I138
I65
tp7
sS'corner_list'
p8
(lp9
(I0
I0
tp10
a(I33
I71
tp11
a(I71
I41
tp12
a(I83
I36
tp13
a(I71
I0
tp14
a(I11
I74
tp15
a(I0
I33
tp16
a(I70
I7
tp17
a(I72
I59
tp18
a(I83
I19
tp19
a(I17
I62
tp20
a(I4
I54
tp21
a(I0
I33
tp22
a(I60
I37
tp23
a(I65
I0
tp24
a(I64
I0
tp25
a(I0
I0
tp26
asS'w'
p27
I200
sba(imain2
Polygon
p28
(dp29
g3
(I66
I177
tp30
sg5
I200
sg6
(I137
I53
I47
I23
tp31
sg8
(lp32
(I81
I174
tp33
a(I77
I165
tp34
a(I111
I200
tp35
a(I34
I200
tp36
a(I112
I200
tp37
a(I20
I192
tp38
a(I44
I200
tp39
a(I77
I200
tp40
a(I100
I127
tp41
asg27
I200
sba(imain2
Polygon
p42
(dp43
g3
(I59
I53
tp44
sg5
I200
sg6
(I109
I42
I107
I132
tp45
sg8
(lp46
(I106
I10
tp47
a(I26
I102
tp48
a(I9
I53
tp49
a(I89
I14
tp50
a(I41
I9
tp51
a(I45
I35
tp52
a(I40
I72
tp53
a(I32
I51
tp54
a(I38
I88
tp55
a(I97
I87
tp56
a(I109
I84
tp57
a(I91
I22
tp58
a(I92
I46
tp59
a(I76
I61
tp60
a(I103
I97
tp61
a(I50
I59
tp62
a(I53
I45
tp63
a(I58
I40
tp64
asg27
I200
sba(imain2
Polygon
p65
(dp66
g3
(I79
I99
tp67
sg5
I200
sg6
(I71
I89
I67
I82
tp68
sg8
(lp69
(I122
I134
tp70
a(I76
I117
tp71
a(I76
I74
tp72
a(I35
I63
tp73
a(I123
I57
tp74
a(I114
I125
tp75
a(I63
I146
tp76
a(I86
I147
tp77
asg27
I200
sba(imain2
Polygon
p78
(dp79
g3
(I200
I83
tp80
sg5
I200
sg6
(I165
I227
I63
I3
tp81
sg8
(lp82
(I200
I58
tp83
a(I164
I41
tp84
a(I200
I37
tp85
a(I178
I101
tp86
a(I200
I130
tp87
asg27
I200
sba(imain2
Polygon
p88
(dp89
g3
(I48
I136
tp90
sg5
I200
sg6
(I102
I109
I142
I48
tp91
sg8
(lp92
(I78
I127
tp93
a(I87
I127
tp94
a(I82
I171
tp95
a(I43
I102
tp96
a(I5
I168
tp97
a(I60
I171
tp98
a(I89
I93
tp99
a(I16
I112
tp100
a(I78
I105
tp101
a(I86
I178
tp102
a(I47
I126
tp103
a(I46
I109
tp104
a(I2
I151
tp105
a(I64
I175
tp106
a(I58
I161
tp107
a(I45
I165
tp108
a(I87
I144
tp109
a(I84
I97
tp110
a(I97
I86
tp111
a(I78
I145
tp112
asg27
I200
sba(imain2
Polygon
p113
(dp114
g3
(I118
I72
tp115
sg5
I200
sg6
(I132
I136
I59
I45
tp116
sg8
(lp117
(I99
I82
tp118
a(I118
I81
tp119
a(I118
I115
tp120
a(I126
I57
tp121
a(I89
I36
tp122
a(I68
I93
tp123
a(I104
I108
tp124
a(I97
I43
tp125
asg27
I200
sba(imain2
Polygon
p126
(dp127
g3
(I75
I194
tp128
sg5
I200
sg6
(I210
I85
I103
I0
tp129
sg8
(lp130
(I38
I200
tp131
a(I81
I145
tp132
a(I100
I167
tp133
a(I64
I200
tp134
a(I92
I188
tp135
a(I72
I157
tp136
asg27
I200
sba(imain2
Polygon
p137
(dp138
g3
(I7
I180
tp139
sg5
I200
sg6
(I231
I32
I1
I1
tp140
sg8
(lp141
(I24
I177
tp142
a(I0
I200
tp143
a(I0
I200
tp144
a(I8
I136
tp145
a(I0
I192
tp146
a(I41
I140
tp147
a(I15
I200
tp148
a(I26
I166
tp149
a(I0
I163
tp150
a(I0
I188
tp151
a(I0
I161
tp152
a(I15
I137
tp153
asg27
I200
sba(imain2
Polygon
p154
(dp155
g3
(I200
I5
tp156
sg5
I200
sg6
(I172
I75
I111
I26
tp157
sg8
(lp158
(I200
I0
tp159
a(I172
I0
tp160
a(I179
I0
tp161
a(I155
I28
tp162
a(I185
I7
tp163
a(I200
I7
tp164
a(I200
I45
tp165
a(I155
I15
tp166
a(I199
I0
tp167
a(I196
I52
tp168
asg27
I200
sba(imain2
Polygon
p169
(dp170
g3
(I180
I27
tp171
sg5
I200
sg6
(I103
I110
I153
I0
tp172
sg8
(lp173
(I200
I66
tp174
a(I156
I65
tp175
a(I200
I4
tp176
a(I162
I29
tp177
a(I160
I32
tp178
a(I200
I4
tp179
a(I138
I4
tp180
a(I147
I0
tp181
a(I160
I38
tp182
a(I169
I65
tp183
a(I160
I0
tp184
a(I200
I67
tp185
a(I161
I58
tp186
asg27
I200
sba(imain2
Polygon
p187
(dp188
g3
(I59
I197
tp189
sg5
I200
sg6
(I79
I205
I135
I124
tp190
sg8
(lp191
(I98
I200
tp192
a(I93
I157
tp193
a(I71
I197
tp194
a(I54
I200
tp195
a(I33
I200
tp196
asg27
I200
sba(imain2
Polygon
p197
(dp198
g3
(I129
I124
tp199
sg5
I200
sg6
(I169
I187
I95
I55
tp200
sg8
(lp201
(I122
I123
tp202
a(I92
I168
tp203
a(I130
I89
tp204
a(I111
I89
tp205
a(I104
I118
tp206
a(I88
I150
tp207
a(I119
I138
tp208
a(I82
I90
tp209
a(I85
I118
tp210
asg27
I200
sba(imain2
Polygon
p211
(dp212
g3
(I107
I2
tp213
sg5
I200
sg6
(I47
I1
I159
I99
tp214
sg8
(lp215
(I83
I0
tp216
a(I107
I0
tp217
a(I97
I0
tp218
a(I62
I0
tp219
a(I90
I0
tp220
a(I106
I7
tp221
a(I142
I27
tp222
a(I156
I2
tp223
a(I132
I26
tp224
asg27
I200
sba(imain2
Polygon
p225
(dp226
g3
(I25
I107
tp227
sg5
I200
sg6
(I100
I25
I168
I1
tp228
sg8
(lp229
(I30
I146
tp230
a(I41
I66
tp231
a(I72
I82
tp232
a(I0
I68
tp233
a(I47
I76
tp234
a(I61
I150
tp235
a(I56
I122
tp236
a(I56
I62
tp237
a(I0
I59
tp238
a(I3
I58
tp239
a(I9
I75
tp240
a(I69
I74
tp241
a(I7
I57
tp242
a(I52
I137
tp243
asg27
I200
sba(imain2
Polygon
p244
(dp245
g3
(I194
I197
tp246
sg5
I200
sg6
(I5
I194
I62
I81
tp247
sg8
(lp248
(I193
I168
tp249
a(I200
I200
tp250
a(I200
I180
tp251
a(I199
I156
tp252
asg27
I200
sba(imain2
Polygon
p253
(dp254
g3
(I8
I2
tp255
sg5
I200
sg6
(I204
I193
I217
I1
tp256
sg8
(lp257
(I6
I8
tp258
a(I36
I0
tp259
a(I16
I0
tp260
a(I5
I25
tp261
a(I0
I0
tp262
a(I57
I0
tp263
a(I9
I17
tp264
a(I52
I0
tp265
a(I0
I45
tp266
a(I45
I0
tp267
a(I55
I0
tp268
a(I0
I0
tp269
asg27
I200
sba(imain2
Polygon
p270
(dp271
g3
(I171
I144
tp272
sg5
I200
sg6
(I108
I155
I184
I0
tp273
sg8
(lp274
(I178
I114
tp275
a(I126
I156
tp276
a(I200
I110
tp277
a(I153
I190
tp278
a(I148
I190
tp279
a(I178
I125
tp280
a(I126
I121
tp281
a(I145
I130
tp282
asg27
I200
sba(imain2
Polygon
p283
(dp284
g3
(I44
I42
tp285
sg5
I200
sg6
(I76
I126
I71
I1
tp286
sg8
(lp287
(I29
I80
tp288
a(I41
I39
tp289
a(I91
I0
tp290
a(I69
I42
tp291
a(I86
I82
tp292
a(I88
I72
tp293
asg27
I200
sba(imain2
Polygon
p294
(dp295
g3
(I26
I99
tp296
sg5
I200
sg6
(I165
I96
I166
I61
tp297
sg8
(lp298
(I56
I57
tp299
a(I54
I125
tp300
a(I69
I134
tp301
a(I72
I53
tp302
asg27
I200
sba(imain2
Polygon
p303
(dp304
g3
(I114
I46
tp305
sg5
I200
sg6
(I95
I191
I193
I1
tp306
sg8
(lp307
(I79
I0
tp308
a(I126
I34
tp309
a(I145
I56
tp310
a(I90
I66
tp311
a(I111
I68
tp312
a(I104
I20
tp313
a(I81
I83
tp314
asg27
I200
sba(imain2
Polygon
p315
(dp316
g3
(I68
I194
tp317
sg5
I200
sg6
(I85
I191
I147
I1
tp318
sg8
(lp319
(I43
I200
tp320
a(I52
I200
tp321
a(I37
I184
tp322
a(I65
I200
tp323
a(I57
I192
tp324
a(I73
I172
tp325
asg27
I200
sba(imain2
Polygon
p326
(dp327
g3
(I200
I53
tp328
sg5
I200
sg6
(I177
I181
I163
I0
tp329
sg8
(lp330
(I183
I79
tp331
a(I152
I41
tp332
a(I200
I31
tp333
asg27
I200
sba(imain2
Polygon
p334
(dp335
g3
(I172
I155
tp336
sg5
I200
sg6
(I196
I75
I240
I1
tp337
sg8
(lp338
(I156
I193
tp339
a(I186
I170
tp340
a(I159
I155
tp341
a(I125
I176
tp342
a(I177
I157
tp343
a(I149
I135
tp344
a(I138
I123
tp345
a(I137
I184
tp346
a(I166
I121
tp347
a(I154
I196
tp348
a(I127
I165
tp349
a(I148
I197
tp350
asg27
I200
sba(imain2
Polygon
p351
(dp352
g3
(I154
I159
tp353
sg5
I200
sg6
(I52
I205
I31
I0
tp354
sg8
(lp355
(I150
I131
tp356
a(I122
I109
tp357
a(I164
I130
tp358
a(I127
I131
tp359
a(I176
I190
tp360
a(I178
I195
tp361
a(I141
I167
tp362
a(I171
I135
tp363
a(I160
I110
tp364
a(I159
I171
tp365
a(I147
I168
tp366
asg27
I200
sba(imain2
Polygon
p367
(dp368
g3
(I55
I59
tp369
sg5
I200
sg6
(I71
I191
I200
I1
tp370
sg8
(lp371
(I35
I56
tp372
a(I83
I49
tp373
a(I85
I40
tp374
a(I36
I16
tp375
a(I88
I54
tp376
a(I22
I16
tp377
a(I82
I44
tp378
a(I47
I28
tp379
a(I66
I10
tp380
a(I103
I76
tp381
a(I25
I105
tp382
a(I102
I65
tp383
a(I36
I25
tp384
a(I103
I88
tp385
a(I47
I104
tp386
a(I89
I41
tp387
a(I21
I16
tp388
a(I7
I61
tp389
a(I17
I70
tp390
a(I12
I21
tp391
a(I46
I100
tp392
asg27
I200
sba(imain2
Polygon
p393
(dp394
g3
(I127
I147
tp395
sg5
I200
sg6
(I45
I64
I111
I85
tp396
sg8
(lp397
(I109
I194
tp398
a(I79
I101
tp399
a(I97
I160
tp400
a(I161
I191
tp401
asg27
I200
sba(imain2
Polygon
p402
(dp403
g3
(I123
I114
tp404
sg5
I200
sg6
(I115
I0
I5
I1
tp405
sg8
(lp406
(I118
I78
tp407
a(I162
I88
tp408
a(I167
I90
tp409
a(I86
I139
tp410
a(I118
I115
tp411
a(I102
I142
tp412
a(I161
I129
tp413
asg27
I200
sba(imain2
Polygon
p414
(dp415
g3
(I2
I51
tp416
sg5
I200
sg6
(I121
I137
I221
I0
tp417
sg8
(lp418
(I0
I85
tp419
a(I0
I10
tp420
a(I0
I4
tp421
a(I0
I44
tp422
a(I0
I20
tp423
a(I0
I61
tp424
a(I0
I75
tp425
a(I22
I88
tp426
a(I22
I98
tp427
a(I0
I7
tp428
a(I0
I75
tp429
asg27
I200
sba(imain2
Polygon
p430
(dp431
g3
(I166
I21
tp432
sg5
I200
sg6
(I210
I244
I213
I75
tp433
sg8
(lp434
(I200
I0
tp435
a(I200
I59
tp436
a(I169
I70
tp437
a(I131
I0
tp438
a(I153
I0
tp439
a(I131
I6
tp440
a(I135
I0
tp441
a(I200
I0
tp442
a(I190
I0
tp443
asg27
I200
sba(imain2
Polygon
p444
(dp445
g3
(I110
I91
tp446
sg5
I200
sg6
(I125
I30
I28
I0
tp447
sg8
(lp448
(I78
I111
tp449
a(I70
I70
tp450
a(I80
I118
tp451
a(I153
I89
tp452
a(I69
I141
tp453
a(I81
I95
tp454
a(I68
I96
tp455
a(I100
I114
tp456
a(I109
I100
tp457
a(I67
I66
tp458
a(I94
I93
tp459
a(I75
I65
tp460
a(I150
I136
tp461
a(I130
I41
tp462
a(I104
I65
tp463
a(I92
I48
tp464
a(I114
I65
tp465
a(I139
I58
tp466
a(I134
I101
tp467
asg27
I200
sba(imain2
Polygon
p468
(dp469
g3
(I148
I41
tp470
sg5
I200
sg6
(I156
I1
I204
I0
tp471
sg8
(lp472
(I103
I13
tp473
a(I127
I19
tp474
a(I192
I6
tp475
a(I130
I54
tp476
a(I155
I13
tp477
a(I138
I62
tp478
a(I160
I9
tp479
a(I110
I80
tp480
a(I103
I84
tp481
a(I114
I14
tp482
a(I153
I30
tp483
a(I135
I21
tp484
a(I144
I23
tp485
asg27
I200
sba(imain2
Polygon
p486
(dp487
g3
(I188
I159
tp488
sg5
I200
sg6
(I158
I68
I63
I0
tp489
sg8
(lp490
(I153
I158
tp491
a(I164
I115
tp492
a(I200
I197
tp493
a(I200
I137
tp494
a(I158
I121
tp495
a(I200
I111
tp496
a(I156
I170
tp497
asg27
I200
sba(imain2
Polygon
p498
(dp499
g3
(I55
I106
tp500
sg5
I200
sg6
(I54
I89
I39
I0
tp501
sg8
(lp502
(I69
I94
tp503
a(I70
I97
tp504
a(I74
I146
tp505
a(I54
I93
tp506
a(I46
I114
tp507
a(I99
I105
tp508
a(I75
I126
tp509
a(I31
I130
tp510
a(I92
I93
tp511
asg27
I200
sba(imain2
Polygon
p512
(dp513
g3
(I118
I64
tp514
sg5
I200
sg6
(I126
I36
I2
I0
tp515
sg8
(lp516
(I131
I17
tp517
a(I88
I65
tp518
a(I149
I49
tp519
a(I137
I15
tp520
a(I149
I42
tp521
a(I95
I23
tp522
a(I100
I81
tp523
a(I146
I72
tp524
a(I160
I97
tp525
a(I88
I20
tp526
a(I123
I23
tp527
a(I105
I36
tp528
a(I98
I55
tp529
asg27
I200
sba(imain2
Polygon
p530
(dp531
g3
(I101
I127
tp532
sg5
I200
sg6
(I83
I171
I94
I58
tp533
sg8
(lp534
(I82
I132
tp535
a(I60
I130
tp536
a(I118
I127
tp537
a(I132
I81
tp538
a(I63
I110
tp539
a(I134
I145
tp540
asg27
I200
sba(imain2
Polygon
p541
(dp542
g3
(I42
I89
tp543
sg5
I200
sg6
(I15
I90
I176
I0
tp544
sg8
(lp545
(I82
I88
tp546
a(I34
I55
tp547
a(I79
I129
tp548
a(I78
I95
tp549
a(I15
I128
tp550
a(I61
I62
tp551
a(I0
I99
tp552
a(I39
I127
tp553
a(I53
I130
tp554
a(I36
I80
tp555
asg27
I200
sba(imain2
Polygon
p556
(dp557
g3
(I71
I151
tp558
sg5
I200
sg6
(I150
I167
I219
I120
tp559
sg8
(lp560
(I59
I125
tp561
a(I74
I126
tp562
a(I115
I198
tp563
a(I68
I200
tp564
a(I91
I177
tp565
a(I121
I195
tp566
asg27
I200
sba(imain2
Polygon
p567
(dp568
g3
(I13
I141
tp569
sg5
I200
sg6
(I241
I1
I193
I1
tp570
sg8
(lp571
(I0
I134
tp572
a(I0
I168
tp573
a(I0
I162
tp574
a(I28
I147
tp575
a(I53
I153
tp576
a(I7
I133
tp577
a(I16
I119
tp578
a(I31
I95
tp579
a(I38
I142
tp580
a(I47
I102
tp581
a(I52
I124
tp582
a(I63
I126
tp583
asg27
I200
sba(imain2
Polygon
p584
(dp585
g3
(I37
I11
tp586
sg5
I200
sg6
(I112
I18
I9
I85
tp587
sg8
(lp588
(I77
I0
tp589
a(I0
I56
tp590
a(I15
I11
tp591
a(I20
I28
tp592
a(I3
I0
tp593
a(I70
I6
tp594
a(I61
I0
tp595
asg27
I200
sba(imain2
Polygon
p596
(dp597
g3
(I97
I114
tp598
sg5
I200
sg6
(I144
I8
I201
I66
tp599
sg8
(lp600
(I126
I160
tp601
a(I86
I149
tp602
a(I121
I97
tp603
a(I126
I64
tp604
a(I62
I77
tp605
a(I84
I101
tp606
a(I48
I82
tp607
a(I75
I158
tp608
a(I100
I154
tp609
a(I115
I101
tp610
a(I51
I65
tp611
a(I84
I72
tp612
a(I76
I71
tp613
a(I110
I85
tp614
a(I80
I151
tp615
a(I113
I101
tp616
a(I64
I125
tp617
a(I75
I78
tp618
a(I57
I142
tp619
asg27
I200
sba(imain2
Polygon
p620
(dp621
g3
(I77
I12
tp622
sg5
I200
sg6
(I100
I0
I194
I0
tp623
sg8
(lp624
(I97
I0
tp625
a(I85
I0
tp626
a(I31
I43
tp627
a(I46
I41
tp628
a(I50
I51
tp629
a(I116
I55
tp630
a(I69
I0
tp631
a(I96
I0
tp632
a(I51
I42
tp633
asg27
I200
sba(imain2
Polygon
p634
(dp635
g3
(I114
I16
tp636
sg5
I200
sg6
(I1
I99
I176
I136
tp637
sg8
(lp638
(I119
I24
tp639
a(I151
I0
tp640
a(I71
I2
tp641
a(I142
I23
tp642
a(I160
I13
tp643
a(I130
I13
tp644
asg27
I200
sba(imain2
Polygon
p645
(dp646
g3
(I150
I10
tp647
sg5
I200
sg6
(I109
I56
I223
I146
tp648
sg8
(lp649
(I119
I0
tp650
a(I175
I1
tp651
a(I132
I0
tp652
a(I182
I0
tp653
a(I129
I11
tp654
a(I119
I18
tp655
a(I101
I0
tp656
a(I137
I0
tp657
a(I174
I0
tp658
a(I170
I0
tp659
a(I150
I0
tp660
asg27
I200
sba(imain2
Polygon
p661
(dp662
g3
(I41
I10
tp663
sg5
I200
sg6
(I112
I202
I82
I0
tp664
sg8
(lp665
(I28
I17
tp666
a(I23
I53
tp667
a(I0
I4
tp668
a(I0
I0
tp669
a(I60
I0
tp670
asg27
I200
sba(imain2
Polygon
p671
(dp672
g3
(I174
I159
tp673
sg5
I200
sg6
(I168
I106
I84
I86
tp674
sg8
(lp675
(I200
I125
tp676
a(I200
I200
tp677
a(I184
I191
tp678
a(I168
I116
tp679
a(I200
I121
tp680
a(I200
I173
tp681
a(I200
I119
tp682
asg27
I200
sba(imain2
Polygon
p683
(dp684
g3
(I61
I97
tp685
sg5
I200
sg6
(I122
I31
I105
I79
tp686
sg8
(lp687
(I66
I87
tp688
a(I94
I137
tp689
a(I64
I49
tp690
a(I103
I82
tp691
a(I64
I94
tp692
a(I102
I53
tp693
a(I108
I74
tp694
a(I96
I125
tp695
a(I52
I115
tp696
a(I50
I59
tp697
asg27
I200
sba(imain2
Polygon
p698
(dp699
g3
(I180
I97
tp700
sg5
I200
sg6
(I158
I153
I196
I1
tp701
sg8
(lp702
(I180
I99
tp703
a(I200
I54
tp704
a(I200
I62
tp705
a(I172
I65
tp706
a(I200
I145
tp707
a(I196
I133
tp708
a(I179
I133
tp709
a(I200
I63
tp710
asg27
I200
sba(imain2
Polygon
p711
(dp712
g3
(I101
I122
tp713
sg5
I200
sg6
(I162
I83
I1
I56
tp714
sg8
(lp715
(I87
I91
tp716
a(I111
I157
tp717
a(I98
I108
tp718
a(I93
I147
tp719
a(I122
I142
tp720
a(I125
I80
tp721
a(I61
I152
tp722
a(I62
I88
tp723
a(I147
I140
tp724
a(I58
I84
tp725
a(I77
I77
tp726
a(I124
I77
tp727
asg27
I200
sba(imain2
Polygon
p728
(dp729
g3
(I131
I15
tp730
sg5
I200
sg6
(I56
I126
I126
I0
tp731
sg8
(lp732
(I154
I0
tp733
a(I140
I8
tp734
a(I179
I62
tp735
a(I91
I0
tp736
a(I82
I0
tp737
a(I95
I0
tp738
a(I81
I62
tp739
a(I131
I0
tp740
a(I91
I0
tp741
a(I102
I0
tp742
asg27
I200
sba(imain2
Polygon
p743
(dp744
g3
(I113
I24
tp745
sg5
I200
sg6
(I147
I239
I0
I1
tp746
sg8
(lp747
(I163
I0
tp748
a(I88
I27
tp749
a(I85
I60
tp750
a(I123
I70
tp751
a(I125
I3
tp752
a(I115
I8
tp753
a(I117
I66
tp754
a(I110
I46
tp755
a(I138
I18
tp756
a(I122
I0
tp757
a(I77
I58
tp758
a(I110
I0
tp759
a(I163
I41
tp760
asg27
I200
sba(imain2
Polygon
p761
(dp762
g3
(I15
I21
tp763
sg5
I200
sg6
(I41
I40
I23
I0
tp764
sg8
(lp765
(I8
I18
tp766
a(I2
I12
tp767
a(I59
I59
tp768
a(I51
I26
tp769
a(I50
I29
tp770
a(I38
I50
tp771
a(I2
I0
tp772
a(I15
I36
tp773
a(I0
I44
tp774
a(I39
I0
tp775
asg27
I200
sba(imain2
Polygon
p776
(dp777
g3
(I75
I18
tp778
sg5
I200
sg6
(I118
I124
I38
I135
tp779
sg8
(lp780
(I98
I0
tp781
a(I82
I30
tp782
a(I76
I17
tp783
a(I90
I0
tp784
a(I32
I0
tp785
a(I29
I0
tp786
a(I70
I49
tp787
a(I31
I0
tp788
a(I64
I30
tp789
a(I77
I0
tp790
a(I26
I62
tp791
a(I118
I0
tp792
a(I123
I13
tp793
a(I25
I19
tp794
a(I53
I67
tp795
a(I111
I64
tp796
a(I124
I63
tp797
a(I72
I12
tp798
a(I104
I7
tp799
a(I73
I11
tp800
a(I54
I26
tp801
asg27
I200
sba(imain2
Polygon
p802
(dp803
g3
(I147
I31
tp804
sg5
I200
sg6
(I240
I1
I220
I130
tp805
sg8
(lp806
(I197
I0
tp807
a(I196
I42
tp808
a(I180
I38
tp809
a(I168
I65
tp810
a(I153
I34
tp811
a(I193
I77
tp812
a(I187
I24
tp813
a(I176
I51
tp814
a(I126
I17
tp815
a(I97
I10
tp816
a(I130
I0
tp817
asg27
I200
sba(imain2
Polygon
p818
(dp819
g3
(I43
I128
tp820
sg5
I200
sg6
(I89
I21
I103
I111
tp821
sg8
(lp822
(I6
I108
tp823
a(I0
I99
tp824
a(I15
I103
tp825
a(I5
I162
tp826
a(I19
I96
tp827
a(I3
I155
tp828
asg27
I200
sba(imain2
Polygon
p829
(dp830
g3
(I191
I52
tp831
sg5
I200
sg6
(I138
I139
I97
I1
tp832
sg8
(lp833
(I200
I4
tp834
a(I200
I26
tp835
a(I179
I57
tp836
a(I160
I85
tp837
a(I200
I9
tp838
a(I200
I78
tp839
a(I150
I21
tp840
a(I186
I45
tp841
a(I162
I13
tp842
asg27
I200
sba(imain2
Polygon
p843
(dp844
g3
(I124
I96
tp845
sg5
I200
sg6
(I220
I84
I119
I1
tp846
sg8
(lp847
(I156
I93
tp848
a(I142
I107
tp849
a(I106
I89
tp850
a(I142
I104
tp851
a(I100
I144
tp852
a(I91
I110
tp853
a(I109
I135
tp854
a(I102
I110
tp855
a(I81
I129
tp856
a(I157
I142
tp857
a(I167
I108
tp858
a(I164
I73
tp859
asg27
I200
sba(imain2
Polygon
p860
(dp861
g3
(I14
I107
tp862
sg5
I200
sg6
(I54
I1
I216
I114
tp863
sg8
(lp864
(I0
I128
tp865
a(I0
I102
tp866
a(I6
I81
tp867
a(I0
I109
tp868
asg27
I200
sba(imain2
Polygon
p869
(dp870
g3
(I84
I159
tp871
sg5
I200
sg6
(I49
I9
I191
I1
tp872
sg8
(lp873
(I88
I152
tp874
a(I90
I134
tp875
a(I51
I133
tp876
a(I113
I185
tp877
a(I101
I200
tp878
a(I118
I139
tp879
a(I101
I138
tp880
a(I64
I172
tp881
a(I99
I119
tp882
asg27
I200
sba(imain2
Polygon
p883
(dp884
g3
(I141
I115
tp885
sg5
I200
sg6
(I236
I169
I168
I1
tp886
sg8
(lp887
(I180
I117
tp888
a(I152
I78
tp889
a(I126
I104
tp890
asg27
I200
sba(imain2
Polygon
p891
(dp892
g3
(I199
I78
tp893
sg5
I200
sg6
(I204
I198
I82
I117
tp894
sg8
(lp895
(I151
I34
tp896
a(I153
I30
tp897
a(I200
I28
tp898
a(I200
I125
tp899
a(I164
I113
tp900
a(I175
I100
tp901
a(I171
I79
tp902
asg27
I200
sba(imain2
Polygon
p903
(dp904
g3
(I167
I90
tp905
sg5
I200
sg6
(I32
I185
I28
I35
tp906
sg8
(lp907
(I193
I65
tp908
a(I200
I99
tp909
a(I182
I102
tp910
a(I200
I85
tp911
a(I155
I50
tp912
asg27
I200
sba(imain2
Polygon
p913
(dp914
g3
(I17
I14
tp915
sg5
I200
sg6
(I1
I7
I90
I17
tp916
sg8
(lp917
(I37
I26
tp918
a(I0
I12
tp919
a(I30
I27
tp920
a(I0
I8
tp921
a(I21
I0
tp922
a(I0
I0
tp923
a(I0
I17
tp924
a(I0
I29
tp925
a(I0
I0
tp926
a(I23
I18
tp927
a(I0
I50
tp928
a(I44
I1
tp929
a(I0
I2
tp930
a(I8
I0
tp931
a(I17
I0
tp932
asg27
I200
sba(imain2
Polygon
p933
(dp934
g3
(I190
I180
tp935
sg5
I200
sg6
(I224
I100
I46
I0
tp936
sg8
(lp937
(I197
I149
tp938
a(I156
I200
tp939
a(I200
I200
tp940
a(I200
I200
tp941
a(I181
I178
tp942
asg27
I200
sba(imain2
Polygon
p943
(dp944
g3
(I70
I166
tp945
sg5
I200
sg6
(I105
I177
I0
I1
tp946
sg8
(lp947
(I106
I200
tp948
a(I112
I200
tp949
a(I84
I188
tp950
a(I77
I128
tp951
a(I36
I127
tp952
a(I110
I188
tp953
a(I48
I131
tp954
a(I106
I184
tp955
a(I58
I200
tp956
asg27
I200
sba(imain2
Polygon
p957
(dp958
g3
(I196
I185
tp959
sg5
I200
sg6
(I17
I153
I128
I1
tp960
sg8
(lp961
(I153
I200
tp962
a(I200
I163
tp963
a(I200
I200
tp964
a(I151
I200
tp965
a(I150
I137
tp966
a(I200
I200
tp967
asg27
I200
sba(imain2
Polygon
p968
(dp969
g3
(I48
I123
tp970
sg5
I200
sg6
(I164
I42
I15
I81
tp971
sg8
(lp972
(I8
I113
tp973
a(I8
I127
tp974
a(I0
I97
tp975
a(I22
I76
tp976
a(I46
I104
tp977
a(I58
I146
tp978
a(I89
I76
tp979
a(I9
I121
tp980
a(I27
I162
tp981
a(I11
I146
tp982
asg27
I200
sba(imain2
Polygon
p983
(dp984
g3
(I59
I97
tp985
sg5
I200
sg6
(I202
I47
I124
I14
tp986
sg8
(lp987
(I70
I135
tp988
a(I85
I54
tp989
a(I45
I47
tp990
a(I104
I120
tp991
a(I44
I80
tp992
a(I63
I132
tp993
a(I67
I65
tp994
a(I107
I141
tp995
a(I83
I125
tp996
a(I74
I134
tp997
asg27
I200
sba(imain2
Polygon
p998
(dp999
g3
(I17
I149
tp1000
sg5
I200
sg6
(I0
I35
I154
I1
tp1001
sg8
(lp1002
(I0
I124
tp1003
a(I0
I184
tp1004
a(I0
I172
tp1005
a(I5
I196
tp1006
a(I17
I138
tp1007
a(I0
I171
tp1008
a(I55
I198
tp1009
a(I22
I101
tp1010
asg27
I200
sba(imain2
Polygon
p1011
(dp1012
g3
(I88
I2
tp1013
sg5
I200
sg6
(I2
I101
I60
I37
tp1014
sg8
(lp1015
(I76
I0
tp1016
a(I122
I0
tp1017
a(I48
I0
tp1018
a(I105
I20
tp1019
a(I82
I0
tp1020
a(I78
I0
tp1021
a(I113
I12
tp1022
asg27
I200
sba(imain2
Polygon
p1023
(dp1024
g3
(I3
I161
tp1025
sg5
I200
sg6
(I173
I17
I188
I1
tp1026
sg8
(lp1027
(I21
I162
tp1028
a(I0
I169
tp1029
a(I0
I141
tp1030
a(I41
I178
tp1031
a(I0
I124
tp1032
a(I0
I163
tp1033
a(I0
I168
tp1034
a(I11
I145
tp1035
a(I0
I121
tp1036
asg27
I200
sba(imain2
Polygon
p1037
(dp1038
g3
(I98
I58
tp1039
sg5
I200
sg6
(I36
I61
I167
I1
tp1040
sg8
(lp1041
(I126
I105
tp1042
a(I68
I69
tp1043
a(I71
I81
tp1044
a(I74
I104
tp1045
a(I52
I73
tp1046
a(I125
I37
tp1047
a(I127
I34
tp1048
asg27
I200
sba(imain2
Polygon
p1049
(dp1050
g3
(I109
I111
tp1051
sg5
I200
sg6
(I225
I35
I97
I0
tp1052
sg8
(lp1053
(I91
I100
tp1054
a(I96
I159
tp1055
a(I64
I113
tp1056
a(I109
I97
tp1057
a(I135
I157
tp1058
a(I147
I83
tp1059
a(I140
I71
tp1060
a(I83
I82
tp1061
a(I126
I115
tp1062
a(I121
I150
tp1063
asg27
I200
sba(imain2
Polygon
p1064
(dp1065
g3
(I83
I155
tp1066
sg5
I200
sg6
(I201
I40
I179
I6
tp1067
sg8
(lp1068
(I67
I145
tp1069
a(I129
I115
tp1070
a(I132
I200
tp1071
a(I58
I195
tp1072
a(I112
I160
tp1073
a(I60
I111
tp1074
a(I110
I188
tp1075
a(I51
I131
tp1076
a(I87
I167
tp1077
a(I102
I130
tp1078
a(I90
I159
tp1079
a(I106
I115
tp1080
a(I76
I160
tp1081
a(I84
I144
tp1082
a(I33
I118
tp1083
a(I81
I114
tp1084
a(I112
I109
tp1085
a(I43
I119
tp1086
asg27
I200
sba(imain2
Polygon
p1087
(dp1088
g3
(I81
I21
tp1089
sg5
I200
sg6
(I135
I0
I24
I95
tp1090
sg8
(lp1091
(I94
I1
tp1092
a(I110
I0
tp1093
a(I90
I0
tp1094
a(I122
I60
tp1095
a(I103
I58
tp1096
a(I38
I0
tp1097
a(I64
I20
tp1098
a(I80
I0
tp1099
asg27
I200
sba(imain2
Polygon
p1100
(dp1101
g3
(I77
I115
tp1102
sg5
I200
sg6
(I90
I234
I216
I1
tp1103
sg8
(lp1104
(I39
I74
tp1105
a(I45
I102
tp1106
a(I59
I149
tp1107
a(I81
I144
tp1108
a(I83
I96
tp1109
a(I85
I78
tp1110
a(I126
I153
tp1111
a(I34
I138
tp1112
asg27
I200
sba(imain2
Polygon
p1113
(dp1114
g3
(I108
I110
tp1115
sg5
I200
sg6
(I141
I114
I142
I1
tp1116
sg8
(lp1117
(I128
I152
tp1118
a(I143
I78
tp1119
a(I76
I135
tp1120
a(I129
I123
tp1121
a(I153
I68
tp1122
a(I129
I106
tp1123
a(I101
I139
tp1124
a(I110
I143
tp1125
a(I109
I107
tp1126
a(I137
I94
tp1127
a(I104
I133
tp1128
asg27
I200
sba(imain2
Polygon
p1129
(dp1130
g3
(I7
I122
tp1131
sg5
I200
sg6
(I150
I1
I155
I1
tp1132
sg8
(lp1133
(I1
I75
tp1134
a(I26
I136
tp1135
a(I40
I82
tp1136
a(I0
I168
tp1137
a(I15
I147
tp1138
a(I47
I133
tp1139
a(I0
I158
tp1140
a(I48
I92
tp1141
a(I46
I97
tp1142
a(I0
I145
tp1143
a(I0
I160
tp1144
a(I6
I142
tp1145
a(I24
I123
tp1146
a(I23
I87
tp1147
asg27
I200
sba(imain2
Polygon
p1148
(dp1149
g3
(I105
I20
tp1150
sg5
I200
sg6
(I211
I24
I227
I0
tp1151
sg8
(lp1152
(I68
I0
tp1153
a(I73
I0
tp1154
a(I85
I12
tp1155
a(I66
I0
tp1156
a(I138
I42
tp1157
a(I57
I22
tp1158
a(I142
I57
tp1159
asg27
I200
sba(imain2
Polygon
p1160
(dp1161
g3
(I47
I80
tp1162
sg5
I200
sg6
(I104
I46
I113
I6
tp1163
sg8
(lp1164
(I55
I102
tp1165
a(I79
I102
tp1166
a(I24
I107
tp1167
a(I84
I96
tp1168
a(I96
I67
tp1169
a(I97
I99
tp1170
a(I75
I53
tp1171
a(I52
I37
tp1172
a(I11
I37
tp1173
a(I13
I128
tp1174
a(I64
I108
tp1175
a(I23
I50
tp1176
a(I85
I58
tp1177
a(I68
I94
tp1178
a(I82
I49
tp1179
a(I8
I102
tp1180
a(I84
I126
tp1181
a(I90
I110
tp1182
a(I54
I57
tp1183
a(I13
I123
tp1184
asg27
I200
sba(imain2
Polygon
p1185
(dp1186
g3
(I131
I30
tp1187
sg5
I200
sg6
(I202
I121
I167
I0
tp1188
sg8
(lp1189
(I87
I17
tp1190
a(I102
I0
tp1191
a(I162
I8
tp1192
asg27
I200
sba(imain2
Polygon
p1193
(dp1194
g3
(I199
I39
tp1195
sg5
I200
sg6
(I90
I187
I104
I51
tp1196
sg8
(lp1197
(I200
I0
tp1198
a(I150
I0
tp1199
a(I200
I89
tp1200
a(I200
I14
tp1201
asg27
I200
sba(imain2
Polygon
p1202
(dp1203
g3
(I110
I156
tp1204
sg5
I200
sg6
(I186
I90
I123
I0
tp1205
sg8
(lp1206
(I106
I166
tp1207
a(I116
I155
tp1208
a(I91
I200
tp1209
a(I160
I151
tp1210
a(I133
I138
tp1211
a(I63
I146
tp1212
a(I103
I170
tp1213
a(I76
I200
tp1214
a(I138
I148
tp1215
a(I121
I145
tp1216
a(I144
I153
tp1217
a(I127
I174
tp1218
a(I136
I149
tp1219
asg27
I200
sba(imain2
Polygon
p1220
(dp1221
g3
(I14
I89
tp1222
sg5
I200
sg6
(I199
I19
I24
I66
tp1223
sg8
(lp1224
(I0
I61
tp1225
a(I53
I72
tp1226
a(I55
I44
tp1227
a(I17
I118
tp1228
a(I0
I99
tp1229
a(I5
I50
tp1230
a(I11
I80
tp1231
a(I34
I109
tp1232
asg27
I200
sba(imain2
Polygon
p1233
(dp1234
g3
(I124
I127
tp1235
sg5
I200
sg6
(I171
I215
I170
I1
tp1236
sg8
(lp1237
(I119
I158
tp1238
a(I99
I92
tp1239
a(I81
I155
tp1240
a(I111
I115
tp1241
a(I114
I144
tp1242
a(I97
I169
tp1243
a(I170
I95
tp1244
a(I135
I124
tp1245
a(I104
I171
tp1246
a(I92
I110
tp1247
a(I100
I124
tp1248
a(I101
I170
tp1249
a(I154
I141
tp1250
a(I85
I154
tp1251
asg27
I200
sba(imain2
Polygon
p1252
(dp1253
g3
(I97
I78
tp1254
sg5
I200
sg6
(I146
I200
I157
I1
tp1255
sg8
(lp1256
(I62
I103
tp1257
a(I66
I110
tp1258
a(I110
I111
tp1259
a(I135
I109
tp1260
a(I118
I78
tp1261
a(I78
I58
tp1262
a(I55
I84
tp1263
a(I108
I101
tp1264
a(I55
I62
tp1265
a(I54
I111
tp1266
a(I77
I65
tp1267
asg27
I200
sba(imain2
Polygon
p1268
(dp1269
g3
(I71
I43
tp1270
sg5
I200
sg6
(I218
I209
I117
I1
tp1271
sg8
(lp1272
(I120
I75
tp1273
a(I38
I0
tp1274
a(I53
I38
tp1275
a(I49
I45
tp1276
a(I50
I41
tp1277
a(I24
I70
tp1278
a(I75
I14
tp1279
a(I39
I86
tp1280
asg27
I200
sba(imain2
Polygon
p1281
(dp1282
g3
(I109
I75
tp1283
sg5
I200
sg6
(I108
I159
I66
I117
tp1284
sg8
(lp1285
(I63
I26
tp1286
a(I62
I79
tp1287
a(I120
I76
tp1288
a(I87
I26
tp1289
a(I64
I35
tp1290
a(I71
I69
tp1291
a(I62
I35
tp1292
a(I91
I63
tp1293
asg27
I200
sba(imain2
Polygon
p1294
(dp1295
g3
(I149
I45
tp1296
sg5
I200
sg6
(I205
I139
I126
I84
tp1297
sg8
(lp1298
(I199
I90
tp1299
a(I165
I70
tp1300
a(I183
I12
tp1301
a(I128
I0
tp1302
a(I175
I87
tp1303
a(I158
I84
tp1304
a(I187
I0
tp1305
a(I194
I33
tp1306
a(I189
I0
tp1307
a(I130
I0
tp1308
a(I195
I19
tp1309
a(I199
I27
tp1310
asg27
I200
sba(imain2
Polygon
p1311
(dp1312
g3
(I29
I98
tp1313
sg5
I200
sg6
(I6
I134
I169
I32
tp1314
sg8
(lp1315
(I0
I145
tp1316
a(I75
I70
tp1317
a(I0
I73
tp1318
a(I0
I142
tp1319
a(I32
I77
tp1320
a(I67
I79
tp1321
a(I60
I84
tp1322
a(I47
I113
tp1323
a(I28
I90
tp1324
a(I56
I50
tp1325
a(I0
I116
tp1326
a(I19
I137
tp1327
asg27
I200
sba(imain2
Polygon
p1328
(dp1329
g3
(I90
I62
tp1330
sg5
I200
sg6
(I176
I116
I129
I1
tp1331
sg8
(lp1332
(I71
I20
tp1333
a(I61
I49
tp1334
a(I54
I78
tp1335
a(I125
I83
tp1336
a(I117
I52
tp1337
a(I63
I51
tp1338
asg27
I200
sba(imain2
Polygon
p1339
(dp1340
g3
(I63
I49
tp1341
sg5
I200
sg6
(I216
I249
I133
I1
tp1342
sg8
(lp1343
(I83
I99
tp1344
a(I60
I50
tp1345
a(I104
I44
tp1346
a(I14
I3
tp1347
a(I16
I27
tp1348
a(I35
I15
tp1349
a(I36
I61
tp1350
a(I99
I65
tp1351
a(I24
I58
tp1352
a(I80
I12
tp1353
a(I31
I14
tp1354
asg27
I200
sba(imain2
Polygon
p1355
(dp1356
g3
(I31
I132
tp1357
sg5
I200
sg6
(I73
I116
I195
I6
tp1358
sg8
(lp1359
(I8
I160
tp1360
a(I35
I167
tp1361
a(I5
I107
tp1362
a(I70
I131
tp1363
a(I53
I134
tp1364
a(I10
I143
tp1365
a(I0
I113
tp1366
a(I42
I100
tp1367
a(I0
I125
tp1368
a(I0
I146
tp1369
a(I14
I172
tp1370
a(I51
I169
tp1371
a(I28
I154
tp1372
a(I12
I140
tp1373
a(I69
I141
tp1374
a(I5
I164
tp1375
asg27
I200
sba(imain2
Polygon
p1376
(dp1377
g3
(I80
I158
tp1378
sg5
I200
sg6
(I24
I41
I57
I1
tp1379
sg8
(lp1380
(I60
I161
tp1381
a(I114
I200
tp1382
a(I54
I185
tp1383
a(I94
I151
tp1384
a(I69
I136
tp1385
a(I105
I129
tp1386
a(I74
I194
tp1387
a(I65
I200
tp1388
a(I111
I109
tp1389
a(I35
I139
tp1390
a(I124
I119
tp1391
a(I58
I172
tp1392
a(I126
I180
tp1393
a(I39
I119
tp1394
a(I37
I191
tp1395
a(I82
I200
tp1396
a(I120
I184
tp1397
a(I30
I146
tp1398
a(I38
I116
tp1399
a(I64
I164
tp1400
asg27
I200
sba(imain2
Polygon
p1401
(dp1402
g3
(I168
I51
tp1403
sg5
I200
sg6
(I97
I202
I209
I1
tp1404
sg8
(lp1405
(I120
I98
tp1406
a(I200
I20
tp1407
a(I200
I37
tp1408
a(I200
I31
tp1409
a(I196
I9
tp1410
a(I141
I16
tp1411
asg27
I200
sba(imain2
Polygon
p1412
(dp1413
g3
(I110
I14
tp1414
sg5
I200
sg6
(I156
I137
I49
I139
tp1415
sg8
(lp1416
(I118
I49
tp1417
a(I72
I59
tp1418
a(I101
I0
tp1419
a(I156
I0
tp1420
a(I158
I0
tp1421
a(I157
I28
tp1422
a(I70
I14
tp1423
a(I61
I0
tp1424
a(I67
I58
tp1425
a(I105
I0
tp1426
a(I135
I0
tp1427
a(I61
I0
tp1428
a(I77
I25
tp1429
asg27
I200
sba(imain2
Polygon
p1430
(dp1431
g3
(I85
I94
tp1432
sg5
I200
sg6
(I202
I232
I83
I63
tp1433
sg8
(lp1434
(I43
I56
tp1435
a(I110
I104
tp1436
a(I62
I48
tp1437
a(I105
I45
tp1438
a(I125
I73
tp1439
a(I92
I95
tp1440
a(I79
I138
tp1441
a(I109
I144
tp1442
a(I124
I111
tp1443
a(I62
I45
tp1444
a(I45
I66
tp1445
a(I55
I140
tp1446
a(I103
I103
tp1447
asg27
I200
sba(imain2
Polygon
p1448
(dp1449
g3
(I153
I81
tp1450
sg5
I200
sg6
(I121
I86
I189
I0
tp1451
sg8
(lp1452
(I197
I49
tp1453
a(I121
I118
tp1454
a(I150
I46
tp1455
a(I188
I103
tp1456
a(I163
I70
tp1457
a(I194
I108
tp1458
a(I194
I60
tp1459
a(I150
I42
tp1460
asg27
I200
sba(imain2
Polygon
p1461
(dp1462
g3
(I146
I37
tp1463
sg5
I200
sg6
(I227
I81
I154
I1
tp1464
sg8
(lp1465
(I166
I5
tp1466
a(I105
I34
tp1467
a(I105
I42
tp1468
a(I177
I33
tp1469
a(I170
I57
tp1470
a(I168
I0
tp1471
a(I178
I36
tp1472
a(I176
I68
tp1473
asg27
I200
sba(imain2
Polygon
p1474
(dp1475
g3
(I36
I71
tp1476
sg5
I200
sg6
(I177
I119
I133
I0
tp1477
sg8
(lp1478
(I67
I92
tp1479
a(I0
I69
tp1480
a(I71
I32
tp1481
a(I57
I71
tp1482
a(I48
I38
tp1483
a(I0
I51
tp1484
a(I42
I81
tp1485
a(I50
I114
tp1486
a(I58
I42
tp1487
a(I61
I117
tp1488
a(I2
I109
tp1489
asg27
I200
sba(imain2
Polygon
p1490
(dp1491
g3
(I36
I181
tp1492
sg5
I200
sg6
(I143
I212
I95
I66
tp1493
sg8
(lp1494
(I78
I149
tp1495
a(I38
I131
tp1496
a(I81
I147
tp1497
a(I71
I200
tp1498
a(I43
I172
tp1499
a(I0
I200
tp1500
a(I0
I149
tp1501
a(I66
I188
tp1502
a(I68
I200
tp1503
a(I71
I200
tp1504
asg27
I200
sba(imain2
Polygon
p1505
(dp1506
g3
(I94
I181
tp1507
sg5
I200
sg6
(I112
I48
I35
I0
tp1508
sg8
(lp1509
(I110
I200
tp1510
a(I73
I197
tp1511
a(I100
I142
tp1512
a(I119
I171
tp1513
a(I133
I167
tp1514
a(I107
I200
tp1515
a(I112
I200
tp1516
a(I73
I176
tp1517
a(I144
I145
tp1518
a(I63
I171
tp1519
asg27
I200
sba(imain2
Polygon
p1520
(dp1521
g3
(I4
I26
tp1522
sg5
I200
sg6
(I27
I104
I59
I39
tp1523
sg8
(lp1524
(I25
I0
tp1525
a(I1
I19
tp1526
a(I0
I38
tp1527
a(I0
I29
tp1528
a(I9
I3
tp1529
a(I54
I51
tp1530
a(I32
I59
tp1531
a(I21
I18
tp1532
a(I33
I48
tp1533
a(I0
I76
tp1534
a(I0
I0
tp1535
a(I48
I7
tp1536
a(I0
I38
tp1537
a(I30
I39
tp1538
a(I20
I0
tp1539
asg27
I200
sba(imain2
Polygon
p1540
(dp1541
g3
(I14
I45
tp1542
sg5
I200
sg6
(I145
I107
I0
I1
tp1543
sg8
(lp1544
(I0
I56
tp1545
a(I12
I26
tp1546
a(I26
I76
tp1547
a(I0
I32
tp1548
a(I25
I22
tp1549
a(I8
I81
tp1550
a(I42
I67
tp1551
a(I0
I73
tp1552
a(I37
I75
tp1553
a(I31
I14
tp1554
a(I6
I53
tp1555
asg27
I200
sba(imain2
Polygon
p1556
(dp1557
g3
(I103
I69
tp1558
sg5
I200
sg6
(I231
I218
I1
I36
tp1559
sg8
(lp1560
(I55
I36
tp1561
a(I53
I116
tp1562
a(I125
I109
tp1563
a(I135
I89
tp1564
a(I85
I19
tp1565
a(I102
I36
tp1566
asg27
I200
sba(imain2
Polygon
p1567
(dp1568
g3
(I61
I77
tp1569
sg5
I200
sg6
(I60
I120
I190
I119
tp1570
sg8
(lp1571
(I45
I115
tp1572
a(I88
I94
tp1573
a(I89
I87
tp1574
asg27
I200
sba(imain2
Polygon
p1575
(dp1576
g3
(I36
I98
tp1577
sg5
I200
sg6
(I0
I197
I72
I38
tp1578
sg8
(lp1579
(I28
I97
tp1580
a(I4
I90
tp1581
a(I0
I121
tp1582
a(I0
I53
tp1583
a(I80
I75
tp1584
a(I30
I53
tp1585
a(I0
I130
tp1586
a(I36
I48
tp1587
a(I42
I52
tp1588
a(I19
I124
tp1589
asg27
I200
sba(imain2
Polygon
p1590
(dp1591
g3
(I20
I133
tp1592
sg5
I200
sg6
(I196
I236
I132
I72
tp1593
sg8
(lp1594
(I30
I179
tp1595
a(I0
I181
tp1596
a(I0
I175
tp1597
a(I21
I139
tp1598
a(I28
I170
tp1599
asg27
I200
sba(imain2
Polygon
p1600
(dp1601
g3
(I178
I74
tp1602
sg5
I200
sg6
(I29
I119
I23
I0
tp1603
sg8
(lp1604
(I193
I110
tp1605
a(I186
I112
tp1606
a(I200
I57
tp1607
a(I200
I29
tp1608
a(I200
I85
tp1609
a(I200
I79
tp1610
a(I172
I86
tp1611
asg27
I200
sba(imain2
Polygon
p1612
(dp1613
g3
(I191
I151
tp1614
sg5
I200
sg6
(I237
I38
I74
I51
tp1615
sg8
(lp1616
(I168
I135
tp1617
a(I200
I123
tp1618
a(I200
I189
tp1619
asg27
I200
sba(imain2
Polygon
p1620
(dp1621
g3
(I81
I200
tp1622
sg5
I200
sg6
(I40
I57
I159
I24
tp1623
sg8
(lp1624
(I63
I200
tp1625
a(I38
I191
tp1626
a(I46
I200
tp1627
a(I78
I172
tp1628
a(I46
I200
tp1629
a(I103
I198
tp1630
a(I103
I200
tp1631
a(I49
I200
tp1632
a(I99
I200
tp1633
asg27
I200
sba(imain2
Polygon
p1634
(dp1635
g3
(I8
I200
tp1636
sg5
I200
sg6
(I235
I14
I64
I128
tp1637
sg8
(lp1638
(I0
I200
tp1639
a(I0
I200
tp1640
a(I41
I200
tp1641
a(I0
I200
tp1642
a(I0
I200
tp1643
a(I35
I200
tp1644
a(I0
I200
tp1645
a(I23
I200
tp1646
asg27
I200
sba(imain2
Polygon
p1647
(dp1648
g3
(I12
I187
tp1649
sg5
I200
sg6
(I222
I0
I177
I1
tp1650
sg8
(lp1651
(I23
I192
tp1652
a(I22
I200
tp1653
a(I0
I174
tp1654
a(I0
I174
tp1655
a(I3
I143
tp1656
a(I3
I200
tp1657
a(I42
I172
tp1658
a(I54
I200
tp1659
a(I0
I173
tp1660
a(I20
I145
tp1661
a(I16
I198
tp1662
a(I0
I200
tp1663
asg27
I200
sba(imain2
Polygon
p1664
(dp1665
g3
(I142
I43
tp1666
sg5
I200
sg6
(I49
I76
I163
I0
tp1667
sg8
(lp1668
(I129
I23
tp1669
a(I149
I90
tp1670
a(I150
I53
tp1671
a(I92
I48
tp1672
a(I118
I49
tp1673
a(I136
I59
tp1674
a(I125
I49
tp1675
a(I123
I43
tp1676
a(I95
I15
tp1677
a(I122
I35
tp1678
a(I170
I34
tp1679
a(I138
I19
tp1680
a(I152
I6
tp1681
a(I103
I43
tp1682
a(I146
I16
tp1683
asg27
I200
sba(imain2
Polygon
p1684
(dp1685
g3
(I89
I37
tp1686
sg5
I200
sg6
(I0
I101
I197
I71
tp1687
sg8
(lp1688
(I104
I35
tp1689
a(I54
I51
tp1690
a(I55
I50
tp1691
asg27
I200
sba(imain2
Polygon
p1692
(dp1693
g3
(I43
I51
tp1694
sg5
I200
sg6
(I34
I140
I121
I0
tp1695
sg8
(lp1696
(I15
I67
tp1697
a(I39
I8
tp1698
a(I54
I93
tp1699
a(I20
I81
tp1700
a(I29
I5
tp1701
a(I66
I97
tp1702
a(I62
I59
tp1703
a(I37
I59
tp1704
a(I76
I99
tp1705
a(I47
I50
tp1706
a(I2
I88
tp1707
a(I41
I3
tp1708
a(I88
I11
tp1709
a(I51
I32
tp1710
a(I75
I8
tp1711
a(I15
I62
tp1712
asg27
I200
sba(imain2
Polygon
p1713
(dp1714
g3
(I23
I143
tp1715
sg5
I200
sg6
(I72
I245
I170
I39
tp1716
sg8
(lp1717
(I0
I94
tp1718
a(I0
I130
tp1719
a(I0
I188
tp1720
a(I29
I191
tp1721
a(I34
I148
tp1722
a(I0
I157
tp1723
a(I0
I133
tp1724
asg27
I200
sba(imain2
Polygon
p1725
(dp1726
g3
(I32
I143
tp1727
sg5
I200
sg6
(I52
I69
I159
I0
tp1728
sg8
(lp1729
(I82
I177
tp1730
a(I49
I177
tp1731
a(I63
I174
tp1732
a(I52
I121
tp1733
a(I45
I154
tp1734
a(I1
I141
tp1735
a(I0
I171
tp1736
a(I17
I146
tp1737
a(I70
I117
tp1738
a(I41
I99
tp1739
a(I58
I115
tp1740
a(I32
I170
tp1741
a(I0
I152
tp1742
a(I53
I187
tp1743
a(I22
I122
tp1744
a(I64
I151
tp1745
asg27
I200
sba(imain2
Polygon
p1746
(dp1747
g3
(I69
I107
tp1748
sg5
I200
sg6
(I156
I228
I1
I6
tp1749
sg8
(lp1750
(I95
I66
tp1751
a(I48
I101
tp1752
a(I45
I119
tp1753
a(I109
I101
tp1754
a(I57
I154
tp1755
a(I49
I120
tp1756
a(I34
I151
tp1757
a(I93
I154
tp1758
a(I108
I69
tp1759
a(I51
I66
tp1760
a(I113
I129
tp1761
a(I73
I153
tp1762
a(I34
I125
tp1763
asg27
I200
sba(imain2
Polygon
p1764
(dp1765
g3
(I172
I111
tp1766
sg5
I200
sg6
(I236
I212
I83
I121
tp1767
sg8
(lp1768
(I200
I62
tp1769
a(I200
I94
tp1770
a(I166
I66
tp1771
asg27
I200
sba(imain2
Polygon
p1772
(dp1773
g3
(I150
I91
tp1774
sg5
I200
sg6
(I8
I239
I84
I36
tp1775
sg8
(lp1776
(I174
I136
tp1777
a(I165
I69
tp1778
a(I174
I90
tp1779
a(I199
I68
tp1780
a(I197
I130
tp1781
asg27
I200
sba(imain2
Polygon
p1782
(dp1783
g3
(I135
I188
tp1784
sg5
I200
sg6
(I76
I226
I4
I1
tp1785
sg8
(lp1786
(I184
I181
tp1787
a(I127
I200
tp1788
a(I104
I200
tp1789
a(I161
I166
tp1790
a(I139
I200
tp1791
asg27
I200
sba(imain2
Polygon
p1792
(dp1793
g3
(I127
I113
tp1794
sg5
I200
sg6
(I133
I210
I151
I1
tp1795
sg8
(lp1796
(I116
I100
tp1797
a(I174
I63
tp1798
a(I140
I80
tp1799
a(I158
I139
tp1800
a(I111
I130
tp1801
asg27
I200
sba(imain2
Polygon
p1802
(dp1803
g3
(I173
I20
tp1804
sg5
I200
sg6
(I231
I1
I218
I0
tp1805
sg8
(lp1806
(I166
I0
tp1807
a(I198
I62
tp1808
a(I171
I46
tp1809
a(I200
I0
tp1810
a(I145
I26
tp1811
a(I200
I0
tp1812
a(I152
I0
tp1813
a(I189
I36
tp1814
a(I186
I67
tp1815
a(I200
I0
tp1816
a(I166
I0
tp1817
a(I163
I0
tp1818
a(I173
I0
tp1819
a(I144
I0
tp1820
a(I200
I35
tp1821
asg27
I200
sba(imain2
Polygon
p1822
(dp1823
g3
(I100
I197
tp1824
sg5
I200
sg6
(I33
I102
I176
I61
tp1825
sg8
(lp1826
(I99
I200
tp1827
a(I118
I200
tp1828
a(I147
I200
tp1829
a(I104
I151
tp1830
a(I129
I173
tp1831
a(I105
I200
tp1832
a(I92
I200
tp1833
a(I140
I200
tp1834
a(I133
I200
tp1835
a(I139
I200
tp1836
a(I97
I200
tp1837
a(I121
I200
tp1838
a(I109
I192
tp1839
asg27
I200
sba(imain2
Polygon
p1840
(dp1841
g3
(I70
I0
tp1842
sg5
I200
sg6
(I135
I1
I193
I1
tp1843
sg8
(lp1844
(I62
I0
tp1845
a(I115
I27
tp1846
a(I112
I0
tp1847
a(I107
I0
tp1848
a(I109
I36
tp1849
a(I64
I0
tp1850
a(I41
I0
tp1851
asg27
I200
sba(imain2
Polygon
p1852
(dp1853
g3
(I106
I152
tp1854
sg5
I200
sg6
(I98
I161
I61
I65
tp1855
sg8
(lp1856
(I133
I114
tp1857
a(I119
I166
tp1858
a(I59
I200
tp1859
a(I140
I199
tp1860
a(I115
I114
tp1861
a(I85
I153
tp1862
a(I124
I140
tp1863
a(I142
I198
tp1864
a(I122
I150
tp1865
a(I68
I141
tp1866
a(I112
I141
tp1867
a(I99
I123
tp1868
asg27
I200
sba(imain2
Polygon
p1869
(dp1870
g3
(I11
I38
tp1871
sg5
I200
sg6
(I109
I1
I123
I1
tp1872
sg8
(lp1873
(I11
I45
tp1874
a(I16
I6
tp1875
a(I35
I52
tp1876
a(I0
I12
tp1877
a(I8
I17
tp1878
a(I0
I79
tp1879
a(I52
I31
tp1880
a(I3
I4
tp1881
a(I46
I62
tp1882
a(I11
I25
tp1883
a(I3
I0
tp1884
asg27
I200
sba(imain2
Polygon
p1885
(dp1886
g3
(I23
I68
tp1887
sg5
I200
sg6
(I215
I111
I188
I119
tp1888
sg8
(lp1889
(I35
I109
tp1890
a(I24
I85
tp1891
a(I54
I19
tp1892
a(I0
I66
tp1893
a(I35
I32
tp1894
a(I64
I43
tp1895
a(I0
I19
tp1896
a(I0
I111
tp1897
a(I7
I98
tp1898
a(I38
I112
tp1899
a(I10
I74
tp1900
asg27
I200
sba(imain2
Polygon
p1901
(dp1902
g3
(I73
I8
tp1903
sg5
I200
sg6
(I104
I162
I20
I131
tp1904
sg8
(lp1905
(I33
I0
tp1906
a(I113
I0
tp1907
a(I27
I56
tp1908
a(I23
I45
tp1909
a(I27
I13
tp1910
a(I32
I0
tp1911
a(I44
I19
tp1912
a(I28
I0
tp1913
a(I121
I11
tp1914
asg27
I200
sba(imain2
Polygon
p1915
(dp1916
g3
(I175
I187
tp1917
sg5
I200
sg6
(I117
I193
I196
I51
tp1918
sg8
(lp1919
(I186
I200
tp1920
a(I170
I200
tp1921
a(I146
I200
tp1922
asg27
I200
sba(imain2
Polygon
p1923
(dp1924
g3
(I153
I195
tp1925
sg5
I200
sg6
(I54
I165
I29
I1
tp1926
sg8
(lp1927
(I179
I189
tp1928
a(I123
I200
tp1929
a(I135
I200
tp1930
a(I158
I200
tp1931
a(I192
I184
tp1932
a(I196
I200
tp1933
a(I125
I147
tp1934
a(I103
I169
tp1935
a(I103
I196
tp1936
asg27
I200
sba(imain2
Polygon
p1937
(dp1938
g3
(I199
I6
tp1939
sg5
I200
sg6
(I143
I39
I87
I0
tp1940
sg8
(lp1941
(I200
I20
tp1942
a(I200
I0
tp1943
a(I156
I0
tp1944
a(I165
I20
tp1945
a(I200
I20
tp1946
a(I200
I0
tp1947
a(I200
I32
tp1948
a(I150
I2
tp1949
a(I200
I38
tp1950
asg27
I200
sba(imain2
Polygon
p1951
(dp1952
g3
(I46
I191
tp1953
sg5
I200
sg6
(I89
I15
I8
I105
tp1954
sg8
(lp1955
(I69
I200
tp1956
a(I84
I189
tp1957
a(I89
I167
tp1958
a(I0
I200
tp1959
a(I0
I146
tp1960
a(I27
I155
tp1961
a(I54
I200
tp1962
a(I34
I181
tp1963
a(I84
I178
tp1964
a(I52
I173
tp1965
asg27
I200
sba(imain2
Polygon
p1966
(dp1967
g3
(I144
I179
tp1968
sg5
I200
sg6
(I125
I32
I189
I32
tp1969
sg8
(lp1970
(I123
I130
tp1971
a(I153
I186
tp1972
a(I136
I182
tp1973
a(I130
I191
tp1974
a(I102
I180
tp1975
a(I191
I200
tp1976
a(I105
I200
tp1977
a(I133
I183
tp1978
a(I99
I183
tp1979
a(I164
I155
tp1980
a(I148
I156
tp1981
a(I175
I200
tp1982
a(I154
I153
tp1983
a(I168
I199
tp1984
a(I168
I200
tp1985
asg27
I200
sba(imain2
Polygon
p1986
(dp1987
g3
(I120
I46
tp1988
sg5
I200
sg6
(I81
I82
I101
I49
tp1989
sg8
(lp1990
(I133
I48
tp1991
a(I126
I24
tp1992
a(I138
I46
tp1993
a(I132
I30
tp1994
a(I113
I91
tp1995
a(I132
I24
tp1996
a(I98
I13
tp1997
asg27
I200
sba(imain2
Polygon
p1998
(dp1999
g3
(I100
I144
tp2000
sg5
I200
sg6
(I123
I183
I165
I108
tp2001
sg8
(lp2002
(I112
I95
tp2003
a(I98
I152
tp2004
a(I98
I126
tp2005
a(I74
I100
tp2006
a(I73
I147
tp2007
a(I83
I152
tp2008
a(I125
I151
tp2009
a(I68
I158
tp2010
a(I56
I110
tp2011
a(I80
I97
tp2012
asg27
I200
sba(imain2
Polygon
p2013
(dp2014
g3
(I151
I184
tp2015
sg5
I200
sg6
(I139
I0
I175
I0
tp2016
sg8
(lp2017
(I141
I163
tp2018
a(I169
I169
tp2019
a(I122
I200
tp2020
a(I162
I159
tp2021
asg27
I200
sba(imain2
Polygon
p2022
(dp2023
g3
(I124
I187
tp2024
sg5
I200
sg6
(I25
I27
I210
I0
tp2025
sg8
(lp2026
(I135
I158
tp2027
a(I138
I200
tp2028
a(I131
I200
tp2029
a(I140
I200
tp2030
a(I119
I200
tp2031
a(I147
I147
tp2032
a(I113
I200
tp2033
a(I117
I187
tp2034
a(I128
I165
tp2035
a(I118
I147
tp2036
asg27
I200
sba(imain2
Polygon
p2037
(dp2038
g3
(I48
I52
tp2039
sg5
I200
sg6
(I247
I132
I158
I141
tp2040
sg8
(lp2041
(I58
I94
tp2042
a(I79
I94
tp2043
a(I97
I60
tp2044
a(I67
I7
tp2045
a(I35
I65
tp2046
a(I31
I93
tp2047
a(I88
I8
tp2048
a(I0
I3
tp2049
a(I0
I82
tp2050
a(I2
I102
tp2051
a(I65
I76
tp2052
a(I18
I85
tp2053
a(I75
I83
tp2054
a(I67
I95
tp2055
asg27
I200
sba(imain2
Polygon
p2056
(dp2057
g3
(I139
I74
tp2058
sg5
I200
sg6
(I151
I190
I236
I81
tp2059
sg8
(lp2060
(I189
I47
tp2061
a(I185
I26
tp2062
a(I157
I30
tp2063
a(I169
I88
tp2064
a(I187
I48
tp2065
asg27
I200
sba(imain2
Polygon
p2066
(dp2067
g3
(I161
I83
tp2068
sg5
I200
sg6
(I202
I147
I103
I29
tp2069
sg8
(lp2070
(I114
I113
tp2071
a(I114
I49
tp2072
a(I178
I77
tp2073
a(I155
I98
tp2074
a(I177
I113
tp2075
a(I199
I106
tp2076
a(I200
I49
tp2077
a(I140
I35
tp2078
a(I197
I72
tp2079
a(I199
I71
tp2080
a(I145
I53
tp2081
a(I124
I126
tp2082
asg27
I200
sba(imain2
Polygon
p2083
(dp2084
g3
(I88
I36
tp2085
sg5
I200
sg6
(I1
I30
I71
I104
tp2086
sg8
(lp2087
(I80
I10
tp2088
a(I49
I39
tp2089
a(I102
I37
tp2090
a(I120
I27
tp2091
a(I125
I14
tp2092
a(I135
I16
tp2093
a(I71
I9
tp2094
a(I89
I8
tp2095
a(I58
I13
tp2096
asg27
I200
sba(imain2
Polygon
p2097
(dp2098
g3
(I12
I36
tp2099
sg5
I200
sg6
(I162
I102
I213
I0
tp2100
sg8
(lp2101
(I11
I65
tp2102
a(I0
I52
tp2103
a(I0
I69
tp2104
a(I31
I6
tp2105
a(I0
I79
tp2106
a(I0
I54
tp2107
a(I45
I0
tp2108
a(I19
I71
tp2109
asg27
I200
sba(imain2
Polygon
p2110
(dp2111
g3
(I79
I176
tp2112
sg5
I200
sg6
(I198
I84
I166
I98
tp2113
sg8
(lp2114
(I129
I200
tp2115
a(I127
I162
tp2116
a(I69
I200
tp2117
a(I91
I200
tp2118
a(I96
I200
tp2119
asg27
I200
sba(imain2
Polygon
p2120
(dp2121
g3
(I159
I193
tp2122
sg5
I200
sg6
(I188
I172
I60
I1
tp2123
sg8
(lp2124
(I118
I200
tp2125
a(I136
I181
tp2126
a(I185
I200
tp2127
a(I173
I200
tp2128
a(I153
I151
tp2129
a(I200
I196
tp2130
a(I192
I188
tp2131
a(I191
I154
tp2132
a(I159
I200
tp2133
a(I129
I200
tp2134
a(I197
I200
tp2135
a(I157
I195
tp2136
asg27
I200
sba(imain2
Polygon
p2137
(dp2138
g3
(I52
I197
tp2139
sg5
I200
sg6
(I164
I146
I228
I0
tp2140
sg8
(lp2141
(I87
I182
tp2142
a(I66
I195
tp2143
a(I29
I200
tp2144
a(I49
I200
tp2145
a(I10
I147
tp2146
a(I22
I181
tp2147
a(I16
I153
tp2148
a(I83
I153
tp2149
asg27
I200
sba(imain2
Polygon
p2150
(dp2151
g3
(I96
I168
tp2152
sg5
I200
sg6
(I81
I155
I161
I1
tp2153
sg8
(lp2154
(I105
I151
tp2155
a(I128
I200
tp2156
a(I97
I200
tp2157
a(I68
I178
tp2158
a(I144
I177
tp2159
a(I146
I166
tp2160
a(I85
I168
tp2161
a(I125
I166
tp2162
a(I139
I177
tp2163
a(I108
I170
tp2164
a(I123
I192
tp2165
asg27
I200
sba(imain2
Polygon
p2166
(dp2167
g3
(I148
I67
tp2168
sg5
I200
sg6
(I210
I29
I21
I1
tp2169
sg8
(lp2170
(I172
I28
tp2171
a(I162
I93
tp2172
a(I149
I107
tp2173
a(I181
I47
tp2174
a(I165
I109
tp2175
a(I105
I34
tp2176
a(I152
I25
tp2177
a(I145
I38
tp2178
a(I100
I97
tp2179
a(I106
I33
tp2180
a(I118
I56
tp2181
a(I159
I41
tp2182
a(I198
I101
tp2183
a(I117
I89
tp2184
asg27
I200
sba(imain2
Polygon
p2185
(dp2186
g3
(I185
I29
tp2187
sg5
I200
sg6
(I139
I164
I76
I76
tp2188
sg8
(lp2189
(I136
I0
tp2190
a(I199
I0
tp2191
a(I200
I25
tp2192
a(I174
I43
tp2193
a(I138
I31
tp2194
asg27
I200
sba(imain2
Polygon
p2195
(dp2196
g3
(I77
I185
tp2197
sg5
I200
sg6
(I27
I24
I96
I93
tp2198
sg8
(lp2199
(I122
I163
tp2200
a(I63
I154
tp2201
a(I110
I156
tp2202
a(I124
I169
tp2203
a(I40
I180
tp2204
a(I124
I175
tp2205
a(I35
I180
tp2206
a(I104
I149
tp2207
a(I64
I192
tp2208
a(I49
I200
tp2209
a(I74
I164
tp2210
a(I77
I170
tp2211
asg27
I200
sba(imain2
Polygon
p2212
(dp2213
g3
(I183
I173
tp2214
sg5
I200
sg6
(I108
I214
I86
I39
tp2215
sg8
(lp2216
(I200
I200
tp2217
a(I146
I200
tp2218
a(I200
I200
tp2219
a(I200
I125
tp2220
a(I137
I200
tp2221
a(I165
I200
tp2222
asg27
I200
sba(imain2
Polygon
p2223
(dp2224
g3
(I141
I78
tp2225
sg5
I200
sg6
(I231
I87
I164
I1
tp2226
sg8
(lp2227
(I99
I101
tp2228
a(I182
I64
tp2229
a(I176
I100
tp2230
a(I162
I119
tp2231
a(I134
I123
tp2232
a(I153
I109
tp2233
asg27
I200
sba(imain2
Polygon
p2234
(dp2235
g3
(I8
I10
tp2236
sg5
I200
sg6
(I61
I42
I71
I96
tp2237
sg8
(lp2238
(I33
I4
tp2239
a(I0
I0
tp2240
a(I30
I6
tp2241
a(I0
I0
tp2242
a(I30
I0
tp2243
asg27
I200
sba(imain2
Polygon
p2244
(dp2245
g3
(I37
I13
tp2246
sg5
I200
sg6
(I0
I114
I18
I108
tp2247
sg8
(lp2248
(I36
I0
tp2249
a(I16
I0
tp2250
a(I2
I0
tp2251
a(I0
I6
tp2252
a(I47
I4
tp2253
a(I33
I0
tp2254
a(I37
I0
tp2255
a(I53
I0
tp2256
a(I27
I0
tp2257
a(I38
I0
tp2258
a(I54
I0
tp2259
a(I41
I0
tp2260
asg27
I200
sba(imain2
Polygon
p2261
(dp2262
g3
(I168
I175
tp2263
sg5
I200
sg6
(I95
I52
I24
I0
tp2264
sg8
(lp2265
(I153
I168
tp2266
a(I179
I200
tp2267
a(I195
I166
tp2268
a(I185
I200
tp2269
a(I200
I200
tp2270
a(I200
I169
tp2271
a(I118
I182
tp2272
a(I200
I171
tp2273
a(I200
I200
tp2274
a(I122
I174
tp2275
a(I171
I200
tp2276
asg27
I200
sba(imain2
Polygon
p2277
(dp2278
g3
(I75
I83
tp2279
sg5
I200
sg6
(I27
I33
I18
I0
tp2280
sg8
(lp2281
(I91
I55
tp2282
a(I50
I113
tp2283
a(I118
I51
tp2284
a(I36
I133
tp2285
a(I36
I53
tp2286
a(I51
I69
tp2287
a(I28
I131
tp2288
a(I28
I89
tp2289
a(I87
I115
tp2290
a(I88
I88
tp2291
a(I101
I82
tp2292
a(I43
I89
tp2293
a(I112
I104
tp2294
a(I89
I66
tp2295
a(I111
I101
tp2296
asg27
I200
sba(imain2
Polygon
p2297
(dp2298
g3
(I18
I79
tp2299
sg5
I200
sg6
(I80
I0
I174
I100
tp2300
sg8
(lp2301
(I36
I125
tp2302
a(I43
I109
tp2303
a(I18
I107
tp2304
a(I40
I111
tp2305
a(I12
I123
tp2306
a(I0
I103
tp2307
a(I0
I117
tp2308
a(I39
I119
tp2309
asg27
I200
sba(imain2
Polygon
p2310
(dp2311
g3
(I27
I28
tp2312
sg5
I200
sg6
(I220
I145
I39
I1
tp2313
sg8
(lp2314
(I26
I20
tp2315
a(I28
I70
tp2316
a(I19
I0
tp2317
a(I75
I77
tp2318
a(I71
I0
tp2319
a(I65
I38
tp2320
a(I69
I72
tp2321
a(I7
I78
tp2322
a(I0
I0
tp2323
a(I0
I0
tp2324
a(I63
I0
tp2325
a(I16
I59
tp2326
a(I64
I6
tp2327
a(I59
I6
tp2328
asg27
I200
sba(imain2
Polygon
p2329
(dp2330
g3
(I85
I60
tp2331
sg5
I200
sg6
(I84
I112
I12
I99
tp2332
sg8
(lp2333
(I115
I60
tp2334
a(I134
I87
tp2335
a(I55
I107
tp2336
a(I36
I62
tp2337
a(I72
I90
tp2338
a(I131
I73
tp2339
a(I117
I52
tp2340
a(I123
I32
tp2341
a(I108
I57
tp2342
asg27
I200
sba(imain2
Polygon
p2343
(dp2344
g3
(I45
I110
tp2345
sg5
I200
sg6
(I40
I239
I179
I43
tp2346
sg8
(lp2347
(I68
I158
tp2348
a(I45
I112
tp2349
a(I72
I109
tp2350
asg27
I200
sba(imain2
Polygon
p2351
(dp2352
g3
(I54
I138
tp2353
sg5
I200
sg6
(I117
I64
I185
I0
tp2354
sg8
(lp2355
(I18
I163
tp2356
a(I21
I111
tp2357
a(I69
I90
tp2358
a(I12
I130
tp2359
a(I95
I108
tp2360
a(I60
I176
tp2361
a(I79
I119
tp2362
a(I84
I118
tp2363
a(I42
I136
tp2364
asg27
I200
sba(imain2
Polygon
p2365
(dp2366
g3
(I162
I123
tp2367
sg5
I200
sg6
(I42
I58
I71
I9
tp2368
sg8
(lp2369
(I175
I164
tp2370
a(I200
I173
tp2371
a(I200
I137
tp2372
a(I119
I112
tp2373
a(I180
I78
tp2374
a(I200
I106
tp2375
a(I180
I124
tp2376
a(I188
I77
tp2377
a(I192
I98
tp2378
a(I169
I105
tp2379
a(I139
I167
tp2380
a(I113
I156
tp2381
a(I147
I147
tp2382
a(I156
I80
tp2383
a(I137
I130
tp2384
a(I196
I165
tp2385
a(I137
I78
tp2386
a(I194
I166
tp2387
a(I122
I121
tp2388
asg27
I200
sba(imain2
Polygon
p2389
(dp2390
g3
(I144
I70
tp2391
sg5
I200
sg6
(I191
I39
I117
I24
tp2392
sg8
(lp2393
(I170
I95
tp2394
a(I139
I84
tp2395
a(I149
I71
tp2396
a(I142
I70
tp2397
asg27
I200
sba(imain2
Polygon
p2398
(dp2399
g3
(I11
I36
tp2400
sg5
I200
sg6
(I144
I31
I76
I23
tp2401
sg8
(lp2402
(I0
I42
tp2403
a(I0
I45
tp2404
a(I0
I0
tp2405
a(I0
I78
tp2406
a(I0
I31
tp2407
a(I0
I30
tp2408
a(I0
I35
tp2409
a(I0
I25
tp2410
asg27
I200
sba(imain2
Polygon
p2411
(dp2412
g3
(I85
I175
tp2413
sg5
I200
sg6
(I240
I52
I42
I1
tp2414
sg8
(lp2415
(I42
I130
tp2416
a(I112
I137
tp2417
a(I100
I133
tp2418
a(I108
I186
tp2419
a(I42
I200
tp2420
a(I111
I200
tp2421
a(I114
I192
tp2422
a(I100
I188
tp2423
a(I38
I152
tp2424
a(I116
I138
tp2425
a(I61
I131
tp2426
a(I69
I177
tp2427
a(I80
I162
tp2428
a(I116
I200
tp2429
a(I105
I180
tp2430
asg27
I200
sba(imain2
Polygon
p2431
(dp2432
g3
(I78
I22
tp2433
sg5
I200
sg6
(I0
I239
I65
I1
tp2434
sg8
(lp2435
(I38
I0
tp2436
a(I117
I32
tp2437
a(I28
I18
tp2438
a(I106
I8
tp2439
a(I80
I0
tp2440
a(I127
I21
tp2441
a(I88
I0
tp2442
asg27
I200
sba(imain2
Polygon
p2443
(dp2444
g3
(I58
I165
tp2445
sg5
I200
sg6
(I72
I1
I134
I85
tp2446
sg8
(lp2447
(I40
I160
tp2448
a(I37
I152
tp2449
a(I46
I164
tp2450
asg27
I200
sba(imain2
Polygon
p2451
(dp2452
g3
(I98
I69
tp2453
sg5
I200
sg6
(I71
I213
I124
I27
tp2454
sg8
(lp2455
(I111
I113
tp2456
a(I126
I99
tp2457
a(I51
I93
tp2458
asg27
I200
sba(imain2
Polygon
p2459
(dp2460
g3
(I184
I193
tp2461
sg5
I200
sg6
(I17
I62
I68
I0
tp2462
sg8
(lp2463
(I200
I177
tp2464
a(I200
I163
tp2465
a(I151
I200
tp2466
a(I200
I155
tp2467
asg27
I200
sba(imain2
Polygon
p2468
(dp2469
g3
(I136
I181
tp2470
sg5
I200
sg6
(I118
I127
I188
I0
tp2471
sg8
(lp2472
(I107
I195
tp2473
a(I99
I198
tp2474
a(I132
I200
tp2475
a(I138
I200
tp2476
a(I127
I139
tp2477
a(I136
I138
tp2478
a(I99
I200
tp2479
asg27
I200
sba(imain2
Polygon
p2480
(dp2481
g3
(I65
I69
tp2482
sg5
I200
sg6
(I101
I91
I153
I0
tp2483
sg8
(lp2484
(I24
I101
tp2485
a(I37
I51
tp2486
a(I113
I49
tp2487
a(I65
I53
tp2488
a(I63
I93
tp2489
a(I16
I47
tp2490
a(I26
I115
tp2491
a(I73
I48
tp2492
a(I38
I37
tp2493
a(I51
I23
tp2494
asg27
I200
sba(imain2
Polygon
p2495
(dp2496
g3
(I146
I60
tp2497
sg5
I200
sg6
(I1
I1
I199
I0
tp2498
sg8
(lp2499
(I167
I55
tp2500
a(I149
I28
tp2501
a(I120
I67
tp2502
a(I193
I89
tp2503
a(I135
I34
tp2504
asg27
I200
sba(imain2
Polygon
p2505
(dp2506
g3
(I7
I191
tp2507
sg5
I200
sg6
(I1
I165
I63
I1
tp2508
sg8
(lp2509
(I9
I200
tp2510
a(I0
I194
tp2511
a(I0
I200
tp2512
a(I36
I192
tp2513
a(I0
I162
tp2514
a(I24
I148
tp2515
a(I51
I182
tp2516
a(I0
I143
tp2517
a(I46
I173
tp2518
a(I0
I150
tp2519
a(I32
I200
tp2520
a(I12
I200
tp2521
a(I0
I181
tp2522
asg27
I200
sba(imain2
Polygon
p2523
(dp2524
g3
(I177
I12
tp2525
sg5
I200
sg6
(I1
I126
I136
I0
tp2526
sg8
(lp2527
(I179
I47
tp2528
a(I166
I0
tp2529
a(I131
I0
tp2530
a(I192
I0
tp2531
a(I155
I59
tp2532
a(I200
I50
tp2533
a(I172
I22
tp2534
a(I132
I54
tp2535
a(I200
I0
tp2536
asg27
I200
sba(imain2
Polygon
p2537
(dp2538
g3
(I98
I60
tp2539
sg5
I200
sg6
(I142
I36
I46
I0
tp2540
sg8
(lp2541
(I138
I25
tp2542
a(I70
I57
tp2543
a(I104
I32
tp2544
a(I147
I11
tp2545
a(I125
I68
tp2546
a(I77
I21
tp2547
a(I108
I102
tp2548
asg27
I200
sba(imain2
Polygon
p2549
(dp2550
g3
(I26
I121
tp2551
sg5
I200
sg6
(I19
I110
I2
I76
tp2552
sg8
(lp2553
(I5
I167
tp2554
a(I39
I85
tp2555
a(I0
I101
tp2556
a(I0
I166
tp2557
a(I30
I111
tp2558
a(I14
I135
tp2559
a(I45
I83
tp2560
a(I52
I113
tp2561
a(I26
I128
tp2562
a(I47
I156
tp2563
asg27
I200
sba(imain2
Polygon
p2564
(dp2565
g3
(I59
I10
tp2566
sg5
I200
sg6
(I179
I55
I106
I123
tp2567
sg8
(lp2568
(I13
I0
tp2569
a(I70
I0
tp2570
a(I73
I6
tp2571
a(I69
I0
tp2572
a(I109
I0
tp2573
a(I101
I15
tp2574
a(I10
I0
tp2575
a(I17
I23
tp2576
asg27
I200
sba(imain2
Polygon
p2577
(dp2578
g3
(I171
I141
tp2579
sg5
I200
sg6
(I36
I196
I137
I0
tp2580
sg8
(lp2581
(I125
I189
tp2582
a(I145
I150
tp2583
a(I153
I146
tp2584
a(I177
I154
tp2585
a(I200
I145
tp2586
a(I157
I111
tp2587
a(I200
I94
tp2588
a(I135
I99
tp2589
a(I170
I107
tp2590
asg27
I200
sba(imain2
Polygon
p2591
(dp2592
g3
(I80
I143
tp2593
sg5
I200
sg6
(I72
I74
I10
I109
tp2594
sg8
(lp2595
(I66
I140
tp2596
a(I70
I145
tp2597
a(I93
I192
tp2598
a(I130
I187
tp2599
a(I120
I141
tp2600
a(I69
I128
tp2601
a(I62
I133
tp2602
a(I71
I170
tp2603
a(I62
I180
tp2604
a(I86
I147
tp2605
asg27
I200
sba(imain2
Polygon
p2606
(dp2607
g3
(I191
I199
tp2608
sg5
I200
sg6
(I0
I223
I23
I0
tp2609
sg8
(lp2610
(I169
I200
tp2611
a(I190
I200
tp2612
a(I200
I200
tp2613
a(I193
I156
tp2614
a(I200
I166
tp2615
a(I200
I200
tp2616
a(I163
I187
tp2617
a(I141
I160
tp2618
a(I200
I200
tp2619
asg27
I200
sba(imain2
Polygon
p2620
(dp2621
g3
(I6
I112
tp2622
sg5
I200
sg6
(I131
I70
I127
I53
tp2623
sg8
(lp2624
(I0
I137
tp2625
a(I0
I140
tp2626
a(I25
I84
tp2627
a(I0
I100
tp2628
a(I28
I147
tp2629
a(I0
I109
tp2630
a(I0
I159
tp2631
a(I0
I63
tp2632
asg27
I200
sba(imain2
Polygon
p2633
(dp2634
g3
(I189
I37
tp2635
sg5
I200
sg6
(I31
I237
I163
I42
tp2636
sg8
(lp2637
(I200
I46
tp2638
a(I191
I37
tp2639
a(I188
I0
tp2640
a(I199
I1
tp2641
asg27
I200
sba(imain2
Polygon
p2642
(dp2643
g3
(I121
I50
tp2644
sg5
I200
sg6
(I3
I72
I1
I1
tp2645
sg8
(lp2646
(I136
I45
tp2647
a(I104
I15
tp2648
a(I141
I34
tp2649
asg27
I200
sba(imain2
Polygon
p2650
(dp2651
g3
(I58
I165
tp2652
sg5
I200
sg6
(I141
I99
I2
I1
tp2653
sg8
(lp2654
(I30
I120
tp2655
a(I68
I175
tp2656
a(I9
I168
tp2657
a(I97
I177
tp2658
a(I37
I149
tp2659
a(I66
I130
tp2660
a(I99
I183
tp2661
a(I107
I152
tp2662
a(I56
I151
tp2663
a(I33
I161
tp2664
a(I83
I175
tp2665
a(I36
I200
tp2666
a(I56
I182
tp2667
asg27
I200
sba(imain2
Polygon
p2668
(dp2669
g3
(I155
I38
tp2670
sg5
I200
sg6
(I99
I107
I235
I83
tp2671
sg8
(lp2672
(I160
I2
tp2673
a(I162
I13
tp2674
a(I165
I27
tp2675
asg27
I200
sba(imain2
Polygon
p2676
(dp2677
g3
(I80
I130
tp2678
sg5
I200
sg6
(I223
I90
I0
I112
tp2679
sg8
(lp2680
(I90
I107
tp2681
a(I38
I91
tp2682
a(I127
I91
tp2683
a(I86
I180
tp2684
a(I90
I97
tp2685
a(I42
I107
tp2686
a(I57
I140
tp2687
a(I81
I161
tp2688
a(I95
I173
tp2689
a(I77
I124
tp2690
a(I91
I85
tp2691
a(I88
I146
tp2692
asg27
I200
sba(imain2
Polygon
p2693
(dp2694
g3
(I182
I31
tp2695
sg5
I200
sg6
(I110
I84
I111
I0
tp2696
sg8
(lp2697
(I146
I0
tp2698
a(I198
I51
tp2699
a(I135
I9
tp2700
a(I186
I37
tp2701
a(I164
I0
tp2702
a(I175
I40
tp2703
a(I151
I81
tp2704
a(I193
I4
tp2705
a(I200
I57
tp2706
a(I152
I25
tp2707
a(I188
I0
tp2708
a(I162
I2
tp2709
a(I154
I80
tp2710
a(I174
I47
tp2711
a(I195
I67
tp2712
a(I188
I45
tp2713
a(I157
I0
tp2714
a(I165
I65
tp2715
a(I145
I0
tp2716
a(I186
I59
tp2717
a(I200
I28
tp2718
a(I169
I11
tp2719
a(I133
I0
tp2720
asg27
I200
sba(imain2
Polygon
p2721
(dp2722
g3
(I164
I132
tp2723
sg5
I200
sg6
(I50
I67
I1
I1
tp2724
sg8
(lp2725
(I136
I113
tp2726
a(I152
I112
tp2727
a(I140
I175
tp2728
a(I168
I173
tp2729
a(I180
I136
tp2730
a(I190
I82
tp2731
a(I132
I128
tp2732
a(I125
I176
tp2733
a(I199
I84
tp2734
a(I200
I115
tp2735
a(I157
I141
tp2736
a(I185
I112
tp2737
asg27
I200
sba(imain2
Polygon
p2738
(dp2739
g3
(I67
I123
tp2740
sg5
I200
sg6
(I203
I168
I125
I71
tp2741
sg8
(lp2742
(I114
I101
tp2743
a(I112
I148
tp2744
a(I67
I158
tp2745
a(I43
I93
tp2746
a(I96
I92
tp2747
a(I107
I100
tp2748
a(I49
I107
tp2749
a(I55
I111
tp2750
a(I46
I107
tp2751
a(I101
I102
tp2752
a(I87
I99
tp2753
asg27
I200
sba(imain2
Polygon
p2754
(dp2755
g3
(I139
I46
tp2756
sg5
I200
sg6
(I1
I111
I82
I72
tp2757
sg8
(lp2758
(I185
I84
tp2759
a(I137
I74
tp2760
a(I164
I79
tp2761
asg27
I200
sba(imain2
Polygon
p2762
(dp2763
g3
(I137
I13
tp2764
sg5
I200
sg6
(I202
I131
I218
I3
tp2765
sg8
(lp2766
(I146
I0
tp2767
a(I180
I37
tp2768
a(I127
I0
tp2769
a(I139
I19
tp2770
a(I157
I0
tp2771
a(I152
I49
tp2772
a(I154
I46
tp2773
a(I160
I57
tp2774
a(I117
I1
tp2775
asg27
I200
sba(imain2
Polygon
p2776
(dp2777
g3
(I72
I81
tp2778
sg5
I200
sg6
(I239
I108
I80
I0
tp2779
sg8
(lp2780
(I95
I99
tp2781
a(I83
I109
tp2782
a(I26
I64
tp2783
a(I57
I104
tp2784
a(I59
I58
tp2785
a(I120
I57
tp2786
a(I53
I62
tp2787
asg27
I200
sba(imain2
Polygon
p2788
(dp2789
g3
(I24
I70
tp2790
sg5
I200
sg6
(I5
I224
I8
I12
tp2791
sg8
(lp2792
(I37
I25
tp2793
a(I72
I32
tp2794
a(I2
I21
tp2795
a(I0
I105
tp2796
a(I15
I106
tp2797
a(I47
I88
tp2798
asg27
I200
sba(imain2
Polygon
p2799
(dp2800
g3
(I144
I200
tp2801
sg5
I200
sg6
(I123
I88
I11
I1
tp2802
sg8
(lp2803
(I164
I200
tp2804
a(I121
I196
tp2805
a(I107
I168
tp2806
a(I154
I187
tp2807
a(I177
I200
tp2808
a(I111
I200
tp2809
a(I130
I200
tp2810
a(I181
I194
tp2811
a(I160
I170
tp2812
a(I98
I181
tp2813
a(I107
I153
tp2814
a(I103
I200
tp2815
a(I127
I153
tp2816
a(I175
I183
tp2817
a(I128
I200
tp2818
a(I98
I186
tp2819
a(I146
I200
tp2820
a(I145
I200
tp2821
a(I122
I150
tp2822
asg27
I200
sba(imain2
Polygon
p2823
(dp2824
g3
(I63
I64
tp2825
sg5
I200
sg6
(I192
I193
I44
I4
tp2826
sg8
(lp2827
(I90
I67
tp2828
a(I18
I106
tp2829
a(I18
I45
tp2830
a(I97
I38
tp2831
a(I97
I107
tp2832
a(I48
I88
tp2833
a(I43
I112
tp2834
a(I106
I109
tp2835
a(I52
I111
tp2836
asg27
I200
sba(imain2
Polygon
p2837
(dp2838
g3
(I87
I65
tp2839
sg5
I200
sg6
(I216
I55
I97
I0
tp2840
sg8
(lp2841
(I136
I80
tp2842
a(I106
I35
tp2843
a(I86
I83
tp2844
a(I40
I93
tp2845
a(I60
I111
tp2846
a(I53
I95
tp2847
a(I128
I62
tp2848
a(I47
I39
tp2849
a(I124
I17
tp2850
a(I96
I80
tp2851
a(I124
I65
tp2852
asg27
I200
sba(imain2
Polygon
p2853
(dp2854
g3
(I110
I191
tp2855
sg5
I200
sg6
(I160
I195
I225
I1
tp2856
sg8
(lp2857
(I132
I182
tp2858
a(I153
I200
tp2859
a(I74
I143
tp2860
a(I77
I167
tp2861
a(I150
I169
tp2862
a(I60
I163
tp2863
a(I66
I185
tp2864
a(I118
I200
tp2865
a(I78
I200
tp2866
a(I141
I200
tp2867
asg27
I200
sba(imain2
Polygon
p2868
(dp2869
g3
(I108
I110
tp2870
sg5
I200
sg6
(I97
I178
I164
I0
tp2871
sg8
(lp2872
(I101
I127
tp2873
a(I117
I114
tp2874
a(I87
I125
tp2875
a(I76
I126
tp2876
a(I79
I109
tp2877
a(I121
I150
tp2878
asg27
I200
sba(imain2
Polygon
p2879
(dp2880
g3
(I112
I52
tp2881
sg5
I200
sg6
(I81
I200
I79
I90
tp2882
sg8
(lp2883
(I158
I54
tp2884
a(I152
I56
tp2885
a(I149
I58
tp2886
asg27
I200
sba.