(lp0
(imain2
Polygon
p1
(dp2
S'origin'
p3
(I39
I29
tp4
sS'h'
p5
I200
sS'color'
p6
(I192
I23
I138
I66
tp7
sS'corner_list'
p8
(lp9
(I0
I0
tp10
a(I33
I71
tp11
a(I71
I41
tp12
a(I83
I36
tp13
a(I71
I0
tp14
a(I11
I74
tp15
a(I0
I33
tp16
a(I70
I7
tp17
a(I72
I59
tp18
a(I83
I19
tp19
a(I17
I62
tp20
a(I4
I54
tp21
a(I0
I33
tp22
a(I60
I37
tp23
a(I65
I0
tp24
a(I64
I0
tp25
a(I0
I0
tp26
asS'w'
p27
I200
sba(imain2
Polygon
p28
(dp29
g3
(I66
I177
tp30
sg5
I200
sg6
(I137
I53
I47
I23
tp31
sg8
(lp32
(I81
I174
tp33
a(I77
I165
tp34
a(I111
I200
tp35
a(I34
I200
tp36
a(I112
I200
tp37
a(I20
I192
tp38
a(I44
I200
tp39
a(I77
I200
tp40
a(I100
I127
tp41
asg27
I200
sba(imain2
Polygon
p42
(dp43
g3
(I59
I53
tp44
sg5
I200
sg6
(I109
I42
I107
I133
tp45
sg8
(lp46
(I106
I10
tp47
a(I26
I102
tp48
a(I9
I53
tp49
a(I89
I14
tp50
a(I41
I9
tp51
a(I45
I35
tp52
a(I40
I72
tp53
a(I32
I51
tp54
a(I38
I88
tp55
a(I97
I87
tp56
a(I109
I84
tp57
a(I91
I22
tp58
a(I92
I46
tp59
a(I76
I61
tp60
a(I103
I97
tp61
a(I50
I59
tp62
a(I53
I45
tp63
a(I58
I40
tp64
asg27
I200
sba(imain2
Polygon
p65
(dp66
g3
(I79
I99
tp67
sg5
I200
sg6
(I71
I89
I67
I82
tp68
sg8
(lp69
(I122
I134
tp70
a(I76
I117
tp71
a(I76
I74
tp72
a(I35
I63
tp73
a(I123
I57
tp74
a(I114
I125
tp75
a(I63
I146
tp76
a(I86
I147
tp77
asg27
I200
sba(imain2
Polygon
p78
(dp79
g3
(I200
I83
tp80
sg5
I200
sg6
(I165
I227
I63
I3
tp81
sg8
(lp82
(I200
I58
tp83
a(I164
I41
tp84
a(I200
I37
tp85
a(I178
I101
tp86
a(I200
I124
tp87
asg27
I200
sba(imain2
Polygon
p88
(dp89
g3
(I48
I136
tp90
sg5
I200
sg6
(I102
I109
I142
I49
tp91
sg8
(lp92
(I82
I141
tp93
a(I87
I127
tp94
a(I82
I171
tp95
a(I43
I102
tp96
a(I5
I168
tp97
a(I60
I171
tp98
a(I89
I93
tp99
a(I16
I112
tp100
a(I78
I105
tp101
a(I86
I178
tp102
a(I47
I126
tp103
a(I46
I109
tp104
a(I2
I151
tp105
a(I64
I175
tp106
a(I58
I161
tp107
a(I45
I165
tp108
a(I87
I144
tp109
a(I84
I97
tp110
a(I79
I93
tp111
a(I97
I86
tp112
a(I78
I145
tp113
asg27
I200
sba(imain2
Polygon
p114
(dp115
g3
(I118
I72
tp116
sg5
I200
sg6
(I132
I136
I59
I45
tp117
sg8
(lp118
(I99
I82
tp119
a(I118
I81
tp120
a(I118
I115
tp121
a(I126
I57
tp122
a(I89
I36
tp123
a(I68
I93
tp124
a(I104
I108
tp125
a(I97
I43
tp126
asg27
I200
sba(imain2
Polygon
p127
(dp128
g3
(I75
I194
tp129
sg5
I200
sg6
(I210
I85
I103
I0
tp130
sg8
(lp131
(I38
I200
tp132
a(I81
I145
tp133
a(I100
I167
tp134
a(I64
I200
tp135
a(I92
I188
tp136
a(I72
I157
tp137
asg27
I200
sba(imain2
Polygon
p138
(dp139
g3
(I7
I180
tp140
sg5
I200
sg6
(I231
I32
I1
I1
tp141
sg8
(lp142
(I24
I177
tp143
a(I0
I200
tp144
a(I0
I200
tp145
a(I8
I136
tp146
a(I0
I192
tp147
a(I41
I140
tp148
a(I15
I200
tp149
a(I0
I200
tp150
a(I0
I163
tp151
a(I0
I188
tp152
a(I0
I161
tp153
a(I15
I137
tp154
asg27
I200
sba(imain2
Polygon
p155
(dp156
g3
(I200
I5
tp157
sg5
I200
sg6
(I172
I75
I111
I26
tp158
sg8
(lp159
(I200
I0
tp160
a(I172
I0
tp161
a(I179
I0
tp162
a(I155
I28
tp163
a(I180
I0
tp164
a(I200
I7
tp165
a(I200
I45
tp166
a(I155
I15
tp167
a(I199
I0
tp168
a(I196
I52
tp169
asg27
I200
sba(imain2
Polygon
p170
(dp171
g3
(I180
I27
tp172
sg5
I200
sg6
(I103
I110
I153
I0
tp173
sg8
(lp174
(I200
I66
tp175
a(I156
I65
tp176
a(I200
I4
tp177
a(I162
I29
tp178
a(I160
I32
tp179
a(I200
I4
tp180
a(I138
I4
tp181
a(I147
I0
tp182
a(I160
I38
tp183
a(I169
I65
tp184
a(I200
I59
tp185
a(I200
I67
tp186
a(I161
I58
tp187
asg27
I200
sba(imain2
Polygon
p188
(dp189
g3
(I59
I197
tp190
sg5
I200
sg6
(I80
I205
I135
I124
tp191
sg8
(lp192
(I98
I200
tp193
a(I93
I157
tp194
a(I71
I197
tp195
a(I54
I200
tp196
a(I33
I200
tp197
asg27
I200
sba(imain2
Polygon
p198
(dp199
g3
(I129
I124
tp200
sg5
I200
sg6
(I169
I187
I95
I56
tp201
sg8
(lp202
(I122
I123
tp203
a(I92
I168
tp204
a(I130
I89
tp205
a(I111
I89
tp206
a(I104
I118
tp207
a(I88
I150
tp208
a(I119
I138
tp209
a(I82
I90
tp210
a(I85
I118
tp211
asg27
I200
sba(imain2
Polygon
p212
(dp213
g3
(I107
I2
tp214
sg5
I200
sg6
(I47
I1
I159
I100
tp215
sg8
(lp216
(I83
I0
tp217
a(I107
I0
tp218
a(I97
I0
tp219
a(I62
I0
tp220
a(I134
I0
tp221
a(I106
I7
tp222
a(I142
I27
tp223
a(I156
I2
tp224
a(I132
I26
tp225
asg27
I200
sba(imain2
Polygon
p226
(dp227
g3
(I25
I107
tp228
sg5
I200
sg6
(I100
I25
I168
I1
tp229
sg8
(lp230
(I30
I146
tp231
a(I41
I66
tp232
a(I72
I82
tp233
a(I0
I68
tp234
a(I47
I76
tp235
a(I61
I150
tp236
a(I32
I154
tp237
a(I56
I122
tp238
a(I56
I62
tp239
a(I0
I59
tp240
a(I3
I58
tp241
a(I9
I75
tp242
a(I69
I74
tp243
a(I7
I57
tp244
a(I52
I137
tp245
asg27
I200
sba(imain2
Polygon
p246
(dp247
g3
(I194
I197
tp248
sg5
I200
sg6
(I5
I194
I62
I81
tp249
sg8
(lp250
(I193
I168
tp251
a(I200
I200
tp252
a(I200
I180
tp253
a(I199
I156
tp254
asg27
I200
sba(imain2
Polygon
p255
(dp256
g3
(I8
I2
tp257
sg5
I200
sg6
(I204
I193
I217
I1
tp258
sg8
(lp259
(I6
I8
tp260
a(I36
I0
tp261
a(I25
I20
tp262
a(I5
I25
tp263
a(I0
I0
tp264
a(I57
I0
tp265
a(I9
I17
tp266
a(I52
I0
tp267
a(I0
I45
tp268
a(I20
I0
tp269
a(I55
I0
tp270
a(I0
I0
tp271
asg27
I200
sba(imain2
Polygon
p272
(dp273
g3
(I171
I144
tp274
sg5
I200
sg6
(I108
I155
I184
I0
tp275
sg8
(lp276
(I178
I114
tp277
a(I126
I156
tp278
a(I200
I110
tp279
a(I153
I190
tp280
a(I148
I190
tp281
a(I178
I125
tp282
a(I126
I121
tp283
a(I145
I130
tp284
asg27
I200
sba(imain2
Polygon
p285
(dp286
g3
(I44
I42
tp287
sg5
I200
sg6
(I77
I126
I71
I1
tp288
sg8
(lp289
(I29
I80
tp290
a(I41
I39
tp291
a(I91
I0
tp292
a(I69
I42
tp293
a(I86
I82
tp294
a(I88
I72
tp295
asg27
I200
sba(imain2
Polygon
p296
(dp297
g3
(I26
I99
tp298
sg5
I200
sg6
(I165
I96
I166
I62
tp299
sg8
(lp300
(I56
I57
tp301
a(I54
I125
tp302
a(I69
I134
tp303
a(I72
I53
tp304
asg27
I200
sba(imain2
Polygon
p305
(dp306
g3
(I114
I46
tp307
sg5
I200
sg6
(I95
I191
I193
I1
tp308
sg8
(lp309
(I79
I0
tp310
a(I126
I34
tp311
a(I145
I56
tp312
a(I90
I66
tp313
a(I111
I68
tp314
a(I104
I20
tp315
a(I81
I83
tp316
asg27
I200
sba(imain2
Polygon
p317
(dp318
g3
(I68
I194
tp319
sg5
I200
sg6
(I85
I191
I147
I1
tp320
sg8
(lp321
(I43
I200
tp322
a(I52
I200
tp323
a(I37
I184
tp324
a(I65
I200
tp325
a(I57
I192
tp326
a(I73
I172
tp327
asg27
I200
sba(imain2
Polygon
p328
(dp329
g3
(I200
I53
tp330
sg5
I200
sg6
(I177
I181
I163
I0
tp331
sg8
(lp332
(I183
I79
tp333
a(I152
I41
tp334
a(I200
I31
tp335
asg27
I200
sba(imain2
Polygon
p336
(dp337
g3
(I172
I155
tp338
sg5
I200
sg6
(I196
I75
I240
I0
tp339
sg8
(lp340
(I156
I193
tp341
a(I186
I170
tp342
a(I159
I155
tp343
a(I125
I176
tp344
a(I177
I157
tp345
a(I149
I135
tp346
a(I138
I123
tp347
a(I137
I184
tp348
a(I166
I121
tp349
a(I154
I196
tp350
a(I127
I165
tp351
a(I148
I197
tp352
asg27
I200
sba(imain2
Polygon
p353
(dp354
g3
(I154
I159
tp355
sg5
I200
sg6
(I52
I205
I31
I0
tp356
sg8
(lp357
(I150
I131
tp358
a(I122
I109
tp359
a(I164
I130
tp360
a(I127
I131
tp361
a(I176
I190
tp362
a(I178
I195
tp363
a(I141
I167
tp364
a(I171
I135
tp365
a(I160
I110
tp366
a(I159
I171
tp367
a(I147
I168
tp368
asg27
I200
sba(imain2
Polygon
p369
(dp370
g3
(I55
I59
tp371
sg5
I200
sg6
(I71
I191
I200
I1
tp372
sg8
(lp373
(I35
I56
tp374
a(I83
I49
tp375
a(I85
I40
tp376
a(I36
I16
tp377
a(I88
I54
tp378
a(I22
I16
tp379
a(I82
I44
tp380
a(I47
I28
tp381
a(I66
I10
tp382
a(I103
I76
tp383
a(I25
I105
tp384
a(I31
I25
tp385
a(I36
I25
tp386
a(I103
I88
tp387
a(I47
I104
tp388
a(I89
I41
tp389
a(I21
I16
tp390
a(I7
I61
tp391
a(I17
I70
tp392
a(I12
I21
tp393
asg27
I200
sba(imain2
Polygon
p394
(dp395
g3
(I127
I147
tp396
sg5
I200
sg6
(I45
I65
I111
I85
tp397
sg8
(lp398
(I109
I194
tp399
a(I79
I101
tp400
a(I97
I160
tp401
a(I161
I191
tp402
asg27
I200
sba(imain2
Polygon
p403
(dp404
g3
(I123
I114
tp405
sg5
I200
sg6
(I115
I0
I5
I1
tp406
sg8
(lp407
(I118
I78
tp408
a(I162
I88
tp409
a(I167
I90
tp410
a(I86
I139
tp411
a(I118
I115
tp412
a(I102
I142
tp413
a(I161
I129
tp414
asg27
I200
sba(imain2
Polygon
p415
(dp416
g3
(I2
I51
tp417
sg5
I200
sg6
(I121
I137
I221
I0
tp418
sg8
(lp419
(I0
I85
tp420
a(I0
I10
tp421
a(I0
I4
tp422
a(I0
I44
tp423
a(I0
I20
tp424
a(I0
I61
tp425
a(I0
I75
tp426
a(I22
I88
tp427
a(I22
I98
tp428
a(I0
I7
tp429
a(I0
I75
tp430
asg27
I200
sba(imain2
Polygon
p431
(dp432
g3
(I166
I21
tp433
sg5
I200
sg6
(I210
I244
I213
I75
tp434
sg8
(lp435
(I200
I0
tp436
a(I200
I59
tp437
a(I169
I70
tp438
a(I131
I0
tp439
a(I153
I0
tp440
a(I131
I6
tp441
a(I135
I0
tp442
a(I200
I0
tp443
a(I178
I26
tp444
asg27
I200
sba(imain2
Polygon
p445
(dp446
g3
(I110
I91
tp447
sg5
I200
sg6
(I125
I30
I28
I0
tp448
sg8
(lp449
(I78
I111
tp450
a(I70
I70
tp451
a(I80
I118
tp452
a(I153
I89
tp453
a(I69
I141
tp454
a(I81
I95
tp455
a(I68
I96
tp456
a(I100
I114
tp457
a(I109
I100
tp458
a(I67
I66
tp459
a(I94
I93
tp460
a(I75
I65
tp461
a(I150
I136
tp462
a(I130
I41
tp463
a(I104
I65
tp464
a(I92
I48
tp465
a(I114
I65
tp466
a(I139
I58
tp467
a(I134
I101
tp468
asg27
I200
sba(imain2
Polygon
p469
(dp470
g3
(I148
I41
tp471
sg5
I200
sg6
(I156
I1
I204
I1
tp472
sg8
(lp473
(I103
I13
tp474
a(I127
I19
tp475
a(I192
I6
tp476
a(I130
I54
tp477
a(I155
I13
tp478
a(I138
I62
tp479
a(I160
I9
tp480
a(I110
I80
tp481
a(I103
I84
tp482
a(I114
I14
tp483
a(I153
I30
tp484
a(I135
I21
tp485
a(I144
I23
tp486
asg27
I200
sba(imain2
Polygon
p487
(dp488
g3
(I188
I159
tp489
sg5
I200
sg6
(I158
I68
I63
I0
tp490
sg8
(lp491
(I153
I158
tp492
a(I164
I115
tp493
a(I200
I197
tp494
a(I200
I137
tp495
a(I158
I121
tp496
a(I200
I111
tp497
a(I156
I170
tp498
asg27
I200
sba(imain2
Polygon
p499
(dp500
g3
(I55
I106
tp501
sg5
I200
sg6
(I54
I89
I39
I0
tp502
sg8
(lp503
(I69
I94
tp504
a(I31
I67
tp505
a(I74
I146
tp506
a(I69
I95
tp507
a(I46
I114
tp508
a(I99
I105
tp509
a(I75
I126
tp510
a(I31
I130
tp511
a(I92
I93
tp512
asg27
I200
sba(imain2
Polygon
p513
(dp514
g3
(I118
I64
tp515
sg5
I200
sg6
(I126
I36
I2
I1
tp516
sg8
(lp517
(I68
I113
tp518
a(I88
I65
tp519
a(I149
I49
tp520
a(I137
I15
tp521
a(I149
I42
tp522
a(I146
I16
tp523
a(I100
I81
tp524
a(I146
I72
tp525
a(I160
I97
tp526
a(I88
I20
tp527
a(I123
I23
tp528
a(I105
I36
tp529
a(I98
I55
tp530
asg27
I200
sba(imain2
Polygon
p531
(dp532
g3
(I101
I127
tp533
sg5
I200
sg6
(I83
I171
I94
I60
tp534
sg8
(lp535
(I82
I132
tp536
a(I60
I130
tp537
a(I118
I127
tp538
a(I132
I81
tp539
a(I63
I110
tp540
a(I134
I145
tp541
asg27
I200
sba(imain2
Polygon
p542
(dp543
g3
(I42
I89
tp544
sg5
I200
sg6
(I15
I90
I176
I0
tp545
sg8
(lp546
(I82
I88
tp547
a(I34
I55
tp548
a(I79
I129
tp549
a(I78
I95
tp550
a(I15
I128
tp551
a(I61
I62
tp552
a(I0
I131
tp553
a(I39
I127
tp554
a(I53
I130
tp555
a(I36
I80
tp556
asg27
I200
sba(imain2
Polygon
p557
(dp558
g3
(I71
I151
tp559
sg5
I200
sg6
(I150
I167
I219
I120
tp560
sg8
(lp561
(I59
I125
tp562
a(I74
I126
tp563
a(I115
I198
tp564
a(I68
I200
tp565
a(I91
I177
tp566
a(I121
I195
tp567
asg27
I200
sba(imain2
Polygon
p568
(dp569
g3
(I13
I141
tp570
sg5
I200
sg6
(I241
I1
I193
I0
tp571
sg8
(lp572
(I0
I134
tp573
a(I0
I181
tp574
a(I0
I162
tp575
a(I28
I147
tp576
a(I53
I153
tp577
a(I7
I133
tp578
a(I16
I119
tp579
a(I31
I95
tp580
a(I38
I142
tp581
a(I47
I102
tp582
a(I52
I124
tp583
a(I63
I126
tp584
asg27
I200
sba(imain2
Polygon
p585
(dp586
g3
(I37
I11
tp587
sg5
I200
sg6
(I112
I18
I9
I85
tp588
sg8
(lp589
(I77
I0
tp590
a(I0
I56
tp591
a(I15
I11
tp592
a(I57
I0
tp593
a(I3
I0
tp594
a(I70
I6
tp595
a(I61
I0
tp596
asg27
I200
sba(imain2
Polygon
p597
(dp598
g3
(I97
I114
tp599
sg5
I200
sg6
(I144
I8
I201
I66
tp600
sg8
(lp601
(I126
I160
tp602
a(I86
I149
tp603
a(I121
I97
tp604
a(I126
I64
tp605
a(I62
I77
tp606
a(I73
I100
tp607
a(I48
I82
tp608
a(I75
I158
tp609
a(I100
I154
tp610
a(I115
I101
tp611
a(I51
I65
tp612
a(I84
I72
tp613
a(I76
I71
tp614
a(I110
I85
tp615
a(I80
I151
tp616
a(I113
I101
tp617
a(I64
I125
tp618
a(I85
I64
tp619
a(I57
I142
tp620
asg27
I200
sba(imain2
Polygon
p621
(dp622
g3
(I77
I12
tp623
sg5
I200
sg6
(I100
I0
I194
I1
tp624
sg8
(lp625
(I97
I0
tp626
a(I85
I0
tp627
a(I31
I43
tp628
a(I46
I41
tp629
a(I50
I51
tp630
a(I77
I25
tp631
a(I69
I0
tp632
a(I96
I0
tp633
a(I51
I42
tp634
asg27
I200
sba(imain2
Polygon
p635
(dp636
g3
(I114
I16
tp637
sg5
I200
sg6
(I1
I99
I176
I136
tp638
sg8
(lp639
(I119
I24
tp640
a(I151
I0
tp641
a(I71
I2
tp642
a(I142
I23
tp643
a(I160
I13
tp644
a(I130
I13
tp645
asg27
I200
sba(imain2
Polygon
p646
(dp647
g3
(I150
I10
tp648
sg5
I200
sg6
(I109
I56
I223
I146
tp649
sg8
(lp650
(I119
I0
tp651
a(I175
I1
tp652
a(I132
I0
tp653
a(I182
I0
tp654
a(I129
I11
tp655
a(I119
I18
tp656
a(I101
I0
tp657
a(I137
I0
tp658
a(I174
I0
tp659
a(I170
I0
tp660
a(I150
I0
tp661
asg27
I200
sba(imain2
Polygon
p662
(dp663
g3
(I41
I10
tp664
sg5
I200
sg6
(I112
I202
I82
I0
tp665
sg8
(lp666
(I28
I17
tp667
a(I23
I53
tp668
a(I0
I4
tp669
a(I0
I0
tp670
a(I60
I0
tp671
asg27
I200
sba(imain2
Polygon
p672
(dp673
g3
(I174
I159
tp674
sg5
I200
sg6
(I168
I106
I84
I86
tp675
sg8
(lp676
(I200
I125
tp677
a(I200
I200
tp678
a(I184
I191
tp679
a(I168
I116
tp680
a(I200
I121
tp681
a(I200
I173
tp682
a(I200
I119
tp683
asg27
I200
sba(imain2
Polygon
p684
(dp685
g3
(I61
I97
tp686
sg5
I200
sg6
(I122
I31
I105
I79
tp687
sg8
(lp688
(I66
I87
tp689
a(I94
I137
tp690
a(I64
I49
tp691
a(I103
I82
tp692
a(I64
I94
tp693
a(I102
I53
tp694
a(I108
I74
tp695
a(I96
I125
tp696
a(I52
I115
tp697
a(I50
I59
tp698
asg27
I200
sba(imain2
Polygon
p699
(dp700
g3
(I180
I97
tp701
sg5
I200
sg6
(I158
I153
I197
I1
tp702
sg8
(lp703
(I180
I99
tp704
a(I200
I108
tp705
a(I200
I62
tp706
a(I172
I65
tp707
a(I200
I145
tp708
a(I196
I133
tp709
a(I179
I133
tp710
a(I200
I63
tp711
asg27
I200
sba(imain2
Polygon
p712
(dp713
g3
(I101
I122
tp714
sg5
I200
sg6
(I162
I83
I1
I57
tp715
sg8
(lp716
(I87
I91
tp717
a(I111
I157
tp718
a(I98
I108
tp719
a(I93
I147
tp720
a(I118
I155
tp721
a(I125
I80
tp722
a(I61
I152
tp723
a(I86
I102
tp724
a(I147
I140
tp725
a(I58
I84
tp726
a(I77
I77
tp727
a(I124
I77
tp728
asg27
I200
sba(imain2
Polygon
p729
(dp730
g3
(I131
I15
tp731
sg5
I200
sg6
(I56
I126
I126
I0
tp732
sg8
(lp733
(I154
I0
tp734
a(I140
I8
tp735
a(I179
I62
tp736
a(I91
I0
tp737
a(I82
I0
tp738
a(I95
I0
tp739
a(I81
I62
tp740
a(I131
I0
tp741
a(I91
I0
tp742
a(I102
I0
tp743
asg27
I200
sba(imain2
Polygon
p744
(dp745
g3
(I113
I24
tp746
sg5
I200
sg6
(I147
I239
I0
I0
tp747
sg8
(lp748
(I163
I0
tp749
a(I88
I27
tp750
a(I85
I60
tp751
a(I123
I70
tp752
a(I125
I3
tp753
a(I115
I8
tp754
a(I117
I66
tp755
a(I110
I46
tp756
a(I138
I18
tp757
a(I122
I0
tp758
a(I77
I58
tp759
a(I110
I0
tp760
a(I163
I41
tp761
asg27
I200
sba(imain2
Polygon
p762
(dp763
g3
(I15
I21
tp764
sg5
I200
sg6
(I41
I40
I24
I0
tp765
sg8
(lp766
(I8
I18
tp767
a(I2
I12
tp768
a(I59
I59
tp769
a(I51
I26
tp770
a(I50
I29
tp771
a(I38
I50
tp772
a(I2
I0
tp773
a(I15
I36
tp774
a(I0
I44
tp775
asg27
I200
sba(imain2
Polygon
p776
(dp777
g3
(I75
I18
tp778
sg5
I200
sg6
(I118
I124
I38
I135
tp779
sg8
(lp780
(I98
I0
tp781
a(I82
I30
tp782
a(I76
I17
tp783
a(I90
I0
tp784
a(I32
I0
tp785
a(I29
I0
tp786
a(I70
I49
tp787
a(I31
I0
tp788
a(I64
I30
tp789
a(I77
I0
tp790
a(I26
I62
tp791
a(I118
I0
tp792
a(I123
I13
tp793
a(I25
I19
tp794
a(I53
I67
tp795
a(I111
I64
tp796
a(I124
I63
tp797
a(I72
I12
tp798
a(I104
I7
tp799
a(I73
I11
tp800
a(I54
I26
tp801
asg27
I200
sba(imain2
Polygon
p802
(dp803
g3
(I147
I31
tp804
sg5
I200
sg6
(I240
I1
I220
I130
tp805
sg8
(lp806
(I197
I0
tp807
a(I196
I42
tp808
a(I180
I38
tp809
a(I168
I65
tp810
a(I153
I34
tp811
a(I193
I77
tp812
a(I187
I24
tp813
a(I176
I51
tp814
a(I126
I17
tp815
a(I97
I10
tp816
a(I130
I0
tp817
asg27
I200
sba(imain2
Polygon
p818
(dp819
g3
(I43
I128
tp820
sg5
I200
sg6
(I89
I21
I103
I111
tp821
sg8
(lp822
(I6
I108
tp823
a(I0
I99
tp824
a(I15
I103
tp825
a(I5
I162
tp826
a(I19
I96
tp827
a(I3
I155
tp828
asg27
I200
sba(imain2
Polygon
p829
(dp830
g3
(I191
I52
tp831
sg5
I200
sg6
(I139
I139
I97
I1
tp832
sg8
(lp833
(I200
I4
tp834
a(I200
I26
tp835
a(I179
I57
tp836
a(I160
I85
tp837
a(I200
I9
tp838
a(I200
I78
tp839
a(I150
I21
tp840
a(I186
I45
tp841
a(I162
I13
tp842
asg27
I200
sba(imain2
Polygon
p843
(dp844
g3
(I124
I96
tp845
sg5
I200
sg6
(I220
I84
I119
I1
tp846
sg8
(lp847
(I156
I93
tp848
a(I142
I107
tp849
a(I106
I89
tp850
a(I142
I104
tp851
a(I100
I144
tp852
a(I91
I110
tp853
a(I138
I110
tp854
a(I109
I135
tp855
a(I102
I110
tp856
a(I81
I129
tp857
a(I157
I142
tp858
asg27
I200
sba(imain2
Polygon
p859
(dp860
g3
(I14
I107
tp861
sg5
I200
sg6
(I54
I1
I216
I115
tp862
sg8
(lp863
(I0
I120
tp864
a(I0
I102
tp865
a(I6
I81
tp866
a(I0
I109
tp867
asg27
I200
sba(imain2
Polygon
p868
(dp869
g3
(I84
I159
tp870
sg5
I200
sg6
(I49
I10
I191
I1
tp871
sg8
(lp872
(I88
I152
tp873
a(I90
I134
tp874
a(I51
I133
tp875
a(I113
I185
tp876
a(I101
I200
tp877
a(I118
I139
tp878
a(I83
I136
tp879
a(I64
I172
tp880
a(I99
I119
tp881
asg27
I200
sba(imain2
Polygon
p882
(dp883
g3
(I141
I115
tp884
sg5
I200
sg6
(I236
I169
I168
I0
tp885
sg8
(lp886
(I180
I117
tp887
a(I152
I78
tp888
a(I126
I104
tp889
asg27
I200
sba(imain2
Polygon
p890
(dp891
g3
(I199
I78
tp892
sg5
I200
sg6
(I204
I199
I82
I117
tp893
sg8
(lp894
(I151
I34
tp895
a(I153
I30
tp896
a(I200
I28
tp897
a(I200
I125
tp898
a(I164
I113
tp899
a(I175
I100
tp900
a(I171
I79
tp901
asg27
I200
sba(imain2
Polygon
p902
(dp903
g3
(I167
I90
tp904
sg5
I200
sg6
(I32
I185
I28
I37
tp905
sg8
(lp906
(I193
I65
tp907
a(I200
I99
tp908
a(I182
I102
tp909
a(I200
I85
tp910
a(I155
I50
tp911
asg27
I200
sba(imain2
Polygon
p912
(dp913
g3
(I17
I14
tp914
sg5
I200
sg6
(I1
I7
I90
I17
tp915
sg8
(lp916
(I37
I26
tp917
a(I0
I12
tp918
a(I30
I27
tp919
a(I0
I8
tp920
a(I21
I0
tp921
a(I0
I0
tp922
a(I0
I17
tp923
a(I0
I29
tp924
a(I0
I0
tp925
a(I23
I18
tp926
a(I0
I50
tp927
a(I44
I1
tp928
a(I0
I2
tp929
a(I8
I0
tp930
a(I17
I0
tp931
asg27
I200
sba(imain2
Polygon
p932
(dp933
g3
(I190
I180
tp934
sg5
I200
sg6
(I224
I100
I46
I0
tp935
sg8
(lp936
(I197
I149
tp937
a(I156
I200
tp938
a(I200
I200
tp939
a(I200
I200
tp940
a(I181
I178
tp941
asg27
I200
sba(imain2
Polygon
p942
(dp943
g3
(I70
I166
tp944
sg5
I200
sg6
(I105
I177
I0
I0
tp945
sg8
(lp946
(I106
I200
tp947
a(I112
I200
tp948
a(I84
I188
tp949
a(I77
I128
tp950
a(I36
I127
tp951
a(I110
I188
tp952
a(I90
I195
tp953
a(I106
I184
tp954
a(I52
I183
tp955
asg27
I200
sba(imain2
Polygon
p956
(dp957
g3
(I196
I185
tp958
sg5
I200
sg6
(I17
I153
I128
I1
tp959
sg8
(lp960
(I153
I200
tp961
a(I200
I163
tp962
a(I200
I200
tp963
a(I151
I200
tp964
a(I150
I137
tp965
a(I200
I200
tp966
asg27
I200
sba(imain2
Polygon
p967
(dp968
g3
(I48
I123
tp969
sg5
I200
sg6
(I164
I42
I15
I82
tp970
sg8
(lp971
(I8
I113
tp972
a(I8
I127
tp973
a(I0
I97
tp974
a(I22
I76
tp975
a(I46
I104
tp976
a(I58
I146
tp977
a(I89
I76
tp978
a(I9
I121
tp979
a(I27
I162
tp980
a(I11
I146
tp981
asg27
I200
sba(imain2
Polygon
p982
(dp983
g3
(I59
I97
tp984
sg5
I200
sg6
(I202
I47
I125
I14
tp985
sg8
(lp986
(I70
I135
tp987
a(I85
I54
tp988
a(I45
I47
tp989
a(I104
I120
tp990
a(I44
I80
tp991
a(I63
I132
tp992
a(I67
I65
tp993
a(I107
I141
tp994
a(I83
I125
tp995
a(I74
I134
tp996
asg27
I200
sba(imain2
Polygon
p997
(dp998
g3
(I17
I149
tp999
sg5
I200
sg6
(I0
I35
I154
I1
tp1000
sg8
(lp1001
(I0
I124
tp1002
a(I0
I184
tp1003
a(I0
I172
tp1004
a(I5
I196
tp1005
a(I17
I138
tp1006
a(I0
I171
tp1007
a(I55
I198
tp1008
a(I22
I101
tp1009
asg27
I200
sba(imain2
Polygon
p1010
(dp1011
g3
(I88
I2
tp1012
sg5
I200
sg6
(I2
I101
I60
I38
tp1013
sg8
(lp1014
(I76
I0
tp1015
a(I122
I0
tp1016
a(I48
I0
tp1017
a(I105
I20
tp1018
a(I82
I0
tp1019
a(I78
I0
tp1020
a(I113
I12
tp1021
asg27
I200
sba(imain2
Polygon
p1022
(dp1023
g3
(I3
I161
tp1024
sg5
I200
sg6
(I173
I17
I188
I0
tp1025
sg8
(lp1026
(I46
I119
tp1027
a(I0
I169
tp1028
a(I0
I141
tp1029
a(I41
I178
tp1030
a(I0
I124
tp1031
a(I0
I163
tp1032
a(I0
I168
tp1033
a(I11
I145
tp1034
a(I0
I121
tp1035
a(I0
I200
tp1036
asg27
I200
sba(imain2
Polygon
p1037
(dp1038
g3
(I98
I58
tp1039
sg5
I200
sg6
(I36
I61
I167
I0
tp1040
sg8
(lp1041
(I126
I105
tp1042
a(I68
I69
tp1043
a(I71
I81
tp1044
a(I74
I104
tp1045
a(I52
I73
tp1046
a(I125
I37
tp1047
asg27
I200
sba(imain2
Polygon
p1048
(dp1049
g3
(I109
I111
tp1050
sg5
I200
sg6
(I225
I35
I97
I1
tp1051
sg8
(lp1052
(I91
I100
tp1053
a(I96
I159
tp1054
a(I64
I113
tp1055
a(I109
I97
tp1056
a(I60
I145
tp1057
a(I147
I83
tp1058
a(I107
I123
tp1059
a(I83
I82
tp1060
a(I126
I115
tp1061
asg27
I200
sba(imain2
Polygon
p1062
(dp1063
g3
(I83
I155
tp1064
sg5
I200
sg6
(I201
I40
I179
I6
tp1065
sg8
(lp1066
(I67
I145
tp1067
a(I129
I115
tp1068
a(I132
I200
tp1069
a(I58
I195
tp1070
a(I112
I160
tp1071
a(I60
I111
tp1072
a(I110
I188
tp1073
a(I51
I131
tp1074
a(I87
I167
tp1075
a(I102
I130
tp1076
a(I90
I159
tp1077
a(I106
I115
tp1078
a(I76
I160
tp1079
a(I84
I144
tp1080
a(I33
I118
tp1081
a(I81
I114
tp1082
a(I112
I109
tp1083
a(I43
I119
tp1084
asg27
I200
sba(imain2
Polygon
p1085
(dp1086
g3
(I81
I21
tp1087
sg5
I200
sg6
(I135
I0
I24
I95
tp1088
sg8
(lp1089
(I65
I6
tp1090
a(I110
I0
tp1091
a(I90
I0
tp1092
a(I122
I60
tp1093
a(I103
I58
tp1094
a(I63
I3
tp1095
a(I117
I0
tp1096
a(I80
I0
tp1097
asg27
I200
sba(imain2
Polygon
p1098
(dp1099
g3
(I77
I115
tp1100
sg5
I200
sg6
(I90
I235
I216
I0
tp1101
sg8
(lp1102
(I39
I74
tp1103
a(I45
I102
tp1104
a(I59
I149
tp1105
a(I81
I144
tp1106
a(I32
I139
tp1107
a(I85
I78
tp1108
a(I126
I153
tp1109
a(I34
I138
tp1110
asg27
I200
sba(imain2
Polygon
p1111
(dp1112
g3
(I108
I110
tp1113
sg5
I200
sg6
(I141
I114
I142
I1
tp1114
sg8
(lp1115
(I128
I152
tp1116
a(I143
I78
tp1117
a(I76
I135
tp1118
a(I129
I123
tp1119
a(I153
I68
tp1120
a(I129
I106
tp1121
a(I101
I139
tp1122
a(I110
I143
tp1123
a(I109
I107
tp1124
a(I137
I94
tp1125
a(I104
I133
tp1126
asg27
I200
sba(imain2
Polygon
p1127
(dp1128
g3
(I7
I122
tp1129
sg5
I200
sg6
(I150
I1
I155
I0
tp1130
sg8
(lp1131
(I1
I75
tp1132
a(I26
I136
tp1133
a(I40
I82
tp1134
a(I0
I168
tp1135
a(I15
I147
tp1136
a(I47
I133
tp1137
a(I0
I158
tp1138
a(I48
I92
tp1139
a(I46
I97
tp1140
a(I0
I145
tp1141
a(I0
I160
tp1142
a(I6
I142
tp1143
a(I24
I123
tp1144
a(I23
I87
tp1145
asg27
I200
sba(imain2
Polygon
p1146
(dp1147
g3
(I105
I20
tp1148
sg5
I200
sg6
(I211
I24
I227
I1
tp1149
sg8
(lp1150
(I68
I0
tp1151
a(I73
I0
tp1152
a(I147
I27
tp1153
a(I66
I0
tp1154
a(I138
I42
tp1155
a(I57
I22
tp1156
a(I142
I57
tp1157
asg27
I200
sba(imain2
Polygon
p1158
(dp1159
g3
(I47
I80
tp1160
sg5
I200
sg6
(I104
I46
I113
I6
tp1161
sg8
(lp1162
(I55
I102
tp1163
a(I79
I102
tp1164
a(I24
I107
tp1165
a(I6
I49
tp1166
a(I96
I67
tp1167
a(I26
I77
tp1168
a(I75
I53
tp1169
a(I52
I37
tp1170
a(I11
I37
tp1171
a(I13
I128
tp1172
a(I64
I108
tp1173
a(I23
I50
tp1174
a(I85
I58
tp1175
a(I68
I94
tp1176
a(I82
I49
tp1177
a(I8
I102
tp1178
a(I84
I126
tp1179
a(I90
I110
tp1180
a(I54
I57
tp1181
a(I13
I123
tp1182
asg27
I200
sba(imain2
Polygon
p1183
(dp1184
g3
(I131
I30
tp1185
sg5
I200
sg6
(I202
I121
I167
I0
tp1186
sg8
(lp1187
(I87
I17
tp1188
a(I102
I0
tp1189
a(I162
I8
tp1190
asg27
I200
sba(imain2
Polygon
p1191
(dp1192
g3
(I199
I39
tp1193
sg5
I200
sg6
(I90
I187
I104
I52
tp1194
sg8
(lp1195
(I200
I0
tp1196
a(I150
I0
tp1197
a(I200
I89
tp1198
a(I200
I14
tp1199
asg27
I200
sba(imain2
Polygon
p1200
(dp1201
g3
(I110
I156
tp1202
sg5
I200
sg6
(I186
I90
I123
I0
tp1203
sg8
(lp1204
(I106
I166
tp1205
a(I116
I155
tp1206
a(I91
I200
tp1207
a(I160
I151
tp1208
a(I133
I138
tp1209
a(I63
I146
tp1210
a(I103
I170
tp1211
a(I76
I200
tp1212
a(I138
I148
tp1213
a(I121
I145
tp1214
a(I144
I153
tp1215
a(I127
I174
tp1216
a(I136
I149
tp1217
asg27
I200
sba(imain2
Polygon
p1218
(dp1219
g3
(I14
I89
tp1220
sg5
I200
sg6
(I199
I19
I24
I66
tp1221
sg8
(lp1222
(I0
I61
tp1223
a(I49
I72
tp1224
a(I53
I72
tp1225
a(I55
I44
tp1226
a(I17
I118
tp1227
a(I0
I99
tp1228
a(I5
I50
tp1229
a(I11
I80
tp1230
a(I34
I109
tp1231
asg27
I200
sba(imain2
Polygon
p1232
(dp1233
g3
(I124
I127
tp1234
sg5
I200
sg6
(I171
I215
I170
I1
tp1235
sg8
(lp1236
(I119
I158
tp1237
a(I99
I92
tp1238
a(I81
I155
tp1239
a(I111
I115
tp1240
a(I114
I144
tp1241
a(I97
I169
tp1242
a(I170
I95
tp1243
a(I135
I124
tp1244
a(I104
I171
tp1245
a(I92
I110
tp1246
a(I100
I124
tp1247
a(I101
I170
tp1248
a(I154
I141
tp1249
a(I85
I154
tp1250
asg27
I200
sba(imain2
Polygon
p1251
(dp1252
g3
(I97
I78
tp1253
sg5
I200
sg6
(I146
I200
I157
I1
tp1254
sg8
(lp1255
(I62
I103
tp1256
a(I66
I110
tp1257
a(I110
I111
tp1258
a(I135
I109
tp1259
a(I118
I78
tp1260
a(I78
I58
tp1261
a(I55
I84
tp1262
a(I108
I101
tp1263
a(I55
I62
tp1264
a(I54
I111
tp1265
a(I77
I65
tp1266
asg27
I200
sba(imain2
Polygon
p1267
(dp1268
g3
(I71
I43
tp1269
sg5
I200
sg6
(I218
I209
I117
I1
tp1270
sg8
(lp1271
(I120
I75
tp1272
a(I38
I0
tp1273
a(I53
I38
tp1274
a(I49
I45
tp1275
a(I50
I41
tp1276
a(I24
I70
tp1277
a(I75
I14
tp1278
a(I39
I86
tp1279
asg27
I200
sba(imain2
Polygon
p1280
(dp1281
g3
(I109
I75
tp1282
sg5
I200
sg6
(I108
I159
I66
I117
tp1283
sg8
(lp1284
(I63
I26
tp1285
a(I62
I79
tp1286
a(I120
I76
tp1287
a(I87
I26
tp1288
a(I64
I35
tp1289
a(I71
I69
tp1290
a(I62
I35
tp1291
a(I91
I63
tp1292
asg27
I200
sba(imain2
Polygon
p1293
(dp1294
g3
(I149
I45
tp1295
sg5
I200
sg6
(I205
I139
I126
I84
tp1296
sg8
(lp1297
(I199
I90
tp1298
a(I165
I70
tp1299
a(I183
I12
tp1300
a(I128
I0
tp1301
a(I175
I87
tp1302
a(I158
I84
tp1303
a(I187
I0
tp1304
a(I194
I33
tp1305
a(I189
I0
tp1306
a(I130
I0
tp1307
a(I195
I19
tp1308
a(I199
I27
tp1309
asg27
I200
sba(imain2
Polygon
p1310
(dp1311
g3
(I29
I98
tp1312
sg5
I200
sg6
(I6
I134
I169
I32
tp1313
sg8
(lp1314
(I0
I145
tp1315
a(I75
I70
tp1316
a(I0
I73
tp1317
a(I0
I142
tp1318
a(I32
I77
tp1319
a(I67
I79
tp1320
a(I60
I84
tp1321
a(I47
I113
tp1322
a(I28
I90
tp1323
a(I56
I50
tp1324
a(I0
I116
tp1325
a(I19
I137
tp1326
asg27
I200
sba(imain2
Polygon
p1327
(dp1328
g3
(I90
I62
tp1329
sg5
I200
sg6
(I176
I116
I129
I1
tp1330
sg8
(lp1331
(I71
I20
tp1332
a(I61
I49
tp1333
a(I54
I78
tp1334
a(I125
I83
tp1335
a(I117
I52
tp1336
a(I63
I51
tp1337
asg27
I200
sba(imain2
Polygon
p1338
(dp1339
g3
(I63
I49
tp1340
sg5
I200
sg6
(I217
I249
I133
I1
tp1341
sg8
(lp1342
(I83
I99
tp1343
a(I60
I50
tp1344
a(I38
I20
tp1345
a(I14
I3
tp1346
a(I16
I27
tp1347
a(I111
I79
tp1348
a(I36
I61
tp1349
a(I99
I65
tp1350
a(I24
I58
tp1351
a(I80
I12
tp1352
a(I31
I14
tp1353
asg27
I200
sba(imain2
Polygon
p1354
(dp1355
g3
(I31
I132
tp1356
sg5
I200
sg6
(I73
I116
I195
I7
tp1357
sg8
(lp1358
(I8
I160
tp1359
a(I35
I167
tp1360
a(I5
I107
tp1361
a(I70
I131
tp1362
a(I53
I134
tp1363
a(I10
I143
tp1364
a(I0
I113
tp1365
a(I42
I100
tp1366
a(I0
I125
tp1367
a(I0
I146
tp1368
a(I14
I172
tp1369
a(I51
I169
tp1370
a(I28
I154
tp1371
a(I12
I140
tp1372
a(I69
I141
tp1373
a(I5
I164
tp1374
asg27
I200
sba(imain2
Polygon
p1375
(dp1376
g3
(I80
I158
tp1377
sg5
I200
sg6
(I24
I41
I57
I1
tp1378
sg8
(lp1379
(I60
I161
tp1380
a(I114
I200
tp1381
a(I54
I185
tp1382
a(I94
I151
tp1383
a(I69
I136
tp1384
a(I105
I129
tp1385
a(I74
I194
tp1386
a(I65
I200
tp1387
a(I111
I109
tp1388
a(I35
I139
tp1389
a(I124
I119
tp1390
a(I58
I172
tp1391
a(I126
I180
tp1392
a(I39
I119
tp1393
a(I37
I191
tp1394
a(I82
I200
tp1395
a(I120
I184
tp1396
a(I30
I146
tp1397
a(I38
I116
tp1398
a(I64
I164
tp1399
asg27
I200
sba(imain2
Polygon
p1400
(dp1401
g3
(I168
I51
tp1402
sg5
I200
sg6
(I97
I202
I209
I1
tp1403
sg8
(lp1404
(I120
I98
tp1405
a(I174
I19
tp1406
a(I200
I37
tp1407
a(I200
I31
tp1408
a(I196
I9
tp1409
a(I141
I16
tp1410
asg27
I200
sba(imain2
Polygon
p1411
(dp1412
g3
(I110
I14
tp1413
sg5
I200
sg6
(I156
I137
I49
I139
tp1414
sg8
(lp1415
(I118
I49
tp1416
a(I72
I59
tp1417
a(I101
I0
tp1418
a(I156
I0
tp1419
a(I158
I0
tp1420
a(I157
I28
tp1421
a(I70
I14
tp1422
a(I61
I0
tp1423
a(I67
I58
tp1424
a(I105
I0
tp1425
a(I135
I0
tp1426
a(I61
I0
tp1427
a(I77
I25
tp1428
asg27
I200
sba(imain2
Polygon
p1429
(dp1430
g3
(I85
I94
tp1431
sg5
I200
sg6
(I202
I232
I83
I64
tp1432
sg8
(lp1433
(I43
I56
tp1434
a(I110
I104
tp1435
a(I62
I48
tp1436
a(I105
I45
tp1437
a(I125
I73
tp1438
a(I92
I95
tp1439
a(I79
I138
tp1440
a(I109
I144
tp1441
a(I124
I111
tp1442
a(I62
I45
tp1443
a(I45
I66
tp1444
a(I55
I140
tp1445
a(I103
I103
tp1446
asg27
I200
sba(imain2
Polygon
p1447
(dp1448
g3
(I153
I81
tp1449
sg5
I200
sg6
(I121
I86
I189
I1
tp1450
sg8
(lp1451
(I197
I49
tp1452
a(I121
I118
tp1453
a(I150
I46
tp1454
a(I188
I103
tp1455
a(I163
I70
tp1456
a(I194
I108
tp1457
a(I194
I60
tp1458
a(I150
I42
tp1459
asg27
I200
sba(imain2
Polygon
p1460
(dp1461
g3
(I146
I37
tp1462
sg5
I200
sg6
(I227
I81
I154
I1
tp1463
sg8
(lp1464
(I166
I5
tp1465
a(I105
I34
tp1466
a(I105
I42
tp1467
a(I177
I33
tp1468
a(I170
I57
tp1469
a(I168
I0
tp1470
a(I178
I36
tp1471
a(I176
I68
tp1472
asg27
I200
sba(imain2
Polygon
p1473
(dp1474
g3
(I36
I71
tp1475
sg5
I200
sg6
(I177
I119
I133
I1
tp1476
sg8
(lp1477
(I67
I92
tp1478
a(I0
I69
tp1479
a(I71
I32
tp1480
a(I57
I71
tp1481
a(I48
I38
tp1482
a(I0
I51
tp1483
a(I42
I81
tp1484
a(I50
I114
tp1485
a(I58
I42
tp1486
a(I61
I117
tp1487
a(I2
I109
tp1488
asg27
I200
sba(imain2
Polygon
p1489
(dp1490
g3
(I36
I181
tp1491
sg5
I200
sg6
(I143
I212
I95
I67
tp1492
sg8
(lp1493
(I78
I149
tp1494
a(I38
I131
tp1495
a(I81
I147
tp1496
a(I71
I200
tp1497
a(I43
I172
tp1498
a(I0
I200
tp1499
a(I0
I149
tp1500
a(I66
I188
tp1501
a(I68
I200
tp1502
a(I71
I200
tp1503
asg27
I200
sba(imain2
Polygon
p1504
(dp1505
g3
(I94
I181
tp1506
sg5
I200
sg6
(I112
I48
I35
I0
tp1507
sg8
(lp1508
(I110
I200
tp1509
a(I73
I197
tp1510
a(I100
I142
tp1511
a(I119
I171
tp1512
a(I133
I167
tp1513
a(I107
I200
tp1514
a(I112
I200
tp1515
a(I73
I176
tp1516
a(I144
I145
tp1517
asg27
I200
sba(imain2
Polygon
p1518
(dp1519
g3
(I4
I26
tp1520
sg5
I200
sg6
(I27
I104
I59
I41
tp1521
sg8
(lp1522
(I0
I19
tp1523
a(I25
I0
tp1524
a(I1
I19
tp1525
a(I0
I38
tp1526
a(I0
I29
tp1527
a(I9
I3
tp1528
a(I54
I51
tp1529
a(I32
I59
tp1530
a(I43
I40
tp1531
a(I33
I48
tp1532
a(I0
I76
tp1533
a(I0
I0
tp1534
a(I48
I7
tp1535
a(I0
I38
tp1536
a(I30
I39
tp1537
a(I12
I0
tp1538
asg27
I200
sba(imain2
Polygon
p1539
(dp1540
g3
(I14
I45
tp1541
sg5
I200
sg6
(I145
I107
I0
I0
tp1542
sg8
(lp1543
(I0
I56
tp1544
a(I34
I81
tp1545
a(I26
I76
tp1546
a(I0
I32
tp1547
a(I25
I22
tp1548
a(I8
I81
tp1549
a(I42
I67
tp1550
a(I0
I73
tp1551
a(I37
I75
tp1552
a(I31
I14
tp1553
asg27
I200
sba(imain2
Polygon
p1554
(dp1555
g3
(I103
I69
tp1556
sg5
I200
sg6
(I231
I218
I1
I36
tp1557
sg8
(lp1558
(I55
I36
tp1559
a(I53
I116
tp1560
a(I125
I109
tp1561
a(I135
I89
tp1562
a(I85
I19
tp1563
a(I102
I36
tp1564
asg27
I200
sba(imain2
Polygon
p1565
(dp1566
g3
(I61
I77
tp1567
sg5
I200
sg6
(I60
I120
I190
I120
tp1568
sg8
(lp1569
(I45
I115
tp1570
a(I88
I94
tp1571
a(I89
I87
tp1572
asg27
I200
sba(imain2
Polygon
p1573
(dp1574
g3
(I36
I98
tp1575
sg5
I200
sg6
(I0
I197
I72
I39
tp1576
sg8
(lp1577
(I28
I97
tp1578
a(I4
I90
tp1579
a(I0
I121
tp1580
a(I0
I53
tp1581
a(I80
I75
tp1582
a(I30
I53
tp1583
a(I0
I130
tp1584
a(I36
I48
tp1585
a(I42
I52
tp1586
a(I19
I124
tp1587
asg27
I200
sba(imain2
Polygon
p1588
(dp1589
g3
(I20
I133
tp1590
sg5
I200
sg6
(I196
I236
I132
I72
tp1591
sg8
(lp1592
(I30
I179
tp1593
a(I0
I181
tp1594
a(I0
I175
tp1595
a(I21
I139
tp1596
a(I28
I170
tp1597
asg27
I200
sba(imain2
Polygon
p1598
(dp1599
g3
(I178
I74
tp1600
sg5
I200
sg6
(I29
I119
I23
I0
tp1601
sg8
(lp1602
(I193
I110
tp1603
a(I186
I112
tp1604
a(I200
I57
tp1605
a(I155
I38
tp1606
a(I200
I85
tp1607
a(I200
I79
tp1608
a(I169
I44
tp1609
asg27
I200
sba(imain2
Polygon
p1610
(dp1611
g3
(I191
I151
tp1612
sg5
I200
sg6
(I237
I38
I74
I52
tp1613
sg8
(lp1614
(I168
I135
tp1615
a(I200
I123
tp1616
a(I200
I189
tp1617
asg27
I200
sba(imain2
Polygon
p1618
(dp1619
g3
(I81
I200
tp1620
sg5
I200
sg6
(I40
I57
I159
I24
tp1621
sg8
(lp1622
(I63
I200
tp1623
a(I38
I191
tp1624
a(I46
I200
tp1625
a(I78
I172
tp1626
a(I46
I200
tp1627
a(I103
I198
tp1628
a(I103
I200
tp1629
a(I49
I200
tp1630
a(I99
I200
tp1631
asg27
I200
sba(imain2
Polygon
p1632
(dp1633
g3
(I8
I200
tp1634
sg5
I200
sg6
(I235
I14
I64
I129
tp1635
sg8
(lp1636
(I0
I200
tp1637
a(I0
I200
tp1638
a(I41
I200
tp1639
a(I0
I200
tp1640
a(I0
I200
tp1641
a(I35
I200
tp1642
a(I0
I200
tp1643
a(I23
I200
tp1644
a(I40
I200
tp1645
asg27
I200
sba(imain2
Polygon
p1646
(dp1647
g3
(I12
I187
tp1648
sg5
I200
sg6
(I222
I0
I177
I1
tp1649
sg8
(lp1650
(I23
I192
tp1651
a(I22
I200
tp1652
a(I0
I174
tp1653
a(I0
I174
tp1654
a(I49
I147
tp1655
a(I3
I200
tp1656
a(I42
I172
tp1657
a(I54
I200
tp1658
a(I0
I173
tp1659
a(I20
I145
tp1660
a(I16
I198
tp1661
a(I0
I200
tp1662
asg27
I200
sba(imain2
Polygon
p1663
(dp1664
g3
(I142
I43
tp1665
sg5
I200
sg6
(I49
I76
I163
I0
tp1666
sg8
(lp1667
(I129
I23
tp1668
a(I149
I90
tp1669
a(I148
I68
tp1670
a(I92
I48
tp1671
a(I118
I49
tp1672
a(I136
I59
tp1673
a(I106
I13
tp1674
a(I123
I43
tp1675
a(I95
I15
tp1676
a(I122
I35
tp1677
a(I170
I34
tp1678
a(I138
I19
tp1679
a(I152
I6
tp1680
a(I103
I43
tp1681
a(I146
I16
tp1682
asg27
I200
sba(imain2
Polygon
p1683
(dp1684
g3
(I89
I37
tp1685
sg5
I200
sg6
(I0
I101
I197
I71
tp1686
sg8
(lp1687
(I104
I35
tp1688
a(I54
I51
tp1689
a(I55
I50
tp1690
asg27
I200
sba(imain2
Polygon
p1691
(dp1692
g3
(I43
I51
tp1693
sg5
I200
sg6
(I34
I140
I121
I0
tp1694
sg8
(lp1695
(I15
I67
tp1696
a(I39
I8
tp1697
a(I54
I93
tp1698
a(I20
I81
tp1699
a(I29
I5
tp1700
a(I66
I97
tp1701
a(I62
I59
tp1702
a(I37
I59
tp1703
a(I76
I99
tp1704
a(I47
I50
tp1705
a(I2
I88
tp1706
a(I39
I83
tp1707
a(I88
I11
tp1708
a(I51
I32
tp1709
a(I75
I8
tp1710
a(I15
I62
tp1711
asg27
I200
sba(imain2
Polygon
p1712
(dp1713
g3
(I23
I143
tp1714
sg5
I200
sg6
(I72
I245
I171
I39
tp1715
sg8
(lp1716
(I0
I94
tp1717
a(I0
I130
tp1718
a(I0
I188
tp1719
a(I29
I191
tp1720
a(I34
I148
tp1721
a(I0
I157
tp1722
a(I0
I133
tp1723
asg27
I200
sba(imain2
Polygon
p1724
(dp1725
g3
(I32
I143
tp1726
sg5
I200
sg6
(I52
I69
I159
I0
tp1727
sg8
(lp1728
(I82
I177
tp1729
a(I49
I177
tp1730
a(I63
I174
tp1731
a(I52
I121
tp1732
a(I45
I154
tp1733
a(I1
I141
tp1734
a(I0
I171
tp1735
a(I17
I146
tp1736
a(I70
I117
tp1737
a(I18
I166
tp1738
a(I41
I99
tp1739
a(I58
I115
tp1740
a(I32
I170
tp1741
a(I0
I152
tp1742
a(I53
I187
tp1743
a(I22
I122
tp1744
a(I64
I151
tp1745
asg27
I200
sba(imain2
Polygon
p1746
(dp1747
g3
(I69
I107
tp1748
sg5
I200
sg6
(I156
I228
I1
I6
tp1749
sg8
(lp1750
(I95
I66
tp1751
a(I48
I101
tp1752
a(I45
I119
tp1753
a(I109
I101
tp1754
a(I57
I154
tp1755
a(I49
I120
tp1756
a(I34
I151
tp1757
a(I93
I154
tp1758
a(I108
I69
tp1759
a(I51
I66
tp1760
a(I113
I129
tp1761
a(I73
I153
tp1762
a(I34
I125
tp1763
asg27
I200
sba(imain2
Polygon
p1764
(dp1765
g3
(I172
I111
tp1766
sg5
I200
sg6
(I236
I212
I83
I122
tp1767
sg8
(lp1768
(I200
I62
tp1769
a(I200
I94
tp1770
a(I166
I66
tp1771
asg27
I200
sba(imain2
Polygon
p1772
(dp1773
g3
(I150
I91
tp1774
sg5
I200
sg6
(I8
I239
I84
I36
tp1775
sg8
(lp1776
(I174
I136
tp1777
a(I165
I69
tp1778
a(I174
I90
tp1779
a(I199
I68
tp1780
a(I197
I130
tp1781
asg27
I200
sba(imain2
Polygon
p1782
(dp1783
g3
(I135
I188
tp1784
sg5
I200
sg6
(I76
I226
I4
I1
tp1785
sg8
(lp1786
(I184
I181
tp1787
a(I127
I200
tp1788
a(I104
I200
tp1789
a(I161
I166
tp1790
a(I139
I200
tp1791
asg27
I200
sba(imain2
Polygon
p1792
(dp1793
g3
(I127
I113
tp1794
sg5
I200
sg6
(I133
I210
I151
I1
tp1795
sg8
(lp1796
(I116
I100
tp1797
a(I174
I63
tp1798
a(I164
I110
tp1799
a(I158
I139
tp1800
a(I111
I130
tp1801
asg27
I200
sba(imain2
Polygon
p1802
(dp1803
g3
(I173
I20
tp1804
sg5
I200
sg6
(I231
I1
I218
I1
tp1805
sg8
(lp1806
(I166
I0
tp1807
a(I198
I62
tp1808
a(I171
I46
tp1809
a(I200
I0
tp1810
a(I145
I26
tp1811
a(I200
I0
tp1812
a(I152
I0
tp1813
a(I189
I36
tp1814
a(I123
I0
tp1815
a(I200
I0
tp1816
a(I166
I0
tp1817
a(I163
I0
tp1818
a(I173
I0
tp1819
a(I144
I0
tp1820
a(I200
I35
tp1821
asg27
I200
sba(imain2
Polygon
p1822
(dp1823
g3
(I100
I197
tp1824
sg5
I200
sg6
(I33
I102
I176
I61
tp1825
sg8
(lp1826
(I99
I200
tp1827
a(I118
I200
tp1828
a(I147
I200
tp1829
a(I104
I151
tp1830
a(I129
I173
tp1831
a(I105
I200
tp1832
a(I92
I200
tp1833
a(I140
I200
tp1834
a(I133
I200
tp1835
a(I139
I200
tp1836
a(I97
I200
tp1837
a(I121
I200
tp1838
a(I109
I192
tp1839
asg27
I200
sba(imain2
Polygon
p1840
(dp1841
g3
(I70
I0
tp1842
sg5
I200
sg6
(I135
I1
I193
I0
tp1843
sg8
(lp1844
(I62
I0
tp1845
a(I115
I27
tp1846
a(I112
I0
tp1847
a(I107
I0
tp1848
a(I109
I36
tp1849
a(I64
I0
tp1850
a(I41
I0
tp1851
asg27
I200
sba(imain2
Polygon
p1852
(dp1853
g3
(I106
I152
tp1854
sg5
I200
sg6
(I98
I161
I61
I65
tp1855
sg8
(lp1856
(I133
I114
tp1857
a(I119
I166
tp1858
a(I59
I200
tp1859
a(I140
I199
tp1860
a(I115
I114
tp1861
a(I85
I153
tp1862
a(I124
I140
tp1863
a(I142
I198
tp1864
a(I122
I150
tp1865
a(I68
I141
tp1866
a(I112
I141
tp1867
a(I99
I123
tp1868
asg27
I200
sba(imain2
Polygon
p1869
(dp1870
g3
(I11
I38
tp1871
sg5
I200
sg6
(I109
I1
I123
I1
tp1872
sg8
(lp1873
(I11
I45
tp1874
a(I16
I6
tp1875
a(I35
I52
tp1876
a(I0
I12
tp1877
a(I8
I17
tp1878
a(I0
I79
tp1879
a(I52
I31
tp1880
a(I3
I4
tp1881
a(I46
I62
tp1882
a(I11
I25
tp1883
a(I3
I0
tp1884
asg27
I200
sba(imain2
Polygon
p1885
(dp1886
g3
(I23
I68
tp1887
sg5
I200
sg6
(I216
I111
I188
I119
tp1888
sg8
(lp1889
(I35
I109
tp1890
a(I24
I85
tp1891
a(I54
I19
tp1892
a(I0
I66
tp1893
a(I35
I32
tp1894
a(I64
I43
tp1895
a(I0
I19
tp1896
a(I0
I111
tp1897
a(I7
I98
tp1898
a(I38
I112
tp1899
a(I10
I74
tp1900
asg27
I200
sba(imain2
Polygon
p1901
(dp1902
g3
(I73
I8
tp1903
sg5
I200
sg6
(I104
I162
I20
I132
tp1904
sg8
(lp1905
(I33
I0
tp1906
a(I113
I0
tp1907
a(I27
I56
tp1908
a(I23
I45
tp1909
a(I27
I13
tp1910
a(I32
I0
tp1911
a(I44
I19
tp1912
a(I49
I29
tp1913
a(I58
I40
tp1914
asg27
I200
sba(imain2
Polygon
p1915
(dp1916
g3
(I175
I187
tp1917
sg5
I200
sg6
(I117
I193
I196
I51
tp1918
sg8
(lp1919
(I186
I200
tp1920
a(I170
I200
tp1921
a(I146
I200
tp1922
asg27
I200
sba(imain2
Polygon
p1923
(dp1924
g3
(I153
I195
tp1925
sg5
I200
sg6
(I54
I165
I29
I1
tp1926
sg8
(lp1927
(I179
I189
tp1928
a(I123
I200
tp1929
a(I135
I200
tp1930
a(I158
I200
tp1931
a(I192
I184
tp1932
a(I196
I200
tp1933
a(I125
I147
tp1934
a(I103
I169
tp1935
a(I103
I196
tp1936
asg27
I200
sba(imain2
Polygon
p1937
(dp1938
g3
(I199
I6
tp1939
sg5
I200
sg6
(I143
I39
I87
I0
tp1940
sg8
(lp1941
(I200
I20
tp1942
a(I200
I0
tp1943
a(I156
I0
tp1944
a(I149
I0
tp1945
a(I200
I20
tp1946
a(I200
I0
tp1947
a(I200
I32
tp1948
a(I150
I2
tp1949
a(I200
I38
tp1950
asg27
I200
sba(imain2
Polygon
p1951
(dp1952
g3
(I46
I191
tp1953
sg5
I200
sg6
(I89
I15
I8
I105
tp1954
sg8
(lp1955
(I69
I200
tp1956
a(I84
I189
tp1957
a(I89
I167
tp1958
a(I0
I200
tp1959
a(I0
I146
tp1960
a(I27
I155
tp1961
a(I79
I193
tp1962
a(I34
I181
tp1963
a(I84
I178
tp1964
a(I52
I173
tp1965
asg27
I200
sba(imain2
Polygon
p1966
(dp1967
g3
(I144
I179
tp1968
sg5
I200
sg6
(I125
I32
I189
I32
tp1969
sg8
(lp1970
(I123
I130
tp1971
a(I153
I186
tp1972
a(I136
I182
tp1973
a(I130
I191
tp1974
a(I102
I180
tp1975
a(I191
I200
tp1976
a(I105
I200
tp1977
a(I133
I183
tp1978
a(I99
I183
tp1979
a(I164
I155
tp1980
a(I148
I156
tp1981
a(I175
I200
tp1982
a(I154
I153
tp1983
a(I168
I199
tp1984
a(I168
I200
tp1985
asg27
I200
sba(imain2
Polygon
p1986
(dp1987
g3
(I120
I46
tp1988
sg5
I200
sg6
(I81
I82
I101
I50
tp1989
sg8
(lp1990
(I133
I48
tp1991
a(I126
I24
tp1992
a(I138
I46
tp1993
a(I132
I30
tp1994
a(I113
I91
tp1995
a(I132
I24
tp1996
a(I147
I18
tp1997
asg27
I200
sba(imain2
Polygon
p1998
(dp1999
g3
(I100
I144
tp2000
sg5
I200
sg6
(I123
I183
I165
I108
tp2001
sg8
(lp2002
(I112
I95
tp2003
a(I98
I152
tp2004
a(I98
I126
tp2005
a(I74
I100
tp2006
a(I73
I147
tp2007
a(I83
I152
tp2008
a(I125
I151
tp2009
a(I68
I158
tp2010
a(I56
I110
tp2011
a(I80
I97
tp2012
asg27
I200
sba(imain2
Polygon
p2013
(dp2014
g3
(I151
I184
tp2015
sg5
I200
sg6
(I139
I0
I175
I0
tp2016
sg8
(lp2017
(I141
I163
tp2018
a(I169
I169
tp2019
a(I122
I200
tp2020
a(I162
I159
tp2021
asg27
I200
sba(imain2
Polygon
p2022
(dp2023
g3
(I124
I187
tp2024
sg5
I200
sg6
(I25
I27
I210
I0
tp2025
sg8
(lp2026
(I135
I158
tp2027
a(I138
I200
tp2028
a(I131
I200
tp2029
a(I140
I200
tp2030
a(I119
I200
tp2031
a(I147
I147
tp2032
a(I113
I200
tp2033
a(I117
I187
tp2034
a(I128
I165
tp2035
a(I118
I147
tp2036
asg27
I200
sba(imain2
Polygon
p2037
(dp2038
g3
(I48
I52
tp2039
sg5
I200
sg6
(I247
I132
I158
I141
tp2040
sg8
(lp2041
(I58
I94
tp2042
a(I79
I94
tp2043
a(I97
I60
tp2044
a(I67
I7
tp2045
a(I35
I65
tp2046
a(I31
I93
tp2047
a(I88
I8
tp2048
a(I0
I3
tp2049
a(I0
I82
tp2050
a(I2
I102
tp2051
a(I65
I76
tp2052
a(I18
I85
tp2053
a(I75
I83
tp2054
a(I67
I95
tp2055
asg27
I200
sba(imain2
Polygon
p2056
(dp2057
g3
(I139
I74
tp2058
sg5
I200
sg6
(I151
I190
I236
I82
tp2059
sg8
(lp2060
(I136
I32
tp2061
a(I189
I47
tp2062
a(I185
I26
tp2063
a(I157
I30
tp2064
a(I169
I88
tp2065
a(I187
I48
tp2066
asg27
I200
sba(imain2
Polygon
p2067
(dp2068
g3
(I161
I83
tp2069
sg5
I200
sg6
(I202
I147
I103
I29
tp2070
sg8
(lp2071
(I114
I113
tp2072
a(I114
I49
tp2073
a(I178
I77
tp2074
a(I155
I98
tp2075
a(I177
I113
tp2076
a(I199
I106
tp2077
a(I200
I49
tp2078
a(I140
I35
tp2079
a(I197
I72
tp2080
a(I199
I71
tp2081
a(I145
I53
tp2082
a(I124
I126
tp2083
asg27
I200
sba(imain2
Polygon
p2084
(dp2085
g3
(I88
I36
tp2086
sg5
I200
sg6
(I1
I30
I71
I104
tp2087
sg8
(lp2088
(I80
I10
tp2089
a(I49
I39
tp2090
a(I102
I37
tp2091
a(I120
I27
tp2092
a(I125
I14
tp2093
a(I135
I16
tp2094
a(I71
I9
tp2095
a(I89
I8
tp2096
a(I58
I13
tp2097
asg27
I200
sba(imain2
Polygon
p2098
(dp2099
g3
(I12
I36
tp2100
sg5
I200
sg6
(I163
I102
I213
I0
tp2101
sg8
(lp2102
(I11
I65
tp2103
a(I0
I52
tp2104
a(I0
I69
tp2105
a(I31
I6
tp2106
a(I0
I79
tp2107
a(I0
I54
tp2108
a(I42
I14
tp2109
a(I19
I71
tp2110
asg27
I200
sba(imain2
Polygon
p2111
(dp2112
g3
(I79
I176
tp2113
sg5
I200
sg6
(I198
I84
I166
I98
tp2114
sg8
(lp2115
(I129
I200
tp2116
a(I127
I162
tp2117
a(I69
I200
tp2118
a(I91
I200
tp2119
a(I96
I200
tp2120
asg27
I200
sba(imain2
Polygon
p2121
(dp2122
g3
(I159
I193
tp2123
sg5
I200
sg6
(I188
I172
I60
I1
tp2124
sg8
(lp2125
(I118
I200
tp2126
a(I136
I181
tp2127
a(I185
I200
tp2128
a(I173
I200
tp2129
a(I153
I151
tp2130
a(I200
I196
tp2131
a(I192
I188
tp2132
a(I191
I154
tp2133
a(I159
I200
tp2134
a(I129
I200
tp2135
a(I197
I200
tp2136
a(I157
I195
tp2137
asg27
I200
sba(imain2
Polygon
p2138
(dp2139
g3
(I52
I197
tp2140
sg5
I200
sg6
(I164
I146
I228
I0
tp2141
sg8
(lp2142
(I87
I182
tp2143
a(I66
I195
tp2144
a(I29
I200
tp2145
a(I49
I200
tp2146
a(I10
I147
tp2147
a(I22
I181
tp2148
a(I16
I153
tp2149
a(I83
I153
tp2150
asg27
I200
sba(imain2
Polygon
p2151
(dp2152
g3
(I96
I168
tp2153
sg5
I200
sg6
(I81
I155
I161
I1
tp2154
sg8
(lp2155
(I105
I151
tp2156
a(I128
I200
tp2157
a(I97
I200
tp2158
a(I68
I178
tp2159
a(I144
I177
tp2160
a(I146
I166
tp2161
a(I85
I168
tp2162
a(I125
I166
tp2163
a(I139
I177
tp2164
a(I108
I170
tp2165
a(I123
I192
tp2166
asg27
I200
sba(imain2
Polygon
p2167
(dp2168
g3
(I148
I67
tp2169
sg5
I200
sg6
(I210
I29
I21
I1
tp2170
sg8
(lp2171
(I172
I28
tp2172
a(I162
I93
tp2173
a(I149
I107
tp2174
a(I181
I47
tp2175
a(I165
I109
tp2176
a(I105
I34
tp2177
a(I152
I25
tp2178
a(I145
I38
tp2179
a(I100
I97
tp2180
a(I106
I33
tp2181
a(I118
I56
tp2182
a(I159
I41
tp2183
a(I198
I101
tp2184
a(I117
I89
tp2185
asg27
I200
sba(imain2
Polygon
p2186
(dp2187
g3
(I185
I29
tp2188
sg5
I200
sg6
(I139
I164
I76
I76
tp2189
sg8
(lp2190
(I136
I0
tp2191
a(I199
I0
tp2192
a(I200
I25
tp2193
a(I174
I43
tp2194
a(I138
I31
tp2195
asg27
I200
sba(imain2
Polygon
p2196
(dp2197
g3
(I77
I185
tp2198
sg5
I200
sg6
(I27
I24
I96
I94
tp2199
sg8
(lp2200
(I122
I163
tp2201
a(I63
I154
tp2202
a(I110
I156
tp2203
a(I124
I169
tp2204
a(I40
I180
tp2205
a(I124
I175
tp2206
a(I35
I180
tp2207
a(I55
I195
tp2208
a(I64
I192
tp2209
a(I49
I200
tp2210
a(I74
I164
tp2211
a(I77
I170
tp2212
asg27
I200
sba(imain2
Polygon
p2213
(dp2214
g3
(I183
I173
tp2215
sg5
I200
sg6
(I108
I214
I86
I40
tp2216
sg8
(lp2217
(I200
I200
tp2218
a(I146
I200
tp2219
a(I200
I200
tp2220
a(I200
I125
tp2221
a(I137
I200
tp2222
a(I165
I200
tp2223
asg27
I200
sba(imain2
Polygon
p2224
(dp2225
g3
(I141
I78
tp2226
sg5
I200
sg6
(I231
I87
I165
I1
tp2227
sg8
(lp2228
(I99
I101
tp2229
a(I182
I64
tp2230
a(I176
I100
tp2231
a(I162
I119
tp2232
a(I134
I123
tp2233
a(I153
I109
tp2234
asg27
I200
sba(imain2
Polygon
p2235
(dp2236
g3
(I8
I10
tp2237
sg5
I200
sg6
(I61
I42
I72
I96
tp2238
sg8
(lp2239
(I33
I4
tp2240
a(I0
I0
tp2241
a(I30
I6
tp2242
a(I0
I0
tp2243
a(I30
I0
tp2244
asg27
I200
sba(imain2
Polygon
p2245
(dp2246
g3
(I37
I13
tp2247
sg5
I200
sg6
(I0
I114
I18
I109
tp2248
sg8
(lp2249
(I36
I0
tp2250
a(I16
I0
tp2251
a(I2
I0
tp2252
a(I0
I6
tp2253
a(I47
I4
tp2254
a(I33
I0
tp2255
a(I37
I0
tp2256
a(I53
I0
tp2257
a(I27
I0
tp2258
a(I38
I0
tp2259
a(I54
I0
tp2260
a(I41
I0
tp2261
asg27
I200
sba(imain2
Polygon
p2262
(dp2263
g3
(I168
I175
tp2264
sg5
I200
sg6
(I95
I52
I24
I1
tp2265
sg8
(lp2266
(I153
I168
tp2267
a(I179
I200
tp2268
a(I195
I166
tp2269
a(I185
I200
tp2270
a(I200
I200
tp2271
a(I200
I169
tp2272
a(I118
I182
tp2273
a(I200
I171
tp2274
a(I200
I200
tp2275
a(I122
I174
tp2276
a(I171
I200
tp2277
asg27
I200
sba(imain2
Polygon
p2278
(dp2279
g3
(I75
I83
tp2280
sg5
I200
sg6
(I27
I33
I18
I0
tp2281
sg8
(lp2282
(I91
I55
tp2283
a(I50
I113
tp2284
a(I118
I51
tp2285
a(I36
I133
tp2286
a(I36
I53
tp2287
a(I51
I69
tp2288
a(I28
I131
tp2289
a(I28
I89
tp2290
a(I87
I115
tp2291
a(I77
I76
tp2292
a(I101
I82
tp2293
a(I43
I89
tp2294
a(I112
I104
tp2295
a(I89
I66
tp2296
a(I46
I60
tp2297
asg27
I200
sba(imain2
Polygon
p2298
(dp2299
g3
(I18
I79
tp2300
sg5
I200
sg6
(I80
I0
I174
I100
tp2301
sg8
(lp2302
(I36
I125
tp2303
a(I43
I109
tp2304
a(I18
I107
tp2305
a(I40
I111
tp2306
a(I12
I123
tp2307
a(I0
I103
tp2308
a(I0
I117
tp2309
a(I39
I119
tp2310
asg27
I200
sba(imain2
Polygon
p2311
(dp2312
g3
(I27
I28
tp2313
sg5
I200
sg6
(I220
I145
I39
I1
tp2314
sg8
(lp2315
(I26
I20
tp2316
a(I28
I70
tp2317
a(I19
I0
tp2318
a(I75
I77
tp2319
a(I71
I0
tp2320
a(I65
I38
tp2321
a(I69
I72
tp2322
a(I9
I62
tp2323
a(I0
I0
tp2324
a(I0
I0
tp2325
a(I63
I0
tp2326
a(I16
I59
tp2327
a(I64
I6
tp2328
asg27
I200
sba(imain2
Polygon
p2329
(dp2330
g3
(I85
I60
tp2331
sg5
I200
sg6
(I84
I112
I12
I99
tp2332
sg8
(lp2333
(I115
I60
tp2334
a(I134
I87
tp2335
a(I55
I107
tp2336
a(I36
I62
tp2337
a(I72
I90
tp2338
a(I131
I73
tp2339
a(I117
I52
tp2340
a(I123
I32
tp2341
a(I108
I57
tp2342
asg27
I200
sba(imain2
Polygon
p2343
(dp2344
g3
(I45
I110
tp2345
sg5
I200
sg6
(I40
I239
I179
I43
tp2346
sg8
(lp2347
(I68
I158
tp2348
a(I45
I112
tp2349
a(I72
I109
tp2350
asg27
I200
sba(imain2
Polygon
p2351
(dp2352
g3
(I54
I138
tp2353
sg5
I200
sg6
(I117
I64
I186
I0
tp2354
sg8
(lp2355
(I18
I163
tp2356
a(I21
I111
tp2357
a(I69
I90
tp2358
a(I12
I130
tp2359
a(I95
I108
tp2360
a(I42
I160
tp2361
a(I79
I119
tp2362
a(I84
I118
tp2363
asg27
I200
sba(imain2
Polygon
p2364
(dp2365
g3
(I162
I123
tp2366
sg5
I200
sg6
(I42
I58
I71
I9
tp2367
sg8
(lp2368
(I175
I164
tp2369
a(I200
I173
tp2370
a(I200
I137
tp2371
a(I119
I112
tp2372
a(I180
I78
tp2373
a(I200
I106
tp2374
a(I180
I124
tp2375
a(I188
I77
tp2376
a(I192
I98
tp2377
a(I169
I105
tp2378
a(I139
I167
tp2379
a(I113
I156
tp2380
a(I147
I147
tp2381
a(I156
I80
tp2382
a(I137
I130
tp2383
a(I196
I165
tp2384
a(I137
I78
tp2385
a(I194
I166
tp2386
a(I122
I121
tp2387
asg27
I200
sba(imain2
Polygon
p2388
(dp2389
g3
(I144
I70
tp2390
sg5
I200
sg6
(I191
I39
I117
I25
tp2391
sg8
(lp2392
(I170
I95
tp2393
a(I139
I84
tp2394
a(I149
I71
tp2395
a(I142
I70
tp2396
asg27
I200
sba(imain2
Polygon
p2397
(dp2398
g3
(I11
I36
tp2399
sg5
I200
sg6
(I144
I31
I76
I24
tp2400
sg8
(lp2401
(I0
I42
tp2402
a(I0
I45
tp2403
a(I0
I0
tp2404
a(I0
I78
tp2405
a(I0
I31
tp2406
a(I0
I30
tp2407
a(I0
I35
tp2408
asg27
I200
sba(imain2
Polygon
p2409
(dp2410
g3
(I85
I175
tp2411
sg5
I200
sg6
(I240
I52
I42
I1
tp2412
sg8
(lp2413
(I42
I130
tp2414
a(I112
I137
tp2415
a(I100
I133
tp2416
a(I108
I186
tp2417
a(I42
I200
tp2418
a(I111
I200
tp2419
a(I114
I192
tp2420
a(I100
I188
tp2421
a(I38
I152
tp2422
a(I116
I138
tp2423
a(I61
I131
tp2424
a(I69
I177
tp2425
a(I80
I162
tp2426
a(I116
I200
tp2427
a(I105
I180
tp2428
asg27
I200
sba(imain2
Polygon
p2429
(dp2430
g3
(I78
I22
tp2431
sg5
I200
sg6
(I0
I239
I65
I0
tp2432
sg8
(lp2433
(I38
I0
tp2434
a(I117
I32
tp2435
a(I28
I18
tp2436
a(I106
I8
tp2437
a(I80
I0
tp2438
a(I127
I21
tp2439
a(I88
I0
tp2440
asg27
I200
sba(imain2
Polygon
p2441
(dp2442
g3
(I58
I165
tp2443
sg5
I200
sg6
(I72
I1
I134
I85
tp2444
sg8
(lp2445
(I40
I160
tp2446
a(I37
I152
tp2447
a(I46
I164
tp2448
a(I72
I148
tp2449
asg27
I200
sba(imain2
Polygon
p2450
(dp2451
g3
(I98
I69
tp2452
sg5
I200
sg6
(I71
I213
I124
I29
tp2453
sg8
(lp2454
(I111
I113
tp2455
a(I126
I99
tp2456
a(I51
I93
tp2457
asg27
I200
sba(imain2
Polygon
p2458
(dp2459
g3
(I184
I193
tp2460
sg5
I200
sg6
(I17
I62
I68
I0
tp2461
sg8
(lp2462
(I200
I177
tp2463
a(I171
I200
tp2464
a(I200
I163
tp2465
a(I151
I200
tp2466
a(I200
I155
tp2467
asg27
I200
sba(imain2
Polygon
p2468
(dp2469
g3
(I136
I181
tp2470
sg5
I200
sg6
(I119
I127
I188
I0
tp2471
sg8
(lp2472
(I107
I195
tp2473
a(I162
I200
tp2474
a(I132
I200
tp2475
a(I115
I142
tp2476
a(I138
I200
tp2477
a(I127
I139
tp2478
a(I141
I181
tp2479
a(I100
I184
tp2480
asg27
I200
sba(imain2
Polygon
p2481
(dp2482
g3
(I65
I69
tp2483
sg5
I200
sg6
(I101
I91
I153
I0
tp2484
sg8
(lp2485
(I24
I101
tp2486
a(I37
I51
tp2487
a(I113
I49
tp2488
a(I65
I53
tp2489
a(I63
I93
tp2490
a(I16
I47
tp2491
a(I26
I115
tp2492
a(I73
I48
tp2493
a(I38
I37
tp2494
a(I51
I23
tp2495
asg27
I200
sba(imain2
Polygon
p2496
(dp2497
g3
(I146
I60
tp2498
sg5
I200
sg6
(I1
I1
I199
I1
tp2499
sg8
(lp2500
(I167
I55
tp2501
a(I196
I53
tp2502
a(I120
I67
tp2503
a(I193
I89
tp2504
a(I135
I34
tp2505
asg27
I200
sba(imain2
Polygon
p2506
(dp2507
g3
(I7
I191
tp2508
sg5
I200
sg6
(I1
I165
I63
I1
tp2509
sg8
(lp2510
(I9
I200
tp2511
a(I0
I194
tp2512
a(I27
I178
tp2513
a(I0
I200
tp2514
a(I36
I192
tp2515
a(I0
I162
tp2516
a(I24
I148
tp2517
a(I51
I182
tp2518
a(I0
I143
tp2519
a(I46
I173
tp2520
a(I0
I150
tp2521
a(I32
I200
tp2522
a(I12
I200
tp2523
a(I0
I181
tp2524
asg27
I200
sba(imain2
Polygon
p2525
(dp2526
g3
(I177
I12
tp2527
sg5
I200
sg6
(I1
I126
I136
I0
tp2528
sg8
(lp2529
(I179
I47
tp2530
a(I166
I0
tp2531
a(I131
I0
tp2532
a(I192
I0
tp2533
a(I155
I59
tp2534
a(I200
I50
tp2535
a(I172
I22
tp2536
a(I132
I54
tp2537
a(I200
I0
tp2538
asg27
I200
sba(imain2
Polygon
p2539
(dp2540
g3
(I98
I60
tp2541
sg5
I200
sg6
(I142
I36
I46
I1
tp2542
sg8
(lp2543
(I138
I25
tp2544
a(I70
I57
tp2545
a(I104
I32
tp2546
a(I147
I11
tp2547
a(I125
I68
tp2548
a(I77
I21
tp2549
asg27
I200
sba(imain2
Polygon
p2550
(dp2551
g3
(I26
I121
tp2552
sg5
I200
sg6
(I19
I110
I2
I77
tp2553
sg8
(lp2554
(I5
I167
tp2555
a(I39
I85
tp2556
a(I0
I101
tp2557
a(I0
I166
tp2558
a(I30
I111
tp2559
a(I14
I135
tp2560
a(I45
I83
tp2561
a(I52
I113
tp2562
a(I26
I128
tp2563
a(I47
I156
tp2564
asg27
I200
sba(imain2
Polygon
p2565
(dp2566
g3
(I59
I10
tp2567
sg5
I200
sg6
(I179
I55
I106
I123
tp2568
sg8
(lp2569
(I13
I0
tp2570
a(I70
I0
tp2571
a(I73
I6
tp2572
a(I69
I0
tp2573
a(I109
I0
tp2574
a(I101
I15
tp2575
a(I10
I0
tp2576
a(I17
I23
tp2577
asg27
I200
sba(imain2
Polygon
p2578
(dp2579
g3
(I171
I141
tp2580
sg5
I200
sg6
(I36
I196
I137
I1
tp2581
sg8
(lp2582
(I125
I189
tp2583
a(I145
I150
tp2584
a(I153
I146
tp2585
a(I177
I154
tp2586
a(I200
I145
tp2587
a(I157
I111
tp2588
a(I187
I97
tp2589
a(I200
I94
tp2590
a(I135
I99
tp2591
asg27
I200
sba(imain2
Polygon
p2592
(dp2593
g3
(I80
I143
tp2594
sg5
I200
sg6
(I72
I74
I10
I109
tp2595
sg8
(lp2596
(I66
I140
tp2597
a(I70
I145
tp2598
a(I93
I192
tp2599
a(I130
I187
tp2600
a(I120
I141
tp2601
a(I69
I128
tp2602
a(I62
I133
tp2603
a(I71
I170
tp2604
a(I62
I180
tp2605
a(I86
I147
tp2606
asg27
I200
sba(imain2
Polygon
p2607
(dp2608
g3
(I191
I199
tp2609
sg5
I200
sg6
(I0
I223
I23
I0
tp2610
sg8
(lp2611
(I169
I200
tp2612
a(I190
I200
tp2613
a(I200
I200
tp2614
a(I193
I156
tp2615
a(I200
I200
tp2616
a(I200
I200
tp2617
a(I163
I187
tp2618
a(I141
I160
tp2619
a(I200
I200
tp2620
asg27
I200
sba(imain2
Polygon
p2621
(dp2622
g3
(I6
I112
tp2623
sg5
I200
sg6
(I132
I70
I127
I54
tp2624
sg8
(lp2625
(I0
I137
tp2626
a(I0
I140
tp2627
a(I25
I84
tp2628
a(I0
I100
tp2629
a(I33
I79
tp2630
a(I0
I109
tp2631
a(I0
I159
tp2632
a(I0
I63
tp2633
asg27
I200
sba(imain2
Polygon
p2634
(dp2635
g3
(I189
I37
tp2636
sg5
I200
sg6
(I31
I237
I163
I43
tp2637
sg8
(lp2638
(I200
I46
tp2639
a(I191
I37
tp2640
a(I188
I0
tp2641
a(I199
I1
tp2642
asg27
I200
sba(imain2
Polygon
p2643
(dp2644
g3
(I121
I50
tp2645
sg5
I200
sg6
(I3
I72
I1
I1
tp2646
sg8
(lp2647
(I136
I45
tp2648
a(I104
I15
tp2649
a(I141
I34
tp2650
asg27
I200
sba(imain2
Polygon
p2651
(dp2652
g3
(I58
I165
tp2653
sg5
I200
sg6
(I142
I99
I2
I0
tp2654
sg8
(lp2655
(I30
I120
tp2656
a(I68
I175
tp2657
a(I9
I168
tp2658
a(I97
I177
tp2659
a(I20
I139
tp2660
a(I58
I143
tp2661
a(I99
I183
tp2662
a(I107
I152
tp2663
a(I56
I151
tp2664
a(I33
I161
tp2665
a(I83
I175
tp2666
a(I36
I200
tp2667
asg27
I200
sba(imain2
Polygon
p2668
(dp2669
g3
(I155
I38
tp2670
sg5
I200
sg6
(I99
I107
I235
I84
tp2671
sg8
(lp2672
(I160
I2
tp2673
a(I162
I13
tp2674
a(I165
I27
tp2675
asg27
I200
sba(imain2
Polygon
p2676
(dp2677
g3
(I80
I130
tp2678
sg5
I200
sg6
(I223
I90
I0
I112
tp2679
sg8
(lp2680
(I90
I107
tp2681
a(I38
I91
tp2682
a(I127
I91
tp2683
a(I86
I180
tp2684
a(I90
I97
tp2685
a(I42
I107
tp2686
a(I57
I140
tp2687
a(I81
I161
tp2688
a(I95
I173
tp2689
a(I77
I124
tp2690
a(I91
I85
tp2691
a(I88
I146
tp2692
asg27
I200
sba(imain2
Polygon
p2693
(dp2694
g3
(I182
I31
tp2695
sg5
I200
sg6
(I110
I84
I111
I0
tp2696
sg8
(lp2697
(I146
I0
tp2698
a(I198
I51
tp2699
a(I135
I9
tp2700
a(I186
I37
tp2701
a(I164
I0
tp2702
a(I175
I40
tp2703
a(I151
I81
tp2704
a(I193
I4
tp2705
a(I200
I57
tp2706
a(I152
I25
tp2707
a(I188
I0
tp2708
a(I162
I2
tp2709
a(I154
I80
tp2710
a(I174
I47
tp2711
a(I195
I67
tp2712
a(I188
I45
tp2713
a(I182
I80
tp2714
a(I165
I65
tp2715
a(I145
I0
tp2716
a(I186
I59
tp2717
a(I200
I28
tp2718
a(I169
I11
tp2719
a(I133
I0
tp2720
asg27
I200
sba(imain2
Polygon
p2721
(dp2722
g3
(I164
I132
tp2723
sg5
I200
sg6
(I50
I67
I1
I0
tp2724
sg8
(lp2725
(I136
I113
tp2726
a(I152
I112
tp2727
a(I140
I175
tp2728
a(I168
I173
tp2729
a(I180
I136
tp2730
a(I190
I82
tp2731
a(I132
I128
tp2732
a(I176
I113
tp2733
a(I199
I84
tp2734
a(I122
I135
tp2735
a(I157
I141
tp2736
a(I185
I112
tp2737
asg27
I200
sba(imain2
Polygon
p2738
(dp2739
g3
(I67
I123
tp2740
sg5
I200
sg6
(I203
I168
I125
I71
tp2741
sg8
(lp2742
(I114
I101
tp2743
a(I112
I148
tp2744
a(I67
I158
tp2745
a(I43
I93
tp2746
a(I96
I92
tp2747
a(I107
I100
tp2748
a(I49
I107
tp2749
a(I55
I111
tp2750
a(I46
I107
tp2751
a(I101
I102
tp2752
a(I87
I99
tp2753
asg27
I200
sba(imain2
Polygon
p2754
(dp2755
g3
(I139
I46
tp2756
sg5
I200
sg6
(I1
I111
I82
I72
tp2757
sg8
(lp2758
(I185
I84
tp2759
a(I137
I74
tp2760
a(I164
I79
tp2761
asg27
I200
sba(imain2
Polygon
p2762
(dp2763
g3
(I137
I13
tp2764
sg5
I200
sg6
(I202
I131
I218
I3
tp2765
sg8
(lp2766
(I146
I0
tp2767
a(I180
I37
tp2768
a(I185
I42
tp2769
a(I139
I19
tp2770
a(I157
I0
tp2771
a(I152
I49
tp2772
a(I154
I46
tp2773
a(I160
I57
tp2774
a(I117
I1
tp2775
asg27
I200
sba(imain2
Polygon
p2776
(dp2777
g3
(I72
I81
tp2778
sg5
I200
sg6
(I239
I108
I80
I0
tp2779
sg8
(lp2780
(I95
I99
tp2781
a(I83
I109
tp2782
a(I26
I64
tp2783
a(I57
I104
tp2784
a(I59
I58
tp2785
a(I120
I57
tp2786
a(I53
I62
tp2787
asg27
I200
sba(imain2
Polygon
p2788
(dp2789
g3
(I24
I70
tp2790
sg5
I200
sg6
(I5
I224
I8
I12
tp2791
sg8
(lp2792
(I37
I25
tp2793
a(I72
I32
tp2794
a(I2
I21
tp2795
a(I0
I105
tp2796
a(I15
I106
tp2797
a(I45
I114
tp2798
asg27
I200
sba(imain2
Polygon
p2799
(dp2800
g3
(I144
I200
tp2801
sg5
I200
sg6
(I123
I88
I11
I1
tp2802
sg8
(lp2803
(I164
I200
tp2804
a(I121
I196
tp2805
a(I107
I168
tp2806
a(I154
I187
tp2807
a(I177
I200
tp2808
a(I111
I200
tp2809
a(I130
I200
tp2810
a(I181
I194
tp2811
a(I160
I170
tp2812
a(I98
I181
tp2813
a(I107
I153
tp2814
a(I103
I200
tp2815
a(I127
I153
tp2816
a(I175
I183
tp2817
a(I128
I200
tp2818
a(I98
I186
tp2819
a(I146
I200
tp2820
a(I145
I200
tp2821
a(I122
I150
tp2822
asg27
I200
sba(imain2
Polygon
p2823
(dp2824
g3
(I63
I64
tp2825
sg5
I200
sg6
(I192
I193
I44
I4
tp2826
sg8
(lp2827
(I90
I67
tp2828
a(I18
I106
tp2829
a(I18
I45
tp2830
a(I97
I38
tp2831
a(I97
I107
tp2832
a(I48
I88
tp2833
a(I43
I112
tp2834
a(I106
I109
tp2835
a(I52
I111
tp2836
asg27
I200
sba(imain2
Polygon
p2837
(dp2838
g3
(I87
I65
tp2839
sg5
I200
sg6
(I216
I55
I97
I0
tp2840
sg8
(lp2841
(I136
I80
tp2842
a(I106
I35
tp2843
a(I86
I83
tp2844
a(I40
I93
tp2845
a(I60
I111
tp2846
a(I53
I95
tp2847
a(I128
I62
tp2848
a(I47
I39
tp2849
a(I124
I17
tp2850
a(I96
I80
tp2851
a(I124
I65
tp2852
asg27
I200
sba(imain2
Polygon
p2853
(dp2854
g3
(I110
I191
tp2855
sg5
I200
sg6
(I160
I195
I225
I1
tp2856
sg8
(lp2857
(I132
I182
tp2858
a(I118
I143
tp2859
a(I74
I143
tp2860
a(I77
I167
tp2861
a(I150
I169
tp2862
a(I60
I163
tp2863
a(I66
I185
tp2864
a(I118
I200
tp2865
a(I78
I200
tp2866
a(I146
I200
tp2867
asg27
I200
sba(imain2
Polygon
p2868
(dp2869
g3
(I108
I110
tp2870
sg5
I200
sg6
(I97
I178
I164
I0
tp2871
sg8
(lp2872
(I101
I127
tp2873
a(I117
I114
tp2874
a(I87
I125
tp2875
a(I76
I126
tp2876
a(I79
I109
tp2877
a(I121
I150
tp2878
asg27
I200
sba(imain2
Polygon
p2879
(dp2880
g3
(I112
I52
tp2881
sg5
I200
sg6
(I81
I200
I79
I90
tp2882
sg8
(lp2883
(I158
I54
tp2884
a(I152
I56
tp2885
a(I149
I58
tp2886
asg27
I200
sba.