(lp0
(imain2
Polygon
p1
(dp2
S'origin'
p3
(I39
I29
tp4
sS'h'
p5
I200
sS'color'
p6
(I192
I23
I137
I64
tp7
sS'corner_list'
p8
(lp9
(I0
I0
tp10
a(I33
I71
tp11
a(I71
I41
tp12
a(I83
I36
tp13
a(I71
I0
tp14
a(I11
I74
tp15
a(I0
I33
tp16
a(I70
I7
tp17
a(I72
I59
tp18
a(I83
I19
tp19
a(I17
I62
tp20
a(I4
I54
tp21
a(I0
I33
tp22
a(I60
I37
tp23
a(I77
I15
tp24
a(I64
I0
tp25
a(I0
I0
tp26
asS'w'
p27
I200
sba(imain2
Polygon
p28
(dp29
g3
(I66
I177
tp30
sg5
I200
sg6
(I137
I53
I47
I21
tp31
sg8
(lp32
(I63
I136
tp33
a(I77
I165
tp34
a(I111
I200
tp35
a(I34
I200
tp36
a(I112
I200
tp37
a(I20
I192
tp38
a(I44
I200
tp39
a(I77
I200
tp40
a(I100
I127
tp41
asg27
I200
sba(imain2
Polygon
p42
(dp43
g3
(I59
I53
tp44
sg5
I200
sg6
(I109
I42
I106
I130
tp45
sg8
(lp46
(I106
I10
tp47
a(I26
I102
tp48
a(I9
I53
tp49
a(I89
I14
tp50
a(I41
I9
tp51
a(I45
I35
tp52
a(I40
I72
tp53
a(I32
I51
tp54
a(I38
I88
tp55
a(I97
I87
tp56
a(I109
I84
tp57
a(I91
I22
tp58
a(I92
I46
tp59
a(I76
I61
tp60
a(I103
I97
tp61
a(I50
I59
tp62
a(I53
I45
tp63
a(I58
I40
tp64
asg27
I200
sba(imain2
Polygon
p65
(dp66
g3
(I79
I99
tp67
sg5
I200
sg6
(I71
I89
I67
I82
tp68
sg8
(lp69
(I122
I134
tp70
a(I76
I117
tp71
a(I76
I74
tp72
a(I35
I63
tp73
a(I123
I57
tp74
a(I114
I125
tp75
a(I63
I146
tp76
a(I86
I147
tp77
asg27
I200
sba(imain2
Polygon
p78
(dp79
g3
(I200
I83
tp80
sg5
I200
sg6
(I165
I227
I63
I3
tp81
sg8
(lp82
(I200
I58
tp83
a(I164
I41
tp84
a(I200
I37
tp85
a(I178
I101
tp86
a(I200
I130
tp87
asg27
I200
sba(imain2
Polygon
p88
(dp89
g3
(I48
I136
tp90
sg5
I200
sg6
(I101
I109
I142
I47
tp91
sg8
(lp92
(I78
I127
tp93
a(I87
I127
tp94
a(I82
I171
tp95
a(I43
I102
tp96
a(I5
I168
tp97
a(I60
I171
tp98
a(I89
I93
tp99
a(I16
I112
tp100
a(I78
I105
tp101
a(I86
I178
tp102
a(I47
I126
tp103
a(I46
I109
tp104
a(I2
I151
tp105
a(I64
I175
tp106
a(I58
I161
tp107
a(I45
I165
tp108
a(I87
I144
tp109
a(I84
I97
tp110
a(I97
I86
tp111
a(I45
I125
tp112
asg27
I200
sba(imain2
Polygon
p113
(dp114
g3
(I118
I72
tp115
sg5
I200
sg6
(I132
I136
I59
I42
tp116
sg8
(lp117
(I99
I82
tp118
a(I118
I81
tp119
a(I118
I115
tp120
a(I126
I57
tp121
a(I89
I36
tp122
a(I68
I93
tp123
a(I104
I108
tp124
a(I97
I43
tp125
asg27
I200
sba(imain2
Polygon
p126
(dp127
g3
(I75
I194
tp128
sg5
I200
sg6
(I210
I85
I103
I1
tp129
sg8
(lp130
(I38
I200
tp131
a(I81
I145
tp132
a(I100
I167
tp133
a(I64
I200
tp134
a(I92
I188
tp135
a(I72
I157
tp136
asg27
I200
sba(imain2
Polygon
p137
(dp138
g3
(I7
I180
tp139
sg5
I200
sg6
(I231
I31
I1
I1
tp140
sg8
(lp141
(I24
I177
tp142
a(I0
I200
tp143
a(I0
I200
tp144
a(I0
I200
tp145
a(I0
I142
tp146
a(I41
I140
tp147
a(I15
I200
tp148
a(I26
I166
tp149
a(I0
I188
tp150
a(I0
I161
tp151
a(I15
I137
tp152
asg27
I200
sba(imain2
Polygon
p153
(dp154
g3
(I200
I5
tp155
sg5
I200
sg6
(I172
I75
I111
I26
tp156
sg8
(lp157
(I200
I0
tp158
a(I172
I0
tp159
a(I179
I0
tp160
a(I155
I28
tp161
a(I185
I7
tp162
a(I200
I7
tp163
a(I200
I45
tp164
a(I155
I15
tp165
a(I199
I0
tp166
a(I196
I52
tp167
asg27
I200
sba(imain2
Polygon
p168
(dp169
g3
(I180
I27
tp170
sg5
I200
sg6
(I103
I110
I153
I0
tp171
sg8
(lp172
(I200
I66
tp173
a(I156
I65
tp174
a(I200
I4
tp175
a(I162
I29
tp176
a(I147
I16
tp177
a(I200
I4
tp178
a(I138
I4
tp179
a(I178
I36
tp180
a(I160
I38
tp181
a(I195
I10
tp182
a(I160
I0
tp183
a(I200
I67
tp184
a(I161
I58
tp185
asg27
I200
sba(imain2
Polygon
p186
(dp187
g3
(I59
I197
tp188
sg5
I200
sg6
(I78
I205
I135
I122
tp189
sg8
(lp190
(I98
I200
tp191
a(I93
I157
tp192
a(I71
I197
tp193
a(I54
I200
tp194
a(I33
I200
tp195
asg27
I200
sba(imain2
Polygon
p196
(dp197
g3
(I129
I124
tp198
sg5
I200
sg6
(I169
I187
I95
I53
tp199
sg8
(lp200
(I122
I123
tp201
a(I92
I168
tp202
a(I130
I89
tp203
a(I111
I89
tp204
a(I104
I118
tp205
a(I88
I150
tp206
a(I119
I138
tp207
a(I82
I90
tp208
a(I85
I118
tp209
asg27
I200
sba(imain2
Polygon
p210
(dp211
g3
(I107
I2
tp212
sg5
I200
sg6
(I46
I1
I159
I97
tp213
sg8
(lp214
(I83
I0
tp215
a(I107
I0
tp216
a(I97
I0
tp217
a(I62
I0
tp218
a(I90
I0
tp219
a(I106
I7
tp220
a(I142
I27
tp221
a(I156
I2
tp222
a(I151
I0
tp223
asg27
I200
sba(imain2
Polygon
p224
(dp225
g3
(I25
I107
tp226
sg5
I200
sg6
(I100
I25
I168
I1
tp227
sg8
(lp228
(I30
I146
tp229
a(I41
I66
tp230
a(I72
I82
tp231
a(I0
I68
tp232
a(I47
I76
tp233
a(I61
I150
tp234
a(I56
I122
tp235
a(I56
I62
tp236
a(I0
I59
tp237
a(I3
I58
tp238
a(I9
I75
tp239
a(I69
I74
tp240
a(I7
I57
tp241
a(I52
I137
tp242
asg27
I200
sba(imain2
Polygon
p243
(dp244
g3
(I194
I197
tp245
sg5
I200
sg6
(I5
I193
I62
I79
tp246
sg8
(lp247
(I193
I168
tp248
a(I200
I200
tp249
a(I200
I180
tp250
a(I199
I156
tp251
asg27
I200
sba(imain2
Polygon
p252
(dp253
g3
(I8
I2
tp254
sg5
I200
sg6
(I204
I193
I217
I0
tp255
sg8
(lp256
(I6
I8
tp257
a(I0
I5
tp258
a(I16
I0
tp259
a(I5
I25
tp260
a(I0
I0
tp261
a(I57
I0
tp262
a(I9
I17
tp263
a(I52
I0
tp264
a(I0
I45
tp265
a(I45
I0
tp266
a(I55
I0
tp267
a(I45
I50
tp268
asg27
I200
sba(imain2
Polygon
p269
(dp270
g3
(I171
I144
tp271
sg5
I200
sg6
(I108
I155
I183
I1
tp272
sg8
(lp273
(I126
I186
tp274
a(I126
I156
tp275
a(I200
I110
tp276
a(I153
I190
tp277
a(I148
I190
tp278
a(I178
I125
tp279
a(I126
I121
tp280
a(I145
I130
tp281
asg27
I200
sba(imain2
Polygon
p282
(dp283
g3
(I44
I42
tp284
sg5
I200
sg6
(I76
I126
I71
I1
tp285
sg8
(lp286
(I29
I80
tp287
a(I41
I39
tp288
a(I91
I0
tp289
a(I69
I42
tp290
a(I86
I82
tp291
a(I88
I72
tp292
a(I10
I65
tp293
asg27
I200
sba(imain2
Polygon
p294
(dp295
g3
(I26
I99
tp296
sg5
I200
sg6
(I165
I96
I166
I60
tp297
sg8
(lp298
(I56
I57
tp299
a(I54
I125
tp300
a(I69
I134
tp301
a(I72
I53
tp302
asg27
I200
sba(imain2
Polygon
p303
(dp304
g3
(I114
I46
tp305
sg5
I200
sg6
(I95
I191
I193
I1
tp306
sg8
(lp307
(I79
I0
tp308
a(I126
I34
tp309
a(I145
I56
tp310
a(I90
I66
tp311
a(I111
I68
tp312
a(I81
I83
tp313
asg27
I200
sba(imain2
Polygon
p314
(dp315
g3
(I68
I194
tp316
sg5
I200
sg6
(I85
I191
I147
I1
tp317
sg8
(lp318
(I60
I200
tp319
a(I52
I200
tp320
a(I37
I184
tp321
a(I65
I200
tp322
a(I57
I192
tp323
a(I73
I172
tp324
asg27
I200
sba(imain2
Polygon
p325
(dp326
g3
(I200
I53
tp327
sg5
I200
sg6
(I176
I181
I163
I1
tp328
sg8
(lp329
(I183
I79
tp330
a(I152
I41
tp331
a(I200
I31
tp332
asg27
I200
sba(imain2
Polygon
p333
(dp334
g3
(I172
I155
tp335
sg5
I200
sg6
(I196
I75
I240
I1
tp336
sg8
(lp337
(I156
I193
tp338
a(I186
I170
tp339
a(I159
I155
tp340
a(I125
I176
tp341
a(I143
I179
tp342
a(I184
I136
tp343
a(I138
I123
tp344
a(I137
I184
tp345
a(I166
I121
tp346
a(I154
I196
tp347
a(I127
I165
tp348
a(I148
I197
tp349
asg27
I200
sba(imain2
Polygon
p350
(dp351
g3
(I154
I159
tp352
sg5
I200
sg6
(I52
I205
I31
I1
tp353
sg8
(lp354
(I200
I117
tp355
a(I122
I109
tp356
a(I164
I130
tp357
a(I127
I131
tp358
a(I176
I190
tp359
a(I178
I195
tp360
a(I141
I167
tp361
a(I153
I178
tp362
a(I160
I110
tp363
a(I159
I171
tp364
a(I147
I168
tp365
asg27
I200
sba(imain2
Polygon
p366
(dp367
g3
(I55
I59
tp368
sg5
I200
sg6
(I71
I191
I200
I1
tp369
sg8
(lp370
(I35
I56
tp371
a(I83
I49
tp372
a(I85
I40
tp373
a(I36
I16
tp374
a(I71
I52
tp375
a(I22
I16
tp376
a(I82
I44
tp377
a(I47
I28
tp378
a(I66
I10
tp379
a(I103
I76
tp380
a(I25
I105
tp381
a(I102
I65
tp382
a(I36
I25
tp383
a(I103
I88
tp384
a(I47
I104
tp385
a(I89
I41
tp386
a(I21
I16
tp387
a(I7
I61
tp388
a(I17
I70
tp389
a(I12
I21
tp390
a(I46
I100
tp391
asg27
I200
sba(imain2
Polygon
p392
(dp393
g3
(I127
I147
tp394
sg5
I200
sg6
(I45
I64
I111
I85
tp395
sg8
(lp396
(I109
I194
tp397
a(I79
I101
tp398
a(I97
I160
tp399
a(I161
I191
tp400
asg27
I200
sba(imain2
Polygon
p401
(dp402
g3
(I123
I114
tp403
sg5
I200
sg6
(I115
I1
I5
I0
tp404
sg8
(lp405
(I118
I78
tp406
a(I162
I88
tp407
a(I167
I90
tp408
a(I81
I71
tp409
a(I118
I115
tp410
a(I161
I129
tp411
asg27
I200
sba(imain2
Polygon
p412
(dp413
g3
(I2
I51
tp414
sg5
I200
sg6
(I121
I136
I221
I1
tp415
sg8
(lp416
(I0
I85
tp417
a(I0
I10
tp418
a(I0
I4
tp419
a(I0
I44
tp420
a(I0
I20
tp421
a(I0
I61
tp422
a(I0
I75
tp423
a(I22
I88
tp424
a(I22
I98
tp425
a(I0
I7
tp426
a(I0
I75
tp427
a(I0
I87
tp428
asg27
I200
sba(imain2
Polygon
p429
(dp430
g3
(I166
I21
tp431
sg5
I200
sg6
(I210
I244
I213
I75
tp432
sg8
(lp433
(I200
I0
tp434
a(I200
I59
tp435
a(I169
I70
tp436
a(I131
I0
tp437
a(I153
I0
tp438
a(I131
I6
tp439
a(I135
I0
tp440
a(I200
I0
tp441
a(I190
I0
tp442
asg27
I200
sba(imain2
Polygon
p443
(dp444
g3
(I110
I91
tp445
sg5
I200
sg6
(I125
I30
I28
I0
tp446
sg8
(lp447
(I78
I111
tp448
a(I70
I70
tp449
a(I80
I118
tp450
a(I153
I89
tp451
a(I69
I141
tp452
a(I81
I95
tp453
a(I68
I96
tp454
a(I100
I114
tp455
a(I109
I100
tp456
a(I67
I66
tp457
a(I94
I93
tp458
a(I75
I65
tp459
a(I150
I136
tp460
a(I130
I41
tp461
a(I104
I65
tp462
a(I92
I48
tp463
a(I114
I65
tp464
a(I139
I58
tp465
a(I134
I101
tp466
asg27
I200
sba(imain2
Polygon
p467
(dp468
g3
(I148
I41
tp469
sg5
I200
sg6
(I155
I1
I204
I0
tp470
sg8
(lp471
(I103
I13
tp472
a(I130
I10
tp473
a(I192
I6
tp474
a(I102
I17
tp475
a(I155
I13
tp476
a(I138
I62
tp477
a(I160
I9
tp478
a(I110
I80
tp479
a(I103
I84
tp480
a(I183
I24
tp481
a(I153
I30
tp482
a(I135
I21
tp483
a(I144
I23
tp484
asg27
I200
sba(imain2
Polygon
p485
(dp486
g3
(I188
I159
tp487
sg5
I200
sg6
(I157
I68
I63
I0
tp488
sg8
(lp489
(I153
I158
tp490
a(I164
I115
tp491
a(I200
I197
tp492
a(I200
I137
tp493
a(I158
I121
tp494
a(I200
I111
tp495
a(I156
I170
tp496
asg27
I200
sba(imain2
Polygon
p497
(dp498
g3
(I55
I106
tp499
sg5
I200
sg6
(I54
I89
I39
I1
tp500
sg8
(lp501
(I69
I94
tp502
a(I70
I97
tp503
a(I74
I146
tp504
a(I54
I93
tp505
a(I46
I114
tp506
a(I99
I105
tp507
a(I75
I126
tp508
a(I31
I130
tp509
a(I92
I93
tp510
asg27
I200
sba(imain2
Polygon
p511
(dp512
g3
(I118
I64
tp513
sg5
I200
sg6
(I126
I36
I2
I0
tp514
sg8
(lp515
(I131
I17
tp516
a(I88
I65
tp517
a(I149
I49
tp518
a(I137
I15
tp519
a(I95
I23
tp520
a(I100
I81
tp521
a(I146
I72
tp522
a(I160
I97
tp523
a(I88
I20
tp524
a(I123
I23
tp525
a(I105
I36
tp526
a(I98
I55
tp527
asg27
I200
sba(imain2
Polygon
p528
(dp529
g3
(I101
I127
tp530
sg5
I200
sg6
(I82
I171
I94
I58
tp531
sg8
(lp532
(I82
I132
tp533
a(I60
I130
tp534
a(I118
I127
tp535
a(I132
I81
tp536
a(I63
I110
tp537
a(I134
I145
tp538
asg27
I200
sba(imain2
Polygon
p539
(dp540
g3
(I42
I89
tp541
sg5
I200
sg6
(I15
I90
I175
I1
tp542
sg8
(lp543
(I82
I88
tp544
a(I34
I55
tp545
a(I20
I128
tp546
a(I45
I55
tp547
a(I15
I128
tp548
a(I61
I62
tp549
a(I0
I99
tp550
a(I39
I127
tp551
a(I56
I89
tp552
a(I36
I80
tp553
asg27
I200
sba(imain2
Polygon
p554
(dp555
g3
(I71
I151
tp556
sg5
I200
sg6
(I150
I167
I218
I118
tp557
sg8
(lp558
(I59
I125
tp559
a(I74
I126
tp560
a(I115
I198
tp561
a(I68
I200
tp562
a(I91
I177
tp563
a(I121
I195
tp564
asg27
I200
sba(imain2
Polygon
p565
(dp566
g3
(I13
I141
tp567
sg5
I200
sg6
(I241
I1
I193
I1
tp568
sg8
(lp569
(I0
I134
tp570
a(I0
I168
tp571
a(I0
I162
tp572
a(I7
I102
tp573
a(I53
I153
tp574
a(I7
I133
tp575
a(I23
I129
tp576
a(I31
I95
tp577
a(I38
I142
tp578
a(I47
I102
tp579
a(I48
I174
tp580
a(I63
I126
tp581
asg27
I200
sba(imain2
Polygon
p582
(dp583
g3
(I37
I11
tp584
sg5
I200
sg6
(I112
I18
I9
I85
tp585
sg8
(lp586
(I77
I0
tp587
a(I0
I56
tp588
a(I15
I11
tp589
a(I20
I28
tp590
a(I3
I0
tp591
a(I70
I6
tp592
a(I36
I38
tp593
asg27
I200
sba(imain2
Polygon
p594
(dp595
g3
(I97
I114
tp596
sg5
I200
sg6
(I144
I8
I201
I65
tp597
sg8
(lp598
(I126
I160
tp599
a(I86
I149
tp600
a(I121
I97
tp601
a(I126
I64
tp602
a(I62
I77
tp603
a(I84
I101
tp604
a(I48
I82
tp605
a(I75
I158
tp606
a(I100
I154
tp607
a(I115
I101
tp608
a(I51
I65
tp609
a(I84
I72
tp610
a(I110
I85
tp611
a(I80
I151
tp612
a(I113
I101
tp613
a(I64
I125
tp614
a(I75
I78
tp615
a(I57
I142
tp616
asg27
I200
sba(imain2
Polygon
p617
(dp618
g3
(I77
I12
tp619
sg5
I200
sg6
(I99
I0
I194
I0
tp620
sg8
(lp621
(I97
I0
tp622
a(I85
I0
tp623
a(I31
I43
tp624
a(I46
I41
tp625
a(I50
I51
tp626
a(I116
I55
tp627
a(I69
I0
tp628
a(I96
I0
tp629
a(I51
I42
tp630
asg27
I200
sba(imain2
Polygon
p631
(dp632
g3
(I114
I16
tp633
sg5
I200
sg6
(I1
I99
I175
I135
tp634
sg8
(lp635
(I119
I24
tp636
a(I151
I0
tp637
a(I71
I2
tp638
a(I142
I23
tp639
a(I160
I13
tp640
a(I130
I13
tp641
asg27
I200
sba(imain2
Polygon
p642
(dp643
g3
(I150
I10
tp644
sg5
I200
sg6
(I109
I56
I223
I146
tp645
sg8
(lp646
(I119
I0
tp647
a(I175
I1
tp648
a(I133
I0
tp649
a(I182
I0
tp650
a(I163
I0
tp651
a(I119
I18
tp652
a(I101
I0
tp653
a(I137
I0
tp654
a(I174
I0
tp655
a(I170
I0
tp656
a(I150
I0
tp657
asg27
I200
sba(imain2
Polygon
p658
(dp659
g3
(I41
I10
tp660
sg5
I200
sg6
(I112
I202
I82
I1
tp661
sg8
(lp662
(I28
I17
tp663
a(I23
I53
tp664
a(I0
I4
tp665
a(I0
I0
tp666
a(I60
I0
tp667
asg27
I200
sba(imain2
Polygon
p668
(dp669
g3
(I174
I159
tp670
sg5
I200
sg6
(I168
I106
I82
I86
tp671
sg8
(lp672
(I200
I125
tp673
a(I200
I200
tp674
a(I184
I191
tp675
a(I168
I116
tp676
a(I200
I121
tp677
a(I200
I173
tp678
a(I200
I119
tp679
asg27
I200
sba(imain2
Polygon
p680
(dp681
g3
(I61
I97
tp682
sg5
I200
sg6
(I121
I30
I105
I77
tp683
sg8
(lp684
(I66
I87
tp685
a(I94
I137
tp686
a(I64
I49
tp687
a(I103
I82
tp688
a(I64
I94
tp689
a(I102
I53
tp690
a(I108
I74
tp691
a(I96
I125
tp692
a(I52
I115
tp693
a(I50
I59
tp694
asg27
I200
sba(imain2
Polygon
p695
(dp696
g3
(I180
I97
tp697
sg5
I200
sg6
(I157
I153
I196
I1
tp698
sg8
(lp699
(I180
I99
tp700
a(I200
I54
tp701
a(I200
I62
tp702
a(I172
I65
tp703
a(I200
I145
tp704
a(I196
I133
tp705
a(I179
I133
tp706
a(I200
I63
tp707
a(I153
I117
tp708
asg27
I200
sba(imain2
Polygon
p709
(dp710
g3
(I101
I122
tp711
sg5
I200
sg6
(I162
I82
I1
I56
tp712
sg8
(lp713
(I87
I91
tp714
a(I111
I157
tp715
a(I98
I108
tp716
a(I93
I147
tp717
a(I122
I142
tp718
a(I125
I80
tp719
a(I61
I152
tp720
a(I62
I88
tp721
a(I147
I140
tp722
a(I58
I84
tp723
a(I77
I77
tp724
a(I124
I77
tp725
asg27
I200
sba(imain2
Polygon
p726
(dp727
g3
(I131
I15
tp728
sg5
I200
sg6
(I56
I126
I125
I1
tp729
sg8
(lp730
(I154
I0
tp731
a(I140
I8
tp732
a(I179
I62
tp733
a(I91
I0
tp734
a(I82
I0
tp735
a(I95
I0
tp736
a(I81
I62
tp737
a(I90
I14
tp738
a(I91
I0
tp739
a(I178
I32
tp740
asg27
I200
sba(imain2
Polygon
p741
(dp742
g3
(I113
I24
tp743
sg5
I200
sg6
(I147
I239
I0
I1
tp744
sg8
(lp745
(I163
I0
tp746
a(I88
I27
tp747
a(I85
I60
tp748
a(I123
I70
tp749
a(I125
I3
tp750
a(I126
I0
tp751
a(I117
I66
tp752
a(I110
I46
tp753
a(I138
I18
tp754
a(I122
I0
tp755
a(I77
I58
tp756
a(I110
I0
tp757
a(I163
I41
tp758
a(I139
I44
tp759
asg27
I200
sba(imain2
Polygon
p760
(dp761
g3
(I15
I21
tp762
sg5
I200
sg6
(I41
I40
I23
I1
tp763
sg8
(lp764
(I8
I18
tp765
a(I2
I12
tp766
a(I59
I59
tp767
a(I51
I26
tp768
a(I28
I35
tp769
a(I38
I50
tp770
a(I2
I0
tp771
a(I15
I36
tp772
a(I0
I44
tp773
a(I39
I0
tp774
asg27
I200
sba(imain2
Polygon
p775
(dp776
g3
(I75
I18
tp777
sg5
I200
sg6
(I118
I124
I38
I135
tp778
sg8
(lp779
(I98
I0
tp780
a(I82
I30
tp781
a(I74
I50
tp782
a(I90
I0
tp783
a(I32
I0
tp784
a(I29
I0
tp785
a(I70
I49
tp786
a(I31
I0
tp787
a(I64
I30
tp788
a(I77
I0
tp789
a(I26
I62
tp790
a(I118
I0
tp791
a(I123
I13
tp792
a(I25
I19
tp793
a(I53
I67
tp794
a(I111
I64
tp795
a(I124
I63
tp796
a(I72
I12
tp797
a(I104
I7
tp798
a(I73
I11
tp799
a(I121
I0
tp800
asg27
I200
sba(imain2
Polygon
p801
(dp802
g3
(I147
I31
tp803
sg5
I200
sg6
(I240
I1
I220
I130
tp804
sg8
(lp805
(I197
I0
tp806
a(I196
I42
tp807
a(I180
I38
tp808
a(I168
I65
tp809
a(I153
I34
tp810
a(I193
I77
tp811
a(I187
I24
tp812
a(I176
I51
tp813
a(I126
I17
tp814
a(I97
I10
tp815
a(I130
I0
tp816
asg27
I200
sba(imain2
Polygon
p817
(dp818
g3
(I43
I128
tp819
sg5
I200
sg6
(I89
I21
I103
I108
tp820
sg8
(lp821
(I6
I108
tp822
a(I15
I103
tp823
a(I5
I162
tp824
a(I3
I155
tp825
asg27
I200
sba(imain2
Polygon
p826
(dp827
g3
(I191
I52
tp828
sg5
I200
sg6
(I138
I139
I97
I1
tp829
sg8
(lp830
(I200
I4
tp831
a(I200
I26
tp832
a(I179
I57
tp833
a(I160
I85
tp834
a(I200
I9
tp835
a(I200
I78
tp836
a(I150
I21
tp837
a(I175
I65
tp838
a(I162
I13
tp839
asg27
I200
sba(imain2
Polygon
p840
(dp841
g3
(I124
I96
tp842
sg5
I200
sg6
(I220
I84
I119
I1
tp843
sg8
(lp844
(I86
I139
tp845
a(I142
I107
tp846
a(I106
I89
tp847
a(I142
I104
tp848
a(I100
I144
tp849
a(I91
I110
tp850
a(I113
I48
tp851
a(I102
I110
tp852
a(I81
I129
tp853
a(I157
I142
tp854
a(I167
I108
tp855
a(I164
I73
tp856
asg27
I200
sba(imain2
Polygon
p857
(dp858
g3
(I14
I107
tp859
sg5
I200
sg6
(I54
I1
I216
I113
tp860
sg8
(lp861
(I0
I128
tp862
a(I0
I102
tp863
a(I11
I71
tp864
a(I0
I109
tp865
asg27
I200
sba(imain2
Polygon
p866
(dp867
g3
(I84
I159
tp868
sg5
I200
sg6
(I49
I9
I190
I0
tp869
sg8
(lp870
(I88
I152
tp871
a(I90
I134
tp872
a(I51
I133
tp873
a(I58
I118
tp874
a(I101
I200
tp875
a(I118
I139
tp876
a(I101
I138
tp877
a(I64
I172
tp878
a(I99
I119
tp879
asg27
I200
sba(imain2
Polygon
p880
(dp881
g3
(I141
I115
tp882
sg5
I200
sg6
(I236
I169
I168
I1
tp883
sg8
(lp884
(I180
I117
tp885
a(I151
I144
tp886
a(I126
I104
tp887
asg27
I200
sba(imain2
Polygon
p888
(dp889
g3
(I199
I78
tp890
sg5
I200
sg6
(I204
I198
I82
I116
tp891
sg8
(lp892
(I151
I34
tp893
a(I153
I30
tp894
a(I200
I28
tp895
a(I200
I125
tp896
a(I164
I113
tp897
a(I175
I100
tp898
a(I171
I79
tp899
asg27
I200
sba(imain2
Polygon
p900
(dp901
g3
(I167
I90
tp902
sg5
I200
sg6
(I31
I185
I28
I34
tp903
sg8
(lp904
(I193
I65
tp905
a(I137
I128
tp906
a(I182
I102
tp907
a(I200
I85
tp908
a(I155
I50
tp909
asg27
I200
sba(imain2
Polygon
p910
(dp911
g3
(I17
I14
tp912
sg5
I200
sg6
(I1
I6
I90
I16
tp913
sg8
(lp914
(I37
I26
tp915
a(I0
I12
tp916
a(I30
I27
tp917
a(I0
I8
tp918
a(I21
I0
tp919
a(I0
I0
tp920
a(I0
I17
tp921
a(I0
I29
tp922
a(I0
I0
tp923
a(I23
I18
tp924
a(I0
I50
tp925
a(I44
I1
tp926
a(I0
I2
tp927
a(I8
I0
tp928
a(I17
I0
tp929
asg27
I200
sba(imain2
Polygon
p930
(dp931
g3
(I190
I180
tp932
sg5
I200
sg6
(I224
I100
I46
I0
tp933
sg8
(lp934
(I197
I149
tp935
a(I156
I200
tp936
a(I200
I200
tp937
a(I200
I200
tp938
asg27
I200
sba(imain2
Polygon
p939
(dp940
g3
(I70
I166
tp941
sg5
I200
sg6
(I104
I177
I0
I1
tp942
sg8
(lp943
(I106
I200
tp944
a(I77
I197
tp945
a(I84
I188
tp946
a(I77
I128
tp947
a(I36
I127
tp948
a(I110
I188
tp949
a(I48
I131
tp950
a(I106
I184
tp951
a(I58
I200
tp952
a(I72
I186
tp953
asg27
I200
sba(imain2
Polygon
p954
(dp955
g3
(I196
I185
tp956
sg5
I200
sg6
(I17
I153
I128
I0
tp957
sg8
(lp958
(I153
I200
tp959
a(I200
I163
tp960
a(I200
I200
tp961
a(I171
I140
tp962
a(I150
I137
tp963
a(I200
I200
tp964
asg27
I200
sba(imain2
Polygon
p965
(dp966
g3
(I48
I123
tp967
sg5
I200
sg6
(I164
I42
I15
I81
tp968
sg8
(lp969
(I8
I113
tp970
a(I8
I127
tp971
a(I0
I97
tp972
a(I22
I76
tp973
a(I46
I104
tp974
a(I58
I146
tp975
a(I89
I76
tp976
a(I9
I121
tp977
a(I27
I162
tp978
a(I11
I146
tp979
a(I15
I82
tp980
asg27
I200
sba(imain2
Polygon
p981
(dp982
g3
(I59
I97
tp983
sg5
I200
sg6
(I202
I47
I123
I12
tp984
sg8
(lp985
(I70
I135
tp986
a(I85
I54
tp987
a(I45
I47
tp988
a(I104
I120
tp989
a(I44
I80
tp990
a(I63
I132
tp991
a(I18
I115
tp992
a(I107
I141
tp993
a(I83
I125
tp994
a(I74
I134
tp995
asg27
I200
sba(imain2
Polygon
p996
(dp997
g3
(I17
I149
tp998
sg5
I200
sg6
(I0
I34
I154
I1
tp999
sg8
(lp1000
(I0
I124
tp1001
a(I0
I184
tp1002
a(I0
I172
tp1003
a(I5
I196
tp1004
a(I15
I142
tp1005
a(I0
I171
tp1006
a(I55
I198
tp1007
a(I22
I101
tp1008
a(I3
I116
tp1009
asg27
I200
sba(imain2
Polygon
p1010
(dp1011
g3
(I88
I2
tp1012
sg5
I200
sg6
(I2
I101
I59
I35
tp1013
sg8
(lp1014
(I46
I0
tp1015
a(I122
I0
tp1016
a(I48
I0
tp1017
a(I105
I20
tp1018
a(I82
I0
tp1019
a(I78
I0
tp1020
a(I113
I12
tp1021
asg27
I200
sba(imain2
Polygon
p1022
(dp1023
g3
(I3
I161
tp1024
sg5
I200
sg6
(I172
I17
I188
I0
tp1025
sg8
(lp1026
(I21
I162
tp1027
a(I0
I169
tp1028
a(I0
I141
tp1029
a(I41
I178
tp1030
a(I0
I124
tp1031
a(I0
I163
tp1032
a(I0
I168
tp1033
a(I11
I145
tp1034
a(I0
I121
tp1035
a(I45
I146
tp1036
asg27
I200
sba(imain2
Polygon
p1037
(dp1038
g3
(I98
I58
tp1039
sg5
I200
sg6
(I36
I61
I167
I1
tp1040
sg8
(lp1041
(I68
I69
tp1042
a(I71
I81
tp1043
a(I74
I104
tp1044
a(I52
I73
tp1045
a(I125
I37
tp1046
a(I102
I11
tp1047
asg27
I200
sba(imain2
Polygon
p1048
(dp1049
g3
(I109
I111
tp1050
sg5
I200
sg6
(I225
I35
I97
I1
tp1051
sg8
(lp1052
(I91
I100
tp1053
a(I96
I159
tp1054
a(I64
I113
tp1055
a(I109
I97
tp1056
a(I135
I157
tp1057
a(I147
I83
tp1058
a(I140
I71
tp1059
a(I83
I82
tp1060
a(I126
I115
tp1061
a(I121
I150
tp1062
asg27
I200
sba(imain2
Polygon
p1063
(dp1064
g3
(I83
I155
tp1065
sg5
I200
sg6
(I201
I40
I178
I6
tp1066
sg8
(lp1067
(I67
I145
tp1068
a(I129
I115
tp1069
a(I132
I200
tp1070
a(I58
I195
tp1071
a(I116
I182
tp1072
a(I60
I111
tp1073
a(I110
I188
tp1074
a(I51
I131
tp1075
a(I87
I167
tp1076
a(I102
I130
tp1077
a(I90
I159
tp1078
a(I106
I115
tp1079
a(I76
I160
tp1080
a(I41
I151
tp1081
a(I33
I118
tp1082
a(I81
I114
tp1083
a(I112
I109
tp1084
a(I43
I119
tp1085
asg27
I200
sba(imain2
Polygon
p1086
(dp1087
g3
(I81
I21
tp1088
sg5
I200
sg6
(I135
I0
I24
I95
tp1089
sg8
(lp1090
(I94
I1
tp1091
a(I110
I0
tp1092
a(I90
I0
tp1093
a(I122
I60
tp1094
a(I103
I58
tp1095
a(I38
I0
tp1096
a(I64
I20
tp1097
a(I80
I0
tp1098
asg27
I200
sba(imain2
Polygon
p1099
(dp1100
g3
(I77
I115
tp1101
sg5
I200
sg6
(I90
I234
I216
I0
tp1102
sg8
(lp1103
(I39
I74
tp1104
a(I45
I102
tp1105
a(I59
I149
tp1106
a(I81
I144
tp1107
a(I83
I96
tp1108
a(I104
I119
tp1109
a(I126
I153
tp1110
a(I34
I138
tp1111
asg27
I200
sba(imain2
Polygon
p1112
(dp1113
g3
(I108
I110
tp1114
sg5
I200
sg6
(I141
I114
I142
I1
tp1115
sg8
(lp1116
(I128
I152
tp1117
a(I143
I78
tp1118
a(I76
I135
tp1119
a(I129
I123
tp1120
a(I153
I68
tp1121
a(I129
I106
tp1122
a(I101
I139
tp1123
a(I149
I82
tp1124
a(I109
I107
tp1125
a(I137
I94
tp1126
a(I104
I133
tp1127
a(I141
I157
tp1128
asg27
I200
sba(imain2
Polygon
p1129
(dp1130
g3
(I7
I122
tp1131
sg5
I200
sg6
(I150
I1
I155
I1
tp1132
sg8
(lp1133
(I1
I75
tp1134
a(I26
I136
tp1135
a(I40
I82
tp1136
a(I0
I168
tp1137
a(I15
I147
tp1138
a(I47
I133
tp1139
a(I0
I158
tp1140
a(I41
I128
tp1141
a(I46
I97
tp1142
a(I42
I170
tp1143
a(I18
I87
tp1144
a(I6
I142
tp1145
a(I24
I123
tp1146
a(I23
I87
tp1147
asg27
I200
sba(imain2
Polygon
p1148
(dp1149
g3
(I105
I20
tp1150
sg5
I200
sg6
(I211
I24
I227
I0
tp1151
sg8
(lp1152
(I68
I0
tp1153
a(I73
I0
tp1154
a(I85
I12
tp1155
a(I66
I0
tp1156
a(I138
I42
tp1157
a(I57
I22
tp1158
a(I142
I57
tp1159
asg27
I200
sba(imain2
Polygon
p1160
(dp1161
g3
(I47
I80
tp1162
sg5
I200
sg6
(I104
I46
I113
I5
tp1163
sg8
(lp1164
(I55
I102
tp1165
a(I79
I102
tp1166
a(I62
I30
tp1167
a(I45
I84
tp1168
a(I96
I67
tp1169
a(I97
I99
tp1170
a(I75
I53
tp1171
a(I87
I117
tp1172
a(I11
I37
tp1173
a(I13
I128
tp1174
a(I64
I108
tp1175
a(I23
I50
tp1176
a(I71
I123
tp1177
a(I68
I94
tp1178
a(I82
I49
tp1179
a(I8
I102
tp1180
a(I84
I126
tp1181
a(I90
I110
tp1182
a(I77
I84
tp1183
a(I13
I123
tp1184
asg27
I200
sba(imain2
Polygon
p1185
(dp1186
g3
(I131
I30
tp1187
sg5
I200
sg6
(I202
I121
I166
I0
tp1188
sg8
(lp1189
(I87
I17
tp1190
a(I102
I0
tp1191
a(I162
I8
tp1192
a(I116
I42
tp1193
asg27
I200
sba(imain2
Polygon
p1194
(dp1195
g3
(I199
I39
tp1196
sg5
I200
sg6
(I90
I187
I104
I50
tp1197
sg8
(lp1198
(I200
I0
tp1199
a(I150
I0
tp1200
a(I200
I89
tp1201
a(I200
I14
tp1202
a(I200
I75
tp1203
asg27
I200
sba(imain2
Polygon
p1204
(dp1205
g3
(I110
I156
tp1206
sg5
I200
sg6
(I186
I90
I123
I1
tp1207
sg8
(lp1208
(I106
I166
tp1209
a(I116
I155
tp1210
a(I91
I200
tp1211
a(I160
I151
tp1212
a(I133
I138
tp1213
a(I142
I110
tp1214
a(I103
I170
tp1215
a(I76
I200
tp1216
a(I138
I148
tp1217
a(I121
I145
tp1218
a(I144
I153
tp1219
a(I127
I174
tp1220
a(I108
I146
tp1221
asg27
I200
sba(imain2
Polygon
p1222
(dp1223
g3
(I14
I89
tp1224
sg5
I200
sg6
(I199
I19
I24
I63
tp1225
sg8
(lp1226
(I0
I61
tp1227
a(I53
I72
tp1228
a(I55
I44
tp1229
a(I17
I118
tp1230
a(I0
I99
tp1231
a(I5
I50
tp1232
a(I11
I80
tp1233
a(I34
I109
tp1234
asg27
I200
sba(imain2
Polygon
p1235
(dp1236
g3
(I124
I127
tp1237
sg5
I200
sg6
(I171
I215
I170
I1
tp1238
sg8
(lp1239
(I119
I158
tp1240
a(I99
I92
tp1241
a(I81
I155
tp1242
a(I111
I115
tp1243
a(I114
I144
tp1244
a(I97
I169
tp1245
a(I170
I95
tp1246
a(I135
I124
tp1247
a(I92
I110
tp1248
a(I100
I124
tp1249
a(I101
I170
tp1250
a(I82
I117
tp1251
a(I85
I154
tp1252
asg27
I200
sba(imain2
Polygon
p1253
(dp1254
g3
(I97
I78
tp1255
sg5
I200
sg6
(I145
I200
I157
I1
tp1256
sg8
(lp1257
(I62
I103
tp1258
a(I66
I110
tp1259
a(I110
I111
tp1260
a(I135
I109
tp1261
a(I78
I58
tp1262
a(I55
I84
tp1263
a(I108
I101
tp1264
a(I55
I62
tp1265
a(I89
I87
tp1266
a(I74
I122
tp1267
asg27
I200
sba(imain2
Polygon
p1268
(dp1269
g3
(I71
I43
tp1270
sg5
I200
sg6
(I218
I209
I116
I1
tp1271
sg8
(lp1272
(I116
I31
tp1273
a(I38
I0
tp1274
a(I53
I38
tp1275
a(I49
I45
tp1276
a(I50
I41
tp1277
a(I24
I70
tp1278
a(I75
I14
tp1279
a(I39
I86
tp1280
asg27
I200
sba(imain2
Polygon
p1281
(dp1282
g3
(I109
I75
tp1283
sg5
I200
sg6
(I108
I159
I66
I116
tp1284
sg8
(lp1285
(I63
I26
tp1286
a(I61
I87
tp1287
a(I120
I76
tp1288
a(I87
I26
tp1289
a(I64
I35
tp1290
a(I71
I69
tp1291
a(I62
I35
tp1292
a(I91
I63
tp1293
asg27
I200
sba(imain2
Polygon
p1294
(dp1295
g3
(I149
I45
tp1296
sg5
I200
sg6
(I205
I139
I126
I84
tp1297
sg8
(lp1298
(I199
I90
tp1299
a(I165
I70
tp1300
a(I183
I12
tp1301
a(I128
I0
tp1302
a(I175
I87
tp1303
a(I158
I84
tp1304
a(I187
I0
tp1305
a(I194
I33
tp1306
a(I189
I0
tp1307
a(I130
I0
tp1308
a(I195
I19
tp1309
a(I199
I27
tp1310
asg27
I200
sba(imain2
Polygon
p1311
(dp1312
g3
(I29
I98
tp1313
sg5
I200
sg6
(I6
I134
I169
I32
tp1314
sg8
(lp1315
(I0
I145
tp1316
a(I75
I70
tp1317
a(I0
I73
tp1318
a(I0
I142
tp1319
a(I32
I77
tp1320
a(I67
I79
tp1321
a(I60
I84
tp1322
a(I47
I113
tp1323
a(I28
I90
tp1324
a(I56
I50
tp1325
a(I0
I116
tp1326
a(I19
I137
tp1327
a(I63
I95
tp1328
asg27
I200
sba(imain2
Polygon
p1329
(dp1330
g3
(I90
I62
tp1331
sg5
I200
sg6
(I176
I116
I129
I1
tp1332
sg8
(lp1333
(I71
I20
tp1334
a(I61
I49
tp1335
a(I54
I78
tp1336
a(I125
I83
tp1337
a(I117
I52
tp1338
a(I63
I51
tp1339
a(I74
I67
tp1340
asg27
I200
sba(imain2
Polygon
p1341
(dp1342
g3
(I63
I49
tp1343
sg5
I200
sg6
(I216
I249
I133
I1
tp1344
sg8
(lp1345
(I83
I99
tp1346
a(I60
I50
tp1347
a(I89
I60
tp1348
a(I14
I3
tp1349
a(I16
I27
tp1350
a(I35
I15
tp1351
a(I36
I61
tp1352
a(I99
I65
tp1353
a(I24
I58
tp1354
a(I80
I12
tp1355
a(I107
I27
tp1356
asg27
I200
sba(imain2
Polygon
p1357
(dp1358
g3
(I31
I132
tp1359
sg5
I200
sg6
(I73
I116
I195
I3
tp1360
sg8
(lp1361
(I0
I177
tp1362
a(I35
I167
tp1363
a(I5
I107
tp1364
a(I70
I131
tp1365
a(I53
I134
tp1366
a(I10
I143
tp1367
a(I0
I113
tp1368
a(I42
I100
tp1369
a(I0
I125
tp1370
a(I0
I146
tp1371
a(I14
I172
tp1372
a(I51
I169
tp1373
a(I28
I154
tp1374
a(I12
I140
tp1375
a(I69
I141
tp1376
a(I5
I164
tp1377
asg27
I200
sba(imain2
Polygon
p1378
(dp1379
g3
(I80
I158
tp1380
sg5
I200
sg6
(I24
I41
I57
I1
tp1381
sg8
(lp1382
(I60
I161
tp1383
a(I114
I200
tp1384
a(I54
I185
tp1385
a(I94
I151
tp1386
a(I69
I136
tp1387
a(I105
I129
tp1388
a(I74
I194
tp1389
a(I65
I200
tp1390
a(I111
I109
tp1391
a(I35
I139
tp1392
a(I124
I119
tp1393
a(I58
I172
tp1394
a(I126
I180
tp1395
a(I39
I119
tp1396
a(I37
I191
tp1397
a(I82
I200
tp1398
a(I109
I149
tp1399
a(I30
I146
tp1400
a(I85
I200
tp1401
asg27
I200
sba(imain2
Polygon
p1402
(dp1403
g3
(I168
I51
tp1404
sg5
I200
sg6
(I97
I202
I209
I0
tp1405
sg8
(lp1406
(I120
I98
tp1407
a(I200
I20
tp1408
a(I200
I37
tp1409
a(I200
I31
tp1410
a(I196
I9
tp1411
a(I141
I16
tp1412
asg27
I200
sba(imain2
Polygon
p1413
(dp1414
g3
(I110
I14
tp1415
sg5
I200
sg6
(I155
I137
I49
I138
tp1416
sg8
(lp1417
(I118
I49
tp1418
a(I72
I59
tp1419
a(I101
I0
tp1420
a(I156
I0
tp1421
a(I158
I0
tp1422
a(I157
I28
tp1423
a(I70
I14
tp1424
a(I61
I0
tp1425
a(I67
I58
tp1426
a(I105
I0
tp1427
a(I135
I0
tp1428
a(I61
I0
tp1429
a(I77
I25
tp1430
asg27
I200
sba(imain2
Polygon
p1431
(dp1432
g3
(I85
I94
tp1433
sg5
I200
sg6
(I202
I232
I83
I62
tp1434
sg8
(lp1435
(I43
I56
tp1436
a(I110
I104
tp1437
a(I62
I48
tp1438
a(I105
I45
tp1439
a(I125
I73
tp1440
a(I92
I95
tp1441
a(I79
I138
tp1442
a(I109
I144
tp1443
a(I124
I111
tp1444
a(I62
I45
tp1445
a(I45
I66
tp1446
a(I55
I140
tp1447
a(I103
I103
tp1448
asg27
I200
sba(imain2
Polygon
p1449
(dp1450
g3
(I153
I81
tp1451
sg5
I200
sg6
(I120
I86
I189
I0
tp1452
sg8
(lp1453
(I125
I112
tp1454
a(I121
I118
tp1455
a(I150
I46
tp1456
a(I188
I103
tp1457
a(I163
I70
tp1458
a(I120
I129
tp1459
a(I194
I60
tp1460
a(I150
I42
tp1461
asg27
I200
sba(imain2
Polygon
p1462
(dp1463
g3
(I146
I37
tp1464
sg5
I200
sg6
(I227
I81
I153
I0
tp1465
sg8
(lp1466
(I191
I0
tp1467
a(I105
I34
tp1468
a(I105
I42
tp1469
a(I170
I57
tp1470
a(I168
I0
tp1471
a(I178
I36
tp1472
a(I176
I68
tp1473
asg27
I200
sba(imain2
Polygon
p1474
(dp1475
g3
(I36
I71
tp1476
sg5
I200
sg6
(I177
I119
I133
I1
tp1477
sg8
(lp1478
(I67
I92
tp1479
a(I7
I113
tp1480
a(I71
I32
tp1481
a(I57
I71
tp1482
a(I48
I38
tp1483
a(I0
I51
tp1484
a(I42
I81
tp1485
a(I50
I114
tp1486
a(I58
I42
tp1487
a(I45
I110
tp1488
a(I2
I109
tp1489
asg27
I200
sba(imain2
Polygon
p1490
(dp1491
g3
(I36
I181
tp1492
sg5
I200
sg6
(I143
I211
I95
I66
tp1493
sg8
(lp1494
(I78
I149
tp1495
a(I38
I131
tp1496
a(I81
I147
tp1497
a(I71
I200
tp1498
a(I43
I172
tp1499
a(I0
I200
tp1500
a(I0
I149
tp1501
a(I84
I200
tp1502
a(I71
I200
tp1503
asg27
I200
sba(imain2
Polygon
p1504
(dp1505
g3
(I94
I181
tp1506
sg5
I200
sg6
(I112
I48
I35
I0
tp1507
sg8
(lp1508
(I110
I200
tp1509
a(I73
I197
tp1510
a(I100
I142
tp1511
a(I119
I171
tp1512
a(I133
I167
tp1513
a(I107
I200
tp1514
a(I112
I200
tp1515
a(I73
I176
tp1516
a(I98
I144
tp1517
a(I63
I171
tp1518
asg27
I200
sba(imain2
Polygon
p1519
(dp1520
g3
(I4
I26
tp1521
sg5
I200
sg6
(I27
I103
I59
I39
tp1522
sg8
(lp1523
(I25
I0
tp1524
a(I1
I19
tp1525
a(I0
I38
tp1526
a(I0
I29
tp1527
a(I9
I3
tp1528
a(I54
I51
tp1529
a(I32
I59
tp1530
a(I21
I18
tp1531
a(I33
I48
tp1532
a(I0
I76
tp1533
a(I0
I0
tp1534
a(I48
I7
tp1535
a(I0
I38
tp1536
a(I0
I69
tp1537
a(I20
I0
tp1538
asg27
I200
sba(imain2
Polygon
p1539
(dp1540
g3
(I14
I45
tp1541
sg5
I200
sg6
(I145
I107
I0
I0
tp1542
sg8
(lp1543
(I0
I56
tp1544
a(I12
I26
tp1545
a(I26
I76
tp1546
a(I0
I32
tp1547
a(I25
I22
tp1548
a(I8
I81
tp1549
a(I0
I86
tp1550
a(I0
I73
tp1551
a(I37
I75
tp1552
a(I31
I14
tp1553
a(I6
I53
tp1554
asg27
I200
sba(imain2
Polygon
p1555
(dp1556
g3
(I103
I69
tp1557
sg5
I200
sg6
(I231
I218
I1
I36
tp1558
sg8
(lp1559
(I55
I36
tp1560
a(I53
I116
tp1561
a(I125
I109
tp1562
a(I135
I89
tp1563
a(I85
I19
tp1564
a(I102
I36
tp1565
asg27
I200
sba(imain2
Polygon
p1566
(dp1567
g3
(I61
I77
tp1568
sg5
I200
sg6
(I60
I120
I190
I119
tp1569
sg8
(lp1570
(I45
I115
tp1571
a(I88
I94
tp1572
a(I89
I87
tp1573
asg27
I200
sba(imain2
Polygon
p1574
(dp1575
g3
(I36
I98
tp1576
sg5
I200
sg6
(I0
I197
I72
I37
tp1577
sg8
(lp1578
(I28
I97
tp1579
a(I4
I90
tp1580
a(I0
I121
tp1581
a(I0
I53
tp1582
a(I80
I75
tp1583
a(I30
I53
tp1584
a(I0
I130
tp1585
a(I36
I48
tp1586
a(I42
I52
tp1587
a(I19
I124
tp1588
asg27
I200
sba(imain2
Polygon
p1589
(dp1590
g3
(I20
I133
tp1591
sg5
I200
sg6
(I196
I236
I132
I70
tp1592
sg8
(lp1593
(I25
I183
tp1594
a(I0
I181
tp1595
a(I0
I175
tp1596
a(I21
I139
tp1597
a(I28
I170
tp1598
asg27
I200
sba(imain2
Polygon
p1599
(dp1600
g3
(I178
I74
tp1601
sg5
I200
sg6
(I28
I119
I23
I0
tp1602
sg8
(lp1603
(I193
I110
tp1604
a(I160
I42
tp1605
a(I200
I57
tp1606
a(I200
I29
tp1607
a(I200
I85
tp1608
a(I173
I107
tp1609
a(I172
I86
tp1610
asg27
I200
sba(imain2
Polygon
p1611
(dp1612
g3
(I191
I151
tp1613
sg5
I200
sg6
(I237
I38
I74
I51
tp1614
sg8
(lp1615
(I168
I135
tp1616
a(I200
I123
tp1617
a(I200
I189
tp1618
asg27
I200
sba(imain2
Polygon
p1619
(dp1620
g3
(I81
I200
tp1621
sg5
I200
sg6
(I39
I57
I159
I24
tp1622
sg8
(lp1623
(I63
I200
tp1624
a(I38
I191
tp1625
a(I46
I200
tp1626
a(I78
I172
tp1627
a(I46
I200
tp1628
a(I103
I198
tp1629
a(I103
I200
tp1630
a(I114
I200
tp1631
a(I99
I200
tp1632
asg27
I200
sba(imain2
Polygon
p1633
(dp1634
g3
(I8
I200
tp1635
sg5
I200
sg6
(I234
I14
I64
I127
tp1636
sg8
(lp1637
(I0
I200
tp1638
a(I0
I200
tp1639
a(I41
I200
tp1640
a(I0
I200
tp1641
a(I0
I200
tp1642
a(I35
I200
tp1643
a(I45
I200
tp1644
a(I23
I200
tp1645
asg27
I200
sba(imain2
Polygon
p1646
(dp1647
g3
(I12
I187
tp1648
sg5
I200
sg6
(I221
I0
I177
I1
tp1649
sg8
(lp1650
(I23
I192
tp1651
a(I22
I200
tp1652
a(I34
I164
tp1653
a(I0
I174
tp1654
a(I3
I143
tp1655
a(I3
I200
tp1656
a(I42
I172
tp1657
a(I54
I200
tp1658
a(I0
I173
tp1659
a(I20
I145
tp1660
a(I16
I198
tp1661
a(I0
I200
tp1662
asg27
I200
sba(imain2
Polygon
p1663
(dp1664
g3
(I142
I43
tp1665
sg5
I200
sg6
(I49
I75
I163
I1
tp1666
sg8
(lp1667
(I129
I23
tp1668
a(I149
I90
tp1669
a(I150
I53
tp1670
a(I92
I48
tp1671
a(I131
I6
tp1672
a(I136
I59
tp1673
a(I125
I49
tp1674
a(I123
I43
tp1675
a(I95
I15
tp1676
a(I122
I35
tp1677
a(I170
I34
tp1678
a(I138
I19
tp1679
a(I152
I6
tp1680
a(I103
I43
tp1681
a(I146
I16
tp1682
a(I189
I16
tp1683
asg27
I200
sba(imain2
Polygon
p1684
(dp1685
g3
(I89
I37
tp1686
sg5
I200
sg6
(I0
I101
I197
I69
tp1687
sg8
(lp1688
(I104
I35
tp1689
a(I54
I51
tp1690
a(I55
I50
tp1691
asg27
I200
sba(imain2
Polygon
p1692
(dp1693
g3
(I43
I51
tp1694
sg5
I200
sg6
(I34
I140
I121
I0
tp1695
sg8
(lp1696
(I15
I67
tp1697
a(I39
I8
tp1698
a(I76
I90
tp1699
a(I20
I81
tp1700
a(I29
I5
tp1701
a(I66
I97
tp1702
a(I62
I59
tp1703
a(I37
I59
tp1704
a(I76
I99
tp1705
a(I47
I50
tp1706
a(I2
I88
tp1707
a(I41
I3
tp1708
a(I88
I11
tp1709
a(I51
I32
tp1710
a(I75
I8
tp1711
a(I15
I62
tp1712
asg27
I200
sba(imain2
Polygon
p1713
(dp1714
g3
(I23
I143
tp1715
sg5
I200
sg6
(I72
I245
I170
I39
tp1716
sg8
(lp1717
(I0
I94
tp1718
a(I0
I130
tp1719
a(I0
I188
tp1720
a(I29
I191
tp1721
a(I34
I148
tp1722
a(I0
I157
tp1723
a(I0
I133
tp1724
asg27
I200
sba(imain2
Polygon
p1725
(dp1726
g3
(I32
I143
tp1727
sg5
I200
sg6
(I51
I69
I159
I0
tp1728
sg8
(lp1729
(I82
I177
tp1730
a(I49
I177
tp1731
a(I63
I174
tp1732
a(I52
I121
tp1733
a(I45
I154
tp1734
a(I1
I141
tp1735
a(I0
I171
tp1736
a(I17
I146
tp1737
a(I70
I117
tp1738
a(I41
I99
tp1739
a(I58
I115
tp1740
a(I32
I170
tp1741
a(I0
I152
tp1742
a(I53
I187
tp1743
a(I22
I122
tp1744
a(I64
I151
tp1745
asg27
I200
sba(imain2
Polygon
p1746
(dp1747
g3
(I69
I107
tp1748
sg5
I200
sg6
(I156
I228
I1
I4
tp1749
sg8
(lp1750
(I95
I66
tp1751
a(I48
I101
tp1752
a(I45
I119
tp1753
a(I109
I101
tp1754
a(I94
I134
tp1755
a(I49
I120
tp1756
a(I34
I151
tp1757
a(I93
I154
tp1758
a(I108
I69
tp1759
a(I51
I66
tp1760
a(I105
I141
tp1761
a(I73
I153
tp1762
a(I34
I125
tp1763
asg27
I200
sba(imain2
Polygon
p1764
(dp1765
g3
(I172
I111
tp1766
sg5
I200
sg6
(I236
I212
I83
I120
tp1767
sg8
(lp1768
(I200
I62
tp1769
a(I200
I94
tp1770
a(I166
I66
tp1771
asg27
I200
sba(imain2
Polygon
p1772
(dp1773
g3
(I150
I91
tp1774
sg5
I200
sg6
(I8
I239
I84
I36
tp1775
sg8
(lp1776
(I174
I136
tp1777
a(I165
I69
tp1778
a(I174
I90
tp1779
a(I199
I68
tp1780
a(I197
I130
tp1781
asg27
I200
sba(imain2
Polygon
p1782
(dp1783
g3
(I135
I188
tp1784
sg5
I200
sg6
(I76
I226
I4
I0
tp1785
sg8
(lp1786
(I184
I181
tp1787
a(I127
I200
tp1788
a(I104
I200
tp1789
a(I161
I166
tp1790
a(I166
I162
tp1791
a(I85
I183
tp1792
a(I164
I200
tp1793
asg27
I200
sba(imain2
Polygon
p1794
(dp1795
g3
(I127
I113
tp1796
sg5
I200
sg6
(I133
I210
I151
I1
tp1797
sg8
(lp1798
(I116
I100
tp1799
a(I174
I63
tp1800
a(I140
I80
tp1801
a(I158
I139
tp1802
a(I111
I130
tp1803
asg27
I200
sba(imain2
Polygon
p1804
(dp1805
g3
(I173
I20
tp1806
sg5
I200
sg6
(I230
I1
I218
I1
tp1807
sg8
(lp1808
(I166
I0
tp1809
a(I187
I8
tp1810
a(I171
I46
tp1811
a(I200
I0
tp1812
a(I145
I26
tp1813
a(I200
I0
tp1814
a(I152
I0
tp1815
a(I143
I58
tp1816
a(I186
I67
tp1817
a(I200
I0
tp1818
a(I166
I0
tp1819
a(I163
I0
tp1820
a(I173
I0
tp1821
a(I144
I0
tp1822
a(I200
I35
tp1823
asg27
I200
sba(imain2
Polygon
p1824
(dp1825
g3
(I100
I197
tp1826
sg5
I200
sg6
(I33
I102
I176
I59
tp1827
sg8
(lp1828
(I99
I200
tp1829
a(I118
I200
tp1830
a(I147
I200
tp1831
a(I104
I151
tp1832
a(I129
I173
tp1833
a(I105
I200
tp1834
a(I92
I200
tp1835
a(I140
I200
tp1836
a(I133
I200
tp1837
a(I139
I200
tp1838
a(I92
I200
tp1839
a(I121
I200
tp1840
a(I100
I199
tp1841
asg27
I200
sba(imain2
Polygon
p1842
(dp1843
g3
(I70
I0
tp1844
sg5
I200
sg6
(I135
I0
I193
I1
tp1845
sg8
(lp1846
(I62
I0
tp1847
a(I56
I0
tp1848
a(I112
I0
tp1849
a(I107
I0
tp1850
a(I109
I36
tp1851
a(I64
I0
tp1852
a(I30
I0
tp1853
asg27
I200
sba(imain2
Polygon
p1854
(dp1855
g3
(I106
I152
tp1856
sg5
I200
sg6
(I98
I161
I61
I65
tp1857
sg8
(lp1858
(I133
I114
tp1859
a(I119
I166
tp1860
a(I59
I200
tp1861
a(I140
I199
tp1862
a(I115
I114
tp1863
a(I85
I153
tp1864
a(I124
I140
tp1865
a(I142
I198
tp1866
a(I122
I150
tp1867
a(I68
I141
tp1868
a(I79
I165
tp1869
a(I99
I123
tp1870
asg27
I200
sba(imain2
Polygon
p1871
(dp1872
g3
(I11
I38
tp1873
sg5
I200
sg6
(I109
I1
I123
I1
tp1874
sg8
(lp1875
(I11
I45
tp1876
a(I0
I65
tp1877
a(I35
I52
tp1878
a(I0
I12
tp1879
a(I8
I17
tp1880
a(I0
I79
tp1881
a(I52
I31
tp1882
a(I3
I4
tp1883
a(I46
I62
tp1884
a(I11
I25
tp1885
a(I3
I0
tp1886
asg27
I200
sba(imain2
Polygon
p1887
(dp1888
g3
(I23
I68
tp1889
sg5
I200
sg6
(I215
I111
I188
I119
tp1890
sg8
(lp1891
(I35
I109
tp1892
a(I24
I85
tp1893
a(I54
I19
tp1894
a(I0
I66
tp1895
a(I35
I32
tp1896
a(I64
I43
tp1897
a(I0
I19
tp1898
a(I0
I111
tp1899
a(I7
I98
tp1900
a(I38
I112
tp1901
a(I10
I74
tp1902
asg27
I200
sba(imain2
Polygon
p1903
(dp1904
g3
(I73
I8
tp1905
sg5
I200
sg6
(I104
I162
I20
I129
tp1906
sg8
(lp1907
(I33
I0
tp1908
a(I113
I0
tp1909
a(I27
I56
tp1910
a(I23
I45
tp1911
a(I27
I13
tp1912
a(I32
I0
tp1913
a(I39
I9
tp1914
a(I28
I0
tp1915
a(I119
I40
tp1916
asg27
I200
sba(imain2
Polygon
p1917
(dp1918
g3
(I175
I187
tp1919
sg5
I200
sg6
(I117
I193
I196
I50
tp1920
sg8
(lp1921
(I159
I200
tp1922
a(I170
I200
tp1923
a(I146
I200
tp1924
asg27
I200
sba(imain2
Polygon
p1925
(dp1926
g3
(I153
I195
tp1927
sg5
I200
sg6
(I54
I165
I29
I1
tp1928
sg8
(lp1929
(I179
I189
tp1930
a(I123
I200
tp1931
a(I135
I200
tp1932
a(I197
I200
tp1933
a(I192
I184
tp1934
a(I196
I200
tp1935
a(I125
I147
tp1936
a(I103
I169
tp1937
a(I103
I196
tp1938
asg27
I200
sba(imain2
Polygon
p1939
(dp1940
g3
(I199
I6
tp1941
sg5
I200
sg6
(I143
I39
I86
I0
tp1942
sg8
(lp1943
(I200
I20
tp1944
a(I200
I2
tp1945
a(I156
I0
tp1946
a(I165
I20
tp1947
a(I200
I20
tp1948
a(I200
I0
tp1949
a(I191
I0
tp1950
a(I150
I2
tp1951
a(I200
I38
tp1952
asg27
I200
sba(imain2
Polygon
p1953
(dp1954
g3
(I46
I191
tp1955
sg5
I200
sg6
(I89
I15
I8
I102
tp1956
sg8
(lp1957
(I69
I200
tp1958
a(I84
I189
tp1959
a(I89
I167
tp1960
a(I0
I200
tp1961
a(I0
I146
tp1962
a(I27
I155
tp1963
a(I54
I200
tp1964
a(I34
I181
tp1965
a(I84
I178
tp1966
a(I52
I173
tp1967
asg27
I200
sba(imain2
Polygon
p1968
(dp1969
g3
(I144
I179
tp1970
sg5
I200
sg6
(I124
I32
I189
I30
tp1971
sg8
(lp1972
(I123
I130
tp1973
a(I153
I186
tp1974
a(I136
I182
tp1975
a(I130
I191
tp1976
a(I102
I180
tp1977
a(I191
I200
tp1978
a(I105
I200
tp1979
a(I133
I183
tp1980
a(I108
I200
tp1981
a(I164
I155
tp1982
a(I148
I156
tp1983
a(I175
I200
tp1984
a(I154
I153
tp1985
a(I168
I199
tp1986
a(I168
I200
tp1987
asg27
I200
sba(imain2
Polygon
p1988
(dp1989
g3
(I120
I46
tp1990
sg5
I200
sg6
(I81
I82
I101
I48
tp1991
sg8
(lp1992
(I133
I48
tp1993
a(I126
I24
tp1994
a(I138
I46
tp1995
a(I132
I30
tp1996
a(I113
I91
tp1997
a(I132
I24
tp1998
a(I98
I13
tp1999
asg27
I200
sba(imain2
Polygon
p2000
(dp2001
g3
(I100
I144
tp2002
sg5
I200
sg6
(I122
I183
I165
I106
tp2003
sg8
(lp2004
(I112
I95
tp2005
a(I98
I152
tp2006
a(I98
I126
tp2007
a(I74
I100
tp2008
a(I73
I147
tp2009
a(I83
I152
tp2010
a(I125
I151
tp2011
a(I68
I158
tp2012
a(I57
I102
tp2013
a(I80
I97
tp2014
asg27
I200
sba(imain2
Polygon
p2015
(dp2016
g3
(I151
I184
tp2017
sg5
I200
sg6
(I138
I1
I175
I1
tp2018
sg8
(lp2019
(I141
I163
tp2020
a(I122
I200
tp2021
a(I162
I159
tp2022
asg27
I200
sba(imain2
Polygon
p2023
(dp2024
g3
(I124
I187
tp2025
sg5
I200
sg6
(I25
I27
I210
I1
tp2026
sg8
(lp2027
(I90
I200
tp2028
a(I138
I200
tp2029
a(I131
I200
tp2030
a(I140
I200
tp2031
a(I119
I200
tp2032
a(I147
I147
tp2033
a(I113
I200
tp2034
a(I117
I187
tp2035
a(I128
I165
tp2036
a(I118
I147
tp2037
asg27
I200
sba(imain2
Polygon
p2038
(dp2039
g3
(I48
I52
tp2040
sg5
I200
sg6
(I247
I132
I158
I141
tp2041
sg8
(lp2042
(I58
I94
tp2043
a(I79
I94
tp2044
a(I97
I60
tp2045
a(I67
I7
tp2046
a(I35
I65
tp2047
a(I31
I93
tp2048
a(I90
I3
tp2049
a(I0
I3
tp2050
a(I0
I82
tp2051
a(I2
I102
tp2052
a(I65
I76
tp2053
a(I18
I85
tp2054
a(I75
I83
tp2055
a(I67
I95
tp2056
asg27
I200
sba(imain2
Polygon
p2057
(dp2058
g3
(I139
I74
tp2059
sg5
I200
sg6
(I151
I190
I236
I80
tp2060
sg8
(lp2061
(I189
I47
tp2062
a(I185
I26
tp2063
a(I157
I30
tp2064
a(I169
I88
tp2065
a(I187
I48
tp2066
asg27
I200
sba(imain2
Polygon
p2067
(dp2068
g3
(I161
I83
tp2069
sg5
I200
sg6
(I202
I147
I103
I29
tp2070
sg8
(lp2071
(I114
I113
tp2072
a(I114
I49
tp2073
a(I178
I77
tp2074
a(I155
I98
tp2075
a(I177
I113
tp2076
a(I199
I106
tp2077
a(I200
I49
tp2078
a(I140
I35
tp2079
a(I197
I72
tp2080
a(I147
I60
tp2081
a(I145
I53
tp2082
a(I124
I126
tp2083
asg27
I200
sba(imain2
Polygon
p2084
(dp2085
g3
(I88
I36
tp2086
sg5
I200
sg6
(I1
I30
I71
I104
tp2087
sg8
(lp2088
(I80
I10
tp2089
a(I49
I39
tp2090
a(I102
I37
tp2091
a(I120
I27
tp2092
a(I125
I14
tp2093
a(I135
I16
tp2094
a(I71
I9
tp2095
a(I89
I8
tp2096
a(I58
I13
tp2097
asg27
I200
sba(imain2
Polygon
p2098
(dp2099
g3
(I12
I36
tp2100
sg5
I200
sg6
(I162
I102
I213
I0
tp2101
sg8
(lp2102
(I11
I65
tp2103
a(I0
I52
tp2104
a(I0
I69
tp2105
a(I31
I6
tp2106
a(I0
I79
tp2107
a(I0
I62
tp2108
a(I45
I0
tp2109
a(I6
I61
tp2110
asg27
I200
sba(imain2
Polygon
p2111
(dp2112
g3
(I79
I176
tp2113
sg5
I200
sg6
(I198
I83
I166
I98
tp2114
sg8
(lp2115
(I129
I200
tp2116
a(I127
I162
tp2117
a(I69
I200
tp2118
a(I91
I200
tp2119
a(I96
I200
tp2120
asg27
I200
sba(imain2
Polygon
p2121
(dp2122
g3
(I159
I193
tp2123
sg5
I200
sg6
(I188
I172
I60
I1
tp2124
sg8
(lp2125
(I115
I192
tp2126
a(I136
I181
tp2127
a(I185
I200
tp2128
a(I173
I200
tp2129
a(I180
I200
tp2130
a(I200
I196
tp2131
a(I192
I188
tp2132
a(I191
I154
tp2133
a(I134
I143
tp2134
a(I129
I200
tp2135
a(I197
I200
tp2136
a(I157
I195
tp2137
a(I160
I187
tp2138
asg27
I200
sba(imain2
Polygon
p2139
(dp2140
g3
(I52
I197
tp2141
sg5
I200
sg6
(I164
I145
I228
I1
tp2142
sg8
(lp2143
(I87
I182
tp2144
a(I50
I179
tp2145
a(I29
I200
tp2146
a(I49
I200
tp2147
a(I10
I147
tp2148
a(I22
I181
tp2149
a(I16
I153
tp2150
a(I95
I187
tp2151
asg27
I200
sba(imain2
Polygon
p2152
(dp2153
g3
(I96
I168
tp2154
sg5
I200
sg6
(I81
I155
I161
I1
tp2155
sg8
(lp2156
(I105
I151
tp2157
a(I128
I200
tp2158
a(I97
I200
tp2159
a(I68
I178
tp2160
a(I144
I177
tp2161
a(I76
I196
tp2162
a(I85
I168
tp2163
a(I125
I166
tp2164
a(I139
I177
tp2165
a(I108
I170
tp2166
a(I123
I192
tp2167
asg27
I200
sba(imain2
Polygon
p2168
(dp2169
g3
(I148
I67
tp2170
sg5
I200
sg6
(I210
I29
I21
I0
tp2171
sg8
(lp2172
(I182
I102
tp2173
a(I149
I67
tp2174
a(I149
I107
tp2175
a(I181
I47
tp2176
a(I165
I109
tp2177
a(I105
I34
tp2178
a(I152
I25
tp2179
a(I123
I20
tp2180
a(I100
I97
tp2181
a(I171
I111
tp2182
a(I118
I56
tp2183
a(I159
I41
tp2184
a(I198
I101
tp2185
a(I117
I89
tp2186
asg27
I200
sba(imain2
Polygon
p2187
(dp2188
g3
(I185
I29
tp2189
sg5
I200
sg6
(I139
I164
I76
I76
tp2190
sg8
(lp2191
(I136
I0
tp2192
a(I199
I0
tp2193
a(I200
I25
tp2194
a(I174
I43
tp2195
a(I138
I31
tp2196
asg27
I200
sba(imain2
Polygon
p2197
(dp2198
g3
(I77
I185
tp2199
sg5
I200
sg6
(I27
I24
I96
I93
tp2200
sg8
(lp2201
(I122
I163
tp2202
a(I63
I154
tp2203
a(I110
I156
tp2204
a(I124
I169
tp2205
a(I40
I180
tp2206
a(I124
I175
tp2207
a(I35
I180
tp2208
a(I104
I149
tp2209
a(I64
I192
tp2210
a(I42
I162
tp2211
a(I74
I164
tp2212
a(I77
I170
tp2213
a(I75
I169
tp2214
asg27
I200
sba(imain2
Polygon
p2215
(dp2216
g3
(I183
I173
tp2217
sg5
I200
sg6
(I108
I214
I86
I39
tp2218
sg8
(lp2219
(I200
I200
tp2220
a(I200
I160
tp2221
a(I200
I200
tp2222
a(I200
I125
tp2223
a(I137
I200
tp2224
a(I165
I200
tp2225
a(I184
I179
tp2226
asg27
I200
sba(imain2
Polygon
p2227
(dp2228
g3
(I141
I78
tp2229
sg5
I200
sg6
(I230
I87
I164
I1
tp2230
sg8
(lp2231
(I99
I101
tp2232
a(I182
I64
tp2233
a(I176
I100
tp2234
a(I162
I119
tp2235
a(I134
I123
tp2236
a(I153
I109
tp2237
asg27
I200
sba(imain2
Polygon
p2238
(dp2239
g3
(I8
I10
tp2240
sg5
I200
sg6
(I61
I42
I71
I96
tp2241
sg8
(lp2242
(I33
I4
tp2243
a(I0
I0
tp2244
a(I30
I6
tp2245
a(I0
I0
tp2246
a(I30
I0
tp2247
asg27
I200
sba(imain2
Polygon
p2248
(dp2249
g3
(I37
I13
tp2250
sg5
I200
sg6
(I0
I114
I18
I107
tp2251
sg8
(lp2252
(I36
I0
tp2253
a(I16
I0
tp2254
a(I2
I0
tp2255
a(I0
I6
tp2256
a(I47
I4
tp2257
a(I33
I0
tp2258
a(I37
I0
tp2259
a(I53
I0
tp2260
a(I27
I0
tp2261
a(I38
I0
tp2262
a(I54
I0
tp2263
a(I41
I0
tp2264
asg27
I200
sba(imain2
Polygon
p2265
(dp2266
g3
(I168
I175
tp2267
sg5
I200
sg6
(I94
I52
I24
I1
tp2268
sg8
(lp2269
(I153
I168
tp2270
a(I179
I200
tp2271
a(I195
I166
tp2272
a(I185
I200
tp2273
a(I200
I200
tp2274
a(I200
I169
tp2275
a(I118
I182
tp2276
a(I200
I171
tp2277
a(I200
I200
tp2278
a(I122
I174
tp2279
a(I171
I200
tp2280
asg27
I200
sba(imain2
Polygon
p2281
(dp2282
g3
(I75
I83
tp2283
sg5
I200
sg6
(I27
I32
I18
I0
tp2284
sg8
(lp2285
(I91
I55
tp2286
a(I50
I113
tp2287
a(I118
I51
tp2288
a(I36
I133
tp2289
a(I36
I53
tp2290
a(I51
I69
tp2291
a(I28
I131
tp2292
a(I28
I89
tp2293
a(I87
I115
tp2294
a(I88
I88
tp2295
a(I101
I82
tp2296
a(I43
I89
tp2297
a(I101
I66
tp2298
a(I89
I66
tp2299
a(I111
I101
tp2300
a(I99
I102
tp2301
asg27
I200
sba(imain2
Polygon
p2302
(dp2303
g3
(I18
I79
tp2304
sg5
I200
sg6
(I80
I0
I174
I98
tp2305
sg8
(lp2306
(I36
I125
tp2307
a(I43
I109
tp2308
a(I18
I107
tp2309
a(I40
I111
tp2310
a(I12
I123
tp2311
a(I0
I103
tp2312
a(I0
I117
tp2313
a(I39
I119
tp2314
asg27
I200
sba(imain2
Polygon
p2315
(dp2316
g3
(I27
I28
tp2317
sg5
I200
sg6
(I220
I145
I39
I1
tp2318
sg8
(lp2319
(I26
I20
tp2320
a(I28
I70
tp2321
a(I19
I0
tp2322
a(I75
I77
tp2323
a(I71
I0
tp2324
a(I65
I38
tp2325
a(I69
I72
tp2326
a(I7
I78
tp2327
a(I0
I0
tp2328
a(I0
I0
tp2329
a(I63
I0
tp2330
a(I16
I59
tp2331
a(I64
I6
tp2332
a(I59
I6
tp2333
asg27
I200
sba(imain2
Polygon
p2334
(dp2335
g3
(I85
I60
tp2336
sg5
I200
sg6
(I83
I112
I11
I99
tp2337
sg8
(lp2338
(I115
I60
tp2339
a(I134
I87
tp2340
a(I55
I103
tp2341
a(I36
I62
tp2342
a(I72
I90
tp2343
a(I131
I73
tp2344
a(I117
I52
tp2345
a(I123
I32
tp2346
a(I108
I57
tp2347
asg27
I200
sba(imain2
Polygon
p2348
(dp2349
g3
(I45
I110
tp2350
sg5
I200
sg6
(I40
I239
I179
I40
tp2351
sg8
(lp2352
(I68
I158
tp2353
a(I45
I112
tp2354
a(I72
I109
tp2355
asg27
I200
sba(imain2
Polygon
p2356
(dp2357
g3
(I54
I138
tp2358
sg5
I200
sg6
(I117
I64
I185
I0
tp2359
sg8
(lp2360
(I18
I163
tp2361
a(I27
I154
tp2362
a(I45
I131
tp2363
a(I12
I130
tp2364
a(I95
I108
tp2365
a(I60
I176
tp2366
a(I103
I157
tp2367
a(I84
I118
tp2368
a(I4
I97
tp2369
asg27
I200
sba(imain2
Polygon
p2370
(dp2371
g3
(I162
I123
tp2372
sg5
I200
sg6
(I42
I58
I71
I8
tp2373
sg8
(lp2374
(I121
I78
tp2375
a(I200
I173
tp2376
a(I200
I137
tp2377
a(I119
I112
tp2378
a(I180
I78
tp2379
a(I200
I106
tp2380
a(I180
I124
tp2381
a(I188
I77
tp2382
a(I192
I98
tp2383
a(I169
I105
tp2384
a(I139
I167
tp2385
a(I120
I79
tp2386
a(I147
I147
tp2387
a(I156
I80
tp2388
a(I137
I130
tp2389
a(I196
I165
tp2390
a(I137
I78
tp2391
a(I194
I166
tp2392
a(I122
I121
tp2393
asg27
I200
sba(imain2
Polygon
p2394
(dp2395
g3
(I144
I70
tp2396
sg5
I200
sg6
(I191
I38
I117
I23
tp2397
sg8
(lp2398
(I170
I95
tp2399
a(I139
I84
tp2400
a(I142
I70
tp2401
asg27
I200
sba(imain2
Polygon
p2402
(dp2403
g3
(I11
I36
tp2404
sg5
I200
sg6
(I144
I30
I76
I22
tp2405
sg8
(lp2406
(I0
I42
tp2407
a(I0
I45
tp2408
a(I0
I0
tp2409
a(I0
I78
tp2410
a(I0
I56
tp2411
a(I0
I30
tp2412
a(I0
I35
tp2413
a(I0
I25
tp2414
asg27
I200
sba(imain2
Polygon
p2415
(dp2416
g3
(I85
I175
tp2417
sg5
I200
sg6
(I240
I52
I42
I0
tp2418
sg8
(lp2419
(I42
I130
tp2420
a(I112
I137
tp2421
a(I100
I133
tp2422
a(I108
I186
tp2423
a(I118
I133
tp2424
a(I111
I200
tp2425
a(I114
I192
tp2426
a(I45
I126
tp2427
a(I38
I152
tp2428
a(I116
I138
tp2429
a(I61
I131
tp2430
a(I69
I177
tp2431
a(I80
I162
tp2432
a(I116
I200
tp2433
a(I105
I180
tp2434
asg27
I200
sba(imain2
Polygon
p2435
(dp2436
g3
(I78
I22
tp2437
sg5
I200
sg6
(I0
I239
I64
I0
tp2438
sg8
(lp2439
(I38
I0
tp2440
a(I117
I32
tp2441
a(I112
I7
tp2442
a(I106
I8
tp2443
a(I80
I0
tp2444
a(I127
I21
tp2445
a(I88
I0
tp2446
asg27
I200
sba(imain2
Polygon
p2447
(dp2448
g3
(I58
I165
tp2449
sg5
I200
sg6
(I72
I1
I134
I85
tp2450
sg8
(lp2451
(I40
I160
tp2452
a(I37
I152
tp2453
a(I46
I164
tp2454
asg27
I200
sba(imain2
Polygon
p2455
(dp2456
g3
(I98
I69
tp2457
sg5
I200
sg6
(I71
I212
I124
I24
tp2458
sg8
(lp2459
(I111
I113
tp2460
a(I126
I99
tp2461
a(I57
I89
tp2462
asg27
I200
sba(imain2
Polygon
p2463
(dp2464
g3
(I184
I193
tp2465
sg5
I200
sg6
(I17
I62
I68
I1
tp2466
sg8
(lp2467
(I194
I200
tp2468
a(I200
I163
tp2469
a(I151
I200
tp2470
a(I200
I155
tp2471
asg27
I200
sba(imain2
Polygon
p2472
(dp2473
g3
(I136
I181
tp2474
sg5
I200
sg6
(I117
I127
I188
I0
tp2475
sg8
(lp2476
(I107
I195
tp2477
a(I99
I198
tp2478
a(I132
I200
tp2479
a(I138
I200
tp2480
a(I127
I139
tp2481
a(I144
I147
tp2482
a(I99
I200
tp2483
asg27
I200
sba(imain2
Polygon
p2484
(dp2485
g3
(I65
I69
tp2486
sg5
I200
sg6
(I101
I90
I153
I0
tp2487
sg8
(lp2488
(I24
I101
tp2489
a(I37
I51
tp2490
a(I113
I49
tp2491
a(I65
I53
tp2492
a(I69
I46
tp2493
a(I16
I47
tp2494
a(I26
I115
tp2495
a(I73
I48
tp2496
a(I38
I37
tp2497
a(I17
I99
tp2498
asg27
I200
sba(imain2
Polygon
p2499
(dp2500
g3
(I146
I60
tp2501
sg5
I200
sg6
(I1
I0
I199
I1
tp2502
sg8
(lp2503
(I143
I66
tp2504
a(I149
I28
tp2505
a(I120
I67
tp2506
a(I193
I89
tp2507
a(I133
I38
tp2508
asg27
I200
sba(imain2
Polygon
p2509
(dp2510
g3
(I7
I191
tp2511
sg5
I200
sg6
(I1
I165
I63
I1
tp2512
sg8
(lp2513
(I9
I200
tp2514
a(I0
I194
tp2515
a(I57
I200
tp2516
a(I36
I192
tp2517
a(I0
I162
tp2518
a(I24
I148
tp2519
a(I51
I182
tp2520
a(I0
I143
tp2521
a(I46
I173
tp2522
a(I0
I150
tp2523
a(I32
I200
tp2524
a(I12
I200
tp2525
a(I0
I181
tp2526
a(I54
I200
tp2527
asg27
I200
sba(imain2
Polygon
p2528
(dp2529
g3
(I177
I12
tp2530
sg5
I200
sg6
(I1
I126
I136
I0
tp2531
sg8
(lp2532
(I179
I47
tp2533
a(I180
I42
tp2534
a(I131
I0
tp2535
a(I192
I0
tp2536
a(I143
I37
tp2537
a(I200
I50
tp2538
a(I172
I22
tp2539
a(I200
I0
tp2540
asg27
I200
sba(imain2
Polygon
p2541
(dp2542
g3
(I98
I60
tp2543
sg5
I200
sg6
(I140
I35
I46
I0
tp2544
sg8
(lp2545
(I138
I25
tp2546
a(I70
I57
tp2547
a(I104
I32
tp2548
a(I147
I11
tp2549
a(I125
I68
tp2550
a(I77
I21
tp2551
a(I108
I102
tp2552
a(I52
I33
tp2553
asg27
I200
sba(imain2
Polygon
p2554
(dp2555
g3
(I26
I121
tp2556
sg5
I200
sg6
(I19
I110
I2
I74
tp2557
sg8
(lp2558
(I5
I167
tp2559
a(I39
I85
tp2560
a(I0
I101
tp2561
a(I0
I166
tp2562
a(I30
I111
tp2563
a(I14
I135
tp2564
a(I45
I83
tp2565
a(I42
I128
tp2566
a(I26
I128
tp2567
a(I47
I156
tp2568
asg27
I200
sba(imain2
Polygon
p2569
(dp2570
g3
(I59
I10
tp2571
sg5
I200
sg6
(I178
I55
I106
I123
tp2572
sg8
(lp2573
(I13
I0
tp2574
a(I71
I0
tp2575
a(I73
I6
tp2576
a(I69
I0
tp2577
a(I109
I0
tp2578
a(I101
I15
tp2579
a(I10
I0
tp2580
a(I17
I23
tp2581
asg27
I200
sba(imain2
Polygon
p2582
(dp2583
g3
(I171
I141
tp2584
sg5
I200
sg6
(I36
I196
I137
I1
tp2585
sg8
(lp2586
(I125
I189
tp2587
a(I145
I150
tp2588
a(I153
I146
tp2589
a(I177
I154
tp2590
a(I200
I145
tp2591
a(I157
I111
tp2592
a(I200
I94
tp2593
a(I135
I99
tp2594
a(I170
I107
tp2595
asg27
I200
sba(imain2
Polygon
p2596
(dp2597
g3
(I80
I143
tp2598
sg5
I200
sg6
(I72
I74
I10
I109
tp2599
sg8
(lp2600
(I66
I140
tp2601
a(I70
I145
tp2602
a(I93
I192
tp2603
a(I130
I187
tp2604
a(I120
I141
tp2605
a(I69
I128
tp2606
a(I62
I133
tp2607
a(I71
I170
tp2608
a(I62
I180
tp2609
a(I86
I147
tp2610
asg27
I200
sba(imain2
Polygon
p2611
(dp2612
g3
(I191
I199
tp2613
sg5
I200
sg6
(I0
I223
I23
I1
tp2614
sg8
(lp2615
(I169
I200
tp2616
a(I190
I200
tp2617
a(I200
I200
tp2618
a(I193
I156
tp2619
a(I200
I166
tp2620
a(I200
I200
tp2621
a(I200
I200
tp2622
a(I186
I196
tp2623
a(I200
I200
tp2624
asg27
I200
sba(imain2
Polygon
p2625
(dp2626
g3
(I6
I112
tp2627
sg5
I200
sg6
(I131
I70
I127
I51
tp2628
sg8
(lp2629
(I0
I137
tp2630
a(I0
I140
tp2631
a(I25
I84
tp2632
a(I0
I100
tp2633
a(I28
I147
tp2634
a(I0
I109
tp2635
a(I0
I159
tp2636
a(I0
I63
tp2637
asg27
I200
sba(imain2
Polygon
p2638
(dp2639
g3
(I189
I37
tp2640
sg5
I200
sg6
(I31
I237
I163
I41
tp2641
sg8
(lp2642
(I200
I46
tp2643
a(I191
I37
tp2644
a(I188
I0
tp2645
a(I199
I1
tp2646
asg27
I200
sba(imain2
Polygon
p2647
(dp2648
g3
(I121
I50
tp2649
sg5
I200
sg6
(I3
I72
I1
I0
tp2650
sg8
(lp2651
(I136
I45
tp2652
a(I104
I15
tp2653
a(I148
I69
tp2654
asg27
I200
sba(imain2
Polygon
p2655
(dp2656
g3
(I58
I165
tp2657
sg5
I200
sg6
(I141
I99
I1
I1
tp2658
sg8
(lp2659
(I30
I120
tp2660
a(I68
I175
tp2661
a(I37
I128
tp2662
a(I27
I192
tp2663
a(I37
I149
tp2664
a(I66
I130
tp2665
a(I99
I183
tp2666
a(I107
I152
tp2667
a(I87
I182
tp2668
a(I33
I161
tp2669
a(I83
I175
tp2670
a(I36
I200
tp2671
a(I56
I182
tp2672
asg27
I200
sba(imain2
Polygon
p2673
(dp2674
g3
(I155
I38
tp2675
sg5
I200
sg6
(I99
I107
I235
I79
tp2676
sg8
(lp2677
(I160
I2
tp2678
a(I162
I13
tp2679
a(I165
I27
tp2680
asg27
I200
sba(imain2
Polygon
p2681
(dp2682
g3
(I80
I130
tp2683
sg5
I200
sg6
(I223
I90
I0
I112
tp2684
sg8
(lp2685
(I90
I107
tp2686
a(I38
I91
tp2687
a(I127
I91
tp2688
a(I86
I180
tp2689
a(I90
I97
tp2690
a(I42
I107
tp2691
a(I57
I140
tp2692
a(I81
I161
tp2693
a(I95
I173
tp2694
a(I77
I124
tp2695
a(I91
I85
tp2696
a(I88
I146
tp2697
asg27
I200
sba(imain2
Polygon
p2698
(dp2699
g3
(I182
I31
tp2700
sg5
I200
sg6
(I109
I84
I111
I0
tp2701
sg8
(lp2702
(I146
I0
tp2703
a(I198
I51
tp2704
a(I135
I9
tp2705
a(I186
I37
tp2706
a(I164
I0
tp2707
a(I174
I46
tp2708
a(I151
I81
tp2709
a(I193
I4
tp2710
a(I200
I57
tp2711
a(I152
I25
tp2712
a(I188
I0
tp2713
a(I162
I2
tp2714
a(I154
I80
tp2715
a(I174
I47
tp2716
a(I195
I67
tp2717
a(I188
I45
tp2718
a(I157
I0
tp2719
a(I165
I65
tp2720
a(I145
I0
tp2721
a(I186
I59
tp2722
a(I170
I0
tp2723
a(I169
I11
tp2724
a(I195
I0
tp2725
a(I174
I23
tp2726
asg27
I200
sba(imain2
Polygon
p2727
(dp2728
g3
(I164
I132
tp2729
sg5
I200
sg6
(I50
I67
I1
I1
tp2730
sg8
(lp2731
(I152
I112
tp2732
a(I140
I175
tp2733
a(I168
I173
tp2734
a(I180
I136
tp2735
a(I190
I82
tp2736
a(I132
I128
tp2737
a(I125
I176
tp2738
a(I199
I84
tp2739
a(I200
I115
tp2740
a(I157
I141
tp2741
a(I185
I112
tp2742
asg27
I200
sba(imain2
Polygon
p2743
(dp2744
g3
(I67
I123
tp2745
sg5
I200
sg6
(I203
I168
I125
I71
tp2746
sg8
(lp2747
(I114
I101
tp2748
a(I112
I148
tp2749
a(I67
I158
tp2750
a(I43
I93
tp2751
a(I96
I92
tp2752
a(I107
I100
tp2753
a(I49
I107
tp2754
a(I55
I111
tp2755
a(I46
I107
tp2756
a(I101
I102
tp2757
a(I87
I99
tp2758
asg27
I200
sba(imain2
Polygon
p2759
(dp2760
g3
(I139
I46
tp2761
sg5
I200
sg6
(I1
I111
I82
I68
tp2762
sg8
(lp2763
(I185
I84
tp2764
a(I137
I74
tp2765
a(I164
I79
tp2766
asg27
I200
sba(imain2
Polygon
p2767
(dp2768
g3
(I137
I13
tp2769
sg5
I200
sg6
(I202
I131
I218
I3
tp2770
sg8
(lp2771
(I146
I0
tp2772
a(I180
I37
tp2773
a(I89
I20
tp2774
a(I139
I19
tp2775
a(I157
I0
tp2776
a(I152
I49
tp2777
a(I154
I46
tp2778
a(I160
I57
tp2779
a(I117
I1
tp2780
asg27
I200
sba(imain2
Polygon
p2781
(dp2782
g3
(I72
I81
tp2783
sg5
I200
sg6
(I239
I108
I79
I0
tp2784
sg8
(lp2785
(I95
I99
tp2786
a(I83
I109
tp2787
a(I26
I64
tp2788
a(I57
I104
tp2789
a(I59
I58
tp2790
a(I120
I57
tp2791
a(I53
I62
tp2792
a(I116
I85
tp2793
asg27
I200
sba(imain2
Polygon
p2794
(dp2795
g3
(I24
I70
tp2796
sg5
I200
sg6
(I5
I224
I8
I12
tp2797
sg8
(lp2798
(I37
I25
tp2799
a(I72
I32
tp2800
a(I2
I21
tp2801
a(I0
I105
tp2802
a(I15
I106
tp2803
a(I47
I88
tp2804
asg27
I200
sba(imain2
Polygon
p2805
(dp2806
g3
(I144
I200
tp2807
sg5
I200
sg6
(I123
I88
I11
I1
tp2808
sg8
(lp2809
(I164
I200
tp2810
a(I121
I196
tp2811
a(I142
I154
tp2812
a(I154
I187
tp2813
a(I106
I200
tp2814
a(I111
I200
tp2815
a(I130
I200
tp2816
a(I181
I194
tp2817
a(I160
I170
tp2818
a(I98
I181
tp2819
a(I107
I153
tp2820
a(I103
I200
tp2821
a(I127
I153
tp2822
a(I175
I183
tp2823
a(I128
I200
tp2824
a(I98
I186
tp2825
a(I146
I200
tp2826
a(I145
I200
tp2827
a(I122
I150
tp2828
asg27
I200
sba(imain2
Polygon
p2829
(dp2830
g3
(I63
I64
tp2831
sg5
I200
sg6
(I192
I193
I44
I4
tp2832
sg8
(lp2833
(I90
I67
tp2834
a(I18
I106
tp2835
a(I18
I45
tp2836
a(I97
I38
tp2837
a(I97
I107
tp2838
a(I48
I88
tp2839
a(I43
I112
tp2840
a(I106
I109
tp2841
a(I52
I111
tp2842
asg27
I200
sba(imain2
Polygon
p2843
(dp2844
g3
(I87
I65
tp2845
sg5
I200
sg6
(I216
I55
I97
I0
tp2846
sg8
(lp2847
(I136
I80
tp2848
a(I106
I35
tp2849
a(I86
I83
tp2850
a(I40
I93
tp2851
a(I60
I111
tp2852
a(I53
I95
tp2853
a(I128
I62
tp2854
a(I47
I39
tp2855
a(I124
I17
tp2856
a(I96
I80
tp2857
a(I124
I65
tp2858
asg27
I200
sba(imain2
Polygon
p2859
(dp2860
g3
(I110
I191
tp2861
sg5
I200
sg6
(I160
I195
I225
I1
tp2862
sg8
(lp2863
(I91
I200
tp2864
a(I153
I200
tp2865
a(I74
I143
tp2866
a(I77
I167
tp2867
a(I150
I169
tp2868
a(I60
I163
tp2869
a(I66
I185
tp2870
a(I118
I200
tp2871
a(I78
I200
tp2872
a(I141
I200
tp2873
asg27
I200
sba(imain2
Polygon
p2874
(dp2875
g3
(I108
I110
tp2876
sg5
I200
sg6
(I97
I178
I164
I0
tp2877
sg8
(lp2878
(I101
I127
tp2879
a(I117
I114
tp2880
a(I87
I125
tp2881
a(I76
I126
tp2882
a(I79
I109
tp2883
a(I96
I141
tp2884
asg27
I200
sba(imain2
Polygon
p2885
(dp2886
g3
(I112
I52
tp2887
sg5
I200
sg6
(I80
I200
I79
I90
tp2888
sg8
(lp2889
(I158
I54
tp2890
a(I152
I56
tp2891
a(I149
I58
tp2892
asg27
I200
sba.