(lp0
(imain2
Polygon
p1
(dp2
S'origin'
p3
(I39
I29
tp4
sS'h'
p5
I200
sS'color'
p6
(I197
I24
I141
I89
tp7
sS'corner_list'
p8
(lp9
(I0
I0
tp10
a(I62
I29
tp11
a(I71
I41
tp12
a(I23
I77
tp13
a(I53
I0
tp14
a(I50
I57
tp15
a(I0
I33
tp16
a(I24
I0
tp17
a(I0
I37
tp18
a(I83
I19
tp19
a(I13
I38
tp20
a(I48
I22
tp21
a(I26
I65
tp22
a(I23
I51
tp23
a(I44
I3
tp24
a(I13
I77
tp25
a(I64
I0
tp26
asS'w'
p27
I200
sba(imain2
Polygon
p28
(dp29
g3
(I66
I177
tp30
sg5
I200
sg6
(I138
I57
I48
I45
tp31
sg8
(lp32
(I88
I192
tp33
a(I110
I179
tp34
a(I89
I186
tp35
a(I29
I176
tp36
a(I34
I200
tp37
a(I63
I167
tp38
a(I102
I200
tp39
a(I17
I161
tp40
asg27
I200
sba(imain2
Polygon
p41
(dp42
g3
(I59
I53
tp43
sg5
I200
sg6
(I110
I45
I109
I158
tp44
sg8
(lp45
(I106
I10
tp46
a(I26
I102
tp47
a(I10
I62
tp48
a(I32
I13
tp49
a(I59
I26
tp50
a(I63
I3
tp51
a(I15
I3
tp52
a(I40
I72
tp53
a(I30
I51
tp54
a(I38
I88
tp55
a(I94
I64
tp56
a(I106
I58
tp57
a(I91
I22
tp58
a(I92
I46
tp59
a(I76
I61
tp60
a(I104
I79
tp61
a(I89
I9
tp62
a(I64
I24
tp63
a(I57
I67
tp64
asg27
I200
sba(imain2
Polygon
p65
(dp66
g3
(I79
I99
tp67
sg5
I200
sg6
(I72
I89
I70
I106
tp68
sg8
(lp69
(I119
I65
tp70
a(I79
I132
tp71
a(I82
I84
tp72
a(I124
I118
tp73
a(I101
I99
tp74
a(I35
I63
tp75
a(I95
I66
tp76
a(I108
I103
tp77
a(I123
I57
tp78
a(I114
I125
tp79
a(I30
I114
tp80
asg27
I200
sba(imain2
Polygon
p81
(dp82
g3
(I200
I83
tp83
sg5
I200
sg6
(I168
I230
I64
I16
tp84
sg8
(lp85
(I200
I104
tp86
a(I200
I101
tp87
a(I200
I35
tp88
a(I200
I83
tp89
a(I200
I53
tp90
a(I177
I38
tp91
a(I200
I122
tp92
asg27
I200
sba(imain2
Polygon
p93
(dp94
g3
(I48
I136
tp95
sg5
I200
sg6
(I105
I110
I146
I79
tp96
sg8
(lp97
(I81
I141
tp98
a(I87
I127
tp99
a(I94
I141
tp100
a(I85
I153
tp101
a(I43
I102
tp102
a(I5
I168
tp103
a(I82
I166
tp104
a(I93
I184
tp105
a(I88
I108
tp106
a(I28
I107
tp107
a(I87
I101
tp108
a(I86
I178
tp109
a(I46
I130
tp110
a(I46
I109
tp111
a(I2
I151
tp112
a(I64
I175
tp113
a(I20
I153
tp114
a(I45
I165
tp115
a(I77
I105
tp116
a(I46
I90
tp117
a(I62
I176
tp118
asg27
I200
sba(imain2
Polygon
p119
(dp120
g3
(I118
I72
tp121
sg5
I200
sg6
(I135
I138
I61
I63
tp122
sg8
(lp123
(I106
I56
tp124
a(I105
I74
tp125
a(I99
I82
tp126
a(I89
I65
tp127
a(I118
I115
tp128
a(I126
I57
tp129
a(I86
I59
tp130
a(I68
I93
tp131
a(I104
I108
tp132
asg27
I200
sba(imain2
Polygon
p133
(dp134
g3
(I75
I194
tp135
sg5
I200
sg6
(I212
I87
I107
I24
tp136
sg8
(lp137
(I118
I184
tp138
a(I107
I200
tp139
a(I86
I177
tp140
a(I100
I167
tp141
a(I63
I200
tp142
asg27
I200
sba(imain2
Polygon
p143
(dp144
g3
(I7
I180
tp145
sg5
I200
sg6
(I234
I36
I1
I0
tp146
sg8
(lp147
(I15
I138
tp148
a(I0
I197
tp149
a(I52
I161
tp150
a(I0
I162
tp151
a(I0
I140
tp152
a(I13
I200
tp153
a(I39
I200
tp154
a(I50
I137
tp155
a(I0
I200
tp156
a(I0
I163
tp157
a(I0
I200
tp158
asg27
I200
sba(imain2
Polygon
p159
(dp160
g3
(I200
I5
tp161
sg5
I200
sg6
(I172
I76
I112
I41
tp162
sg8
(lp163
(I200
I29
tp164
a(I200
I0
tp165
a(I200
I0
tp166
a(I200
I49
tp167
a(I191
I0
tp168
a(I200
I40
tp169
a(I162
I46
tp170
a(I150
I1
tp171
a(I200
I0
tp172
a(I200
I45
tp173
a(I155
I15
tp174
a(I177
I47
tp175
asg27
I200
sba(imain2
Polygon
p176
(dp177
g3
(I180
I27
tp178
sg5
I200
sg6
(I105
I112
I155
I1
tp179
sg8
(lp180
(I200
I66
tp181
a(I200
I76
tp182
a(I199
I7
tp183
a(I151
I63
tp184
a(I177
I21
tp185
a(I174
I1
tp186
a(I163
I0
tp187
a(I130
I26
tp188
a(I158
I0
tp189
a(I160
I34
tp190
a(I155
I0
tp191
a(I169
I65
tp192
asg27
I200
sba(imain2
Polygon
p193
(dp194
g3
(I59
I197
tp195
sg5
I200
sg6
(I82
I208
I137
I140
tp196
sg8
(lp197
(I98
I200
tp198
a(I93
I157
tp199
a(I71
I197
tp200
asg27
I200
sba(imain2
Polygon
p201
(dp202
g3
(I129
I124
tp203
sg5
I200
sg6
(I171
I188
I98
I71
tp204
sg8
(lp205
(I100
I125
tp206
a(I122
I123
tp207
a(I82
I139
tp208
a(I130
I89
tp209
a(I111
I89
tp210
a(I90
I106
tp211
a(I88
I150
tp212
a(I133
I128
tp213
asg27
I200
sba(imain2
Polygon
p214
(dp215
g3
(I107
I2
tp216
sg5
I200
sg6
(I49
I0
I160
I118
tp217
sg8
(lp218
(I138
I0
tp219
a(I94
I20
tp220
a(I94
I0
tp221
a(I122
I0
tp222
a(I133
I0
tp223
a(I119
I0
tp224
a(I150
I0
tp225
a(I106
I7
tp226
a(I142
I27
tp227
asg27
I200
sba(imain2
Polygon
p228
(dp229
g3
(I25
I107
tp230
sg5
I200
sg6
(I102
I26
I172
I0
tp231
sg8
(lp232
(I49
I141
tp233
a(I41
I117
tp234
a(I26
I137
tp235
a(I0
I99
tp236
a(I38
I98
tp237
a(I58
I62
tp238
a(I4
I147
tp239
a(I20
I66
tp240
a(I23
I66
tp241
a(I47
I135
tp242
a(I22
I124
tp243
a(I71
I127
tp244
a(I3
I58
tp245
a(I27
I112
tp246
a(I0
I98
tp247
a(I21
I117
tp248
a(I56
I67
tp249
a(I0
I139
tp250
asg27
I200
sba(imain2
Polygon
p251
(dp252
g3
(I194
I197
tp253
sg5
I200
sg6
(I9
I199
I62
I96
tp254
sg8
(lp255
(I200
I187
tp256
a(I161
I170
tp257
a(I200
I172
tp258
a(I200
I166
tp259
asg27
I200
sba(imain2
Polygon
p260
(dp261
g3
(I8
I2
tp262
sg5
I200
sg6
(I204
I197
I218
I1
tp263
sg8
(lp264
(I30
I0
tp265
a(I54
I18
tp266
a(I0
I41
tp267
a(I0
I46
tp268
a(I40
I9
tp269
a(I0
I11
tp270
a(I51
I0
tp271
a(I19
I6
tp272
a(I31
I0
tp273
a(I0
I0
tp274
a(I21
I13
tp275
a(I34
I31
tp276
a(I0
I43
tp277
asg27
I200
sba(imain2
Polygon
p278
(dp279
g3
(I171
I144
tp280
sg5
I200
sg6
(I111
I157
I186
I0
tp281
sg8
(lp282
(I200
I98
tp283
a(I159
I135
tp284
a(I195
I110
tp285
a(I178
I143
tp286
a(I132
I120
tp287
a(I145
I154
tp288
a(I123
I111
tp289
asg27
I200
sba(imain2
Polygon
p290
(dp291
g3
(I44
I42
tp292
sg5
I200
sg6
(I79
I129
I76
I0
tp293
sg8
(lp294
(I29
I80
tp295
a(I11
I38
tp296
a(I71
I1
tp297
a(I76
I41
tp298
a(I70
I36
tp299
a(I25
I24
tp300
asg27
I200
sba(imain2
Polygon
p301
(dp302
g3
(I26
I99
tp303
sg5
I200
sg6
(I167
I98
I168
I80
tp304
sg8
(lp305
(I71
I87
tp306
a(I54
I125
tp307
a(I75
I72
tp308
a(I72
I50
tp309
asg27
I200
sba(imain2
Polygon
p310
(dp311
g3
(I114
I46
tp312
sg5
I200
sg6
(I96
I193
I193
I0
tp313
sg8
(lp314
(I117
I22
tp315
a(I138
I79
tp316
a(I78
I89
tp317
asg27
I200
sba(imain2
Polygon
p318
(dp319
g3
(I68
I194
tp320
sg5
I200
sg6
(I87
I195
I149
I0
tp321
sg8
(lp322
(I73
I200
tp323
a(I63
I182
tp324
a(I24
I200
tp325
a(I56
I200
tp326
a(I65
I200
tp327
a(I65
I200
tp328
asg27
I200
sba(imain2
Polygon
p329
(dp330
g3
(I200
I53
tp331
sg5
I200
sg6
(I179
I183
I163
I0
tp332
sg8
(lp333
(I187
I102
tp334
a(I200
I53
tp335
a(I152
I41
tp336
asg27
I200
sba(imain2
Polygon
p337
(dp338
g3
(I172
I155
tp339
sg5
I200
sg6
(I198
I79
I243
I1
tp340
sg8
(lp341
(I200
I118
tp342
a(I186
I112
tp343
a(I135
I150
tp344
a(I187
I116
tp345
a(I128
I145
tp346
a(I158
I120
tp347
a(I198
I191
tp348
a(I163
I186
tp349
a(I183
I117
tp350
a(I193
I200
tp351
a(I200
I139
tp352
a(I200
I141
tp353
a(I190
I187
tp354
a(I196
I156
tp355
asg27
I200
sba(imain2
Polygon
p356
(dp357
g3
(I154
I159
tp358
sg5
I200
sg6
(I54
I205
I33
I1
tp359
sg8
(lp360
(I178
I146
tp361
a(I116
I138
tp362
a(I167
I196
tp363
a(I120
I200
tp364
a(I190
I169
tp365
a(I182
I200
tp366
a(I124
I177
tp367
a(I129
I170
tp368
a(I158
I198
tp369
a(I195
I188
tp370
a(I105
I200
tp371
asg27
I200
sba(imain2
Polygon
p372
(dp373
g3
(I55
I59
tp374
sg5
I200
sg6
(I73
I196
I203
I1
tp375
sg8
(lp376
(I41
I39
tp377
a(I83
I49
tp378
a(I6
I15
tp379
a(I77
I97
tp380
a(I16
I96
tp381
a(I57
I36
tp382
a(I93
I9
tp383
a(I47
I28
tp384
a(I81
I9
tp385
a(I7
I48
tp386
a(I52
I62
tp387
a(I31
I25
tp388
a(I30
I55
tp389
a(I44
I79
tp390
a(I16
I39
tp391
asg27
I200
sba(imain2
Polygon
p392
(dp393
g3
(I127
I147
tp394
sg5
I200
sg6
(I46
I68
I114
I106
tp395
sg8
(lp396
(I109
I194
tp397
a(I78
I97
tp398
a(I78
I126
tp399
a(I114
I145
tp400
a(I97
I160
tp401
a(I161
I191
tp402
asg27
I200
sba(imain2
Polygon
p403
(dp404
g3
(I123
I114
tp405
sg5
I200
sg6
(I116
I1
I8
I1
tp406
sg8
(lp407
(I113
I133
tp408
a(I80
I136
tp409
a(I144
I156
tp410
a(I113
I76
tp411
a(I78
I113
tp412
a(I144
I118
tp413
a(I75
I131
tp414
a(I100
I148
tp415
a(I153
I139
tp416
asg27
I200
sba(imain2
Polygon
p417
(dp418
g3
(I2
I51
tp419
sg5
I200
sg6
(I122
I142
I222
I1
tp420
sg8
(lp421
(I45
I61
tp422
a(I36
I22
tp423
a(I0
I40
tp424
a(I0
I89
tp425
a(I40
I7
tp426
a(I50
I39
tp427
a(I0
I16
tp428
a(I9
I83
tp429
a(I0
I97
tp430
a(I45
I76
tp431
asg27
I200
sba(imain2
Polygon
p432
(dp433
g3
(I166
I21
tp434
sg5
I200
sg6
(I211
I245
I214
I85
tp435
sg8
(lp436
(I200
I0
tp437
a(I200
I59
tp438
a(I169
I70
tp439
a(I131
I0
tp440
a(I153
I0
tp441
a(I116
I5
tp442
a(I118
I13
tp443
a(I135
I0
tp444
a(I200
I0
tp445
a(I141
I29
tp446
asg27
I200
sba(imain2
Polygon
p447
(dp448
g3
(I110
I91
tp449
sg5
I200
sg6
(I127
I33
I29
I0
tp450
sg8
(lp451
(I122
I93
tp452
a(I90
I64
tp453
a(I90
I70
tp454
a(I118
I129
tp455
a(I102
I80
tp456
a(I111
I63
tp457
a(I73
I59
tp458
a(I119
I112
tp459
a(I147
I105
tp460
a(I129
I93
tp461
a(I140
I82
tp462
a(I94
I93
tp463
a(I75
I65
tp464
a(I74
I100
tp465
a(I145
I49
tp466
a(I116
I88
tp467
asg27
I200
sba(imain2
Polygon
p468
(dp469
g3
(I148
I41
tp470
sg5
I200
sg6
(I156
I1
I206
I1
tp471
sg8
(lp472
(I101
I72
tp473
a(I129
I14
tp474
a(I172
I19
tp475
a(I191
I63
tp476
a(I135
I86
tp477
a(I141
I76
tp478
a(I136
I20
tp479
a(I162
I51
tp480
a(I190
I0
tp481
a(I159
I33
tp482
a(I191
I57
tp483
a(I103
I84
tp484
a(I122
I1
tp485
asg27
I200
sba(imain2
Polygon
p486
(dp487
g3
(I188
I159
tp488
sg5
I200
sg6
(I161
I69
I66
I0
tp489
sg8
(lp490
(I200
I176
tp491
a(I166
I141
tp492
a(I200
I170
tp493
a(I187
I152
tp494
a(I200
I137
tp495
a(I183
I175
tp496
a(I197
I200
tp497
asg27
I200
sba(imain2
Polygon
p498
(dp499
g3
(I55
I106
tp500
sg5
I200
sg6
(I55
I89
I43
I1
tp501
sg8
(lp502
(I33
I100
tp503
a(I28
I60
tp504
a(I22
I90
tp505
a(I85
I102
tp506
a(I47
I155
tp507
a(I55
I63
tp508
a(I27
I152
tp509
a(I21
I156
tp510
a(I103
I124
tp511
a(I15
I152
tp512
a(I43
I133
tp513
asg27
I200
sba(imain2
Polygon
p514
(dp515
g3
(I118
I64
tp516
sg5
I200
sg6
(I129
I38
I4
I24
tp517
sg8
(lp518
(I151
I76
tp519
a(I68
I106
tp520
a(I77
I86
tp521
a(I74
I55
tp522
a(I70
I18
tp523
a(I125
I37
tp524
a(I68
I76
tp525
a(I130
I114
tp526
a(I122
I15
tp527
a(I98
I91
tp528
a(I84
I26
tp529
a(I88
I20
tp530
a(I123
I23
tp531
a(I160
I71
tp532
a(I114
I105
tp533
a(I147
I109
tp534
a(I90
I113
tp535
asg27
I200
sba(imain2
Polygon
p536
(dp537
g3
(I101
I127
tp538
sg5
I200
sg6
(I83
I172
I95
I83
tp539
sg8
(lp540
(I82
I132
tp541
a(I125
I83
tp542
a(I64
I85
tp543
a(I53
I122
tp544
a(I92
I137
tp545
asg27
I200
sba(imain2
Polygon
p546
(dp547
g3
(I42
I89
tp548
sg5
I200
sg6
(I17
I91
I178
I0
tp549
sg8
(lp550
(I54
I139
tp551
a(I60
I68
tp552
a(I67
I95
tp553
a(I10
I87
tp554
a(I0
I66
tp555
a(I48
I44
tp556
a(I51
I59
tp557
a(I7
I119
tp558
a(I34
I82
tp559
a(I77
I119
tp560
asg27
I200
sba(imain2
Polygon
p561
(dp562
g3
(I71
I151
tp563
sg5
I200
sg6
(I150
I168
I220
I137
tp564
sg8
(lp565
(I59
I125
tp566
a(I74
I126
tp567
a(I115
I198
tp568
a(I68
I200
tp569
a(I94
I176
tp570
a(I77
I200
tp571
a(I91
I177
tp572
a(I89
I164
tp573
asg27
I200
sba(imain2
Polygon
p574
(dp575
g3
(I13
I141
tp576
sg5
I200
sg6
(I244
I0
I197
I3
tp577
sg8
(lp578
(I4
I139
tp579
a(I0
I99
tp580
a(I9
I106
tp581
a(I0
I130
tp582
a(I0
I156
tp583
a(I0
I190
tp584
a(I53
I153
tp585
a(I0
I125
tp586
a(I10
I177
tp587
a(I11
I93
tp588
a(I38
I142
tp589
a(I0
I132
tp590
asg27
I200
sba(imain2
Polygon
p591
(dp592
g3
(I37
I11
tp593
sg5
I200
sg6
(I114
I18
I10
I102
tp594
sg8
(lp595
(I49
I0
tp596
a(I1
I7
tp597
a(I5
I26
tp598
a(I12
I16
tp599
a(I46
I0
tp600
a(I70
I6
tp601
asg27
I200
sba(imain2
Polygon
p602
(dp603
g3
(I97
I114
tp604
sg5
I200
sg6
(I147
I9
I202
I90
tp605
sg8
(lp606
(I62
I140
tp607
a(I96
I75
tp608
a(I62
I147
tp609
a(I121
I97
tp610
a(I126
I66
tp611
a(I62
I77
tp612
a(I102
I68
tp613
a(I48
I82
tp614
a(I103
I104
tp615
a(I100
I154
tp616
a(I89
I108
tp617
a(I61
I69
tp618
a(I56
I114
tp619
a(I72
I112
tp620
a(I76
I71
tp621
a(I109
I84
tp622
a(I80
I151
tp623
a(I73
I123
tp624
a(I78
I154
tp625
asg27
I200
sba(imain2
Polygon
p626
(dp627
g3
(I77
I12
tp628
sg5
I200
sg6
(I105
I0
I197
I0
tp629
sg8
(lp630
(I54
I0
tp631
a(I54
I19
tp632
a(I85
I0
tp633
a(I67
I54
tp634
a(I97
I44
tp635
a(I65
I53
tp636
a(I86
I30
tp637
a(I71
I18
tp638
a(I33
I5
tp639
asg27
I200
sba(imain2
Polygon
p640
(dp641
g3
(I114
I16
tp642
sg5
I200
sg6
(I1
I101
I178
I152
tp643
sg8
(lp644
(I142
I16
tp645
a(I125
I3
tp646
a(I70
I0
tp647
a(I124
I21
tp648
a(I160
I13
tp649
a(I109
I0
tp650
asg27
I200
sba(imain2
Polygon
p651
(dp652
g3
(I150
I10
tp653
sg5
I200
sg6
(I109
I59
I223
I164
tp654
sg8
(lp655
(I172
I0
tp656
a(I175
I1
tp657
a(I163
I8
tp658
a(I119
I0
tp659
a(I126
I0
tp660
a(I119
I18
tp661
a(I101
I0
tp662
a(I137
I0
tp663
a(I176
I52
tp664
a(I125
I0
tp665
asg27
I200
sba(imain2
Polygon
p666
(dp667
g3
(I41
I10
tp668
sg5
I200
sg6
(I114
I205
I84
I0
tp669
sg8
(lp670
(I57
I0
tp671
a(I0
I22
tp672
a(I74
I26
tp673
a(I86
I27
tp674
a(I27
I0
tp675
asg27
I200
sba(imain2
Polygon
p676
(dp677
g3
(I174
I159
tp678
sg5
I200
sg6
(I169
I108
I86
I106
tp679
sg8
(lp680
(I200
I125
tp681
a(I200
I200
tp682
a(I184
I191
tp683
a(I168
I116
tp684
asg27
I200
sba(imain2
Polygon
p685
(dp686
g3
(I61
I97
tp687
sg5
I200
sg6
(I123
I35
I107
I98
tp688
sg8
(lp689
(I45
I82
tp690
a(I76
I70
tp691
a(I56
I96
tp692
a(I26
I85
tp693
a(I64
I94
tp694
a(I31
I112
tp695
a(I108
I74
tp696
a(I96
I125
tp697
a(I52
I115
tp698
asg27
I200
sba(imain2
Polygon
p699
(dp700
g3
(I180
I97
tp701
sg5
I200
sg6
(I161
I155
I201
I0
tp702
sg8
(lp703
(I200
I88
tp704
a(I173
I145
tp705
a(I134
I131
tp706
a(I196
I47
tp707
a(I148
I47
tp708
a(I196
I113
tp709
a(I142
I56
tp710
a(I200
I142
tp711
asg27
I200
sba(imain2
Polygon
p712
(dp713
g3
(I101
I122
tp714
sg5
I200
sg6
(I165
I85
I0
I79
tp715
sg8
(lp716
(I79
I79
tp717
a(I71
I95
tp718
a(I81
I147
tp719
a(I106
I130
tp720
a(I90
I160
tp721
a(I118
I155
tp722
a(I135
I76
tp723
a(I61
I152
tp724
a(I83
I142
tp725
a(I98
I169
tp726
a(I123
I74
tp727
asg27
I200
sba(imain2
Polygon
p728
(dp729
g3
(I131
I15
tp730
sg5
I200
sg6
(I57
I128
I128
I1
tp731
sg8
(lp732
(I127
I30
tp733
a(I168
I0
tp734
a(I84
I0
tp735
a(I115
I0
tp736
a(I146
I0
tp737
a(I113
I16
tp738
a(I112
I10
tp739
a(I100
I0
tp740
a(I103
I9
tp741
a(I93
I0
tp742
a(I87
I2
tp743
a(I86
I62
tp744
asg27
I200
sba(imain2
Polygon
p745
(dp746
g3
(I113
I24
tp747
sg5
I200
sg6
(I154
I239
I1
I1
tp748
sg8
(lp749
(I144
I60
tp750
a(I142
I0
tp751
a(I79
I0
tp752
a(I143
I0
tp753
a(I125
I3
tp754
a(I115
I38
tp755
a(I117
I66
tp756
a(I106
I0
tp757
a(I84
I32
tp758
a(I118
I44
tp759
a(I79
I29
tp760
asg27
I200
sba(imain2
Polygon
p761
(dp762
g3
(I15
I21
tp763
sg5
I200
sg6
(I44
I42
I25
I0
tp764
sg8
(lp765
(I0
I0
tp766
a(I50
I40
tp767
a(I7
I0
tp768
a(I37
I15
tp769
a(I40
I33
tp770
a(I2
I17
tp771
a(I32
I0
tp772
asg27
I200
sba(imain2
Polygon
p773
(dp774
g3
(I75
I18
tp775
sg5
I200
sg6
(I119
I125
I39
I147
tp776
sg8
(lp777
(I80
I34
tp778
a(I82
I30
tp779
a(I98
I0
tp780
a(I90
I0
tp781
a(I110
I40
tp782
a(I29
I0
tp783
a(I86
I51
tp784
a(I42
I5
tp785
a(I64
I30
tp786
a(I69
I0
tp787
a(I41
I26
tp788
a(I118
I0
tp789
a(I74
I16
tp790
a(I25
I19
tp791
a(I53
I67
tp792
a(I111
I64
tp793
a(I97
I0
tp794
a(I33
I11
tp795
a(I72
I12
tp796
a(I34
I25
tp797
a(I96
I39
tp798
asg27
I200
sba(imain2
Polygon
p799
(dp800
g3
(I147
I31
tp801
sg5
I200
sg6
(I240
I1
I224
I152
tp802
sg8
(lp803
(I189
I0
tp804
a(I196
I42
tp805
a(I180
I38
tp806
a(I146
I28
tp807
a(I153
I34
tp808
a(I193
I77
tp809
a(I183
I0
tp810
a(I187
I24
tp811
a(I161
I29
tp812
a(I126
I17
tp813
a(I116
I7
tp814
a(I129
I0
tp815
asg27
I200
sba(imain2
Polygon
p816
(dp817
g3
(I43
I128
tp818
sg5
I200
sg6
(I89
I24
I106
I129
tp819
sg8
(lp820
(I7
I89
tp821
a(I0
I99
tp822
a(I12
I114
tp823
a(I15
I103
tp824
a(I5
I162
tp825
a(I19
I96
tp826
a(I44
I103
tp827
asg27
I200
sba(imain2
Polygon
p828
(dp829
g3
(I191
I52
tp830
sg5
I200
sg6
(I140
I142
I102
I1
tp831
sg8
(lp832
(I200
I4
tp833
a(I180
I93
tp834
a(I200
I9
tp835
a(I167
I81
tp836
a(I192
I71
tp837
a(I144
I44
tp838
a(I200
I28
tp839
a(I179
I86
tp840
a(I171
I88
tp841
asg27
I200
sba(imain2
Polygon
p842
(dp843
g3
(I124
I96
tp844
sg5
I200
sg6
(I222
I89
I121
I0
tp845
sg8
(lp846
(I156
I93
tp847
a(I117
I133
tp848
a(I142
I78
tp849
a(I156
I121
tp850
a(I169
I136
tp851
a(I97
I52
tp852
a(I91
I110
tp853
a(I172
I131
tp854
a(I138
I110
tp855
a(I167
I134
tp856
asg27
I200
sba(imain2
Polygon
p857
(dp858
g3
(I14
I107
tp859
sg5
I200
sg6
(I57
I0
I219
I140
tp860
sg8
(lp861
(I17
I104
tp862
a(I2
I107
tp863
a(I0
I102
tp864
a(I0
I111
tp865
a(I0
I104
tp866
a(I59
I117
tp867
asg27
I200
sba(imain2
Polygon
p868
(dp869
g3
(I84
I159
tp870
sg5
I200
sg6
(I51
I13
I193
I1
tp871
sg8
(lp872
(I99
I122
tp873
a(I86
I200
tp874
a(I118
I109
tp875
a(I98
I180
tp876
a(I113
I185
tp877
a(I87
I159
tp878
a(I91
I191
tp879
a(I117
I124
tp880
a(I109
I163
tp881
a(I45
I112
tp882
asg27
I200
sba(imain2
Polygon
p883
(dp884
g3
(I141
I115
tp885
sg5
I200
sg6
(I238
I170
I169
I0
tp886
sg8
(lp887
(I178
I152
tp888
a(I124
I94
tp889
a(I188
I72
tp890
a(I109
I160
tp891
asg27
I200
sba(imain2
Polygon
p892
(dp893
g3
(I199
I78
tp894
sg5
I200
sg6
(I204
I202
I85
I132
tp895
sg8
(lp896
(I151
I34
tp897
a(I200
I32
tp898
a(I200
I32
tp899
a(I200
I125
tp900
a(I164
I113
tp901
a(I175
I100
tp902
a(I189
I127
tp903
asg27
I200
sba(imain2
Polygon
p904
(dp905
g3
(I167
I90
tp906
sg5
I200
sg6
(I36
I188
I29
I61
tp907
sg8
(lp908
(I200
I94
tp909
a(I149
I78
tp910
a(I182
I102
tp911
a(I200
I135
tp912
a(I200
I125
tp913
a(I164
I106
tp914
a(I187
I129
tp915
asg27
I200
sba(imain2
Polygon
p916
(dp917
g3
(I17
I14
tp918
sg5
I200
sg6
(I0
I10
I92
I36
tp919
sg8
(lp920
(I34
I7
tp921
a(I0
I0
tp922
a(I27
I13
tp923
a(I50
I15
tp924
a(I8
I0
tp925
a(I28
I11
tp926
a(I60
I21
tp927
a(I22
I0
tp928
a(I0
I0
tp929
a(I67
I48
tp930
a(I37
I21
tp931
a(I22
I0
tp932
asg27
I200
sba(imain2
Polygon
p933
(dp934
g3
(I190
I180
tp935
sg5
I200
sg6
(I226
I105
I47
I0
tp936
sg8
(lp937
(I197
I149
tp938
a(I200
I142
tp939
a(I200
I140
tp940
asg27
I200
sba(imain2
Polygon
p941
(dp942
g3
(I70
I166
tp943
sg5
I200
sg6
(I107
I177
I2
I0
tp944
sg8
(lp945
(I76
I134
tp946
a(I117
I200
tp947
a(I73
I192
tp948
a(I64
I200
tp949
a(I27
I138
tp950
a(I109
I124
tp951
a(I48
I123
tp952
a(I90
I197
tp953
a(I52
I199
tp954
asg27
I200
sba(imain2
Polygon
p955
(dp956
g3
(I196
I185
tp957
sg5
I200
sg6
(I18
I159
I128
I0
tp958
sg8
(lp959
(I194
I183
tp960
a(I200
I191
tp961
a(I153
I136
tp962
a(I192
I153
tp963
a(I200
I197
tp964
a(I200
I176
tp965
a(I186
I148
tp966
a(I200
I157
tp967
asg27
I200
sba(imain2
Polygon
p968
(dp969
g3
(I48
I123
tp970
sg5
I200
sg6
(I165
I46
I20
I106
tp971
sg8
(lp972
(I8
I113
tp973
a(I18
I117
tp974
a(I0
I97
tp975
a(I72
I126
tp976
a(I75
I168
tp977
a(I58
I146
tp978
a(I93
I153
tp979
a(I89
I76
tp980
a(I9
I121
tp981
a(I23
I166
tp982
a(I11
I146
tp983
asg27
I200
sba(imain2
Polygon
p984
(dp985
g3
(I59
I97
tp986
sg5
I200
sg6
(I202
I49
I127
I33
tp987
sg8
(lp988
(I35
I56
tp989
a(I89
I86
tp990
a(I51
I58
tp991
a(I70
I64
tp992
a(I53
I127
tp993
a(I58
I52
tp994
a(I74
I82
tp995
a(I93
I57
tp996
a(I65
I136
tp997
a(I56
I68
tp998
asg27
I200
sba(imain2
Polygon
p999
(dp1000
g3
(I17
I149
tp1001
sg5
I200
sg6
(I1
I35
I156
I1
tp1002
sg8
(lp1003
(I15
I167
tp1004
a(I47
I172
tp1005
a(I0
I181
tp1006
a(I28
I189
tp1007
a(I5
I196
tp1008
a(I0
I101
tp1009
a(I58
I171
tp1010
asg27
I200
sba(imain2
Polygon
p1011
(dp1012
g3
(I88
I2
tp1013
sg5
I200
sg6
(I3
I102
I62
I61
tp1014
sg8
(lp1015
(I50
I0
tp1016
a(I59
I3
tp1017
a(I115
I0
tp1018
a(I53
I0
tp1019
a(I48
I0
tp1020
a(I55
I24
tp1021
a(I80
I7
tp1022
a(I105
I20
tp1023
a(I117
I0
tp1024
a(I82
I0
tp1025
a(I73
I49
tp1026
a(I78
I0
tp1027
a(I88
I28
tp1028
asg27
I200
sba(imain2
Polygon
p1029
(dp1030
g3
(I3
I161
tp1031
sg5
I200
sg6
(I176
I18
I191
I18
tp1032
sg8
(lp1033
(I24
I146
tp1034
a(I28
I185
tp1035
a(I30
I152
tp1036
a(I9
I149
tp1037
a(I29
I156
tp1038
a(I3
I146
tp1039
a(I0
I199
tp1040
a(I0
I164
tp1041
a(I0
I170
tp1042
a(I0
I145
tp1043
a(I0
I138
tp1044
a(I0
I121
tp1045
a(I0
I114
tp1046
asg27
I200
sba(imain2
Polygon
p1047
(dp1048
g3
(I98
I58
tp1049
sg5
I200
sg6
(I38
I64
I169
I1
tp1050
sg8
(lp1051
(I92
I81
tp1052
a(I80
I84
tp1053
a(I85
I107
tp1054
asg27
I200
sba(imain2
Polygon
p1055
(dp1056
g3
(I109
I111
tp1057
sg5
I200
sg6
(I228
I37
I100
I11
tp1058
sg8
(lp1059
(I65
I139
tp1060
a(I96
I159
tp1061
a(I117
I140
tp1062
a(I82
I61
tp1063
a(I124
I120
tp1064
a(I111
I73
tp1065
a(I109
I142
tp1066
a(I124
I122
tp1067
asg27
I200
sba(imain2
Polygon
p1068
(dp1069
g3
(I83
I155
tp1070
sg5
I200
sg6
(I203
I44
I183
I29
tp1071
sg8
(lp1072
(I92
I163
tp1073
a(I42
I116
tp1074
a(I102
I200
tp1075
a(I132
I200
tp1076
a(I73
I148
tp1077
a(I112
I160
tp1078
a(I74
I167
tp1079
a(I103
I118
tp1080
a(I61
I166
tp1081
a(I62
I200
tp1082
a(I131
I190
tp1083
a(I120
I173
tp1084
a(I51
I184
tp1085
a(I64
I176
tp1086
a(I66
I129
tp1087
a(I100
I163
tp1088
a(I99
I200
tp1089
asg27
I200
sba(imain2
Polygon
p1090
(dp1091
g3
(I81
I21
tp1092
sg5
I200
sg6
(I137
I0
I27
I124
tp1093
sg8
(lp1094
(I69
I0
tp1095
a(I78
I20
tp1096
a(I43
I48
tp1097
a(I85
I26
tp1098
a(I122
I60
tp1099
a(I103
I58
tp1100
a(I63
I3
tp1101
a(I117
I0
tp1102
asg27
I200
sba(imain2
Polygon
p1103
(dp1104
g3
(I77
I115
tp1105
sg5
I200
sg6
(I93
I241
I219
I0
tp1106
sg8
(lp1107
(I99
I164
tp1108
a(I65
I128
tp1109
a(I35
I77
tp1110
a(I95
I85
tp1111
a(I34
I83
tp1112
a(I85
I78
tp1113
a(I80
I108
tp1114
asg27
I200
sba(imain2
Polygon
p1115
(dp1116
g3
(I108
I110
tp1117
sg5
I200
sg6
(I144
I115
I144
I1
tp1118
sg8
(lp1119
(I109
I74
tp1120
a(I132
I95
tp1121
a(I129
I91
tp1122
a(I153
I116
tp1123
a(I115
I134
tp1124
a(I75
I81
tp1125
a(I88
I60
tp1126
a(I101
I139
tp1127
a(I128
I134
tp1128
a(I110
I143
tp1129
a(I129
I139
tp1130
asg27
I200
sba(imain2
Polygon
p1131
(dp1132
g3
(I7
I122
tp1133
sg5
I200
sg6
(I153
I1
I158
I1
tp1134
sg8
(lp1135
(I53
I94
tp1136
a(I42
I98
tp1137
a(I30
I118
tp1138
a(I35
I73
tp1139
a(I0
I119
tp1140
a(I28
I84
tp1141
a(I0
I105
tp1142
a(I37
I144
tp1143
a(I0
I74
tp1144
a(I0
I77
tp1145
a(I0
I149
tp1146
a(I0
I121
tp1147
a(I0
I165
tp1148
a(I0
I145
tp1149
a(I44
I153
tp1150
a(I13
I163
tp1151
a(I0
I114
tp1152
asg27
I200
sba(imain2
Polygon
p1153
(dp1154
g3
(I105
I20
tp1155
sg5
I200
sg6
(I212
I28
I228
I0
tp1156
sg8
(lp1157
(I124
I25
tp1158
a(I99
I0
tp1159
a(I129
I65
tp1160
a(I153
I35
tp1161
a(I148
I4
tp1162
a(I70
I44
tp1163
a(I96
I0
tp1164
a(I143
I0
tp1165
asg27
I200
sba(imain2
Polygon
p1166
(dp1167
g3
(I47
I80
tp1168
sg5
I200
sg6
(I109
I48
I114
I33
tp1169
sg8
(lp1170
(I39
I35
tp1171
a(I68
I48
tp1172
a(I40
I110
tp1173
a(I5
I121
tp1174
a(I68
I94
tp1175
a(I61
I51
tp1176
a(I94
I123
tp1177
a(I87
I51
tp1178
a(I28
I59
tp1179
a(I13
I128
tp1180
a(I45
I105
tp1181
a(I40
I86
tp1182
a(I37
I61
tp1183
a(I19
I101
tp1184
a(I19
I59
tp1185
a(I66
I52
tp1186
a(I20
I93
tp1187
a(I68
I74
tp1188
a(I54
I57
tp1189
asg27
I200
sba(imain2
Polygon
p1190
(dp1191
g3
(I131
I30
tp1192
sg5
I200
sg6
(I204
I124
I169
I2
tp1193
sg8
(lp1194
(I172
I55
tp1195
a(I152
I65
tp1196
a(I104
I47
tp1197
asg27
I200
sba(imain2
Polygon
p1198
(dp1199
g3
(I199
I39
tp1200
sg5
I200
sg6
(I93
I190
I107
I59
tp1201
sg8
(lp1202
(I178
I52
tp1203
a(I187
I1
tp1204
a(I150
I0
tp1205
a(I200
I89
tp1206
a(I200
I6
tp1207
a(I189
I0
tp1208
asg27
I200
sba(imain2
Polygon
p1209
(dp1210
g3
(I110
I156
tp1211
sg5
I200
sg6
(I190
I91
I127
I1
tp1212
sg8
(lp1213
(I63
I144
tp1214
a(I136
I197
tp1215
a(I120
I200
tp1216
a(I94
I199
tp1217
a(I78
I182
tp1218
a(I63
I119
tp1219
a(I74
I183
tp1220
a(I62
I193
tp1221
a(I110
I178
tp1222
a(I96
I148
tp1223
a(I112
I177
tp1224
a(I85
I187
tp1225
a(I147
I189
tp1226
a(I76
I164
tp1227
asg27
I200
sba(imain2
Polygon
p1228
(dp1229
g3
(I14
I89
tp1230
sg5
I200
sg6
(I201
I20
I25
I89
tp1231
sg8
(lp1232
(I0
I70
tp1233
a(I49
I72
tp1234
a(I53
I72
tp1235
a(I55
I44
tp1236
a(I17
I118
tp1237
a(I0
I99
tp1238
asg27
I200
sba(imain2
Polygon
p1239
(dp1240
g3
(I124
I127
tp1241
sg5
I200
sg6
(I172
I218
I173
I1
tp1242
sg8
(lp1243
(I134
I100
tp1244
a(I115
I103
tp1245
a(I96
I162
tp1246
a(I111
I115
tp1247
a(I147
I96
tp1248
a(I130
I168
tp1249
a(I104
I119
tp1250
a(I170
I95
tp1251
a(I157
I125
tp1252
a(I153
I94
tp1253
a(I123
I89
tp1254
a(I92
I110
tp1255
asg27
I200
sba(imain2
Polygon
p1256
(dp1257
g3
(I97
I78
tp1258
sg5
I200
sg6
(I147
I201
I158
I1
tp1259
sg8
(lp1260
(I113
I61
tp1261
a(I62
I103
tp1262
a(I83
I75
tp1263
a(I110
I111
tp1264
a(I56
I51
tp1265
a(I129
I36
tp1266
a(I90
I44
tp1267
a(I98
I57
tp1268
a(I69
I107
tp1269
a(I73
I76
tp1270
a(I145
I56
tp1271
a(I77
I65
tp1272
asg27
I200
sba(imain2
Polygon
p1273
(dp1274
g3
(I71
I43
tp1275
sg5
I200
sg6
(I219
I214
I119
I1
tp1276
sg8
(lp1277
(I107
I87
tp1278
a(I95
I41
tp1279
a(I64
I18
tp1280
a(I86
I48
tp1281
a(I114
I0
tp1282
a(I77
I18
tp1283
a(I48
I51
tp1284
a(I47
I52
tp1285
asg27
I200
sba(imain2
Polygon
p1286
(dp1287
g3
(I109
I75
tp1288
sg5
I200
sg6
(I110
I162
I69
I130
tp1289
sg8
(lp1290
(I63
I26
tp1291
a(I62
I79
tp1292
a(I120
I76
tp1293
a(I87
I26
tp1294
asg27
I200
sba(imain2
Polygon
p1295
(dp1296
g3
(I149
I45
tp1297
sg5
I200
sg6
(I207
I141
I127
I85
tp1298
sg8
(lp1299
(I199
I90
tp1300
a(I193
I78
tp1301
a(I161
I69
tp1302
a(I183
I12
tp1303
a(I143
I12
tp1304
a(I175
I87
tp1305
a(I158
I84
tp1306
a(I187
I0
tp1307
a(I185
I0
tp1308
a(I187
I0
tp1309
a(I130
I0
tp1310
a(I187
I18
tp1311
a(I198
I21
tp1312
asg27
I200
sba(imain2
Polygon
p1313
(dp1314
g3
(I29
I98
tp1315
sg5
I200
sg6
(I6
I135
I170
I47
tp1316
sg8
(lp1317
(I28
I112
tp1318
a(I62
I70
tp1319
a(I0
I92
tp1320
a(I46
I51
tp1321
a(I40
I138
tp1322
a(I19
I62
tp1323
a(I40
I82
tp1324
a(I7
I82
tp1325
a(I39
I54
tp1326
a(I60
I84
tp1327
a(I49
I70
tp1328
a(I28
I90
tp1329
asg27
I200
sba(imain2
Polygon
p1330
(dp1331
g3
(I90
I62
tp1332
sg5
I200
sg6
(I177
I118
I131
I1
tp1333
sg8
(lp1334
(I44
I112
tp1335
a(I131
I31
tp1336
a(I129
I98
tp1337
a(I109
I81
tp1338
a(I116
I81
tp1339
a(I54
I78
tp1340
a(I100
I106
tp1341
a(I94
I104
tp1342
a(I46
I96
tp1343
a(I66
I111
tp1344
asg27
I200
sba(imain2
Polygon
p1345
(dp1346
g3
(I63
I49
tp1347
sg5
I200
sg6
(I220
I251
I136
I1
tp1348
sg8
(lp1349
(I51
I74
tp1350
a(I30
I15
tp1351
a(I53
I1
tp1352
a(I93
I34
tp1353
a(I28
I10
tp1354
a(I66
I88
tp1355
a(I81
I55
tp1356
a(I94
I27
tp1357
a(I104
I97
tp1358
a(I52
I63
tp1359
asg27
I200
sba(imain2
Polygon
p1360
(dp1361
g3
(I31
I132
tp1362
sg5
I200
sg6
(I73
I118
I196
I34
tp1363
sg8
(lp1364
(I45
I137
tp1365
a(I35
I167
tp1366
a(I3
I115
tp1367
a(I0
I167
tp1368
a(I30
I175
tp1369
a(I10
I143
tp1370
a(I34
I118
tp1371
a(I55
I103
tp1372
a(I9
I172
tp1373
a(I0
I125
tp1374
a(I0
I111
tp1375
a(I49
I139
tp1376
a(I49
I135
tp1377
asg27
I200
sba(imain2
Polygon
p1378
(dp1379
g3
(I80
I158
tp1380
sg5
I200
sg6
(I24
I44
I60
I0
tp1381
sg8
(lp1382
(I43
I138
tp1383
a(I119
I172
tp1384
a(I116
I150
tp1385
a(I30
I162
tp1386
a(I97
I118
tp1387
a(I111
I110
tp1388
a(I34
I137
tp1389
a(I74
I194
tp1390
a(I30
I174
tp1391
a(I50
I171
tp1392
a(I72
I163
tp1393
a(I55
I200
tp1394
a(I112
I146
tp1395
a(I92
I116
tp1396
a(I37
I162
tp1397
a(I84
I166
tp1398
a(I126
I161
tp1399
a(I40
I155
tp1400
a(I120
I184
tp1401
asg27
I200
sba(imain2
Polygon
p1402
(dp1403
g3
(I168
I51
tp1404
sg5
I200
sg6
(I100
I204
I209
I0
tp1405
sg8
(lp1406
(I123
I53
tp1407
a(I179
I45
tp1408
a(I200
I23
tp1409
a(I153
I39
tp1410
a(I124
I70
tp1411
a(I200
I12
tp1412
a(I146
I34
tp1413
a(I135
I101
tp1414
a(I122
I32
tp1415
asg27
I200
sba(imain2
Polygon
p1416
(dp1417
g3
(I110
I14
tp1418
sg5
I200
sg6
(I157
I137
I49
I154
tp1419
sg8
(lp1420
(I118
I49
tp1421
a(I72
I59
tp1422
a(I101
I0
tp1423
a(I156
I0
tp1424
a(I158
I0
tp1425
a(I157
I28
tp1426
a(I144
I28
tp1427
a(I65
I3
tp1428
a(I67
I58
tp1429
a(I105
I0
tp1430
a(I79
I0
tp1431
a(I61
I0
tp1432
a(I77
I25
tp1433
asg27
I200
sba(imain2
Polygon
p1434
(dp1435
g3
(I85
I94
tp1436
sg5
I200
sg6
(I204
I233
I85
I66
tp1437
sg8
(lp1438
(I62
I116
tp1439
a(I110
I104
tp1440
a(I62
I48
tp1441
a(I105
I45
tp1442
a(I125
I73
tp1443
a(I124
I97
tp1444
a(I68
I108
tp1445
a(I109
I144
tp1446
a(I124
I111
tp1447
a(I62
I45
tp1448
a(I45
I66
tp1449
a(I55
I129
tp1450
a(I126
I96
tp1451
asg27
I200
sba(imain2
Polygon
p1452
(dp1453
g3
(I153
I81
tp1454
sg5
I200
sg6
(I122
I86
I190
I1
tp1455
sg8
(lp1456
(I197
I105
tp1457
a(I190
I48
tp1458
a(I138
I80
tp1459
a(I163
I84
tp1460
a(I162
I85
tp1461
a(I127
I120
tp1462
a(I182
I97
tp1463
a(I188
I103
tp1464
asg27
I200
sba(imain2
Polygon
p1465
(dp1466
g3
(I146
I37
tp1467
sg5
I200
sg6
(I227
I84
I157
I1
tp1468
sg8
(lp1469
(I104
I12
tp1470
a(I109
I72
tp1471
a(I140
I51
tp1472
a(I111
I12
tp1473
a(I117
I80
tp1474
a(I125
I57
tp1475
a(I157
I74
tp1476
a(I164
I41
tp1477
asg27
I200
sba(imain2
Polygon
p1478
(dp1479
g3
(I36
I71
tp1480
sg5
I200
sg6
(I178
I120
I135
I1
tp1481
sg8
(lp1482
(I58
I121
tp1483
a(I82
I65
tp1484
a(I60
I30
tp1485
a(I14
I70
tp1486
a(I15
I71
tp1487
a(I48
I38
tp1488
a(I27
I121
tp1489
a(I27
I63
tp1490
a(I75
I42
tp1491
a(I46
I58
tp1492
a(I35
I104
tp1493
a(I63
I70
tp1494
asg27
I200
sba(imain2
Polygon
p1495
(dp1496
g3
(I36
I181
tp1497
sg5
I200
sg6
(I143
I212
I97
I92
tp1498
sg8
(lp1499
(I78
I149
tp1500
a(I60
I152
tp1501
a(I21
I155
tp1502
a(I0
I170
tp1503
a(I52
I149
tp1504
a(I50
I141
tp1505
a(I71
I200
tp1506
a(I13
I140
tp1507
a(I43
I172
tp1508
a(I80
I200
tp1509
a(I55
I200
tp1510
a(I66
I188
tp1511
a(I68
I200
tp1512
a(I60
I200
tp1513
asg27
I200
sba(imain2
Polygon
p1514
(dp1515
g3
(I94
I181
tp1516
sg5
I200
sg6
(I112
I50
I36
I1
tp1517
sg8
(lp1518
(I70
I179
tp1519
a(I136
I200
tp1520
a(I108
I160
tp1521
a(I117
I185
tp1522
a(I56
I136
tp1523
a(I130
I200
tp1524
a(I128
I200
tp1525
a(I88
I191
tp1526
a(I130
I142
tp1527
asg27
I200
sba(imain2
Polygon
p1528
(dp1529
g3
(I4
I26
tp1530
sg5
I200
sg6
(I29
I105
I61
I62
tp1531
sg8
(lp1532
(I25
I0
tp1533
a(I0
I0
tp1534
a(I26
I50
tp1535
a(I21
I31
tp1536
a(I0
I38
tp1537
a(I9
I3
tp1538
a(I54
I51
tp1539
a(I7
I69
tp1540
a(I0
I66
tp1541
a(I0
I27
tp1542
a(I0
I27
tp1543
a(I10
I24
tp1544
a(I17
I0
tp1545
a(I21
I16
tp1546
a(I0
I0
tp1547
a(I0
I52
tp1548
a(I0
I38
tp1549
asg27
I200
sba(imain2
Polygon
p1550
(dp1551
g3
(I14
I45
tp1552
sg5
I200
sg6
(I149
I108
I1
I0
tp1553
sg8
(lp1554
(I32
I34
tp1555
a(I14
I43
tp1556
a(I0
I36
tp1557
a(I0
I24
tp1558
a(I0
I8
tp1559
a(I52
I82
tp1560
a(I0
I82
tp1561
a(I0
I70
tp1562
a(I47
I51
tp1563
a(I14
I33
tp1564
asg27
I200
sba(imain2
Polygon
p1565
(dp1566
g3
(I103
I69
tp1567
sg5
I200
sg6
(I232
I219
I1
I45
tp1568
sg8
(lp1569
(I87
I21
tp1570
a(I53
I51
tp1571
a(I57
I81
tp1572
a(I127
I84
tp1573
a(I135
I89
tp1574
a(I85
I19
tp1575
asg27
I200
sba(imain2
Polygon
p1576
(dp1577
g3
(I61
I77
tp1578
sg5
I200
sg6
(I62
I122
I192
I142
tp1579
sg8
(lp1580
(I90
I104
tp1581
a(I88
I94
tp1582
a(I79
I107
tp1583
asg27
I200
sba(imain2
Polygon
p1584
(dp1585
g3
(I36
I98
tp1586
sg5
I200
sg6
(I0
I201
I75
I56
tp1587
sg8
(lp1588
(I28
I97
tp1589
a(I4
I90
tp1590
a(I0
I121
tp1591
a(I0
I53
tp1592
a(I70
I63
tp1593
a(I30
I53
tp1594
a(I0
I53
tp1595
a(I18
I50
tp1596
asg27
I200
sba(imain2
Polygon
p1597
(dp1598
g3
(I20
I133
tp1599
sg5
I200
sg6
(I201
I239
I134
I96
tp1600
sg8
(lp1601
(I30
I179
tp1602
a(I0
I181
tp1603
a(I0
I175
tp1604
a(I15
I141
tp1605
asg27
I200
sba(imain2
Polygon
p1606
(dp1607
g3
(I178
I74
tp1608
sg5
I200
sg6
(I32
I121
I32
I0
tp1609
sg8
(lp1610
(I170
I49
tp1611
a(I128
I75
tp1612
a(I175
I72
tp1613
a(I172
I25
tp1614
a(I200
I94
tp1615
a(I149
I92
tp1616
a(I176
I80
tp1617
a(I164
I74
tp1618
a(I200
I79
tp1619
a(I200
I40
tp1620
asg27
I200
sba(imain2
Polygon
p1621
(dp1622
g3
(I191
I151
tp1623
sg5
I200
sg6
(I240
I45
I77
I72
tp1624
sg8
(lp1625
(I190
I106
tp1626
a(I189
I120
tp1627
a(I175
I104
tp1628
asg27
I200
sba(imain2
Polygon
p1629
(dp1630
g3
(I81
I200
tp1631
sg5
I200
sg6
(I42
I59
I161
I48
tp1632
sg8
(lp1633
(I63
I200
tp1634
a(I33
I187
tp1635
a(I129
I174
tp1636
a(I38
I191
tp1637
a(I52
I200
tp1638
a(I51
I198
tp1639
a(I101
I200
tp1640
a(I46
I200
tp1641
a(I62
I200
tp1642
a(I31
I200
tp1643
a(I87
I164
tp1644
asg27
I200
sba(imain2
Polygon
p1645
(dp1646
g3
(I8
I200
tp1647
sg5
I200
sg6
(I236
I15
I68
I155
tp1648
sg8
(lp1649
(I34
I200
tp1650
a(I0
I200
tp1651
a(I0
I200
tp1652
a(I2
I200
tp1653
a(I0
I185
tp1654
a(I0
I200
tp1655
a(I0
I199
tp1656
a(I31
I155
tp1657
a(I0
I200
tp1658
a(I6
I200
tp1659
a(I0
I200
tp1660
asg27
I200
sba(imain2
Polygon
p1661
(dp1662
g3
(I12
I187
tp1663
sg5
I200
sg6
(I224
I1
I179
I1
tp1664
sg8
(lp1665
(I16
I163
tp1666
a(I0
I167
tp1667
a(I12
I188
tp1668
a(I0
I174
tp1669
a(I0
I200
tp1670
a(I59
I200
tp1671
a(I54
I191
tp1672
a(I51
I153
tp1673
a(I25
I200
tp1674
a(I13
I200
tp1675
asg27
I200
sba(imain2
Polygon
p1676
(dp1677
g3
(I142
I43
tp1678
sg5
I200
sg6
(I50
I78
I166
I30
tp1679
sg8
(lp1680
(I132
I26
tp1681
a(I147
I48
tp1682
a(I162
I61
tp1683
a(I135
I64
tp1684
a(I188
I16
tp1685
a(I136
I59
tp1686
a(I138
I14
tp1687
a(I123
I43
tp1688
a(I157
I33
tp1689
a(I122
I35
tp1690
a(I153
I44
tp1691
a(I138
I19
tp1692
a(I158
I17
tp1693
a(I122
I27
tp1694
a(I177
I2
tp1695
asg27
I200
sba(imain2
Polygon
p1696
(dp1697
g3
(I89
I37
tp1698
sg5
I200
sg6
(I0
I104
I197
I90
tp1699
sg8
(lp1700
(I104
I35
tp1701
a(I54
I51
tp1702
a(I55
I50
tp1703
asg27
I200
sba(imain2
Polygon
p1704
(dp1705
g3
(I43
I51
tp1706
sg5
I200
sg6
(I38
I142
I123
I0
tp1707
sg8
(lp1708
(I37
I89
tp1709
a(I71
I76
tp1710
a(I91
I92
tp1711
a(I58
I29
tp1712
a(I80
I75
tp1713
a(I47
I38
tp1714
a(I39
I44
tp1715
a(I62
I59
tp1716
a(I89
I46
tp1717
a(I60
I23
tp1718
a(I1
I100
tp1719
a(I34
I83
tp1720
a(I39
I83
tp1721
a(I76
I55
tp1722
a(I14
I58
tp1723
a(I22
I62
tp1724
a(I55
I58
tp1725
a(I15
I62
tp1726
asg27
I200
sba(imain2
Polygon
p1727
(dp1728
g3
(I23
I143
tp1729
sg5
I200
sg6
(I76
I248
I173
I68
tp1730
sg8
(lp1731
(I6
I147
tp1732
a(I4
I149
tp1733
a(I0
I188
tp1734
a(I29
I191
tp1735
a(I25
I165
tp1736
a(I57
I187
tp1737
asg27
I200
sba(imain2
Polygon
p1738
(dp1739
g3
(I32
I143
tp1740
sg5
I200
sg6
(I53
I72
I163
I1
tp1741
sg8
(lp1742
(I61
I156
tp1743
a(I32
I159
tp1744
a(I5
I104
tp1745
a(I50
I122
tp1746
a(I44
I162
tp1747
a(I0
I175
tp1748
a(I70
I178
tp1749
a(I55
I127
tp1750
a(I28
I176
tp1751
a(I62
I174
tp1752
a(I49
I174
tp1753
a(I39
I147
tp1754
a(I57
I143
tp1755
a(I45
I108
tp1756
a(I53
I187
tp1757
asg27
I200
sba(imain2
Polygon
p1758
(dp1759
g3
(I69
I107
tp1760
sg5
I200
sg6
(I161
I229
I1
I21
tp1761
sg8
(lp1762
(I92
I73
tp1763
a(I40
I61
tp1764
a(I104
I157
tp1765
a(I58
I92
tp1766
a(I103
I75
tp1767
a(I70
I101
tp1768
a(I29
I60
tp1769
a(I19
I90
tp1770
a(I93
I154
tp1771
a(I52
I77
tp1772
a(I69
I96
tp1773
a(I113
I129
tp1774
asg27
I200
sba(imain2
Polygon
p1775
(dp1776
g3
(I172
I111
tp1777
sg5
I200
sg6
(I238
I216
I85
I139
tp1778
sg8
(lp1779
(I162
I84
tp1780
a(I200
I88
tp1781
a(I177
I85
tp1782
asg27
I200
sba(imain2
Polygon
p1783
(dp1784
g3
(I150
I91
tp1785
sg5
I200
sg6
(I10
I244
I88
I54
tp1786
sg8
(lp1787
(I191
I127
tp1788
a(I169
I84
tp1789
a(I165
I85
tp1790
a(I174
I90
tp1791
a(I191
I123
tp1792
asg27
I200
sba(imain2
Polygon
p1793
(dp1794
g3
(I135
I188
tp1795
sg5
I200
sg6
(I79
I230
I8
I1
tp1796
sg8
(lp1797
(I155
I145
tp1798
a(I174
I200
tp1799
a(I90
I186
tp1800
a(I97
I156
tp1801
a(I177
I190
tp1802
a(I102
I176
tp1803
asg27
I200
sba(imain2
Polygon
p1804
(dp1805
g3
(I127
I113
tp1806
sg5
I200
sg6
(I134
I216
I151
I24
tp1807
sg8
(lp1808
(I109
I131
tp1809
a(I110
I161
tp1810
a(I148
I82
tp1811
a(I81
I98
tp1812
a(I94
I89
tp1813
asg27
I200
sba(imain2
Polygon
p1814
(dp1815
g3
(I173
I20
tp1816
sg5
I200
sg6
(I231
I1
I219
I1
tp1817
sg8
(lp1818
(I147
I47
tp1819
a(I145
I56
tp1820
a(I182
I3
tp1821
a(I200
I0
tp1822
a(I200
I11
tp1823
a(I200
I56
tp1824
a(I137
I18
tp1825
a(I148
I37
tp1826
a(I189
I36
tp1827
a(I185
I0
tp1828
a(I168
I7
tp1829
a(I200
I12
tp1830
a(I149
I40
tp1831
a(I144
I1
tp1832
a(I186
I12
tp1833
asg27
I200
sba(imain2
Polygon
p1834
(dp1835
g3
(I100
I197
tp1836
sg5
I200
sg6
(I35
I103
I179
I82
tp1837
sg8
(lp1838
(I99
I200
tp1839
a(I118
I200
tp1840
a(I147
I200
tp1841
a(I104
I151
tp1842
a(I135
I187
tp1843
a(I106
I200
tp1844
a(I137
I200
tp1845
a(I71
I200
tp1846
a(I135
I200
tp1847
a(I72
I198
tp1848
a(I133
I200
tp1849
a(I51
I200
tp1850
a(I55
I200
tp1851
asg27
I200
sba(imain2
Polygon
p1852
(dp1853
g3
(I70
I0
tp1854
sg5
I200
sg6
(I136
I0
I197
I0
tp1855
sg8
(lp1856
(I62
I0
tp1857
a(I80
I22
tp1858
a(I111
I0
tp1859
a(I90
I0
tp1860
a(I115
I27
tp1861
a(I52
I0
tp1862
a(I76
I34
tp1863
a(I96
I14
tp1864
a(I81
I0
tp1865
asg27
I200
sba(imain2
Polygon
p1866
(dp1867
g3
(I106
I152
tp1868
sg5
I200
sg6
(I99
I163
I63
I72
tp1869
sg8
(lp1870
(I133
I114
tp1871
a(I111
I190
tp1872
a(I119
I166
tp1873
a(I59
I200
tp1874
a(I140
I199
tp1875
a(I115
I114
tp1876
a(I56
I163
tp1877
a(I124
I140
tp1878
a(I138
I185
tp1879
a(I122
I150
tp1880
a(I85
I159
tp1881
asg27
I200
sba(imain2
Polygon
p1882
(dp1883
g3
(I11
I38
tp1884
sg5
I200
sg6
(I111
I0
I126
I17
tp1885
sg8
(lp1886
(I43
I53
tp1887
a(I13
I59
tp1888
a(I35
I52
tp1889
a(I0
I5
tp1890
a(I54
I81
tp1891
a(I14
I34
tp1892
a(I60
I54
tp1893
a(I0
I15
tp1894
asg27
I200
sba(imain2
Polygon
p1895
(dp1896
g3
(I23
I68
tp1897
sg5
I200
sg6
(I217
I112
I190
I134
tp1898
sg8
(lp1899
(I35
I109
tp1900
a(I24
I85
tp1901
a(I54
I19
tp1902
a(I25
I33
tp1903
a(I35
I32
tp1904
a(I36
I40
tp1905
a(I0
I19
tp1906
a(I0
I111
tp1907
a(I7
I98
tp1908
a(I38
I112
tp1909
a(I4
I66
tp1910
asg27
I200
sba(imain2
Polygon
p1911
(dp1912
g3
(I73
I8
tp1913
sg5
I200
sg6
(I107
I163
I21
I142
tp1914
sg8
(lp1915
(I33
I0
tp1916
a(I31
I0
tp1917
a(I113
I0
tp1918
a(I27
I56
tp1919
a(I23
I45
tp1920
a(I24
I0
tp1921
a(I84
I33
tp1922
a(I39
I6
tp1923
a(I49
I29
tp1924
a(I58
I40
tp1925
asg27
I200
sba(imain2
Polygon
p1926
(dp1927
g3
(I175
I187
tp1928
sg5
I200
sg6
(I122
I193
I200
I69
tp1929
sg8
(lp1930
(I200
I200
tp1931
a(I200
I164
tp1932
a(I200
I200
tp1933
a(I170
I200
tp1934
a(I146
I200
tp1935
asg27
I200
sba(imain2
Polygon
p1936
(dp1937
g3
(I153
I195
tp1938
sg5
I200
sg6
(I55
I168
I30
I1
tp1939
sg8
(lp1940
(I114
I200
tp1941
a(I138
I200
tp1942
a(I140
I164
tp1943
a(I144
I196
tp1944
a(I169
I200
tp1945
a(I168
I147
tp1946
a(I192
I165
tp1947
a(I136
I184
tp1948
a(I133
I168
tp1949
asg27
I200
sba(imain2
Polygon
p1950
(dp1951
g3
(I199
I6
tp1952
sg5
I200
sg6
(I146
I41
I88
I0
tp1953
sg8
(lp1954
(I200
I0
tp1955
a(I197
I0
tp1956
a(I200
I0
tp1957
a(I162
I21
tp1958
a(I200
I0
tp1959
a(I200
I18
tp1960
a(I200
I0
tp1961
a(I200
I2
tp1962
asg27
I200
sba(imain2
Polygon
p1963
(dp1964
g3
(I46
I191
tp1965
sg5
I200
sg6
(I93
I18
I9
I132
tp1966
sg8
(lp1967
(I69
I200
tp1968
a(I73
I200
tp1969
a(I94
I165
tp1970
a(I0
I200
tp1971
a(I0
I146
tp1972
a(I27
I155
tp1973
a(I88
I189
tp1974
a(I77
I145
tp1975
a(I35
I167
tp1976
asg27
I200
sba(imain2
Polygon
p1977
(dp1978
g3
(I144
I179
tp1979
sg5
I200
sg6
(I126
I32
I191
I60
tp1980
sg8
(lp1981
(I165
I180
tp1982
a(I161
I152
tp1983
a(I140
I155
tp1984
a(I173
I170
tp1985
a(I133
I187
tp1986
a(I191
I200
tp1987
a(I106
I200
tp1988
a(I113
I200
tp1989
a(I159
I164
tp1990
a(I159
I200
tp1991
a(I164
I155
tp1992
a(I103
I200
tp1993
a(I105
I180
tp1994
a(I154
I153
tp1995
a(I168
I199
tp1996
a(I168
I200
tp1997
asg27
I200
sba(imain2
Polygon
p1998
(dp1999
g3
(I120
I46
tp2000
sg5
I200
sg6
(I85
I82
I105
I67
tp2001
sg8
(lp2002
(I118
I65
tp2003
a(I95
I18
tp2004
a(I89
I13
tp2005
a(I116
I13
tp2006
a(I97
I17
tp2007
a(I112
I27
tp2008
a(I122
I89
tp2009
a(I125
I46
tp2010
asg27
I200
sba(imain2
Polygon
p2011
(dp2012
g3
(I100
I144
tp2013
sg5
I200
sg6
(I124
I184
I168
I132
tp2014
sg8
(lp2015
(I112
I95
tp2016
a(I104
I138
tp2017
a(I98
I126
tp2018
a(I74
I100
tp2019
a(I78
I118
tp2020
a(I83
I152
tp2021
a(I125
I151
tp2022
a(I68
I158
tp2023
a(I56
I110
tp2024
asg27
I200
sba(imain2
Polygon
p2025
(dp2026
g3
(I151
I184
tp2027
sg5
I200
sg6
(I139
I2
I175
I10
tp2028
sg8
(lp2029
(I132
I183
tp2030
a(I190
I200
tp2031
a(I200
I200
tp2032
a(I169
I169
tp2033
a(I122
I200
tp2034
asg27
I200
sba(imain2
Polygon
p2035
(dp2036
g3
(I124
I187
tp2037
sg5
I200
sg6
(I30
I29
I211
I1
tp2038
sg8
(lp2039
(I128
I191
tp2040
a(I124
I194
tp2041
a(I97
I200
tp2042
a(I145
I160
tp2043
a(I90
I200
tp2044
a(I84
I197
tp2045
a(I119
I200
tp2046
a(I80
I200
tp2047
a(I143
I154
tp2048
asg27
I200
sba(imain2
Polygon
p2049
(dp2050
g3
(I48
I52
tp2051
sg5
I200
sg6
(I247
I132
I163
I141
tp2052
sg8
(lp2053
(I59
I92
tp2054
a(I58
I94
tp2055
a(I79
I94
tp2056
a(I97
I60
tp2057
a(I65
I16
tp2058
a(I36
I66
tp2059
a(I31
I93
tp2060
a(I88
I8
tp2061
a(I0
I10
tp2062
a(I0
I82
tp2063
a(I2
I102
tp2064
a(I26
I82
tp2065
a(I18
I85
tp2066
a(I75
I83
tp2067
asg27
I200
sba(imain2
Polygon
p2068
(dp2069
g3
(I139
I74
tp2070
sg5
I200
sg6
(I153
I193
I239
I108
tp2071
sg8
(lp2072
(I132
I24
tp2073
a(I189
I47
tp2074
a(I185
I26
tp2075
a(I157
I30
tp2076
a(I171
I52
tp2077
a(I187
I48
tp2078
asg27
I200
sba(imain2
Polygon
p2079
(dp2080
g3
(I161
I83
tp2081
sg5
I200
sg6
(I205
I150
I104
I41
tp2082
sg8
(lp2083
(I147
I55
tp2084
a(I134
I56
tp2085
a(I114
I49
tp2086
a(I158
I64
tp2087
a(I187
I60
tp2088
a(I155
I98
tp2089
a(I177
I113
tp2090
a(I199
I106
tp2091
a(I200
I62
tp2092
a(I200
I106
tp2093
a(I200
I49
tp2094
a(I140
I35
tp2095
a(I197
I72
tp2096
a(I172
I66
tp2097
a(I149
I64
tp2098
a(I145
I53
tp2099
asg27
I200
sba(imain2
Polygon
p2100
(dp2101
g3
(I88
I36
tp2102
sg5
I200
sg6
(I1
I31
I74
I128
tp2103
sg8
(lp2104
(I82
I0
tp2105
a(I49
I39
tp2106
a(I102
I37
tp2107
a(I120
I27
tp2108
a(I125
I14
tp2109
a(I135
I16
tp2110
a(I71
I9
tp2111
a(I42
I13
tp2112
a(I58
I13
tp2113
asg27
I200
sba(imain2
Polygon
p2114
(dp2115
g3
(I12
I36
tp2116
sg5
I200
sg6
(I169
I103
I215
I1
tp2117
sg8
(lp2118
(I7
I40
tp2119
a(I4
I56
tp2120
a(I30
I24
tp2121
a(I45
I0
tp2122
a(I0
I41
tp2123
a(I0
I38
tp2124
asg27
I200
sba(imain2
Polygon
p2125
(dp2126
g3
(I79
I176
tp2127
sg5
I200
sg6
(I200
I85
I177
I111
tp2128
sg8
(lp2129
(I129
I200
tp2130
a(I119
I162
tp2131
a(I87
I199
tp2132
asg27
I200
sba(imain2
Polygon
p2133
(dp2134
g3
(I159
I193
tp2135
sg5
I200
sg6
(I189
I174
I62
I1
tp2136
sg8
(lp2137
(I151
I200
tp2138
a(I158
I200
tp2139
a(I156
I151
tp2140
a(I179
I191
tp2141
a(I175
I200
tp2142
a(I200
I200
tp2143
a(I200
I196
tp2144
a(I192
I188
tp2145
a(I125
I183
tp2146
a(I175
I146
tp2147
a(I118
I200
tp2148
a(I173
I194
tp2149
a(I167
I193
tp2150
asg27
I200
sba(imain2
Polygon
p2151
(dp2152
g3
(I52
I197
tp2153
sg5
I200
sg6
(I164
I149
I231
I1
tp2154
sg8
(lp2155
(I39
I200
tp2156
a(I62
I165
tp2157
a(I29
I200
tp2158
a(I49
I200
tp2159
a(I14
I199
tp2160
a(I60
I185
tp2161
asg27
I200
sba(imain2
Polygon
p2162
(dp2163
g3
(I96
I168
tp2164
sg5
I200
sg6
(I85
I157
I169
I0
tp2165
sg8
(lp2166
(I47
I192
tp2167
a(I64
I200
tp2168
a(I76
I200
tp2169
a(I55
I137
tp2170
a(I54
I189
tp2171
a(I62
I193
tp2172
a(I139
I200
tp2173
a(I72
I170
tp2174
a(I135
I147
tp2175
a(I143
I143
tp2176
asg27
I200
sba(imain2
Polygon
p2177
(dp2178
g3
(I148
I67
tp2179
sg5
I200
sg6
(I211
I30
I22
I0
tp2180
sg8
(lp2181
(I174
I47
tp2182
a(I110
I44
tp2183
a(I120
I55
tp2184
a(I113
I19
tp2185
a(I158
I65
tp2186
a(I136
I96
tp2187
a(I108
I94
tp2188
a(I178
I39
tp2189
a(I193
I116
tp2190
a(I142
I17
tp2191
a(I104
I104
tp2192
asg27
I200
sba(imain2
Polygon
p2193
(dp2194
g3
(I185
I29
tp2195
sg5
I200
sg6
(I142
I164
I77
I86
tp2196
sg8
(lp2197
(I136
I0
tp2198
a(I199
I0
tp2199
a(I194
I26
tp2200
a(I160
I50
tp2201
a(I153
I26
tp2202
a(I152
I60
tp2203
asg27
I200
sba(imain2
Polygon
p2204
(dp2205
g3
(I77
I185
tp2206
sg5
I200
sg6
(I29
I27
I101
I122
tp2207
sg8
(lp2208
(I61
I200
tp2209
a(I63
I154
tp2210
a(I39
I143
tp2211
a(I124
I169
tp2212
a(I40
I180
tp2213
a(I53
I200
tp2214
a(I35
I180
tp2215
a(I61
I183
tp2216
a(I64
I192
tp2217
a(I66
I165
tp2218
asg27
I200
sba(imain2
Polygon
p2219
(dp2220
g3
(I183
I173
tp2221
sg5
I200
sg6
(I108
I218
I89
I58
tp2222
sg8
(lp2223
(I151
I151
tp2224
a(I148
I145
tp2225
a(I173
I200
tp2226
a(I173
I194
tp2227
a(I164
I182
tp2228
asg27
I200
sba(imain2
Polygon
p2229
(dp2230
g3
(I141
I78
tp2231
sg5
I200
sg6
(I233
I88
I167
I0
tp2232
sg8
(lp2233
(I99
I101
tp2234
a(I168
I60
tp2235
a(I182
I69
tp2236
a(I185
I61
tp2237
a(I125
I122
tp2238
a(I142
I74
tp2239
a(I124
I124
tp2240
a(I190
I65
tp2241
a(I127
I64
tp2242
a(I106
I72
tp2243
asg27
I200
sba(imain2
Polygon
p2244
(dp2245
g3
(I8
I10
tp2246
sg5
I200
sg6
(I64
I44
I74
I126
tp2247
sg8
(lp2248
(I17
I0
tp2249
a(I0
I0
tp2250
a(I30
I6
tp2251
a(I32
I6
tp2252
a(I0
I0
tp2253
a(I0
I21
tp2254
a(I3
I0
tp2255
asg27
I200
sba(imain2
Polygon
p2256
(dp2257
g3
(I37
I13
tp2258
sg5
I200
sg6
(I1
I116
I23
I136
tp2259
sg8
(lp2260
(I36
I0
tp2261
a(I16
I0
tp2262
a(I17
I0
tp2263
a(I19
I8
tp2264
a(I10
I0
tp2265
a(I0
I0
tp2266
a(I47
I12
tp2267
a(I0
I0
tp2268
a(I2
I12
tp2269
a(I61
I0
tp2270
a(I59
I14
tp2271
a(I43
I0
tp2272
asg27
I200
sba(imain2
Polygon
p2273
(dp2274
g3
(I168
I175
tp2275
sg5
I200
sg6
(I97
I58
I26
I16
tp2276
sg8
(lp2277
(I152
I200
tp2278
a(I120
I181
tp2279
a(I189
I200
tp2280
a(I156
I200
tp2281
a(I177
I200
tp2282
a(I185
I169
tp2283
a(I193
I200
tp2284
a(I192
I161
tp2285
a(I196
I188
tp2286
a(I187
I128
tp2287
a(I125
I175
tp2288
a(I122
I174
tp2289
asg27
I200
sba(imain2
Polygon
p2290
(dp2291
g3
(I75
I83
tp2292
sg5
I200
sg6
(I27
I33
I20
I0
tp2293
sg8
(lp2294
(I114
I59
tp2295
a(I50
I113
tp2296
a(I120
I50
tp2297
a(I37
I102
tp2298
a(I91
I37
tp2299
a(I116
I74
tp2300
a(I72
I87
tp2301
a(I116
I81
tp2302
a(I106
I101
tp2303
a(I68
I99
tp2304
a(I89
I59
tp2305
a(I53
I132
tp2306
a(I100
I106
tp2307
a(I42
I130
tp2308
asg27
I200
sba(imain2
Polygon
p2309
(dp2310
g3
(I18
I79
tp2311
sg5
I200
sg6
(I82
I1
I176
I128
tp2312
sg8
(lp2313
(I61
I110
tp2314
a(I51
I115
tp2315
a(I44
I52
tp2316
a(I54
I29
tp2317
a(I25
I110
tp2318
a(I12
I123
tp2319
a(I0
I103
tp2320
a(I0
I117
tp2321
a(I39
I119
tp2322
asg27
I200
sba(imain2
Polygon
p2323
(dp2324
g3
(I27
I28
tp2325
sg5
I200
sg6
(I223
I147
I42
I1
tp2326
sg8
(lp2327
(I0
I39
tp2328
a(I58
I68
tp2329
a(I51
I66
tp2330
a(I24
I26
tp2331
a(I69
I0
tp2332
a(I32
I0
tp2333
a(I0
I0
tp2334
a(I0
I50
tp2335
a(I72
I42
tp2336
a(I0
I42
tp2337
a(I67
I64
tp2338
a(I26
I69
tp2339
a(I72
I27
tp2340
asg27
I200
sba(imain2
Polygon
p2341
(dp2342
g3
(I85
I60
tp2343
sg5
I200
sg6
(I86
I115
I15
I117
tp2344
sg8
(lp2345
(I115
I60
tp2346
a(I134
I87
tp2347
a(I55
I107
tp2348
a(I36
I62
tp2349
a(I72
I90
tp2350
a(I131
I73
tp2351
a(I117
I52
tp2352
a(I123
I32
tp2353
asg27
I200
sba(imain2
Polygon
p2354
(dp2355
g3
(I45
I110
tp2356
sg5
I200
sg6
(I43
I243
I181
I62
tp2357
sg8
(lp2358
(I68
I158
tp2359
a(I45
I112
tp2360
a(I89
I87
tp2361
a(I72
I109
tp2362
asg27
I200
sba(imain2
Polygon
p2363
(dp2364
g3
(I54
I138
tp2365
sg5
I200
sg6
(I120
I64
I186
I0
tp2366
sg8
(lp2367
(I35
I88
tp2368
a(I95
I92
tp2369
a(I99
I90
tp2370
a(I63
I128
tp2371
a(I101
I131
tp2372
a(I91
I117
tp2373
a(I96
I115
tp2374
a(I14
I186
tp2375
a(I11
I174
tp2376
a(I101
I147
tp2377
asg27
I200
sba(imain2
Polygon
p2378
(dp2379
g3
(I162
I123
tp2380
sg5
I200
sg6
(I48
I61
I73
I26
tp2381
sg8
(lp2382
(I119
I79
tp2383
a(I153
I85
tp2384
a(I200
I137
tp2385
a(I200
I144
tp2386
a(I125
I137
tp2387
a(I142
I158
tp2388
a(I180
I124
tp2389
a(I168
I135
tp2390
a(I124
I106
tp2391
a(I158
I73
tp2392
a(I184
I95
tp2393
a(I166
I149
tp2394
a(I116
I146
tp2395
a(I131
I98
tp2396
a(I156
I80
tp2397
a(I161
I109
tp2398
a(I144
I105
tp2399
a(I190
I140
tp2400
a(I170
I171
tp2401
a(I125
I109
tp2402
asg27
I200
sba(imain2
Polygon
p2403
(dp2404
g3
(I144
I70
tp2405
sg5
I200
sg6
(I194
I42
I118
I49
tp2406
sg8
(lp2407
(I149
I30
tp2408
a(I169
I95
tp2409
a(I155
I49
tp2410
asg27
I200
sba(imain2
Polygon
p2411
(dp2412
g3
(I11
I36
tp2413
sg5
I200
sg6
(I146
I33
I80
I50
tp2414
sg8
(lp2415
(I0
I29
tp2416
a(I37
I36
tp2417
a(I0
I13
tp2418
a(I35
I7
tp2419
a(I0
I0
tp2420
a(I0
I57
tp2421
a(I0
I17
tp2422
a(I29
I0
tp2423
a(I0
I35
tp2424
asg27
I200
sba(imain2
Polygon
p2425
(dp2426
g3
(I85
I175
tp2427
sg5
I200
sg6
(I241
I54
I46
I6
tp2428
sg8
(lp2429
(I130
I159
tp2430
a(I36
I144
tp2431
a(I112
I137
tp2432
a(I61
I130
tp2433
a(I130
I133
tp2434
a(I122
I198
tp2435
a(I41
I200
tp2436
a(I66
I189
tp2437
a(I114
I192
tp2438
a(I100
I188
tp2439
a(I55
I141
tp2440
a(I47
I127
tp2441
a(I109
I150
tp2442
a(I67
I187
tp2443
a(I89
I176
tp2444
asg27
I200
sba(imain2
Polygon
p2445
(dp2446
g3
(I78
I22
tp2447
sg5
I200
sg6
(I0
I240
I67
I0
tp2448
sg8
(lp2449
(I64
I19
tp2450
a(I86
I0
tp2451
a(I75
I42
tp2452
a(I127
I58
tp2453
a(I112
I68
tp2454
a(I38
I8
tp2455
a(I51
I15
tp2456
a(I64
I6
tp2457
a(I80
I0
tp2458
a(I80
I27
tp2459
a(I104
I0
tp2460
a(I97
I31
tp2461
a(I37
I57
tp2462
asg27
I200
sba(imain2
Polygon
p2463
(dp2464
g3
(I58
I165
tp2465
sg5
I200
sg6
(I74
I0
I135
I105
tp2466
sg8
(lp2467
(I39
I165
tp2468
a(I48
I165
tp2469
a(I46
I164
tp2470
asg27
I200
sba(imain2
Polygon
p2471
(dp2472
g3
(I98
I69
tp2473
sg5
I200
sg6
(I75
I216
I128
I50
tp2474
sg8
(lp2475
(I132
I119
tp2476
a(I126
I99
tp2477
a(I86
I76
tp2478
asg27
I200
sba(imain2
Polygon
p2479
(dp2480
g3
(I184
I193
tp2481
sg5
I200
sg6
(I19
I65
I70
I1
tp2482
sg8
(lp2483
(I150
I200
tp2484
a(I185
I200
tp2485
a(I200
I163
tp2486
a(I200
I200
tp2487
a(I163
I200
tp2488
a(I186
I200
tp2489
a(I182
I200
tp2490
a(I200
I168
tp2491
asg27
I200
sba(imain2
Polygon
p2492
(dp2493
g3
(I136
I181
tp2494
sg5
I200
sg6
(I121
I127
I191
I0
tp2495
sg8
(lp2496
(I182
I131
tp2497
a(I146
I181
tp2498
a(I129
I164
tp2499
a(I175
I181
tp2500
a(I97
I200
tp2501
a(I131
I164
tp2502
a(I118
I199
tp2503
a(I174
I170
tp2504
a(I104
I154
tp2505
a(I144
I200
tp2506
a(I127
I139
tp2507
a(I154
I193
tp2508
asg27
I200
sba(imain2
Polygon
p2509
(dp2510
g3
(I65
I69
tp2511
sg5
I200
sg6
(I101
I95
I154
I25
tp2512
sg8
(lp2513
(I20
I36
tp2514
a(I40
I84
tp2515
a(I79
I112
tp2516
a(I80
I100
tp2517
a(I51
I60
tp2518
a(I63
I93
tp2519
a(I41
I114
tp2520
a(I42
I61
tp2521
a(I37
I81
tp2522
asg27
I200
sba(imain2
Polygon
p2523
(dp2524
g3
(I146
I60
tp2525
sg5
I200
sg6
(I1
I4
I200
I13
tp2526
sg8
(lp2527
(I161
I106
tp2528
a(I174
I96
tp2529
a(I131
I64
tp2530
a(I151
I109
tp2531
a(I164
I56
tp2532
a(I111
I50
tp2533
asg27
I200
sba(imain2
Polygon
p2534
(dp2535
g3
(I7
I191
tp2536
sg5
I200
sg6
(I1
I168
I64
I1
tp2537
sg8
(lp2538
(I42
I172
tp2539
a(I53
I198
tp2540
a(I50
I200
tp2541
a(I45
I158
tp2542
a(I39
I200
tp2543
a(I0
I200
tp2544
a(I0
I199
tp2545
a(I0
I200
tp2546
asg27
I200
sba(imain2
Polygon
p2547
(dp2548
g3
(I177
I12
tp2549
sg5
I200
sg6
(I0
I130
I138
I1
tp2550
sg8
(lp2551
(I179
I47
tp2552
a(I200
I31
tp2553
a(I131
I0
tp2554
a(I173
I62
tp2555
a(I200
I45
tp2556
a(I200
I8
tp2557
a(I150
I52
tp2558
a(I148
I56
tp2559
a(I175
I22
tp2560
asg27
I200
sba(imain2
Polygon
p2561
(dp2562
g3
(I98
I60
tp2563
sg5
I200
sg6
(I143
I38
I48
I9
tp2564
sg8
(lp2565
(I87
I83
tp2566
a(I98
I75
tp2567
a(I89
I21
tp2568
a(I138
I25
tp2569
a(I80
I91
tp2570
a(I126
I103
tp2571
a(I147
I11
tp2572
a(I125
I68
tp2573
asg27
I200
sba(imain2
Polygon
p2574
(dp2575
g3
(I26
I121
tp2576
sg5
I200
sg6
(I19
I115
I4
I106
tp2577
sg8
(lp2578
(I5
I167
tp2579
a(I39
I85
tp2580
a(I0
I101
tp2581
a(I0
I166
tp2582
a(I51
I153
tp2583
a(I14
I135
tp2584
a(I45
I83
tp2585
a(I52
I113
tp2586
a(I0
I157
tp2587
a(I0
I125
tp2588
asg27
I200
sba(imain2
Polygon
p2589
(dp2590
g3
(I59
I10
tp2591
sg5
I200
sg6
(I180
I56
I106
I143
tp2592
sg8
(lp2593
(I13
I0
tp2594
a(I57
I0
tp2595
a(I73
I6
tp2596
a(I55
I0
tp2597
a(I109
I0
tp2598
a(I63
I23
tp2599
a(I10
I0
tp2600
a(I17
I23
tp2601
asg27
I200
sba(imain2
Polygon
p2602
(dp2603
g3
(I171
I141
tp2604
sg5
I200
sg6
(I38
I201
I138
I9
tp2605
sg8
(lp2606
(I200
I170
tp2607
a(I200
I173
tp2608
a(I193
I121
tp2609
a(I179
I181
tp2610
a(I200
I104
tp2611
a(I200
I183
tp2612
a(I126
I103
tp2613
a(I187
I97
tp2614
asg27
I200
sba(imain2
Polygon
p2615
(dp2616
g3
(I80
I143
tp2617
sg5
I200
sg6
(I74
I76
I12
I129
tp2618
sg8
(lp2619
(I50
I130
tp2620
a(I70
I145
tp2621
a(I93
I192
tp2622
a(I130
I187
tp2623
a(I107
I140
tp2624
a(I32
I121
tp2625
a(I39
I93
tp2626
a(I65
I188
tp2627
a(I118
I114
tp2628
a(I36
I110
tp2629
a(I111
I114
tp2630
asg27
I200
sba(imain2
Polygon
p2631
(dp2632
g3
(I191
I199
tp2633
sg5
I200
sg6
(I0
I224
I26
I1
tp2634
sg8
(lp2635
(I148
I156
tp2636
a(I180
I200
tp2637
a(I200
I200
tp2638
a(I200
I200
tp2639
a(I143
I191
tp2640
a(I151
I170
tp2641
a(I200
I200
tp2642
a(I148
I149
tp2643
a(I156
I169
tp2644
asg27
I200
sba(imain2
Polygon
p2645
(dp2646
g3
(I6
I112
tp2647
sg5
I200
sg6
(I133
I71
I131
I80
tp2648
sg8
(lp2649
(I0
I137
tp2650
a(I0
I140
tp2651
a(I25
I84
tp2652
a(I0
I129
tp2653
a(I0
I98
tp2654
a(I0
I161
tp2655
a(I0
I153
tp2656
asg27
I200
sba(imain2
Polygon
p2657
(dp2658
g3
(I189
I37
tp2659
sg5
I200
sg6
(I31
I238
I165
I71
tp2660
sg8
(lp2661
(I200
I41
tp2662
a(I177
I46
tp2663
a(I200
I40
tp2664
a(I200
I17
tp2665
asg27
I200
sba(imain2
Polygon
p2666
(dp2667
g3
(I121
I50
tp2668
sg5
I200
sg6
(I6
I72
I1
I0
tp2669
sg8
(lp2670
(I151
I62
tp2671
a(I132
I76
tp2672
a(I164
I48
tp2673
a(I118
I53
tp2674
asg27
I200
sba(imain2
Polygon
p2675
(dp2676
g3
(I58
I165
tp2677
sg5
I200
sg6
(I144
I100
I3
I1
tp2678
sg8
(lp2679
(I88
I126
tp2680
a(I39
I171
tp2681
a(I32
I150
tp2682
a(I38
I200
tp2683
a(I50
I148
tp2684
a(I97
I137
tp2685
a(I98
I141
tp2686
a(I23
I163
tp2687
a(I73
I172
tp2688
a(I56
I151
tp2689
asg27
I200
sba(imain2
Polygon
p2690
(dp2691
g3
(I155
I38
tp2692
sg5
I200
sg6
(I102
I110
I238
I115
tp2693
sg8
(lp2694
(I160
I2
tp2695
a(I162
I13
tp2696
a(I165
I27
tp2697
asg27
I200
sba(imain2
Polygon
p2698
(dp2699
g3
(I80
I130
tp2700
sg5
I200
sg6
(I224
I90
I1
I127
tp2701
sg8
(lp2702
(I90
I107
tp2703
a(I38
I91
tp2704
a(I127
I91
tp2705
a(I86
I180
tp2706
a(I90
I97
tp2707
a(I42
I107
tp2708
a(I57
I140
tp2709
a(I81
I161
tp2710
a(I95
I173
tp2711
a(I77
I124
tp2712
a(I91
I85
tp2713
a(I88
I146
tp2714
asg27
I200
sba(imain2
Polygon
p2715
(dp2716
g3
(I182
I31
tp2717
sg5
I200
sg6
(I112
I86
I112
I0
tp2718
sg8
(lp2719
(I200
I3
tp2720
a(I200
I50
tp2721
a(I146
I14
tp2722
a(I186
I15
tp2723
a(I164
I0
tp2724
a(I200
I52
tp2725
a(I200
I0
tp2726
a(I182
I55
tp2727
a(I164
I73
tp2728
a(I200
I0
tp2729
a(I188
I55
tp2730
a(I168
I44
tp2731
a(I200
I15
tp2732
a(I179
I78
tp2733
a(I168
I0
tp2734
a(I185
I80
tp2735
a(I192
I0
tp2736
a(I200
I72
tp2737
a(I198
I23
tp2738
a(I200
I0
tp2739
asg27
I200
sba(imain2
Polygon
p2740
(dp2741
g3
(I164
I132
tp2742
sg5
I200
sg6
(I50
I70
I1
I1
tp2743
sg8
(lp2744
(I162
I178
tp2745
a(I129
I182
tp2746
a(I152
I161
tp2747
a(I172
I87
tp2748
a(I125
I177
tp2749
a(I190
I92
tp2750
a(I146
I102
tp2751
a(I185
I87
tp2752
a(I166
I123
tp2753
a(I144
I129
tp2754
a(I181
I85
tp2755
a(I127
I166
tp2756
a(I122
I127
tp2757
a(I148
I180
tp2758
asg27
I200
sba(imain2
Polygon
p2759
(dp2760
g3
(I67
I123
tp2761
sg5
I200
sg6
(I204
I170
I128
I78
tp2762
sg8
(lp2763
(I114
I101
tp2764
a(I112
I148
tp2765
a(I65
I154
tp2766
a(I43
I93
tp2767
a(I96
I92
tp2768
a(I107
I100
tp2769
a(I49
I107
tp2770
a(I115
I104
tp2771
a(I46
I107
tp2772
a(I101
I102
tp2773
asg27
I200
sba(imain2
Polygon
p2774
(dp2775
g3
(I139
I46
tp2776
sg5
I200
sg6
(I2
I111
I83
I91
tp2777
sg8
(lp2778
(I185
I84
tp2779
a(I98
I73
tp2780
a(I164
I79
tp2781
asg27
I200
sba(imain2
Polygon
p2782
(dp2783
g3
(I137
I13
tp2784
sg5
I200
sg6
(I204
I132
I222
I5
tp2785
sg8
(lp2786
(I153
I45
tp2787
a(I179
I43
tp2788
a(I165
I55
tp2789
a(I90
I14
tp2790
a(I123
I32
tp2791
a(I157
I0
tp2792
a(I92
I0
tp2793
a(I114
I0
tp2794
a(I100
I0
tp2795
a(I88
I17
tp2796
a(I160
I57
tp2797
asg27
I200
sba(imain2
Polygon
p2798
(dp2799
g3
(I72
I81
tp2800
sg5
I200
sg6
(I239
I109
I83
I0
tp2801
sg8
(lp2802
(I116
I92
tp2803
a(I45
I70
tp2804
a(I99
I128
tp2805
a(I119
I81
tp2806
a(I75
I114
tp2807
a(I30
I105
tp2808
a(I72
I104
tp2809
a(I63
I131
tp2810
a(I72
I123
tp2811
asg27
I200
sba(imain2
Polygon
p2812
(dp2813
g3
(I24
I70
tp2814
sg5
I200
sg6
(I7
I225
I10
I18
tp2815
sg8
(lp2816
(I37
I25
tp2817
a(I72
I32
tp2818
a(I2
I21
tp2819
a(I0
I105
tp2820
a(I15
I106
tp2821
a(I38
I101
tp2822
a(I0
I104
tp2823
a(I52
I117
tp2824
a(I46
I40
tp2825
a(I22
I27
tp2826
asg27
I200
sba(imain2
Polygon
p2827
(dp2828
g3
(I144
I200
tp2829
sg5
I200
sg6
(I124
I88
I13
I1
tp2830
sg8
(lp2831
(I119
I183
tp2832
a(I164
I200
tp2833
a(I184
I154
tp2834
a(I162
I158
tp2835
a(I183
I167
tp2836
a(I142
I200
tp2837
a(I193
I200
tp2838
a(I147
I151
tp2839
a(I156
I200
tp2840
a(I186
I200
tp2841
a(I120
I200
tp2842
a(I147
I190
tp2843
a(I131
I200
tp2844
a(I163
I199
tp2845
a(I175
I179
tp2846
a(I105
I200
tp2847
a(I159
I200
tp2848
a(I103
I160
tp2849
a(I114
I189
tp2850
a(I100
I200
tp2851
asg27
I200
sba(imain2
Polygon
p2852
(dp2853
g3
(I63
I64
tp2854
sg5
I200
sg6
(I194
I193
I46
I6
tp2855
sg8
(lp2856
(I112
I33
tp2857
a(I18
I106
tp2858
a(I18
I45
tp2859
a(I97
I38
tp2860
a(I97
I107
tp2861
a(I26
I53
tp2862
a(I22
I101
tp2863
asg27
I200
sba(imain2
Polygon
p2864
(dp2865
g3
(I87
I65
tp2866
sg5
I200
sg6
(I217
I57
I100
I0
tp2867
sg8
(lp2868
(I54
I64
tp2869
a(I53
I36
tp2870
a(I44
I115
tp2871
a(I86
I89
tp2872
a(I101
I99
tp2873
a(I41
I94
tp2874
a(I119
I16
tp2875
a(I123
I103
tp2876
a(I136
I93
tp2877
asg27
I200
sba(imain2
Polygon
p2878
(dp2879
g3
(I110
I191
tp2880
sg5
I200
sg6
(I163
I198
I225
I1
tp2881
sg8
(lp2882
(I150
I191
tp2883
a(I157
I200
tp2884
a(I157
I152
tp2885
a(I117
I192
tp2886
a(I83
I180
tp2887
a(I143
I200
tp2888
a(I115
I169
tp2889
a(I87
I200
tp2890
a(I122
I200
tp2891
asg27
I200
sba(imain2
Polygon
p2892
(dp2893
g3
(I108
I110
tp2894
sg5
I200
sg6
(I100
I179
I168
I1
tp2895
sg8
(lp2896
(I101
I127
tp2897
a(I104
I82
tp2898
a(I132
I160
tp2899
a(I75
I84
tp2900
a(I70
I134
tp2901
a(I116
I124
tp2902
a(I100
I157
tp2903
asg27
I200
sba(imain2
Polygon
p2904
(dp2905
g3
(I112
I52
tp2906
sg5
I200
sg6
(I81
I201
I82
I113
tp2907
sg8
(lp2908
(I158
I54
tp2909
a(I152
I55
tp2910
a(I149
I58
tp2911
asg27
I200
sba.