(lp0
(imain2
Polygon
p1
(dp2
S'origin'
p3
(I39
I29
tp4
sS'h'
p5
I200
sS'color'
p6
(I195
I23
I139
I80
tp7
sS'corner_list'
p8
(lp9
(I0
I0
tp10
a(I33
I71
tp11
a(I71
I41
tp12
a(I83
I36
tp13
a(I71
I0
tp14
a(I18
I34
tp15
a(I0
I33
tp16
a(I18
I16
tp17
a(I0
I37
tp18
a(I83
I19
tp19
a(I58
I39
tp20
a(I4
I54
tp21
a(I21
I30
tp22
a(I13
I20
tp23
a(I39
I30
tp24
a(I64
I0
tp25
asS'w'
p26
I200
sba(imain2
Polygon
p27
(dp28
g3
(I66
I177
tp29
sg5
I200
sg6
(I138
I55
I47
I30
tp30
sg8
(lp31
(I77
I143
tp32
a(I77
I165
tp33
a(I111
I200
tp34
a(I34
I200
tp35
a(I71
I200
tp36
a(I17
I179
tp37
a(I44
I200
tp38
a(I77
I200
tp39
asg26
I200
sba(imain2
Polygon
p40
(dp41
g3
(I59
I53
tp42
sg5
I200
sg6
(I109
I43
I107
I140
tp43
sg8
(lp44
(I106
I10
tp45
a(I26
I102
tp46
a(I9
I53
tp47
a(I59
I26
tp48
a(I41
I9
tp49
a(I45
I35
tp50
a(I40
I72
tp51
a(I32
I51
tp52
a(I38
I88
tp53
a(I97
I87
tp54
a(I109
I84
tp55
a(I91
I22
tp56
a(I92
I46
tp57
a(I76
I61
tp58
a(I97
I29
tp59
a(I50
I59
tp60
a(I53
I45
tp61
a(I57
I67
tp62
asg26
I200
sba(imain2
Polygon
p63
(dp64
g3
(I79
I99
tp65
sg5
I200
sg6
(I72
I89
I68
I90
tp66
sg8
(lp67
(I88
I64
tp68
a(I98
I98
tp69
a(I76
I117
tp70
a(I76
I74
tp71
a(I35
I63
tp72
a(I72
I80
tp73
a(I123
I57
tp74
a(I114
I125
tp75
a(I30
I114
tp76
asg26
I200
sba(imain2
Polygon
p77
(dp78
g3
(I200
I83
tp79
sg5
I200
sg6
(I165
I229
I64
I6
tp80
sg8
(lp81
(I200
I58
tp82
a(I172
I56
tp83
a(I191
I129
tp84
a(I178
I101
tp85
a(I200
I94
tp86
a(I170
I131
tp87
asg26
I200
sba(imain2
Polygon
p88
(dp89
g3
(I48
I136
tp90
sg5
I200
sg6
(I104
I110
I144
I54
tp91
sg8
(lp92
(I74
I106
tp93
a(I87
I127
tp94
a(I94
I141
tp95
a(I43
I102
tp96
a(I5
I168
tp97
a(I60
I171
tp98
a(I89
I93
tp99
a(I7
I140
tp100
a(I78
I105
tp101
a(I86
I178
tp102
a(I47
I126
tp103
a(I46
I109
tp104
a(I2
I151
tp105
a(I64
I175
tp106
a(I58
I161
tp107
a(I45
I165
tp108
a(I87
I144
tp109
a(I84
I97
tp110
a(I79
I93
tp111
a(I69
I164
tp112
asg26
I200
sba(imain2
Polygon
p113
(dp114
g3
(I118
I72
tp115
sg5
I200
sg6
(I132
I137
I60
I50
tp116
sg8
(lp117
(I99
I82
tp118
a(I118
I81
tp119
a(I118
I115
tp120
a(I126
I57
tp121
a(I89
I36
tp122
a(I68
I93
tp123
a(I104
I108
tp124
a(I97
I43
tp125
asg26
I200
sba(imain2
Polygon
p126
(dp127
g3
(I75
I194
tp128
sg5
I200
sg6
(I212
I85
I105
I9
tp129
sg8
(lp130
(I118
I184
tp131
a(I81
I145
tp132
a(I100
I167
tp133
a(I71
I200
tp134
a(I96
I159
tp135
a(I72
I157
tp136
asg26
I200
sba(imain2
Polygon
p137
(dp138
g3
(I7
I180
tp139
sg5
I200
sg6
(I233
I33
I1
I0
tp140
sg8
(lp141
(I28
I179
tp142
a(I0
I200
tp143
a(I0
I200
tp144
a(I0
I158
tp145
a(I0
I192
tp146
a(I41
I140
tp147
a(I39
I200
tp148
a(I50
I143
tp149
a(I0
I200
tp150
a(I0
I188
tp151
a(I5
I200
tp152
a(I47
I179
tp153
asg26
I200
sba(imain2
Polygon
p154
(dp155
g3
(I200
I5
tp156
sg5
I200
sg6
(I172
I75
I111
I29
tp157
sg8
(lp158
(I200
I28
tp159
a(I200
I0
tp160
a(I200
I0
tp161
a(I179
I0
tp162
a(I154
I0
tp163
a(I180
I0
tp164
a(I200
I0
tp165
a(I200
I45
tp166
a(I155
I15
tp167
a(I200
I0
tp168
asg26
I200
sba(imain2
Polygon
p169
(dp170
g3
(I180
I27
tp171
sg5
I200
sg6
(I104
I110
I153
I0
tp172
sg8
(lp173
(I200
I66
tp174
a(I200
I0
tp175
a(I189
I19
tp176
a(I162
I29
tp177
a(I186
I32
tp178
a(I193
I34
tp179
a(I163
I0
tp180
a(I153
I0
tp181
a(I149
I53
tp182
a(I160
I34
tp183
a(I150
I0
tp184
a(I169
I65
tp185
a(I134
I46
tp186
a(I200
I0
tp187
asg26
I200
sba(imain2
Polygon
p188
(dp189
g3
(I59
I197
tp190
sg5
I200
sg6
(I80
I206
I135
I130
tp191
sg8
(lp192
(I98
I200
tp193
a(I93
I157
tp194
a(I71
I197
tp195
a(I54
I200
tp196
asg26
I200
sba(imain2
Polygon
p197
(dp198
g3
(I129
I124
tp199
sg5
I200
sg6
(I169
I187
I96
I62
tp200
sg8
(lp201
(I122
I123
tp202
a(I92
I168
tp203
a(I130
I89
tp204
a(I111
I89
tp205
a(I90
I106
tp206
a(I88
I150
tp207
a(I119
I138
tp208
asg26
I200
sba(imain2
Polygon
p209
(dp210
g3
(I107
I2
tp211
sg5
I200
sg6
(I47
I0
I159
I107
tp212
sg8
(lp213
(I83
I0
tp214
a(I107
I0
tp215
a(I97
I0
tp216
a(I134
I0
tp217
a(I86
I0
tp218
a(I106
I7
tp219
a(I142
I27
tp220
a(I156
I2
tp221
asg26
I200
sba(imain2
Polygon
p222
(dp223
g3
(I25
I107
tp224
sg5
I200
sg6
(I102
I25
I170
I1
tp225
sg8
(lp226
(I30
I146
tp227
a(I12
I69
tp228
a(I0
I123
tp229
a(I0
I68
tp230
a(I47
I76
tp231
a(I63
I86
tp232
a(I32
I154
tp233
a(I47
I83
tp234
a(I47
I135
tp235
a(I22
I124
tp236
a(I0
I59
tp237
a(I3
I58
tp238
a(I0
I103
tp239
a(I9
I75
tp240
a(I7
I139
tp241
a(I58
I86
tp242
asg26
I200
sba(imain2
Polygon
p243
(dp244
g3
(I194
I197
tp245
sg5
I200
sg6
(I7
I196
I62
I87
tp246
sg8
(lp247
(I187
I200
tp248
a(I200
I176
tp249
a(I200
I180
tp250
asg26
I200
sba(imain2
Polygon
p251
(dp252
g3
(I8
I2
tp253
sg5
I200
sg6
(I204
I193
I218
I0
tp254
sg8
(lp255
(I20
I0
tp256
a(I33
I37
tp257
a(I53
I9
tp258
a(I40
I9
tp259
a(I0
I4
tp260
a(I0
I0
tp261
a(I9
I17
tp262
a(I16
I0
tp263
a(I52
I0
tp264
a(I0
I45
tp265
a(I20
I0
tp266
a(I55
I0
tp267
asg26
I200
sba(imain2
Polygon
p268
(dp269
g3
(I171
I144
tp270
sg5
I200
sg6
(I109
I156
I185
I0
tp271
sg8
(lp272
(I136
I112
tp273
a(I126
I156
tp274
a(I165
I102
tp275
a(I132
I120
tp276
a(I176
I147
tp277
a(I137
I128
tp278
a(I198
I129
tp279
a(I177
I113
tp280
asg26
I200
sba(imain2
Polygon
p281
(dp282
g3
(I44
I42
tp283
sg5
I200
sg6
(I78
I127
I73
I0
tp284
sg8
(lp285
(I29
I80
tp286
a(I41
I39
tp287
a(I91
I0
tp288
a(I69
I42
tp289
a(I28
I58
tp290
a(I18
I19
tp291
asg26
I200
sba(imain2
Polygon
p292
(dp293
g3
(I26
I99
tp294
sg5
I200
sg6
(I167
I96
I166
I67
tp295
sg8
(lp296
(I71
I87
tp297
a(I54
I125
tp298
a(I69
I134
tp299
a(I72
I53
tp300
asg26
I200
sba(imain2
Polygon
p301
(dp302
g3
(I114
I46
tp303
sg5
I200
sg6
(I95
I192
I193
I1
tp304
sg8
(lp305
(I79
I0
tp306
a(I126
I34
tp307
a(I145
I56
tp308
a(I90
I66
tp309
a(I64
I42
tp310
a(I104
I20
tp311
asg26
I200
sba(imain2
Polygon
p312
(dp313
g3
(I68
I194
tp314
sg5
I200
sg6
(I85
I192
I149
I0
tp315
sg8
(lp316
(I73
I200
tp317
a(I52
I200
tp318
a(I30
I194
tp319
a(I65
I200
tp320
a(I57
I192
tp321
a(I45
I200
tp322
asg26
I200
sba(imain2
Polygon
p323
(dp324
g3
(I200
I53
tp325
sg5
I200
sg6
(I179
I181
I163
I0
tp326
sg8
(lp327
(I183
I79
tp328
a(I152
I41
tp329
a(I200
I16
tp330
asg26
I200
sba(imain2
Polygon
p331
(dp332
g3
(I172
I155
tp333
sg5
I200
sg6
(I197
I77
I240
I1
tp334
sg8
(lp335
(I156
I193
tp336
a(I186
I112
tp337
a(I135
I150
tp338
a(I144
I130
tp339
a(I139
I119
tp340
a(I158
I120
tp341
a(I138
I123
tp342
a(I137
I184
tp343
a(I166
I121
tp344
a(I154
I196
tp345
a(I200
I135
tp346
a(I197
I144
tp347
a(I200
I163
tp348
asg26
I200
sba(imain2
Polygon
p349
(dp350
g3
(I154
I159
tp351
sg5
I200
sg6
(I53
I205
I33
I0
tp352
sg8
(lp353
(I150
I131
tp354
a(I122
I109
tp355
a(I164
I130
tp356
a(I127
I131
tp357
a(I176
I190
tp358
a(I108
I117
tp359
a(I137
I190
tp360
a(I141
I167
tp361
a(I158
I198
tp362
a(I128
I200
tp363
a(I107
I136
tp364
a(I159
I171
tp365
a(I113
I158
tp366
a(I182
I138
tp367
asg26
I200
sba(imain2
Polygon
p368
(dp369
g3
(I55
I59
tp370
sg5
I200
sg6
(I72
I195
I200
I1
tp371
sg8
(lp372
(I35
I56
tp373
a(I83
I49
tp374
a(I105
I86
tp375
a(I55
I83
tp376
a(I33
I69
tp377
a(I44
I80
tp378
a(I93
I9
tp379
a(I47
I28
tp380
a(I81
I9
tp381
a(I103
I76
tp382
a(I60
I9
tp383
a(I31
I25
tp384
a(I10
I22
tp385
a(I30
I79
tp386
a(I56
I13
tp387
a(I8
I67
tp388
a(I21
I16
tp389
a(I7
I61
tp390
asg26
I200
sba(imain2
Polygon
p391
(dp392
g3
(I127
I147
tp393
sg5
I200
sg6
(I45
I66
I112
I92
tp394
sg8
(lp395
(I109
I194
tp396
a(I79
I101
tp397
a(I97
I160
tp398
a(I161
I191
tp399
asg26
I200
sba(imain2
Polygon
p400
(dp401
g3
(I123
I114
tp402
sg5
I200
sg6
(I116
I0
I6
I1
tp403
sg8
(lp404
(I118
I78
tp405
a(I80
I136
tp406
a(I103
I96
tp407
a(I86
I139
tp408
a(I118
I115
tp409
a(I139
I90
tp410
a(I102
I142
tp411
a(I161
I129
tp412
a(I153
I78
tp413
asg26
I200
sba(imain2
Polygon
p414
(dp415
g3
(I2
I51
tp416
sg5
I200
sg6
(I121
I139
I221
I0
tp417
sg8
(lp418
(I34
I88
tp419
a(I34
I85
tp420
a(I0
I4
tp421
a(I0
I44
tp422
a(I0
I95
tp423
a(I0
I20
tp424
a(I0
I48
tp425
a(I0
I75
tp426
a(I26
I73
tp427
a(I15
I75
tp428
asg26
I200
sba(imain2
Polygon
p429
(dp430
g3
(I166
I21
tp431
sg5
I200
sg6
(I210
I244
I214
I78
tp432
sg8
(lp433
(I200
I0
tp434
a(I200
I59
tp435
a(I169
I70
tp436
a(I131
I0
tp437
a(I153
I0
tp438
a(I131
I6
tp439
a(I135
I0
tp440
a(I200
I0
tp441
a(I150
I71
tp442
asg26
I200
sba(imain2
Polygon
p443
(dp444
g3
(I110
I91
tp445
sg5
I200
sg6
(I127
I32
I28
I0
tp446
sg8
(lp447
(I78
I111
tp448
a(I70
I70
tp449
a(I80
I118
tp450
a(I66
I74
tp451
a(I111
I63
tp452
a(I81
I95
tp453
a(I68
I96
tp454
a(I128
I95
tp455
a(I96
I68
tp456
a(I123
I69
tp457
a(I94
I93
tp458
a(I75
I65
tp459
a(I117
I88
tp460
a(I134
I67
tp461
a(I129
I138
tp462
a(I105
I65
tp463
a(I71
I109
tp464
a(I155
I99
tp465
asg26
I200
sba(imain2
Polygon
p466
(dp467
g3
(I148
I41
tp468
sg5
I200
sg6
(I156
I0
I205
I0
tp469
sg8
(lp470
(I141
I90
tp471
a(I127
I76
tp472
a(I195
I72
tp473
a(I192
I6
tp474
a(I167
I84
tp475
a(I130
I66
tp476
a(I155
I13
tp477
a(I195
I36
tp478
a(I183
I32
tp479
a(I110
I80
tp480
a(I103
I84
tp481
a(I122
I1
tp482
a(I145
I45
tp483
a(I153
I30
tp484
asg26
I200
sba(imain2
Polygon
p485
(dp486
g3
(I188
I159
tp487
sg5
I200
sg6
(I161
I69
I63
I0
tp488
sg8
(lp489
(I200
I159
tp490
a(I200
I172
tp491
a(I200
I144
tp492
a(I200
I137
tp493
a(I200
I118
tp494
a(I197
I200
tp495
a(I156
I170
tp496
asg26
I200
sba(imain2
Polygon
p497
(dp498
g3
(I55
I106
tp499
sg5
I200
sg6
(I54
I89
I40
I1
tp500
sg8
(lp501
(I66
I60
tp502
a(I104
I93
tp503
a(I82
I142
tp504
a(I56
I94
tp505
a(I50
I154
tp506
a(I70
I101
tp507
a(I99
I105
tp508
a(I7
I154
tp509
a(I75
I126
tp510
a(I98
I130
tp511
a(I92
I93
tp512
asg26
I200
sba(imain2
Polygon
p513
(dp514
g3
(I118
I64
tp515
sg5
I200
sg6
(I128
I36
I2
I3
tp516
sg8
(lp517
(I68
I113
tp518
a(I97
I48
tp519
a(I77
I86
tp520
a(I125
I37
tp521
a(I149
I42
tp522
a(I146
I16
tp523
a(I122
I15
tp524
a(I89
I110
tp525
a(I160
I97
tp526
a(I88
I20
tp527
a(I123
I23
tp528
a(I105
I36
tp529
a(I92
I32
tp530
asg26
I200
sba(imain2
Polygon
p531
(dp532
g3
(I101
I127
tp533
sg5
I200
sg6
(I83
I171
I94
I71
tp534
sg8
(lp535
(I82
I132
tp536
a(I66
I119
tp537
a(I83
I154
tp538
a(I132
I81
tp539
a(I63
I110
tp540
asg26
I200
sba(imain2
Polygon
p541
(dp542
g3
(I42
I89
tp543
sg5
I200
sg6
(I17
I90
I177
I0
tp544
sg8
(lp545
(I82
I88
tp546
a(I78
I118
tp547
a(I43
I73
tp548
a(I78
I95
tp549
a(I15
I128
tp550
a(I7
I119
tp551
a(I1
I107
tp552
a(I29
I107
tp553
a(I0
I121
tp554
a(I0
I79
tp555
asg26
I200
sba(imain2
Polygon
p556
(dp557
g3
(I71
I151
tp558
sg5
I200
sg6
(I150
I167
I219
I127
tp559
sg8
(lp560
(I59
I125
tp561
a(I74
I126
tp562
a(I115
I198
tp563
a(I68
I200
tp564
a(I77
I200
tp565
a(I91
I177
tp566
a(I89
I164
tp567
asg26
I200
sba(imain2
Polygon
p568
(dp569
g3
(I13
I141
tp570
sg5
I200
sg6
(I243
I1
I194
I0
tp571
sg8
(lp572
(I0
I181
tp573
a(I0
I181
tp574
a(I0
I119
tp575
a(I8
I155
tp576
a(I53
I153
tp577
a(I0
I157
tp578
a(I0
I112
tp579
a(I30
I173
tp580
a(I38
I142
tp581
a(I47
I102
tp582
a(I52
I124
tp583
asg26
I200
sba(imain2
Polygon
p584
(dp585
g3
(I37
I11
tp586
sg5
I200
sg6
(I113
I18
I9
I91
tp587
sg8
(lp588
(I84
I0
tp589
a(I1
I7
tp590
a(I5
I26
tp591
a(I22
I34
tp592
a(I59
I15
tp593
a(I70
I6
tp594
a(I48
I0
tp595
asg26
I200
sba(imain2
Polygon
p596
(dp597
g3
(I97
I114
tp598
sg5
I200
sg6
(I144
I9
I201
I72
tp599
sg8
(lp600
(I62
I140
tp601
a(I86
I149
tp602
a(I121
I97
tp603
a(I126
I64
tp604
a(I62
I77
tp605
a(I73
I100
tp606
a(I48
I82
tp607
a(I75
I158
tp608
a(I100
I154
tp609
a(I83
I130
tp610
a(I115
I101
tp611
a(I56
I114
tp612
a(I84
I72
tp613
a(I76
I71
tp614
a(I110
I85
tp615
a(I80
I151
tp616
a(I113
I101
tp617
a(I64
I125
tp618
a(I85
I64
tp619
asg26
I200
sba(imain2
Polygon
p620
(dp621
g3
(I77
I12
tp622
sg5
I200
sg6
(I102
I0
I197
I0
tp623
sg8
(lp624
(I34
I0
tp625
a(I85
I0
tp626
a(I42
I0
tp627
a(I30
I23
tp628
a(I50
I51
tp629
a(I99
I49
tp630
a(I69
I0
tp631
a(I114
I19
tp632
a(I51
I42
tp633
asg26
I200
sba(imain2
Polygon
p634
(dp635
g3
(I114
I16
tp636
sg5
I200
sg6
(I0
I100
I177
I141
tp637
sg8
(lp638
(I159
I40
tp639
a(I151
I0
tp640
a(I70
I0
tp641
a(I142
I23
tp642
a(I160
I13
tp643
a(I135
I0
tp644
asg26
I200
sba(imain2
Polygon
p645
(dp646
g3
(I150
I10
tp647
sg5
I200
sg6
(I109
I57
I223
I152
tp648
sg8
(lp649
(I172
I0
tp650
a(I175
I1
tp651
a(I153
I0
tp652
a(I182
I0
tp653
a(I129
I11
tp654
a(I119
I18
tp655
a(I101
I0
tp656
a(I137
I0
tp657
a(I176
I52
tp658
a(I125
I0
tp659
a(I185
I0
tp660
asg26
I200
sba(imain2
Polygon
p661
(dp662
g3
(I41
I10
tp663
sg5
I200
sg6
(I113
I203
I84
I1
tp664
sg8
(lp665
(I28
I17
tp666
a(I23
I53
tp667
a(I0
I4
tp668
a(I86
I0
tp669
a(I16
I18
tp670
a(I60
I0
tp671
asg26
I200
sba(imain2
Polygon
p672
(dp673
g3
(I174
I159
tp674
sg5
I200
sg6
(I169
I106
I84
I91
tp675
sg8
(lp676
(I200
I125
tp677
a(I200
I200
tp678
a(I184
I191
tp679
a(I168
I116
tp680
a(I200
I121
tp681
a(I200
I173
tp682
a(I200
I119
tp683
asg26
I200
sba(imain2
Polygon
p684
(dp685
g3
(I61
I97
tp686
sg5
I200
sg6
(I123
I33
I105
I82
tp687
sg8
(lp688
(I51
I61
tp689
a(I103
I126
tp690
a(I64
I49
tp691
a(I103
I82
tp692
a(I64
I94
tp693
a(I102
I53
tp694
a(I108
I74
tp695
a(I96
I125
tp696
a(I52
I115
tp697
asg26
I200
sba(imain2
Polygon
p698
(dp699
g3
(I180
I97
tp700
sg5
I200
sg6
(I159
I154
I197
I1
tp701
sg8
(lp702
(I200
I88
tp703
a(I200
I108
tp704
a(I196
I110
tp705
a(I172
I65
tp706
a(I200
I145
tp707
a(I137
I86
tp708
a(I181
I70
tp709
asg26
I200
sba(imain2
Polygon
p710
(dp711
g3
(I101
I122
tp712
sg5
I200
sg6
(I163
I83
I0
I67
tp713
sg8
(lp714
(I87
I91
tp715
a(I111
I157
tp716
a(I106
I130
tp717
a(I93
I147
tp718
a(I118
I155
tp719
a(I125
I80
tp720
a(I61
I152
tp721
a(I83
I142
tp722
a(I54
I133
tp723
a(I58
I84
tp724
a(I77
I77
tp725
asg26
I200
sba(imain2
Polygon
p726
(dp727
g3
(I131
I15
tp728
sg5
I200
sg6
(I56
I126
I126
I1
tp729
sg8
(lp730
(I154
I0
tp731
a(I148
I25
tp732
a(I140
I30
tp733
a(I179
I62
tp734
a(I91
I0
tp735
a(I100
I0
tp736
a(I95
I0
tp737
a(I179
I0
tp738
a(I134
I55
tp739
a(I91
I0
tp740
a(I109
I23
tp741
asg26
I200
sba(imain2
Polygon
p742
(dp743
g3
(I113
I24
tp744
sg5
I200
sg6
(I150
I239
I1
I1
tp745
sg8
(lp746
(I163
I0
tp747
a(I88
I27
tp748
a(I125
I69
tp749
a(I154
I20
tp750
a(I125
I3
tp751
a(I115
I8
tp752
a(I117
I66
tp753
a(I110
I46
tp754
a(I138
I18
tp755
a(I122
I0
tp756
a(I77
I58
tp757
a(I140
I72
tp758
a(I82
I0
tp759
asg26
I200
sba(imain2
Polygon
p760
(dp761
g3
(I15
I21
tp762
sg5
I200
sg6
(I42
I40
I25
I1
tp763
sg8
(lp764
(I40
I54
tp765
a(I7
I0
tp766
a(I0
I26
tp767
a(I42
I34
tp768
a(I7
I47
tp769
a(I32
I0
tp770
a(I2
I0
tp771
asg26
I200
sba(imain2
Polygon
p772
(dp773
g3
(I75
I18
tp774
sg5
I200
sg6
(I118
I124
I38
I139
tp775
sg8
(lp776
(I125
I0
tp777
a(I82
I30
tp778
a(I98
I0
tp779
a(I90
I0
tp780
a(I60
I0
tp781
a(I29
I0
tp782
a(I70
I49
tp783
a(I31
I0
tp784
a(I64
I30
tp785
a(I69
I0
tp786
a(I26
I62
tp787
a(I118
I0
tp788
a(I123
I13
tp789
a(I25
I19
tp790
a(I53
I67
tp791
a(I111
I64
tp792
a(I124
I63
tp793
a(I84
I38
tp794
a(I72
I12
tp795
a(I104
I7
tp796
a(I73
I11
tp797
asg26
I200
sba(imain2
Polygon
p798
(dp799
g3
(I147
I31
tp800
sg5
I200
sg6
(I240
I1
I220
I135
tp801
sg8
(lp802
(I189
I0
tp803
a(I196
I42
tp804
a(I180
I38
tp805
a(I168
I65
tp806
a(I153
I34
tp807
a(I193
I77
tp808
a(I183
I0
tp809
a(I187
I24
tp810
a(I176
I51
tp811
a(I126
I17
tp812
a(I116
I7
tp813
a(I130
I0
tp814
asg26
I200
sba(imain2
Polygon
p815
(dp816
g3
(I43
I128
tp817
sg5
I200
sg6
(I89
I21
I103
I116
tp818
sg8
(lp819
(I7
I89
tp820
a(I0
I99
tp821
a(I41
I87
tp822
a(I15
I103
tp823
a(I5
I162
tp824
a(I19
I96
tp825
a(I39
I102
tp826
asg26
I200
sba(imain2
Polygon
p827
(dp828
g3
(I191
I52
tp829
sg5
I200
sg6
(I139
I141
I98
I1
tp830
sg8
(lp831
(I200
I4
tp832
a(I200
I26
tp833
a(I179
I57
tp834
a(I200
I80
tp835
a(I184
I37
tp836
a(I198
I60
tp837
a(I200
I28
tp838
a(I151
I8
tp839
a(I186
I45
tp840
a(I148
I88
tp841
asg26
I200
sba(imain2
Polygon
p842
(dp843
g3
(I124
I96
tp844
sg5
I200
sg6
(I221
I85
I120
I0
tp845
sg8
(lp846
(I156
I93
tp847
a(I154
I145
tp848
a(I106
I89
tp849
a(I140
I135
tp850
a(I87
I134
tp851
a(I91
I110
tp852
a(I151
I68
tp853
a(I138
I110
tp854
a(I109
I135
tp855
a(I167
I93
tp856
a(I87
I114
tp857
a(I123
I118
tp858
asg26
I200
sba(imain2
Polygon
p859
(dp860
g3
(I14
I107
tp861
sg5
I200
sg6
(I54
I1
I216
I124
tp862
sg8
(lp863
(I17
I104
tp864
a(I0
I102
tp865
a(I6
I81
tp866
asg26
I200
sba(imain2
Polygon
p867
(dp868
g3
(I84
I159
tp869
sg5
I200
sg6
(I49
I11
I192
I1
tp870
sg8
(lp871
(I90
I168
tp872
a(I84
I140
tp873
a(I90
I134
tp874
a(I51
I133
tp875
a(I113
I185
tp876
a(I101
I200
tp877
a(I63
I158
tp878
a(I45
I112
tp879
a(I64
I172
tp880
asg26
I200
sba(imain2
Polygon
p881
(dp882
g3
(I141
I115
tp883
sg5
I200
sg6
(I236
I170
I169
I1
tp884
sg8
(lp885
(I95
I66
tp886
a(I152
I78
tp887
a(I149
I65
tp888
a(I126
I104
tp889
asg26
I200
sba(imain2
Polygon
p890
(dp891
g3
(I199
I78
tp892
sg5
I200
sg6
(I204
I201
I83
I122
tp893
sg8
(lp894
(I151
I34
tp895
a(I153
I30
tp896
a(I200
I32
tp897
a(I200
I125
tp898
a(I164
I113
tp899
a(I175
I100
tp900
a(I189
I127
tp901
asg26
I200
sba(imain2
Polygon
p902
(dp903
g3
(I167
I90
tp904
sg5
I200
sg6
(I35
I185
I28
I45
tp905
sg8
(lp906
(I200
I91
tp907
a(I200
I99
tp908
a(I182
I102
tp909
a(I198
I74
tp910
a(I172
I52
tp911
asg26
I200
sba(imain2
Polygon
p912
(dp913
g3
(I17
I14
tp914
sg5
I200
sg6
(I0
I7
I91
I21
tp915
sg8
(lp916
(I12
I21
tp917
a(I58
I8
tp918
a(I24
I22
tp919
a(I0
I31
tp920
a(I8
I0
tp921
a(I28
I11
tp922
a(I0
I17
tp923
a(I0
I29
tp924
a(I55
I54
tp925
a(I54
I3
tp926
a(I0
I50
tp927
a(I42
I60
tp928
a(I16
I31
tp929
a(I44
I37
tp930
asg26
I200
sba(imain2
Polygon
p931
(dp932
g3
(I190
I180
tp933
sg5
I200
sg6
(I224
I103
I47
I1
tp934
sg8
(lp935
(I197
I149
tp936
a(I149
I200
tp937
a(I200
I200
tp938
a(I176
I200
tp939
asg26
I200
sba(imain2
Polygon
p940
(dp941
g3
(I70
I166
tp942
sg5
I200
sg6
(I105
I177
I0
I1
tp943
sg8
(lp944
(I76
I134
tp945
a(I60
I186
tp946
a(I84
I188
tp947
a(I75
I122
tp948
a(I36
I127
tp949
a(I29
I194
tp950
a(I48
I123
tp951
a(I96
I132
tp952
a(I52
I183
tp953
asg26
I200
sba(imain2
Polygon
p954
(dp955
g3
(I196
I185
tp956
sg5
I200
sg6
(I17
I156
I128
I1
tp957
sg8
(lp958
(I200
I166
tp959
a(I198
I140
tp960
a(I152
I139
tp961
a(I167
I191
tp962
a(I151
I200
tp963
a(I150
I137
tp964
asg26
I200
sba(imain2
Polygon
p965
(dp966
g3
(I48
I123
tp967
sg5
I200
sg6
(I164
I42
I17
I90
tp968
sg8
(lp969
(I8
I113
tp970
a(I8
I127
tp971
a(I0
I97
tp972
a(I22
I76
tp973
a(I47
I100
tp974
a(I58
I146
tp975
a(I89
I76
tp976
a(I9
I121
tp977
a(I27
I162
tp978
a(I11
I146
tp979
a(I19
I151
tp980
asg26
I200
sba(imain2
Polygon
p981
(dp982
g3
(I59
I97
tp983
sg5
I200
sg6
(I202
I47
I127
I20
tp984
sg8
(lp985
(I70
I135
tp986
a(I85
I54
tp987
a(I17
I129
tp988
a(I70
I64
tp989
a(I44
I80
tp990
a(I107
I114
tp991
a(I43
I97
tp992
a(I89
I99
tp993
a(I108
I130
tp994
a(I56
I68
tp995
asg26
I200
sba(imain2
Polygon
p996
(dp997
g3
(I17
I149
tp998
sg5
I200
sg6
(I1
I35
I155
I1
tp999
sg8
(lp1000
(I26
I188
tp1001
a(I0
I184
tp1002
a(I40
I138
tp1003
a(I0
I172
tp1004
a(I5
I196
tp1005
a(I0
I129
tp1006
a(I40
I145
tp1007
a(I44
I176
tp1008
asg26
I200
sba(imain2
Polygon
p1009
(dp1010
g3
(I88
I2
tp1011
sg5
I200
sg6
(I2
I101
I62
I46
tp1012
sg8
(lp1013
(I95
I0
tp1014
a(I76
I0
tp1015
a(I107
I6
tp1016
a(I48
I0
tp1017
a(I105
I20
tp1018
a(I82
I0
tp1019
a(I78
I0
tp1020
a(I85
I0
tp1021
a(I113
I12
tp1022
asg26
I200
sba(imain2
Polygon
p1023
(dp1024
g3
(I3
I161
tp1025
sg5
I200
sg6
(I174
I17
I188
I4
tp1026
sg8
(lp1027
(I0
I125
tp1028
a(I0
I200
tp1029
a(I0
I141
tp1030
a(I0
I194
tp1031
a(I0
I158
tp1032
a(I0
I163
tp1033
a(I0
I168
tp1034
a(I11
I145
tp1035
a(I0
I121
tp1036
a(I0
I200
tp1037
asg26
I200
sba(imain2
Polygon
p1038
(dp1039
g3
(I98
I58
tp1040
sg5
I200
sg6
(I36
I61
I167
I0
tp1041
sg8
(lp1042
(I126
I105
tp1043
a(I54
I55
tp1044
a(I91
I106
tp1045
a(I145
I40
tp1046
a(I74
I104
tp1047
a(I52
I73
tp1048
asg26
I200
sba(imain2
Polygon
p1049
(dp1050
g3
(I109
I111
tp1051
sg5
I200
sg6
(I227
I37
I97
I1
tp1052
sg8
(lp1053
(I111
I122
tp1054
a(I96
I159
tp1055
a(I64
I113
tp1056
a(I109
I97
tp1057
a(I60
I145
tp1058
a(I103
I136
tp1059
a(I124
I122
tp1060
a(I74
I92
tp1061
asg26
I200
sba(imain2
Polygon
p1062
(dp1063
g3
(I83
I155
tp1064
sg5
I200
sg6
(I201
I42
I181
I7
tp1065
sg8
(lp1066
(I104
I131
tp1067
a(I129
I115
tp1068
a(I132
I200
tp1069
a(I58
I195
tp1070
a(I112
I160
tp1071
a(I60
I111
tp1072
a(I50
I153
tp1073
a(I51
I131
tp1074
a(I87
I167
tp1075
a(I49
I160
tp1076
a(I120
I173
tp1077
a(I116
I131
tp1078
a(I114
I149
tp1079
a(I84
I144
tp1080
a(I73
I167
tp1081
a(I69
I148
tp1082
a(I112
I188
tp1083
a(I43
I119
tp1084
asg26
I200
sba(imain2
Polygon
p1085
(dp1086
g3
(I81
I21
tp1087
sg5
I200
sg6
(I136
I0
I26
I108
tp1088
sg8
(lp1089
(I65
I6
tp1090
a(I110
I0
tp1091
a(I90
I0
tp1092
a(I122
I60
tp1093
a(I103
I58
tp1094
a(I63
I3
tp1095
a(I117
I0
tp1096
a(I80
I0
tp1097
asg26
I200
sba(imain2
Polygon
p1098
(dp1099
g3
(I77
I115
tp1100
sg5
I200
sg6
(I91
I235
I217
I1
tp1101
sg8
(lp1102
(I39
I74
tp1103
a(I65
I128
tp1104
a(I27
I121
tp1105
a(I103
I151
tp1106
a(I32
I139
tp1107
a(I85
I78
tp1108
a(I76
I143
tp1109
asg26
I200
sba(imain2
Polygon
p1110
(dp1111
g3
(I108
I110
tp1112
sg5
I200
sg6
(I143
I114
I143
I1
tp1113
sg8
(lp1114
(I109
I74
tp1115
a(I88
I71
tp1116
a(I76
I135
tp1117
a(I149
I65
tp1118
a(I153
I68
tp1119
a(I121
I79
tp1120
a(I101
I139
tp1121
a(I68
I108
tp1122
a(I110
I143
tp1123
a(I124
I94
tp1124
a(I113
I121
tp1125
asg26
I200
sba(imain2
Polygon
p1126
(dp1127
g3
(I7
I122
tp1128
sg5
I200
sg6
(I151
I1
I156
I0
tp1129
sg8
(lp1130
(I1
I75
tp1131
a(I26
I136
tp1132
a(I5
I155
tp1133
a(I56
I116
tp1134
a(I0
I113
tp1135
a(I47
I143
tp1136
a(I0
I123
tp1137
a(I0
I77
tp1138
a(I48
I92
tp1139
a(I57
I139
tp1140
a(I15
I79
tp1141
a(I0
I145
tp1142
a(I0
I160
tp1143
a(I0
I145
tp1144
a(I0
I104
tp1145
a(I23
I87
tp1146
asg26
I200
sba(imain2
Polygon
p1147
(dp1148
g3
(I105
I20
tp1149
sg5
I200
sg6
(I211
I26
I228
I1
tp1150
sg8
(lp1151
(I124
I25
tp1152
a(I117
I17
tp1153
a(I81
I44
tp1154
a(I66
I0
tp1155
a(I143
I0
tp1156
asg26
I200
sba(imain2
Polygon
p1157
(dp1158
g3
(I47
I80
tp1159
sg5
I200
sg6
(I107
I47
I113
I14
tp1160
sg8
(lp1161
(I55
I102
tp1162
a(I20
I55
tp1163
a(I24
I107
tp1164
a(I6
I49
tp1165
a(I87
I50
tp1166
a(I26
I77
tp1167
a(I19
I65
tp1168
a(I52
I37
tp1169
a(I11
I37
tp1170
a(I13
I128
tp1171
a(I45
I105
tp1172
a(I23
I50
tp1173
a(I37
I61
tp1174
a(I44
I53
tp1175
a(I19
I59
tp1176
a(I86
I34
tp1177
a(I84
I126
tp1178
a(I68
I74
tp1179
a(I54
I57
tp1180
a(I13
I123
tp1181
asg26
I200
sba(imain2
Polygon
p1182
(dp1183
g3
(I131
I30
tp1184
sg5
I200
sg6
(I203
I122
I168
I0
tp1185
sg8
(lp1186
(I120
I0
tp1187
a(I155
I10
tp1188
a(I162
I8
tp1189
asg26
I200
sba(imain2
Polygon
p1190
(dp1191
g3
(I199
I39
tp1192
sg5
I200
sg6
(I91
I188
I105
I53
tp1193
sg8
(lp1194
(I187
I1
tp1195
a(I150
I0
tp1196
a(I200
I89
tp1197
a(I200
I6
tp1198
a(I178
I0
tp1199
asg26
I200
sba(imain2
Polygon
p1200
(dp1201
g3
(I110
I156
tp1202
sg5
I200
sg6
(I188
I90
I124
I1
tp1203
sg8
(lp1204
(I106
I166
tp1205
a(I138
I163
tp1206
a(I97
I173
tp1207
a(I131
I138
tp1208
a(I116
I137
tp1209
a(I160
I151
tp1210
a(I76
I198
tp1211
a(I123
I125
tp1212
a(I133
I146
tp1213
a(I154
I193
tp1214
a(I76
I200
tp1215
a(I138
I148
tp1216
a(I100
I170
tp1217
a(I144
I153
tp1218
a(I152
I115
tp1219
a(I69
I200
tp1220
asg26
I200
sba(imain2
Polygon
p1221
(dp1222
g3
(I14
I89
tp1223
sg5
I200
sg6
(I200
I19
I24
I71
tp1224
sg8
(lp1225
(I0
I61
tp1226
a(I49
I72
tp1227
a(I53
I72
tp1228
a(I55
I44
tp1229
a(I17
I118
tp1230
a(I0
I99
tp1231
a(I5
I50
tp1232
a(I11
I80
tp1233
asg26
I200
sba(imain2
Polygon
p1234
(dp1235
g3
(I124
I127
tp1236
sg5
I200
sg6
(I172
I217
I170
I1
tp1237
sg8
(lp1238
(I114
I145
tp1239
a(I143
I86
tp1240
a(I81
I155
tp1241
a(I111
I115
tp1242
a(I147
I96
tp1243
a(I97
I169
tp1244
a(I170
I95
tp1245
a(I135
I124
tp1246
a(I104
I171
tp1247
a(I92
I110
tp1248
a(I82
I151
tp1249
a(I160
I103
tp1250
a(I97
I110
tp1251
asg26
I200
sba(imain2
Polygon
p1252
(dp1253
g3
(I97
I78
tp1254
sg5
I200
sg6
(I146
I200
I157
I0
tp1255
sg8
(lp1256
(I62
I103
tp1257
a(I66
I110
tp1258
a(I110
I111
tp1259
a(I135
I109
tp1260
a(I118
I78
tp1261
a(I78
I58
tp1262
a(I97
I51
tp1263
a(I84
I107
tp1264
a(I55
I62
tp1265
a(I54
I111
tp1266
a(I77
I65
tp1267
asg26
I200
sba(imain2
Polygon
p1268
(dp1269
g3
(I71
I43
tp1270
sg5
I200
sg6
(I218
I210
I118
I1
tp1271
sg8
(lp1272
(I107
I87
tp1273
a(I75
I22
tp1274
a(I79
I84
tp1275
a(I57
I62
tp1276
a(I62
I36
tp1277
a(I50
I41
tp1278
a(I24
I70
tp1279
a(I75
I14
tp1280
a(I39
I86
tp1281
asg26
I200
sba(imain2
Polygon
p1282
(dp1283
g3
(I109
I75
tp1284
sg5
I200
sg6
(I108
I159
I66
I123
tp1285
sg8
(lp1286
(I63
I26
tp1287
a(I62
I79
tp1288
a(I120
I76
tp1289
a(I87
I26
tp1290
a(I64
I35
tp1291
a(I71
I69
tp1292
asg26
I200
sba(imain2
Polygon
p1293
(dp1294
g3
(I149
I45
tp1295
sg5
I200
sg6
(I206
I139
I126
I84
tp1296
sg8
(lp1297
(I199
I90
tp1298
a(I165
I70
tp1299
a(I161
I69
tp1300
a(I183
I12
tp1301
a(I128
I0
tp1302
a(I175
I87
tp1303
a(I158
I84
tp1304
a(I187
I0
tp1305
a(I192
I43
tp1306
a(I189
I0
tp1307
a(I130
I0
tp1308
a(I195
I19
tp1309
a(I199
I27
tp1310
asg26
I200
sba(imain2
Polygon
p1311
(dp1312
g3
(I29
I98
tp1313
sg5
I200
sg6
(I6
I134
I169
I35
tp1314
sg8
(lp1315
(I0
I145
tp1316
a(I62
I70
tp1317
a(I0
I73
tp1318
a(I0
I142
tp1319
a(I32
I77
tp1320
a(I67
I79
tp1321
a(I60
I84
tp1322
a(I0
I135
tp1323
a(I28
I90
tp1324
a(I56
I50
tp1325
a(I3
I123
tp1326
asg26
I200
sba(imain2
Polygon
p1327
(dp1328
g3
(I90
I62
tp1329
sg5
I200
sg6
(I176
I117
I130
I1
tp1330
sg8
(lp1331
(I85
I91
tp1332
a(I61
I49
tp1333
a(I54
I78
tp1334
a(I100
I106
tp1335
a(I119
I28
tp1336
a(I87
I21
tp1337
asg26
I200
sba(imain2
Polygon
p1338
(dp1339
g3
(I63
I49
tp1340
sg5
I200
sg6
(I219
I250
I133
I1
tp1341
sg8
(lp1342
(I75
I83
tp1343
a(I30
I15
tp1344
a(I53
I1
tp1345
a(I14
I3
tp1346
a(I93
I64
tp1347
a(I85
I25
tp1348
a(I69
I24
tp1349
a(I99
I65
tp1350
a(I94
I60
tp1351
a(I24
I58
tp1352
a(I97
I41
tp1353
asg26
I200
sba(imain2
Polygon
p1354
(dp1355
g3
(I31
I132
tp1356
sg5
I200
sg6
(I73
I118
I196
I14
tp1357
sg8
(lp1358
(I8
I160
tp1359
a(I35
I167
tp1360
a(I5
I181
tp1361
a(I0
I120
tp1362
a(I53
I134
tp1363
a(I10
I143
tp1364
a(I31
I164
tp1365
a(I9
I172
tp1366
a(I0
I125
tp1367
a(I0
I146
tp1368
a(I14
I172
tp1369
a(I49
I135
tp1370
a(I73
I127
tp1371
a(I37
I163
tp1372
a(I19
I109
tp1373
asg26
I200
sba(imain2
Polygon
p1374
(dp1375
g3
(I80
I158
tp1376
sg5
I200
sg6
(I24
I43
I59
I1
tp1377
sg8
(lp1378
(I62
I145
tp1379
a(I114
I200
tp1380
a(I55
I186
tp1381
a(I94
I151
tp1382
a(I69
I136
tp1383
a(I105
I129
tp1384
a(I74
I194
tp1385
a(I65
I200
tp1386
a(I111
I109
tp1387
a(I67
I151
tp1388
a(I124
I119
tp1389
a(I102
I143
tp1390
a(I116
I180
tp1391
a(I37
I162
tp1392
a(I128
I170
tp1393
a(I82
I200
tp1394
a(I117
I168
tp1395
a(I120
I184
tp1396
a(I85
I183
tp1397
asg26
I200
sba(imain2
Polygon
p1398
(dp1399
g3
(I168
I51
tp1400
sg5
I200
sg6
(I98
I203
I209
I0
tp1401
sg8
(lp1402
(I123
I53
tp1403
a(I174
I19
tp1404
a(I200
I37
tp1405
a(I195
I54
tp1406
a(I119
I61
tp1407
a(I141
I16
tp1408
asg26
I200
sba(imain2
Polygon
p1409
(dp1410
g3
(I110
I14
tp1411
sg5
I200
sg6
(I156
I137
I49
I147
tp1412
sg8
(lp1413
(I118
I49
tp1414
a(I72
I59
tp1415
a(I101
I0
tp1416
a(I156
I0
tp1417
a(I158
I0
tp1418
a(I157
I28
tp1419
a(I144
I28
tp1420
a(I61
I0
tp1421
a(I67
I58
tp1422
a(I105
I0
tp1423
a(I140
I0
tp1424
a(I61
I0
tp1425
a(I77
I25
tp1426
asg26
I200
sba(imain2
Polygon
p1427
(dp1428
g3
(I85
I94
tp1429
sg5
I200
sg6
(I202
I232
I84
I64
tp1430
sg8
(lp1431
(I43
I56
tp1432
a(I110
I104
tp1433
a(I62
I48
tp1434
a(I105
I45
tp1435
a(I125
I73
tp1436
a(I92
I95
tp1437
a(I79
I138
tp1438
a(I109
I144
tp1439
a(I124
I111
tp1440
a(I62
I45
tp1441
a(I45
I66
tp1442
a(I55
I129
tp1443
a(I107
I102
tp1444
asg26
I200
sba(imain2
Polygon
p1445
(dp1446
g3
(I153
I81
tp1447
sg5
I200
sg6
(I121
I86
I189
I0
tp1448
sg8
(lp1449
(I165
I41
tp1450
a(I121
I118
tp1451
a(I150
I46
tp1452
a(I188
I103
tp1453
a(I163
I70
tp1454
a(I188
I127
tp1455
asg26
I200
sba(imain2
Polygon
p1456
(dp1457
g3
(I146
I37
tp1458
sg5
I200
sg6
(I227
I83
I157
I1
tp1459
sg8
(lp1460
(I166
I5
tp1461
a(I140
I78
tp1462
a(I105
I42
tp1463
a(I147
I30
tp1464
a(I170
I57
tp1465
a(I101
I19
tp1466
a(I126
I50
tp1467
asg26
I200
sba(imain2
Polygon
p1468
(dp1469
g3
(I36
I71
tp1470
sg5
I200
sg6
(I178
I120
I134
I1
tp1471
sg8
(lp1472
(I67
I92
tp1473
a(I15
I104
tp1474
a(I71
I32
tp1475
a(I14
I70
tp1476
a(I48
I38
tp1477
a(I0
I51
tp1478
a(I13
I40
tp1479
a(I50
I114
tp1480
a(I29
I32
tp1481
a(I61
I117
tp1482
a(I10
I121
tp1483
asg26
I200
sba(imain2
Polygon
p1484
(dp1485
g3
(I36
I181
tp1486
sg5
I200
sg6
(I143
I212
I96
I77
tp1487
sg8
(lp1488
(I78
I149
tp1489
a(I48
I150
tp1490
a(I81
I147
tp1491
a(I71
I200
tp1492
a(I13
I140
tp1493
a(I43
I172
tp1494
a(I0
I200
tp1495
a(I0
I149
tp1496
a(I66
I188
tp1497
a(I68
I200
tp1498
a(I71
I200
tp1499
asg26
I200
sba(imain2
Polygon
p1500
(dp1501
g3
(I94
I181
tp1502
sg5
I200
sg6
(I112
I48
I36
I1
tp1503
sg8
(lp1504
(I110
I200
tp1505
a(I73
I197
tp1506
a(I108
I160
tp1507
a(I119
I171
tp1508
a(I133
I167
tp1509
a(I44
I131
tp1510
a(I112
I200
tp1511
a(I122
I170
tp1512
asg26
I200
sba(imain2
Polygon
p1513
(dp1514
g3
(I4
I26
tp1515
sg5
I200
sg6
(I28
I104
I59
I43
tp1516
sg8
(lp1517
(I25
I0
tp1518
a(I25
I0
tp1519
a(I1
I19
tp1520
a(I0
I38
tp1521
a(I0
I38
tp1522
a(I9
I3
tp1523
a(I54
I51
tp1524
a(I32
I59
tp1525
a(I0
I27
tp1526
a(I36
I14
tp1527
a(I0
I76
tp1528
a(I0
I0
tp1529
a(I4
I45
tp1530
a(I0
I38
tp1531
a(I36
I0
tp1532
asg26
I200
sba(imain2
Polygon
p1533
(dp1534
g3
(I14
I45
tp1535
sg5
I200
sg6
(I146
I107
I1
I1
tp1536
sg8
(lp1537
(I0
I56
tp1538
a(I57
I11
tp1539
a(I0
I69
tp1540
a(I26
I76
tp1541
a(I0
I21
tp1542
a(I21
I81
tp1543
a(I8
I81
tp1544
a(I0
I21
tp1545
a(I0
I73
tp1546
asg26
I200
sba(imain2
Polygon
p1547
(dp1548
g3
(I103
I69
tp1549
sg5
I200
sg6
(I231
I218
I1
I41
tp1550
sg8
(lp1551
(I55
I36
tp1552
a(I53
I116
tp1553
a(I125
I109
tp1554
a(I135
I89
tp1555
a(I85
I19
tp1556
asg26
I200
sba(imain2
Polygon
p1557
(dp1558
g3
(I61
I77
tp1559
sg5
I200
sg6
(I60
I121
I190
I128
tp1560
sg8
(lp1561
(I106
I108
tp1562
a(I88
I94
tp1563
a(I89
I87
tp1564
asg26
I200
sba(imain2
Polygon
p1565
(dp1566
g3
(I36
I98
tp1567
sg5
I200
sg6
(I0
I199
I73
I42
tp1568
sg8
(lp1569
(I28
I97
tp1570
a(I4
I90
tp1571
a(I0
I121
tp1572
a(I0
I53
tp1573
a(I80
I75
tp1574
a(I30
I53
tp1575
a(I0
I53
tp1576
a(I18
I50
tp1577
a(I42
I52
tp1578
a(I19
I124
tp1579
asg26
I200
sba(imain2
Polygon
p1580
(dp1581
g3
(I20
I133
tp1582
sg5
I200
sg6
(I198
I238
I132
I81
tp1583
sg8
(lp1584
(I30
I179
tp1585
a(I0
I181
tp1586
a(I0
I175
tp1587
a(I21
I139
tp1588
a(I28
I170
tp1589
asg26
I200
sba(imain2
Polygon
p1590
(dp1591
g3
(I178
I74
tp1592
sg5
I200
sg6
(I31
I119
I26
I0
tp1593
sg8
(lp1594
(I182
I58
tp1595
a(I134
I93
tp1596
a(I200
I57
tp1597
a(I161
I83
tp1598
a(I176
I104
tp1599
a(I176
I34
tp1600
a(I200
I79
tp1601
a(I140
I63
tp1602
asg26
I200
sba(imain2
Polygon
p1603
(dp1604
g3
(I191
I151
tp1605
sg5
I200
sg6
(I238
I39
I75
I64
tp1606
sg8
(lp1607
(I190
I106
tp1608
a(I200
I171
tp1609
a(I200
I189
tp1610
asg26
I200
sba(imain2
Polygon
p1611
(dp1612
g3
(I81
I200
tp1613
sg5
I200
sg6
(I41
I59
I159
I33
tp1614
sg8
(lp1615
(I63
I200
tp1616
a(I33
I187
tp1617
a(I38
I191
tp1618
a(I59
I200
tp1619
a(I46
I200
tp1620
a(I69
I176
tp1621
a(I46
I200
tp1622
a(I62
I200
tp1623
a(I32
I200
tp1624
asg26
I200
sba(imain2
Polygon
p1625
(dp1626
g3
(I8
I200
tp1627
sg5
I200
sg6
(I236
I14
I66
I137
tp1628
sg8
(lp1629
(I0
I200
tp1630
a(I0
I200
tp1631
a(I41
I200
tp1632
a(I52
I200
tp1633
a(I23
I200
tp1634
a(I0
I200
tp1635
a(I0
I200
tp1636
a(I0
I200
tp1637
a(I0
I200
tp1638
asg26
I200
sba(imain2
Polygon
p1639
(dp1640
g3
(I12
I187
tp1641
sg5
I200
sg6
(I224
I0
I178
I1
tp1642
sg8
(lp1643
(I46
I200
tp1644
a(I0
I167
tp1645
a(I22
I200
tp1646
a(I0
I174
tp1647
a(I0
I174
tp1648
a(I0
I200
tp1649
a(I0
I190
tp1650
a(I0
I160
tp1651
a(I25
I200
tp1652
a(I0
I198
tp1653
a(I20
I145
tp1654
a(I16
I198
tp1655
asg26
I200
sba(imain2
Polygon
p1656
(dp1657
g3
(I142
I43
tp1658
sg5
I200
sg6
(I50
I77
I163
I7
tp1659
sg8
(lp1660
(I129
I23
tp1661
a(I149
I90
tp1662
a(I148
I68
tp1663
a(I159
I5
tp1664
a(I118
I49
tp1665
a(I136
I59
tp1666
a(I106
I13
tp1667
a(I123
I43
tp1668
a(I150
I57
tp1669
a(I122
I35
tp1670
a(I124
I30
tp1671
a(I138
I19
tp1672
a(I122
I27
tp1673
a(I121
I37
tp1674
asg26
I200
sba(imain2
Polygon
p1675
(dp1676
g3
(I89
I37
tp1677
sg5
I200
sg6
(I0
I103
I197
I79
tp1678
sg8
(lp1679
(I104
I35
tp1680
a(I54
I51
tp1681
a(I55
I50
tp1682
asg26
I200
sba(imain2
Polygon
p1683
(dp1684
g3
(I43
I51
tp1685
sg5
I200
sg6
(I36
I141
I122
I0
tp1686
sg8
(lp1687
(I15
I67
tp1688
a(I36
I91
tp1689
a(I91
I92
tp1690
a(I54
I93
tp1691
a(I39
I44
tp1692
a(I47
I38
tp1693
a(I86
I5
tp1694
a(I62
I59
tp1695
a(I37
I59
tp1696
a(I76
I99
tp1697
a(I47
I50
tp1698
a(I2
I88
tp1699
a(I39
I83
tp1700
a(I88
I11
tp1701
a(I79
I30
tp1702
a(I25
I83
tp1703
a(I12
I42
tp1704
a(I15
I62
tp1705
asg26
I200
sba(imain2
Polygon
p1706
(dp1707
g3
(I23
I143
tp1708
sg5
I200
sg6
(I73
I246
I171
I45
tp1709
sg8
(lp1710
(I27
I98
tp1711
a(I0
I130
tp1712
a(I0
I188
tp1713
a(I29
I191
tp1714
a(I34
I148
tp1715
a(I0
I157
tp1716
a(I0
I133
tp1717
asg26
I200
sba(imain2
Polygon
p1718
(dp1719
g3
(I32
I143
tp1720
sg5
I200
sg6
(I52
I69
I161
I0
tp1721
sg8
(lp1722
(I61
I156
tp1723
a(I32
I159
tp1724
a(I64
I175
tp1725
a(I61
I117
tp1726
a(I0
I105
tp1727
a(I81
I115
tp1728
a(I71
I116
tp1729
a(I68
I151
tp1730
a(I55
I190
tp1731
a(I63
I118
tp1732
a(I41
I99
tp1733
a(I39
I147
tp1734
a(I55
I193
tp1735
a(I69
I169
tp1736
a(I53
I187
tp1737
a(I63
I145
tp1738
a(I64
I151
tp1739
asg26
I200
sba(imain2
Polygon
p1740
(dp1741
g3
(I69
I107
tp1742
sg5
I200
sg6
(I158
I229
I0
I14
tp1743
sg8
(lp1744
(I92
I73
tp1745
a(I40
I61
tp1746
a(I48
I101
tp1747
a(I58
I92
tp1748
a(I103
I75
tp1749
a(I57
I154
tp1750
a(I49
I120
tp1751
a(I19
I90
tp1752
a(I93
I154
tp1753
a(I47
I112
tp1754
a(I69
I96
tp1755
a(I113
I129
tp1756
a(I73
I153
tp1757
asg26
I200
sba(imain2
Polygon
p1758
(dp1759
g3
(I172
I111
tp1760
sg5
I200
sg6
(I237
I213
I84
I124
tp1761
sg8
(lp1762
(I162
I84
tp1763
a(I200
I88
tp1764
a(I177
I85
tp1765
asg26
I200
sba(imain2
Polygon
p1766
(dp1767
g3
(I150
I91
tp1768
sg5
I200
sg6
(I8
I241
I86
I43
tp1769
sg8
(lp1770
(I174
I136
tp1771
a(I165
I85
tp1772
a(I174
I90
tp1773
a(I192
I141
tp1774
asg26
I200
sba(imain2
Polygon
p1775
(dp1776
g3
(I135
I188
tp1777
sg5
I200
sg6
(I77
I227
I6
I0
tp1778
sg8
(lp1779
(I161
I187
tp1780
a(I119
I200
tp1781
a(I94
I154
tp1782
a(I127
I200
tp1783
a(I141
I192
tp1784
a(I102
I176
tp1785
a(I87
I200
tp1786
a(I174
I200
tp1787
a(I174
I151
tp1788
asg26
I200
sba(imain2
Polygon
p1789
(dp1790
g3
(I127
I113
tp1791
sg5
I200
sg6
(I133
I210
I151
I7
tp1792
sg8
(lp1793
(I116
I100
tp1794
a(I127
I78
tp1795
a(I164
I110
tp1796
a(I146
I135
tp1797
a(I111
I130
tp1798
asg26
I200
sba(imain2
Polygon
p1799
(dp1800
g3
(I173
I20
tp1801
sg5
I200
sg6
(I231
I0
I218
I1
tp1802
sg8
(lp1803
(I147
I47
tp1804
a(I198
I62
tp1805
a(I171
I46
tp1806
a(I200
I0
tp1807
a(I159
I22
tp1808
a(I126
I0
tp1809
a(I137
I18
tp1810
a(I152
I0
tp1811
a(I189
I36
tp1812
a(I123
I0
tp1813
a(I200
I0
tp1814
a(I174
I41
tp1815
a(I163
I0
tp1816
a(I173
I0
tp1817
a(I186
I12
tp1818
a(I200
I35
tp1819
asg26
I200
sba(imain2
Polygon
p1820
(dp1821
g3
(I100
I197
tp1822
sg5
I200
sg6
(I33
I102
I176
I66
tp1823
sg8
(lp1824
(I99
I200
tp1825
a(I118
I200
tp1826
a(I147
I200
tp1827
a(I104
I151
tp1828
a(I135
I187
tp1829
a(I106
I200
tp1830
a(I92
I200
tp1831
a(I135
I200
tp1832
a(I85
I200
tp1833
a(I133
I200
tp1834
a(I139
I200
tp1835
a(I55
I200
tp1836
a(I121
I200
tp1837
asg26
I200
sba(imain2
Polygon
p1838
(dp1839
g3
(I70
I0
tp1840
sg5
I200
sg6
(I136
I0
I195
I0
tp1841
sg8
(lp1842
(I62
I0
tp1843
a(I115
I27
tp1844
a(I33
I15
tp1845
a(I90
I0
tp1846
a(I107
I0
tp1847
a(I44
I0
tp1848
a(I34
I24
tp1849
a(I63
I0
tp1850
asg26
I200
sba(imain2
Polygon
p1851
(dp1852
g3
(I106
I152
tp1853
sg5
I200
sg6
(I99
I162
I62
I66
tp1854
sg8
(lp1855
(I133
I114
tp1856
a(I119
I166
tp1857
a(I59
I200
tp1858
a(I140
I199
tp1859
a(I115
I114
tp1860
a(I85
I153
tp1861
a(I124
I140
tp1862
a(I138
I185
tp1863
a(I122
I150
tp1864
a(I68
I141
tp1865
a(I112
I141
tp1866
asg26
I200
sba(imain2
Polygon
p1867
(dp1868
g3
(I11
I38
tp1869
sg5
I200
sg6
(I111
I0
I124
I4
tp1870
sg8
(lp1871
(I11
I45
tp1872
a(I0
I37
tp1873
a(I35
I52
tp1874
a(I0
I12
tp1875
a(I8
I17
tp1876
a(I0
I79
tp1877
a(I52
I31
tp1878
a(I3
I4
tp1879
a(I13
I62
tp1880
a(I53
I84
tp1881
a(I0
I54
tp1882
asg26
I200
sba(imain2
Polygon
p1883
(dp1884
g3
(I23
I68
tp1885
sg5
I200
sg6
(I217
I111
I189
I123
tp1886
sg8
(lp1887
(I35
I109
tp1888
a(I24
I85
tp1889
a(I54
I19
tp1890
a(I25
I33
tp1891
a(I35
I32
tp1892
a(I64
I43
tp1893
a(I0
I19
tp1894
a(I0
I111
tp1895
a(I7
I98
tp1896
a(I38
I112
tp1897
a(I4
I66
tp1898
asg26
I200
sba(imain2
Polygon
p1899
(dp1900
g3
(I73
I8
tp1901
sg5
I200
sg6
(I107
I163
I20
I133
tp1902
sg8
(lp1903
(I33
I0
tp1904
a(I113
I0
tp1905
a(I27
I56
tp1906
a(I23
I45
tp1907
a(I27
I13
tp1908
a(I32
I0
tp1909
a(I39
I6
tp1910
a(I49
I29
tp1911
a(I58
I40
tp1912
asg26
I200
sba(imain2
Polygon
p1913
(dp1914
g3
(I175
I187
tp1915
sg5
I200
sg6
(I118
I193
I198
I55
tp1916
sg8
(lp1917
(I186
I200
tp1918
a(I170
I200
tp1919
a(I146
I200
tp1920
asg26
I200
sba(imain2
Polygon
p1921
(dp1922
g3
(I153
I195
tp1923
sg5
I200
sg6
(I54
I166
I29
I0
tp1924
sg8
(lp1925
(I179
I189
tp1926
a(I164
I149
tp1927
a(I123
I200
tp1928
a(I129
I157
tp1929
a(I158
I200
tp1930
a(I192
I184
tp1931
a(I181
I160
tp1932
a(I125
I147
tp1933
a(I153
I187
tp1934
asg26
I200
sba(imain2
Polygon
p1935
(dp1936
g3
(I199
I6
tp1937
sg5
I200
sg6
(I144
I40
I87
I1
tp1938
sg8
(lp1939
(I156
I21
tp1940
a(I200
I0
tp1941
a(I200
I0
tp1942
a(I149
I0
tp1943
a(I200
I20
tp1944
a(I200
I0
tp1945
a(I200
I0
tp1946
a(I200
I0
tp1947
asg26
I200
sba(imain2
Polygon
p1948
(dp1949
g3
(I46
I191
tp1950
sg5
I200
sg6
(I91
I15
I8
I115
tp1951
sg8
(lp1952
(I69
I200
tp1953
a(I73
I200
tp1954
a(I94
I165
tp1955
a(I0
I200
tp1956
a(I0
I146
tp1957
a(I27
I155
tp1958
a(I79
I193
tp1959
a(I34
I181
tp1960
a(I35
I167
tp1961
asg26
I200
sba(imain2
Polygon
p1962
(dp1963
g3
(I144
I179
tp1964
sg5
I200
sg6
(I125
I32
I190
I41
tp1965
sg8
(lp1966
(I150
I154
tp1967
a(I161
I152
tp1968
a(I115
I194
tp1969
a(I130
I191
tp1970
a(I102
I180
tp1971
a(I191
I200
tp1972
a(I106
I200
tp1973
a(I113
I200
tp1974
a(I133
I183
tp1975
a(I99
I183
tp1976
a(I164
I155
tp1977
a(I148
I156
tp1978
a(I120
I177
tp1979
a(I154
I153
tp1980
a(I168
I199
tp1981
a(I168
I200
tp1982
asg26
I200
sba(imain2
Polygon
p1983
(dp1984
g3
(I120
I46
tp1985
sg5
I200
sg6
(I83
I82
I101
I53
tp1986
sg8
(lp1987
(I118
I65
tp1988
a(I133
I48
tp1989
a(I126
I24
tp1990
a(I97
I17
tp1991
a(I132
I30
tp1992
a(I113
I91
tp1993
a(I132
I24
tp1994
asg26
I200
sba(imain2
Polygon
p1995
(dp1996
g3
(I100
I144
tp1997
sg5
I200
sg6
(I123
I183
I166
I118
tp1998
sg8
(lp1999
(I112
I95
tp2000
a(I104
I138
tp2001
a(I98
I126
tp2002
a(I74
I100
tp2003
a(I73
I147
tp2004
a(I83
I152
tp2005
a(I125
I151
tp2006
a(I68
I158
tp2007
a(I56
I110
tp2008
a(I69
I97
tp2009
asg26
I200
sba(imain2
Polygon
p2010
(dp2011
g3
(I151
I184
tp2012
sg5
I200
sg6
(I139
I0
I175
I1
tp2013
sg8
(lp2014
(I141
I163
tp2015
a(I169
I169
tp2016
a(I122
I200
tp2017
a(I133
I135
tp2018
asg26
I200
sba(imain2
Polygon
p2019
(dp2020
g3
(I124
I187
tp2021
sg5
I200
sg6
(I25
I27
I211
I0
tp2022
sg8
(lp2023
(I154
I200
tp2024
a(I164
I200
tp2025
a(I90
I200
tp2026
a(I140
I200
tp2027
a(I119
I200
tp2028
a(I80
I200
tp2029
a(I143
I154
tp2030
a(I133
I200
tp2031
asg26
I200
sba(imain2
Polygon
p2032
(dp2033
g3
(I48
I52
tp2034
sg5
I200
sg6
(I247
I132
I160
I141
tp2035
sg8
(lp2036
(I58
I94
tp2037
a(I79
I94
tp2038
a(I97
I60
tp2039
a(I67
I7
tp2040
a(I35
I65
tp2041
a(I31
I93
tp2042
a(I88
I8
tp2043
a(I0
I3
tp2044
a(I0
I82
tp2045
a(I2
I102
tp2046
a(I65
I76
tp2047
a(I18
I85
tp2048
a(I75
I83
tp2049
asg26
I200
sba(imain2
Polygon
p2050
(dp2051
g3
(I139
I74
tp2052
sg5
I200
sg6
(I151
I190
I237
I87
tp2053
sg8
(lp2054
(I174
I48
tp2055
a(I189
I47
tp2056
a(I185
I26
tp2057
a(I157
I30
tp2058
a(I169
I88
tp2059
a(I187
I48
tp2060
asg26
I200
sba(imain2
Polygon
p2061
(dp2062
g3
(I161
I83
tp2063
sg5
I200
sg6
(I202
I148
I103
I30
tp2064
sg8
(lp2065
(I114
I113
tp2066
a(I114
I49
tp2067
a(I178
I77
tp2068
a(I155
I98
tp2069
a(I177
I113
tp2070
a(I199
I106
tp2071
a(I200
I106
tp2072
a(I200
I49
tp2073
a(I140
I35
tp2074
a(I197
I72
tp2075
a(I199
I71
tp2076
a(I145
I53
tp2077
a(I124
I126
tp2078
asg26
I200
sba(imain2
Polygon
p2079
(dp2080
g3
(I88
I36
tp2081
sg5
I200
sg6
(I1
I30
I71
I112
tp2082
sg8
(lp2083
(I80
I10
tp2084
a(I49
I39
tp2085
a(I102
I37
tp2086
a(I120
I27
tp2087
a(I125
I14
tp2088
a(I135
I16
tp2089
a(I71
I9
tp2090
a(I83
I9
tp2091
a(I58
I13
tp2092
asg26
I200
sba(imain2
Polygon
p2093
(dp2094
g3
(I12
I36
tp2095
sg5
I200
sg6
(I168
I102
I213
I1
tp2096
sg8
(lp2097
(I6
I61
tp2098
a(I31
I82
tp2099
a(I0
I69
tp2100
a(I50
I5
tp2101
a(I0
I79
tp2102
a(I0
I34
tp2103
asg26
I200
sba(imain2
Polygon
p2104
(dp2105
g3
(I79
I176
tp2106
sg5
I200
sg6
(I199
I84
I170
I102
tp2107
sg8
(lp2108
(I129
I200
tp2109
a(I119
I162
tp2110
a(I69
I200
tp2111
a(I128
I200
tp2112
a(I113
I200
tp2113
asg26
I200
sba(imain2
Polygon
p2114
(dp2115
g3
(I159
I193
tp2116
sg5
I200
sg6
(I189
I173
I62
I1
tp2117
sg8
(lp2118
(I118
I200
tp2119
a(I136
I181
tp2120
a(I179
I191
tp2121
a(I149
I200
tp2122
a(I111
I200
tp2123
a(I200
I196
tp2124
a(I192
I188
tp2125
a(I121
I171
tp2126
a(I129
I169
tp2127
a(I129
I200
tp2128
a(I176
I178
tp2129
a(I110
I181
tp2130
asg26
I200
sba(imain2
Polygon
p2131
(dp2132
g3
(I52
I197
tp2133
sg5
I200
sg6
(I164
I147
I228
I0
tp2134
sg8
(lp2135
(I34
I200
tp2136
a(I60
I200
tp2137
a(I29
I200
tp2138
a(I49
I200
tp2139
a(I14
I199
tp2140
a(I22
I181
tp2141
a(I16
I153
tp2142
a(I46
I170
tp2143
asg26
I200
sba(imain2
Polygon
p2144
(dp2145
g3
(I96
I168
tp2146
sg5
I200
sg6
(I81
I155
I164
I0
tp2147
sg8
(lp2148
(I105
I151
tp2149
a(I128
I200
tp2150
a(I56
I193
tp2151
a(I123
I200
tp2152
a(I132
I153
tp2153
a(I116
I141
tp2154
a(I145
I191
tp2155
asg26
I200
sba(imain2
Polygon
p2156
(dp2157
g3
(I148
I67
tp2158
sg5
I200
sg6
(I211
I29
I21
I0
tp2159
sg8
(lp2160
(I141
I85
tp2161
a(I162
I93
tp2162
a(I120
I55
tp2163
a(I178
I51
tp2164
a(I98
I103
tp2165
a(I105
I34
tp2166
a(I106
I68
tp2167
a(I165
I74
tp2168
a(I102
I67
tp2169
a(I100
I97
tp2170
a(I106
I33
tp2171
a(I191
I88
tp2172
a(I159
I41
tp2173
a(I198
I101
tp2174
asg26
I200
sba(imain2
Polygon
p2175
(dp2176
g3
(I185
I29
tp2177
sg5
I200
sg6
(I139
I164
I77
I82
tp2178
sg8
(lp2179
(I136
I0
tp2180
a(I199
I0
tp2181
a(I200
I25
tp2182
a(I174
I43
tp2183
a(I138
I31
tp2184
asg26
I200
sba(imain2
Polygon
p2185
(dp2186
g3
(I77
I185
tp2187
sg5
I200
sg6
(I28
I24
I96
I97
tp2188
sg8
(lp2189
(I77
I165
tp2190
a(I63
I154
tp2191
a(I110
I156
tp2192
a(I124
I169
tp2193
a(I40
I180
tp2194
a(I42
I200
tp2195
a(I35
I180
tp2196
a(I81
I200
tp2197
a(I64
I192
tp2198
a(I49
I200
tp2199
a(I102
I143
tp2200
asg26
I200
sba(imain2
Polygon
p2201
(dp2202
g3
(I183
I173
tp2203
sg5
I200
sg6
(I108
I215
I88
I47
tp2204
sg8
(lp2205
(I200
I200
tp2206
a(I175
I200
tp2207
a(I200
I200
tp2208
a(I200
I125
tp2209
a(I137
I200
tp2210
asg26
I200
sba(imain2
Polygon
p2211
(dp2212
g3
(I141
I78
tp2213
sg5
I200
sg6
(I231
I87
I165
I1
tp2214
sg8
(lp2215
(I99
I101
tp2216
a(I182
I64
tp2217
a(I94
I70
tp2218
a(I162
I119
tp2219
a(I156
I78
tp2220
a(I120
I98
tp2221
a(I177
I35
tp2222
asg26
I200
sba(imain2
Polygon
p2223
(dp2224
g3
(I8
I10
tp2225
sg5
I200
sg6
(I62
I43
I73
I102
tp2226
sg8
(lp2227
(I33
I4
tp2228
a(I0
I0
tp2229
a(I30
I6
tp2230
a(I32
I6
tp2231
a(I0
I0
tp2232
a(I30
I0
tp2233
asg26
I200
sba(imain2
Polygon
p2234
(dp2235
g3
(I37
I13
tp2236
sg5
I200
sg6
(I0
I115
I18
I121
tp2237
sg8
(lp2238
(I36
I0
tp2239
a(I16
I0
tp2240
a(I2
I0
tp2241
a(I19
I8
tp2242
a(I47
I4
tp2243
a(I47
I12
tp2244
a(I37
I0
tp2245
a(I53
I0
tp2246
a(I28
I0
tp2247
a(I38
I0
tp2248
a(I23
I13
tp2249
a(I41
I0
tp2250
asg26
I200
sba(imain2
Polygon
p2251
(dp2252
g3
(I168
I175
tp2253
sg5
I200
sg6
(I97
I55
I24
I1
tp2254
sg8
(lp2255
(I152
I200
tp2256
a(I120
I181
tp2257
a(I146
I200
tp2258
a(I200
I187
tp2259
a(I200
I200
tp2260
a(I200
I169
tp2261
a(I118
I182
tp2262
a(I158
I174
tp2263
a(I200
I200
tp2264
a(I122
I174
tp2265
asg26
I200
sba(imain2
Polygon
p2266
(dp2267
g3
(I75
I83
tp2268
sg5
I200
sg6
(I27
I33
I20
I0
tp2269
sg8
(lp2270
(I114
I59
tp2271
a(I50
I113
tp2272
a(I118
I51
tp2273
a(I37
I102
tp2274
a(I36
I53
tp2275
a(I51
I69
tp2276
a(I28
I131
tp2277
a(I93
I78
tp2278
a(I111
I44
tp2279
a(I115
I36
tp2280
a(I101
I82
tp2281
a(I71
I42
tp2282
a(I47
I59
tp2283
a(I39
I98
tp2284
asg26
I200
sba(imain2
Polygon
p2285
(dp2286
g3
(I18
I79
tp2287
sg5
I200
sg6
(I81
I1
I175
I110
tp2288
sg8
(lp2289
(I36
I125
tp2290
a(I51
I115
tp2291
a(I18
I107
tp2292
a(I43
I101
tp2293
a(I25
I110
tp2294
a(I12
I123
tp2295
a(I0
I103
tp2296
a(I0
I117
tp2297
a(I39
I119
tp2298
asg26
I200
sba(imain2
Polygon
p2299
(dp2300
g3
(I27
I28
tp2301
sg5
I200
sg6
(I221
I145
I39
I1
tp2302
sg8
(lp2303
(I68
I12
tp2304
a(I24
I0
tp2305
a(I19
I0
tp2306
a(I42
I0
tp2307
a(I71
I0
tp2308
a(I65
I38
tp2309
a(I19
I2
tp2310
a(I9
I62
tp2311
a(I0
I42
tp2312
a(I0
I23
tp2313
a(I49
I6
tp2314
a(I68
I73
tp2315
a(I16
I59
tp2316
a(I23
I0
tp2317
asg26
I200
sba(imain2
Polygon
p2318
(dp2319
g3
(I85
I60
tp2320
sg5
I200
sg6
(I84
I114
I12
I107
tp2321
sg8
(lp2322
(I115
I60
tp2323
a(I134
I87
tp2324
a(I55
I107
tp2325
a(I36
I62
tp2326
a(I72
I90
tp2327
a(I131
I73
tp2328
a(I117
I52
tp2329
a(I123
I32
tp2330
a(I108
I57
tp2331
asg26
I200
sba(imain2
Polygon
p2332
(dp2333
g3
(I45
I110
tp2334
sg5
I200
sg6
(I42
I241
I179
I52
tp2335
sg8
(lp2336
(I68
I158
tp2337
a(I45
I112
tp2338
a(I72
I109
tp2339
asg26
I200
sba(imain2
Polygon
p2340
(dp2341
g3
(I54
I138
tp2342
sg5
I200
sg6
(I117
I64
I186
I0
tp2343
sg8
(lp2344
(I99
I90
tp2345
a(I21
I111
tp2346
a(I4
I182
tp2347
a(I27
I135
tp2348
a(I95
I108
tp2349
a(I14
I186
tp2350
a(I72
I137
tp2351
a(I84
I118
tp2352
asg26
I200
sba(imain2
Polygon
p2353
(dp2354
g3
(I162
I123
tp2355
sg5
I200
sg6
(I46
I59
I71
I15
tp2356
sg8
(lp2357
(I175
I164
tp2358
a(I131
I118
tp2359
a(I200
I137
tp2360
a(I200
I144
tp2361
a(I125
I137
tp2362
a(I200
I106
tp2363
a(I180
I124
tp2364
a(I188
I77
tp2365
a(I123
I93
tp2366
a(I154
I146
tp2367
a(I153
I87
tp2368
a(I124
I157
tp2369
a(I147
I147
tp2370
a(I156
I80
tp2371
a(I161
I109
tp2372
a(I196
I165
tp2373
a(I177
I99
tp2374
a(I200
I97
tp2375
a(I125
I109
tp2376
asg26
I200
sba(imain2
Polygon
p2377
(dp2378
g3
(I144
I70
tp2379
sg5
I200
sg6
(I193
I40
I118
I36
tp2380
sg8
(lp2381
(I170
I95
tp2382
a(I169
I95
tp2383
a(I149
I71
tp2384
asg26
I200
sba(imain2
Polygon
p2385
(dp2386
g3
(I11
I36
tp2387
sg5
I200
sg6
(I145
I32
I78
I29
tp2388
sg8
(lp2389
(I0
I24
tp2390
a(I0
I45
tp2391
a(I0
I0
tp2392
a(I0
I0
tp2393
a(I0
I57
tp2394
a(I0
I31
tp2395
a(I0
I0
tp2396
a(I0
I35
tp2397
a(I1
I41
tp2398
asg26
I200
sba(imain2
Polygon
p2399
(dp2400
g3
(I85
I175
tp2401
sg5
I200
sg6
(I240
I52
I44
I1
tp2402
sg8
(lp2403
(I60
I200
tp2404
a(I42
I169
tp2405
a(I112
I137
tp2406
a(I100
I133
tp2407
a(I108
I186
tp2408
a(I42
I200
tp2409
a(I66
I189
tp2410
a(I114
I192
tp2411
a(I100
I188
tp2412
a(I38
I152
tp2413
a(I73
I175
tp2414
a(I61
I131
tp2415
a(I89
I176
tp2416
a(I80
I162
tp2417
a(I116
I200
tp2418
asg26
I200
sba(imain2
Polygon
p2419
(dp2420
g3
(I78
I22
tp2421
sg5
I200
sg6
(I0
I239
I66
I0
tp2422
sg8
(lp2423
(I80
I54
tp2424
a(I47
I0
tp2425
a(I28
I18
tp2426
a(I112
I49
tp2427
a(I107
I0
tp2428
a(I80
I0
tp2429
a(I127
I21
tp2430
a(I88
I0
tp2431
a(I97
I0
tp2432
asg26
I200
sba(imain2
Polygon
p2433
(dp2434
g3
(I58
I165
tp2435
sg5
I200
sg6
(I74
I1
I134
I92
tp2436
sg8
(lp2437
(I40
I160
tp2438
a(I10
I120
tp2439
a(I46
I164
tp2440
a(I43
I143
tp2441
asg26
I200
sba(imain2
Polygon
p2442
(dp2443
g3
(I98
I69
tp2444
sg5
I200
sg6
(I73
I213
I127
I36
tp2445
sg8
(lp2446
(I111
I113
tp2447
a(I126
I99
tp2448
a(I78
I90
tp2449
asg26
I200
sba(imain2
Polygon
p2450
(dp2451
g3
(I184
I193
tp2452
sg5
I200
sg6
(I18
I63
I69
I1
tp2453
sg8
(lp2454
(I200
I177
tp2455
a(I185
I200
tp2456
a(I200
I163
tp2457
a(I200
I200
tp2458
a(I159
I167
tp2459
a(I159
I200
tp2460
asg26
I200
sba(imain2
Polygon
p2461
(dp2462
g3
(I136
I181
tp2463
sg5
I200
sg6
(I120
I127
I190
I0
tp2464
sg8
(lp2465
(I148
I200
tp2466
a(I87
I180
tp2467
a(I129
I164
tp2468
a(I115
I142
tp2469
a(I145
I199
tp2470
a(I127
I139
tp2471
a(I178
I200
tp2472
asg26
I200
sba(imain2
Polygon
p2473
(dp2474
g3
(I65
I69
tp2475
sg5
I200
sg6
(I101
I92
I153
I5
tp2476
sg8
(lp2477
(I24
I101
tp2478
a(I37
I51
tp2479
a(I89
I104
tp2480
a(I37
I106
tp2481
a(I63
I93
tp2482
a(I16
I47
tp2483
a(I37
I81
tp2484
a(I73
I48
tp2485
asg26
I200
sba(imain2
Polygon
p2486
(dp2487
g3
(I146
I60
tp2488
sg5
I200
sg6
(I1
I2
I200
I0
tp2489
sg8
(lp2490
(I167
I55
tp2491
a(I196
I53
tp2492
a(I126
I28
tp2493
a(I193
I89
tp2494
a(I176
I95
tp2495
asg26
I200
sba(imain2
Polygon
p2496
(dp2497
g3
(I7
I191
tp2498
sg5
I200
sg6
(I0
I165
I63
I0
tp2499
sg8
(lp2500
(I14
I198
tp2501
a(I0
I194
tp2502
a(I27
I178
tp2503
a(I0
I200
tp2504
a(I36
I192
tp2505
a(I0
I200
tp2506
a(I24
I148
tp2507
a(I56
I177
tp2508
a(I0
I143
tp2509
a(I0
I180
tp2510
a(I0
I200
tp2511
a(I32
I200
tp2512
a(I0
I200
tp2513
asg26
I200
sba(imain2
Polygon
p2514
(dp2515
g3
(I177
I12
tp2516
sg5
I200
sg6
(I0
I126
I138
I0
tp2517
sg8
(lp2518
(I179
I47
tp2519
a(I173
I36
tp2520
a(I131
I0
tp2521
a(I173
I62
tp2522
a(I181
I36
tp2523
a(I200
I50
tp2524
a(I200
I50
tp2525
a(I200
I4
tp2526
a(I132
I54
tp2527
asg26
I200
sba(imain2
Polygon
p2528
(dp2529
g3
(I98
I60
tp2530
sg5
I200
sg6
(I142
I36
I47
I0
tp2531
sg8
(lp2532
(I87
I83
tp2533
a(I138
I25
tp2534
a(I98
I26
tp2535
a(I104
I32
tp2536
a(I147
I11
tp2537
a(I125
I68
tp2538
a(I74
I41
tp2539
a(I87
I90
tp2540
asg26
I200
sba(imain2
Polygon
p2541
(dp2542
g3
(I26
I121
tp2543
sg5
I200
sg6
(I19
I112
I2
I87
tp2544
sg8
(lp2545
(I5
I167
tp2546
a(I39
I85
tp2547
a(I0
I101
tp2548
a(I0
I166
tp2549
a(I30
I111
tp2550
a(I14
I135
tp2551
a(I45
I83
tp2552
a(I52
I113
tp2553
a(I0
I157
tp2554
a(I37
I137
tp2555
asg26
I200
sba(imain2
Polygon
p2556
(dp2557
g3
(I59
I10
tp2558
sg5
I200
sg6
(I179
I55
I106
I128
tp2559
sg8
(lp2560
(I13
I0
tp2561
a(I70
I0
tp2562
a(I73
I6
tp2563
a(I69
I0
tp2564
a(I109
I0
tp2565
a(I63
I23
tp2566
a(I10
I0
tp2567
a(I17
I23
tp2568
asg26
I200
sba(imain2
Polygon
p2569
(dp2570
g3
(I171
I141
tp2571
sg5
I200
sg6
(I36
I196
I138
I1
tp2572
sg8
(lp2573
(I200
I170
tp2574
a(I145
I150
tp2575
a(I175
I116
tp2576
a(I198
I129
tp2577
a(I186
I151
tp2578
a(I190
I148
tp2579
a(I187
I97
tp2580
asg26
I200
sba(imain2
Polygon
p2581
(dp2582
g3
(I80
I143
tp2583
sg5
I200
sg6
(I73
I75
I10
I114
tp2584
sg8
(lp2585
(I66
I140
tp2586
a(I70
I145
tp2587
a(I93
I192
tp2588
a(I130
I187
tp2589
a(I120
I141
tp2590
a(I69
I128
tp2591
a(I62
I133
tp2592
a(I71
I170
tp2593
a(I111
I114
tp2594
a(I86
I147
tp2595
asg26
I200
sba(imain2
Polygon
p2596
(dp2597
g3
(I191
I199
tp2598
sg5
I200
sg6
(I0
I223
I23
I0
tp2599
sg8
(lp2600
(I169
I200
tp2601
a(I177
I200
tp2602
a(I150
I150
tp2603
a(I193
I156
tp2604
a(I151
I170
tp2605
a(I200
I200
tp2606
a(I148
I149
tp2607
a(I141
I160
tp2608
asg26
I200
sba(imain2
Polygon
p2609
(dp2610
g3
(I6
I112
tp2611
sg5
I200
sg6
(I132
I70
I129
I64
tp2612
sg8
(lp2613
(I0
I137
tp2614
a(I0
I140
tp2615
a(I25
I84
tp2616
a(I0
I100
tp2617
a(I0
I158
tp2618
a(I15
I79
tp2619
asg26
I200
sba(imain2
Polygon
p2620
(dp2621
g3
(I189
I37
tp2622
sg5
I200
sg6
(I31
I237
I163
I53
tp2623
sg8
(lp2624
(I200
I41
tp2625
a(I191
I37
tp2626
a(I200
I40
tp2627
a(I199
I1
tp2628
asg26
I200
sba(imain2
Polygon
p2629
(dp2630
g3
(I121
I50
tp2631
sg5
I200
sg6
(I4
I72
I0
I0
tp2632
sg8
(lp2633
(I136
I45
tp2634
a(I142
I7
tp2635
a(I160
I54
tp2636
asg26
I200
sba(imain2
Polygon
p2637
(dp2638
g3
(I58
I165
tp2639
sg5
I200
sg6
(I142
I99
I2
I1
tp2640
sg8
(lp2641
(I22
I161
tp2642
a(I59
I187
tp2643
a(I9
I168
tp2644
a(I97
I177
tp2645
a(I50
I165
tp2646
a(I35
I200
tp2647
a(I99
I183
tp2648
a(I107
I152
tp2649
a(I56
I151
tp2650
a(I33
I161
tp2651
a(I83
I175
tp2652
asg26
I200
sba(imain2
Polygon
p2653
(dp2654
g3
(I155
I38
tp2655
sg5
I200
sg6
(I100
I107
I236
I94
tp2656
sg8
(lp2657
(I160
I2
tp2658
a(I162
I13
tp2659
a(I165
I27
tp2660
asg26
I200
sba(imain2
Polygon
p2661
(dp2662
g3
(I80
I130
tp2663
sg5
I200
sg6
(I223
I90
I0
I121
tp2664
sg8
(lp2665
(I90
I107
tp2666
a(I38
I91
tp2667
a(I127
I91
tp2668
a(I86
I180
tp2669
a(I90
I97
tp2670
a(I42
I107
tp2671
a(I57
I140
tp2672
a(I81
I161
tp2673
a(I95
I173
tp2674
a(I77
I124
tp2675
a(I91
I85
tp2676
a(I88
I146
tp2677
asg26
I200
sba(imain2
Polygon
p2678
(dp2679
g3
(I182
I31
tp2680
sg5
I200
sg6
(I112
I85
I112
I0
tp2681
sg8
(lp2682
(I200
I65
tp2683
a(I198
I51
tp2684
a(I135
I9
tp2685
a(I195
I0
tp2686
a(I164
I0
tp2687
a(I175
I40
tp2688
a(I151
I81
tp2689
a(I200
I11
tp2690
a(I200
I57
tp2691
a(I152
I25
tp2692
a(I200
I0
tp2693
a(I187
I0
tp2694
a(I200
I15
tp2695
a(I174
I47
tp2696
a(I195
I67
tp2697
a(I200
I0
tp2698
a(I182
I80
tp2699
a(I157
I72
tp2700
a(I148
I66
tp2701
a(I190
I38
tp2702
a(I200
I28
tp2703
a(I146
I24
tp2704
a(I133
I0
tp2705
asg26
I200
sba(imain2
Polygon
p2706
(dp2707
g3
(I164
I132
tp2708
sg5
I200
sg6
(I50
I68
I1
I0
tp2709
sg8
(lp2710
(I171
I122
tp2711
a(I136
I113
tp2712
a(I152
I112
tp2713
a(I158
I139
tp2714
a(I146
I102
tp2715
a(I180
I136
tp2716
a(I128
I88
tp2717
a(I138
I162
tp2718
a(I122
I127
tp2719
a(I152
I121
tp2720
a(I122
I170
tp2721
a(I184
I174
tp2722
a(I157
I141
tp2723
a(I185
I112
tp2724
asg26
I200
sba(imain2
Polygon
p2725
(dp2726
g3
(I67
I123
tp2727
sg5
I200
sg6
(I203
I168
I127
I73
tp2728
sg8
(lp2729
(I114
I101
tp2730
a(I112
I148
tp2731
a(I65
I154
tp2732
a(I43
I93
tp2733
a(I96
I92
tp2734
a(I107
I100
tp2735
a(I49
I107
tp2736
a(I115
I104
tp2737
a(I46
I107
tp2738
a(I101
I102
tp2739
asg26
I200
sba(imain2
Polygon
p2740
(dp2741
g3
(I139
I46
tp2742
sg5
I200
sg6
(I2
I111
I83
I75
tp2743
sg8
(lp2744
(I185
I84
tp2745
a(I137
I74
tp2746
a(I164
I79
tp2747
asg26
I200
sba(imain2
Polygon
p2748
(dp2749
g3
(I137
I13
tp2750
sg5
I200
sg6
(I203
I131
I220
I5
tp2751
sg8
(lp2752
(I165
I0
tp2753
a(I180
I37
tp2754
a(I165
I55
tp2755
a(I117
I0
tp2756
a(I139
I19
tp2757
a(I157
I0
tp2758
a(I100
I0
tp2759
a(I88
I17
tp2760
a(I160
I57
tp2761
a(I126
I14
tp2762
asg26
I200
sba(imain2
Polygon
p2763
(dp2764
g3
(I72
I81
tp2765
sg5
I200
sg6
(I239
I108
I82
I0
tp2766
sg8
(lp2767
(I113
I53
tp2768
a(I60
I76
tp2769
a(I26
I64
tp2770
a(I41
I126
tp2771
a(I71
I58
tp2772
a(I81
I126
tp2773
a(I104
I114
tp2774
a(I63
I131
tp2775
asg26
I200
sba(imain2
Polygon
p2776
(dp2777
g3
(I24
I70
tp2778
sg5
I200
sg6
(I6
I225
I9
I12
tp2779
sg8
(lp2780
(I37
I25
tp2781
a(I72
I32
tp2782
a(I2
I21
tp2783
a(I0
I105
tp2784
a(I15
I106
tp2785
a(I52
I117
tp2786
a(I46
I40
tp2787
asg26
I200
sba(imain2
Polygon
p2788
(dp2789
g3
(I144
I200
tp2790
sg5
I200
sg6
(I123
I88
I11
I1
tp2791
sg8
(lp2792
(I150
I159
tp2793
a(I121
I196
tp2794
a(I107
I168
tp2795
a(I185
I200
tp2796
a(I183
I167
tp2797
a(I105
I200
tp2798
a(I147
I151
tp2799
a(I181
I194
tp2800
a(I119
I181
tp2801
a(I98
I181
tp2802
a(I168
I183
tp2803
a(I103
I200
tp2804
a(I174
I196
tp2805
a(I104
I200
tp2806
a(I128
I200
tp2807
a(I162
I183
tp2808
a(I175
I200
tp2809
a(I145
I200
tp2810
a(I142
I200
tp2811
asg26
I200
sba(imain2
Polygon
p2812
(dp2813
g3
(I63
I64
tp2814
sg5
I200
sg6
(I193
I193
I44
I4
tp2815
sg8
(lp2816
(I100
I49
tp2817
a(I18
I106
tp2818
a(I18
I45
tp2819
a(I97
I38
tp2820
a(I97
I107
tp2821
a(I48
I88
tp2822
asg26
I200
sba(imain2
Polygon
p2823
(dp2824
g3
(I87
I65
tp2825
sg5
I200
sg6
(I216
I57
I98
I0
tp2826
sg8
(lp2827
(I136
I80
tp2828
a(I52
I99
tp2829
a(I86
I83
tp2830
a(I123
I74
tp2831
a(I60
I111
tp2832
a(I137
I35
tp2833
a(I46
I106
tp2834
a(I81
I46
tp2835
a(I103
I111
tp2836
a(I96
I80
tp2837
asg26
I200
sba(imain2
Polygon
p2838
(dp2839
g3
(I110
I191
tp2840
sg5
I200
sg6
(I161
I198
I225
I1
tp2841
sg8
(lp2842
(I132
I182
tp2843
a(I98
I178
tp2844
a(I157
I152
tp2845
a(I83
I180
tp2846
a(I85
I161
tp2847
a(I111
I200
tp2848
a(I151
I182
tp2849
a(I118
I200
tp2850
a(I110
I200
tp2851
a(I146
I200
tp2852
asg26
I200
sba(imain2
Polygon
p2853
(dp2854
g3
(I108
I110
tp2855
sg5
I200
sg6
(I99
I178
I164
I1
tp2856
sg8
(lp2857
(I101
I127
tp2858
a(I117
I114
tp2859
a(I112
I93
tp2860
a(I76
I126
tp2861
a(I100
I157
tp2862
a(I158
I88
tp2863
asg26
I200
sba(imain2
Polygon
p2864
(dp2865
g3
(I112
I52
tp2866
sg5
I200
sg6
(I81
I201
I81
I103
tp2867
sg8
(lp2868
(I158
I54
tp2869
a(I152
I56
tp2870
a(I149
I58
tp2871
asg26
I200
sba.