(lp0
(imain2
Polygon
p1
(dp2
S'origin'
p3
(I39
I29
tp4
sS'h'
p5
I200
sS'color'
p6
(I192
I22
I137
I64
tp7
sS'corner_list'
p8
(lp9
(I0
I0
tp10
a(I33
I71
tp11
a(I71
I41
tp12
a(I83
I36
tp13
a(I71
I0
tp14
a(I11
I74
tp15
a(I0
I33
tp16
a(I70
I7
tp17
a(I72
I59
tp18
a(I83
I19
tp19
a(I17
I62
tp20
a(I4
I54
tp21
a(I0
I33
tp22
a(I60
I37
tp23
a(I77
I15
tp24
a(I64
I0
tp25
a(I0
I0
tp26
asS'w'
p27
I200
sba(imain2
Polygon
p28
(dp29
g3
(I66
I177
tp30
sg5
I200
sg6
(I137
I52
I47
I21
tp31
sg8
(lp32
(I63
I136
tp33
a(I77
I165
tp34
a(I111
I200
tp35
a(I34
I200
tp36
a(I112
I200
tp37
a(I20
I192
tp38
a(I44
I200
tp39
a(I77
I200
tp40
a(I100
I127
tp41
asg27
I200
sba(imain2
Polygon
p42
(dp43
g3
(I59
I53
tp44
sg5
I200
sg6
(I109
I42
I106
I130
tp45
sg8
(lp46
(I106
I10
tp47
a(I26
I102
tp48
a(I9
I53
tp49
a(I89
I14
tp50
a(I41
I9
tp51
a(I45
I35
tp52
a(I40
I72
tp53
a(I32
I51
tp54
a(I38
I88
tp55
a(I97
I87
tp56
a(I109
I84
tp57
a(I91
I22
tp58
a(I80
I19
tp59
a(I76
I61
tp60
a(I103
I97
tp61
a(I50
I59
tp62
a(I53
I45
tp63
a(I58
I40
tp64
asg27
I200
sba(imain2
Polygon
p65
(dp66
g3
(I79
I99
tp67
sg5
I200
sg6
(I71
I89
I67
I82
tp68
sg8
(lp69
(I122
I134
tp70
a(I76
I117
tp71
a(I76
I74
tp72
a(I35
I63
tp73
a(I123
I57
tp74
a(I114
I125
tp75
a(I63
I146
tp76
a(I86
I147
tp77
asg27
I200
sba(imain2
Polygon
p78
(dp79
g3
(I200
I83
tp80
sg5
I200
sg6
(I165
I227
I62
I3
tp81
sg8
(lp82
(I200
I58
tp83
a(I164
I41
tp84
a(I200
I37
tp85
a(I178
I101
tp86
a(I200
I130
tp87
asg27
I200
sba(imain2
Polygon
p88
(dp89
g3
(I48
I136
tp90
sg5
I200
sg6
(I101
I109
I142
I47
tp91
sg8
(lp92
(I78
I127
tp93
a(I87
I127
tp94
a(I82
I171
tp95
a(I43
I102
tp96
a(I5
I168
tp97
a(I60
I171
tp98
a(I89
I93
tp99
a(I16
I112
tp100
a(I78
I105
tp101
a(I86
I178
tp102
a(I47
I126
tp103
a(I46
I109
tp104
a(I2
I151
tp105
a(I64
I175
tp106
a(I58
I161
tp107
a(I45
I165
tp108
a(I87
I144
tp109
a(I52
I97
tp110
a(I97
I86
tp111
a(I45
I125
tp112
asg27
I200
sba(imain2
Polygon
p113
(dp114
g3
(I118
I72
tp115
sg5
I200
sg6
(I132
I136
I59
I42
tp116
sg8
(lp117
(I99
I82
tp118
a(I118
I81
tp119
a(I118
I115
tp120
a(I126
I57
tp121
a(I89
I36
tp122
a(I68
I93
tp123
a(I104
I108
tp124
a(I97
I43
tp125
asg27
I200
sba(imain2
Polygon
p126
(dp127
g3
(I75
I194
tp128
sg5
I200
sg6
(I210
I85
I103
I1
tp129
sg8
(lp130
(I114
I169
tp131
a(I81
I145
tp132
a(I100
I167
tp133
a(I64
I200
tp134
a(I92
I188
tp135
a(I72
I157
tp136
asg27
I200
sba(imain2
Polygon
p137
(dp138
g3
(I7
I180
tp139
sg5
I200
sg6
(I231
I31
I1
I0
tp140
sg8
(lp141
(I0
I159
tp142
a(I0
I173
tp143
a(I0
I200
tp144
a(I0
I200
tp145
a(I0
I142
tp146
a(I41
I140
tp147
a(I15
I200
tp148
a(I26
I166
tp149
a(I0
I188
tp150
a(I0
I161
tp151
a(I15
I137
tp152
asg27
I200
sba(imain2
Polygon
p153
(dp154
g3
(I200
I5
tp155
sg5
I200
sg6
(I172
I75
I111
I26
tp156
sg8
(lp157
(I200
I0
tp158
a(I172
I0
tp159
a(I179
I0
tp160
a(I155
I28
tp161
a(I185
I7
tp162
a(I200
I7
tp163
a(I200
I45
tp164
a(I155
I15
tp165
a(I199
I0
tp166
a(I196
I52
tp167
asg27
I200
sba(imain2
Polygon
p168
(dp169
g3
(I180
I27
tp170
sg5
I200
sg6
(I103
I110
I153
I0
tp171
sg8
(lp172
(I200
I66
tp173
a(I156
I65
tp174
a(I200
I4
tp175
a(I162
I29
tp176
a(I147
I16
tp177
a(I200
I4
tp178
a(I138
I4
tp179
a(I178
I36
tp180
a(I160
I38
tp181
a(I195
I10
tp182
a(I160
I0
tp183
a(I200
I67
tp184
a(I161
I58
tp185
asg27
I200
sba(imain2
Polygon
p186
(dp187
g3
(I59
I197
tp188
sg5
I200
sg6
(I78
I205
I135
I122
tp189
sg8
(lp190
(I98
I200
tp191
a(I93
I157
tp192
a(I71
I197
tp193
a(I54
I200
tp194
a(I33
I200
tp195
asg27
I200
sba(imain2
Polygon
p196
(dp197
g3
(I129
I124
tp198
sg5
I200
sg6
(I169
I187
I95
I53
tp199
sg8
(lp200
(I122
I123
tp201
a(I92
I168
tp202
a(I130
I89
tp203
a(I111
I89
tp204
a(I104
I118
tp205
a(I88
I150
tp206
a(I119
I138
tp207
a(I82
I90
tp208
a(I85
I118
tp209
asg27
I200
sba(imain2
Polygon
p210
(dp211
g3
(I107
I2
tp212
sg5
I200
sg6
(I46
I0
I159
I95
tp213
sg8
(lp214
(I83
I0
tp215
a(I107
I0
tp216
a(I97
I0
tp217
a(I62
I0
tp218
a(I90
I0
tp219
a(I142
I27
tp220
a(I156
I2
tp221
a(I151
I0
tp222
asg27
I200
sba(imain2
Polygon
p223
(dp224
g3
(I25
I107
tp225
sg5
I200
sg6
(I100
I25
I168
I1
tp226
sg8
(lp227
(I30
I146
tp228
a(I41
I66
tp229
a(I72
I82
tp230
a(I0
I68
tp231
a(I47
I76
tp232
a(I61
I150
tp233
a(I56
I122
tp234
a(I56
I62
tp235
a(I0
I59
tp236
a(I3
I58
tp237
a(I9
I75
tp238
a(I69
I74
tp239
a(I7
I57
tp240
a(I52
I137
tp241
asg27
I200
sba(imain2
Polygon
p242
(dp243
g3
(I194
I197
tp244
sg5
I200
sg6
(I5
I193
I62
I78
tp245
sg8
(lp246
(I193
I168
tp247
a(I200
I200
tp248
a(I200
I180
tp249
a(I199
I156
tp250
asg27
I200
sba(imain2
Polygon
p251
(dp252
g3
(I8
I2
tp253
sg5
I200
sg6
(I203
I192
I217
I1
tp254
sg8
(lp255
(I6
I8
tp256
a(I0
I5
tp257
a(I16
I0
tp258
a(I5
I25
tp259
a(I0
I0
tp260
a(I57
I0
tp261
a(I9
I17
tp262
a(I52
I0
tp263
a(I0
I45
tp264
a(I45
I0
tp265
a(I55
I0
tp266
a(I45
I50
tp267
a(I0
I16
tp268
asg27
I200
sba(imain2
Polygon
p269
(dp270
g3
(I171
I144
tp271
sg5
I200
sg6
(I108
I155
I183
I1
tp272
sg8
(lp273
(I126
I186
tp274
a(I199
I179
tp275
a(I200
I110
tp276
a(I153
I190
tp277
a(I148
I190
tp278
a(I178
I125
tp279
a(I126
I121
tp280
a(I145
I130
tp281
asg27
I200
sba(imain2
Polygon
p282
(dp283
g3
(I44
I42
tp284
sg5
I200
sg6
(I76
I126
I71
I1
tp285
sg8
(lp286
(I29
I80
tp287
a(I41
I39
tp288
a(I91
I0
tp289
a(I69
I42
tp290
a(I86
I82
tp291
a(I88
I72
tp292
a(I46
I66
tp293
asg27
I200
sba(imain2
Polygon
p294
(dp295
g3
(I26
I99
tp296
sg5
I200
sg6
(I165
I96
I166
I59
tp297
sg8
(lp298
(I56
I57
tp299
a(I54
I125
tp300
a(I69
I134
tp301
a(I72
I53
tp302
asg27
I200
sba(imain2
Polygon
p303
(dp304
g3
(I114
I46
tp305
sg5
I200
sg6
(I94
I191
I193
I0
tp306
sg8
(lp307
(I138
I5
tp308
a(I126
I34
tp309
a(I145
I56
tp310
a(I90
I66
tp311
a(I111
I68
tp312
a(I81
I83
tp313
asg27
I200
sba(imain2
Polygon
p314
(dp315
g3
(I68
I194
tp316
sg5
I200
sg6
(I85
I190
I147
I1
tp317
sg8
(lp318
(I60
I200
tp319
a(I52
I200
tp320
a(I37
I184
tp321
a(I65
I200
tp322
a(I57
I192
tp323
a(I73
I172
tp324
asg27
I200
sba(imain2
Polygon
p325
(dp326
g3
(I200
I53
tp327
sg5
I200
sg6
(I176
I181
I163
I0
tp328
sg8
(lp329
(I183
I79
tp330
a(I152
I41
tp331
a(I200
I31
tp332
asg27
I200
sba(imain2
Polygon
p333
(dp334
g3
(I172
I155
tp335
sg5
I200
sg6
(I196
I75
I239
I0
tp336
sg8
(lp337
(I156
I193
tp338
a(I186
I170
tp339
a(I200
I124
tp340
a(I125
I176
tp341
a(I143
I179
tp342
a(I184
I136
tp343
a(I146
I128
tp344
a(I184
I193
tp345
a(I166
I121
tp346
a(I154
I196
tp347
a(I127
I165
tp348
a(I148
I197
tp349
asg27
I200
sba(imain2
Polygon
p350
(dp351
g3
(I154
I159
tp352
sg5
I200
sg6
(I52
I205
I31
I0
tp353
sg8
(lp354
(I200
I117
tp355
a(I122
I109
tp356
a(I164
I130
tp357
a(I127
I131
tp358
a(I176
I190
tp359
a(I178
I195
tp360
a(I141
I167
tp361
a(I153
I178
tp362
a(I160
I110
tp363
a(I159
I171
tp364
a(I147
I168
tp365
a(I175
I171
tp366
asg27
I200
sba(imain2
Polygon
p367
(dp368
g3
(I55
I59
tp369
sg5
I200
sg6
(I71
I191
I200
I1
tp370
sg8
(lp371
(I35
I56
tp372
a(I83
I49
tp373
a(I85
I40
tp374
a(I36
I16
tp375
a(I71
I52
tp376
a(I22
I16
tp377
a(I82
I44
tp378
a(I47
I28
tp379
a(I66
I10
tp380
a(I103
I76
tp381
a(I25
I105
tp382
a(I102
I65
tp383
a(I36
I25
tp384
a(I103
I88
tp385
a(I47
I104
tp386
a(I89
I41
tp387
a(I21
I16
tp388
a(I52
I45
tp389
a(I17
I70
tp390
a(I12
I21
tp391
a(I46
I100
tp392
asg27
I200
sba(imain2
Polygon
p393
(dp394
g3
(I127
I147
tp395
sg5
I200
sg6
(I44
I64
I111
I84
tp396
sg8
(lp397
(I109
I194
tp398
a(I79
I101
tp399
a(I97
I160
tp400
a(I161
I191
tp401
asg27
I200
sba(imain2
Polygon
p402
(dp403
g3
(I123
I114
tp404
sg5
I200
sg6
(I115
I1
I5
I1
tp405
sg8
(lp406
(I118
I78
tp407
a(I162
I88
tp408
a(I144
I84
tp409
a(I81
I71
tp410
a(I118
I115
tp411
a(I161
I129
tp412
asg27
I200
sba(imain2
Polygon
p413
(dp414
g3
(I2
I51
tp415
sg5
I200
sg6
(I121
I136
I221
I0
tp416
sg8
(lp417
(I0
I85
tp418
a(I0
I10
tp419
a(I0
I4
tp420
a(I0
I44
tp421
a(I0
I20
tp422
a(I0
I61
tp423
a(I0
I75
tp424
a(I22
I88
tp425
a(I22
I98
tp426
a(I0
I7
tp427
a(I0
I75
tp428
a(I0
I87
tp429
asg27
I200
sba(imain2
Polygon
p430
(dp431
g3
(I166
I21
tp432
sg5
I200
sg6
(I210
I244
I213
I75
tp433
sg8
(lp434
(I200
I0
tp435
a(I200
I59
tp436
a(I169
I70
tp437
a(I131
I0
tp438
a(I144
I3
tp439
a(I131
I6
tp440
a(I135
I0
tp441
a(I200
I0
tp442
a(I190
I0
tp443
asg27
I200
sba(imain2
Polygon
p444
(dp445
g3
(I110
I91
tp446
sg5
I200
sg6
(I125
I30
I28
I1
tp447
sg8
(lp448
(I78
I111
tp449
a(I70
I70
tp450
a(I80
I118
tp451
a(I69
I141
tp452
a(I81
I95
tp453
a(I68
I96
tp454
a(I100
I114
tp455
a(I109
I100
tp456
a(I67
I66
tp457
a(I132
I127
tp458
a(I75
I65
tp459
a(I150
I136
tp460
a(I130
I41
tp461
a(I104
I65
tp462
a(I92
I48
tp463
a(I114
I65
tp464
a(I132
I91
tp465
a(I134
I101
tp466
asg27
I200
sba(imain2
Polygon
p467
(dp468
g3
(I148
I41
tp469
sg5
I200
sg6
(I155
I1
I204
I1
tp470
sg8
(lp471
(I103
I13
tp472
a(I130
I10
tp473
a(I192
I6
tp474
a(I102
I17
tp475
a(I155
I13
tp476
a(I138
I62
tp477
a(I160
I9
tp478
a(I110
I80
tp479
a(I103
I84
tp480
a(I183
I24
tp481
a(I153
I30
tp482
a(I135
I21
tp483
a(I144
I23
tp484
a(I121
I0
tp485
asg27
I200
sba(imain2
Polygon
p486
(dp487
g3
(I188
I159
tp488
sg5
I200
sg6
(I157
I68
I63
I1
tp489
sg8
(lp490
(I153
I158
tp491
a(I164
I115
tp492
a(I200
I197
tp493
a(I200
I137
tp494
a(I158
I121
tp495
a(I200
I111
tp496
a(I156
I170
tp497
asg27
I200
sba(imain2
Polygon
p498
(dp499
g3
(I55
I106
tp500
sg5
I200
sg6
(I54
I89
I39
I1
tp501
sg8
(lp502
(I69
I94
tp503
a(I70
I97
tp504
a(I74
I146
tp505
a(I54
I93
tp506
a(I46
I114
tp507
a(I99
I105
tp508
a(I75
I126
tp509
a(I31
I130
tp510
a(I92
I93
tp511
asg27
I200
sba(imain2
Polygon
p512
(dp513
g3
(I118
I64
tp514
sg5
I200
sg6
(I126
I36
I2
I0
tp515
sg8
(lp516
(I131
I17
tp517
a(I88
I65
tp518
a(I149
I49
tp519
a(I137
I15
tp520
a(I95
I23
tp521
a(I100
I81
tp522
a(I146
I72
tp523
a(I160
I97
tp524
a(I88
I20
tp525
a(I123
I23
tp526
a(I105
I36
tp527
a(I98
I55
tp528
asg27
I200
sba(imain2
Polygon
p529
(dp530
g3
(I101
I127
tp531
sg5
I200
sg6
(I82
I171
I93
I58
tp532
sg8
(lp533
(I82
I132
tp534
a(I60
I130
tp535
a(I118
I127
tp536
a(I132
I81
tp537
a(I63
I110
tp538
a(I134
I145
tp539
asg27
I200
sba(imain2
Polygon
p540
(dp541
g3
(I42
I89
tp542
sg5
I200
sg6
(I15
I90
I175
I1
tp543
sg8
(lp544
(I82
I88
tp545
a(I34
I55
tp546
a(I20
I128
tp547
a(I45
I55
tp548
a(I15
I128
tp549
a(I61
I62
tp550
a(I0
I99
tp551
a(I39
I127
tp552
a(I56
I89
tp553
a(I36
I80
tp554
a(I0
I54
tp555
asg27
I200
sba(imain2
Polygon
p556
(dp557
g3
(I71
I151
tp558
sg5
I200
sg6
(I150
I166
I218
I114
tp559
sg8
(lp560
(I59
I125
tp561
a(I74
I126
tp562
a(I115
I198
tp563
a(I68
I200
tp564
a(I91
I177
tp565
a(I121
I195
tp566
asg27
I200
sba(imain2
Polygon
p567
(dp568
g3
(I13
I141
tp569
sg5
I200
sg6
(I241
I1
I193
I0
tp570
sg8
(lp571
(I0
I134
tp572
a(I0
I168
tp573
a(I0
I162
tp574
a(I7
I102
tp575
a(I53
I153
tp576
a(I7
I133
tp577
a(I23
I129
tp578
a(I31
I95
tp579
a(I38
I142
tp580
a(I47
I102
tp581
a(I48
I174
tp582
a(I63
I126
tp583
asg27
I200
sba(imain2
Polygon
p584
(dp585
g3
(I37
I11
tp586
sg5
I200
sg6
(I112
I18
I9
I84
tp587
sg8
(lp588
(I77
I0
tp589
a(I0
I56
tp590
a(I15
I11
tp591
a(I20
I28
tp592
a(I3
I0
tp593
a(I70
I6
tp594
a(I36
I38
tp595
asg27
I200
sba(imain2
Polygon
p596
(dp597
g3
(I97
I114
tp598
sg5
I200
sg6
(I144
I8
I201
I63
tp599
sg8
(lp600
(I126
I160
tp601
a(I86
I149
tp602
a(I121
I97
tp603
a(I126
I64
tp604
a(I62
I77
tp605
a(I84
I101
tp606
a(I48
I82
tp607
a(I75
I158
tp608
a(I100
I154
tp609
a(I115
I101
tp610
a(I51
I65
tp611
a(I84
I72
tp612
a(I110
I85
tp613
a(I80
I151
tp614
a(I113
I101
tp615
a(I64
I125
tp616
a(I75
I78
tp617
a(I57
I142
tp618
asg27
I200
sba(imain2
Polygon
p619
(dp620
g3
(I77
I12
tp621
sg5
I200
sg6
(I99
I0
I194
I0
tp622
sg8
(lp623
(I97
I0
tp624
a(I85
I0
tp625
a(I31
I43
tp626
a(I77
I0
tp627
a(I50
I51
tp628
a(I116
I55
tp629
a(I69
I0
tp630
a(I96
I0
tp631
a(I51
I42
tp632
asg27
I200
sba(imain2
Polygon
p633
(dp634
g3
(I114
I16
tp635
sg5
I200
sg6
(I1
I99
I175
I133
tp636
sg8
(lp637
(I119
I24
tp638
a(I151
I0
tp639
a(I71
I2
tp640
a(I142
I23
tp641
a(I160
I13
tp642
a(I130
I13
tp643
asg27
I200
sba(imain2
Polygon
p644
(dp645
g3
(I150
I10
tp646
sg5
I200
sg6
(I109
I56
I223
I146
tp647
sg8
(lp648
(I119
I0
tp649
a(I175
I1
tp650
a(I133
I0
tp651
a(I174
I56
tp652
a(I163
I0
tp653
a(I119
I18
tp654
a(I101
I0
tp655
a(I137
I0
tp656
a(I174
I0
tp657
a(I170
I0
tp658
a(I150
I0
tp659
asg27
I200
sba(imain2
Polygon
p660
(dp661
g3
(I41
I10
tp662
sg5
I200
sg6
(I112
I202
I81
I1
tp663
sg8
(lp664
(I28
I17
tp665
a(I62
I0
tp666
a(I36
I33
tp667
a(I0
I0
tp668
a(I60
I0
tp669
asg27
I200
sba(imain2
Polygon
p670
(dp671
g3
(I174
I159
tp672
sg5
I200
sg6
(I168
I106
I82
I86
tp673
sg8
(lp674
(I200
I125
tp675
a(I200
I200
tp676
a(I184
I191
tp677
a(I168
I116
tp678
a(I200
I121
tp679
a(I200
I173
tp680
a(I200
I119
tp681
asg27
I200
sba(imain2
Polygon
p682
(dp683
g3
(I61
I97
tp684
sg5
I200
sg6
(I121
I29
I105
I77
tp685
sg8
(lp686
(I66
I87
tp687
a(I94
I137
tp688
a(I64
I49
tp689
a(I103
I82
tp690
a(I64
I94
tp691
a(I102
I53
tp692
a(I108
I74
tp693
a(I96
I125
tp694
a(I52
I115
tp695
a(I50
I59
tp696
asg27
I200
sba(imain2
Polygon
p697
(dp698
g3
(I180
I97
tp699
sg5
I200
sg6
(I157
I153
I196
I1
tp700
sg8
(lp701
(I180
I99
tp702
a(I200
I54
tp703
a(I200
I62
tp704
a(I149
I93
tp705
a(I200
I145
tp706
a(I196
I133
tp707
a(I179
I133
tp708
a(I200
I63
tp709
a(I153
I117
tp710
asg27
I200
sba(imain2
Polygon
p711
(dp712
g3
(I101
I122
tp713
sg5
I200
sg6
(I162
I82
I1
I56
tp714
sg8
(lp715
(I87
I91
tp716
a(I111
I157
tp717
a(I98
I108
tp718
a(I93
I147
tp719
a(I122
I142
tp720
a(I125
I80
tp721
a(I61
I152
tp722
a(I62
I88
tp723
a(I147
I140
tp724
a(I58
I84
tp725
a(I77
I77
tp726
a(I124
I77
tp727
asg27
I200
sba(imain2
Polygon
p728
(dp729
g3
(I131
I15
tp730
sg5
I200
sg6
(I56
I126
I125
I0
tp731
sg8
(lp732
(I154
I0
tp733
a(I140
I8
tp734
a(I179
I62
tp735
a(I91
I0
tp736
a(I82
I0
tp737
a(I95
I0
tp738
a(I81
I62
tp739
a(I90
I0
tp740
a(I91
I0
tp741
a(I178
I32
tp742
asg27
I200
sba(imain2
Polygon
p743
(dp744
g3
(I113
I24
tp745
sg5
I200
sg6
(I147
I238
I0
I1
tp746
sg8
(lp747
(I163
I0
tp748
a(I88
I27
tp749
a(I85
I60
tp750
a(I123
I70
tp751
a(I126
I0
tp752
a(I117
I66
tp753
a(I110
I46
tp754
a(I138
I18
tp755
a(I122
I0
tp756
a(I77
I58
tp757
a(I110
I0
tp758
a(I163
I41
tp759
a(I139
I44
tp760
asg27
I200
sba(imain2
Polygon
p761
(dp762
g3
(I15
I21
tp763
sg5
I200
sg6
(I41
I40
I23
I1
tp764
sg8
(lp765
(I8
I18
tp766
a(I2
I12
tp767
a(I59
I59
tp768
a(I51
I26
tp769
a(I28
I35
tp770
a(I38
I50
tp771
a(I2
I0
tp772
a(I15
I36
tp773
a(I0
I44
tp774
a(I39
I0
tp775
asg27
I200
sba(imain2
Polygon
p776
(dp777
g3
(I75
I18
tp778
sg5
I200
sg6
(I118
I124
I38
I133
tp779
sg8
(lp780
(I98
I0
tp781
a(I82
I30
tp782
a(I74
I50
tp783
a(I90
I0
tp784
a(I32
I0
tp785
a(I29
I0
tp786
a(I70
I49
tp787
a(I31
I0
tp788
a(I64
I30
tp789
a(I77
I0
tp790
a(I26
I62
tp791
a(I118
I0
tp792
a(I123
I13
tp793
a(I25
I19
tp794
a(I53
I67
tp795
a(I111
I64
tp796
a(I124
I63
tp797
a(I72
I12
tp798
a(I104
I7
tp799
a(I73
I11
tp800
asg27
I200
sba(imain2
Polygon
p801
(dp802
g3
(I147
I31
tp803
sg5
I200
sg6
(I240
I1
I220
I129
tp804
sg8
(lp805
(I197
I0
tp806
a(I196
I42
tp807
a(I180
I38
tp808
a(I168
I65
tp809
a(I153
I34
tp810
a(I193
I77
tp811
a(I187
I24
tp812
a(I176
I51
tp813
a(I126
I17
tp814
a(I97
I10
tp815
a(I130
I0
tp816
asg27
I200
sba(imain2
Polygon
p817
(dp818
g3
(I43
I128
tp819
sg5
I200
sg6
(I89
I21
I103
I108
tp820
sg8
(lp821
(I6
I108
tp822
a(I15
I103
tp823
a(I5
I162
tp824
a(I3
I155
tp825
asg27
I200
sba(imain2
Polygon
p826
(dp827
g3
(I191
I52
tp828
sg5
I200
sg6
(I138
I139
I97
I1
tp829
sg8
(lp830
(I200
I4
tp831
a(I200
I26
tp832
a(I179
I57
tp833
a(I160
I85
tp834
a(I151
I21
tp835
a(I200
I78
tp836
a(I150
I21
tp837
a(I175
I65
tp838
a(I162
I13
tp839
asg27
I200
sba(imain2
Polygon
p840
(dp841
g3
(I124
I96
tp842
sg5
I200
sg6
(I220
I84
I119
I1
tp843
sg8
(lp844
(I86
I139
tp845
a(I142
I107
tp846
a(I106
I89
tp847
a(I142
I104
tp848
a(I100
I144
tp849
a(I91
I110
tp850
a(I113
I48
tp851
a(I102
I110
tp852
a(I81
I129
tp853
a(I157
I142
tp854
a(I167
I108
tp855
a(I164
I73
tp856
asg27
I200
sba(imain2
Polygon
p857
(dp858
g3
(I14
I107
tp859
sg5
I200
sg6
(I54
I1
I216
I112
tp860
sg8
(lp861
(I0
I128
tp862
a(I0
I102
tp863
a(I11
I71
tp864
a(I0
I109
tp865
asg27
I200
sba(imain2
Polygon
p866
(dp867
g3
(I84
I159
tp868
sg5
I200
sg6
(I49
I9
I190
I0
tp869
sg8
(lp870
(I88
I152
tp871
a(I90
I134
tp872
a(I70
I146
tp873
a(I58
I118
tp874
a(I34
I200
tp875
a(I73
I171
tp876
a(I101
I138
tp877
a(I64
I172
tp878
a(I99
I119
tp879
asg27
I200
sba(imain2
Polygon
p880
(dp881
g3
(I141
I115
tp882
sg5
I200
sg6
(I236
I169
I168
I1
tp883
sg8
(lp884
(I180
I117
tp885
a(I151
I144
tp886
a(I126
I104
tp887
asg27
I200
sba(imain2
Polygon
p888
(dp889
g3
(I199
I78
tp890
sg5
I200
sg6
(I204
I198
I82
I116
tp891
sg8
(lp892
(I151
I34
tp893
a(I153
I30
tp894
a(I200
I28
tp895
a(I200
I125
tp896
a(I164
I113
tp897
a(I171
I79
tp898
asg27
I200
sba(imain2
Polygon
p899
(dp900
g3
(I167
I90
tp901
sg5
I200
sg6
(I31
I185
I28
I32
tp902
sg8
(lp903
(I193
I65
tp904
a(I137
I128
tp905
a(I182
I102
tp906
a(I200
I85
tp907
a(I155
I50
tp908
asg27
I200
sba(imain2
Polygon
p909
(dp910
g3
(I17
I14
tp911
sg5
I200
sg6
(I1
I6
I90
I16
tp912
sg8
(lp913
(I37
I26
tp914
a(I0
I12
tp915
a(I30
I27
tp916
a(I0
I0
tp917
a(I21
I0
tp918
a(I0
I0
tp919
a(I0
I17
tp920
a(I0
I29
tp921
a(I0
I0
tp922
a(I23
I18
tp923
a(I0
I50
tp924
a(I44
I1
tp925
a(I0
I2
tp926
a(I8
I0
tp927
a(I17
I0
tp928
asg27
I200
sba(imain2
Polygon
p929
(dp930
g3
(I190
I180
tp931
sg5
I200
sg6
(I224
I100
I46
I0
tp932
sg8
(lp933
(I197
I149
tp934
a(I156
I200
tp935
a(I200
I200
tp936
a(I200
I200
tp937
asg27
I200
sba(imain2
Polygon
p938
(dp939
g3
(I70
I166
tp940
sg5
I200
sg6
(I104
I177
I0
I1
tp941
sg8
(lp942
(I87
I154
tp943
a(I77
I197
tp944
a(I84
I188
tp945
a(I77
I128
tp946
a(I36
I127
tp947
a(I110
I188
tp948
a(I48
I131
tp949
a(I58
I200
tp950
a(I72
I186
tp951
asg27
I200
sba(imain2
Polygon
p952
(dp953
g3
(I196
I185
tp954
sg5
I200
sg6
(I17
I153
I128
I1
tp955
sg8
(lp956
(I153
I200
tp957
a(I200
I163
tp958
a(I200
I200
tp959
a(I171
I140
tp960
a(I150
I137
tp961
a(I200
I200
tp962
a(I174
I168
tp963
asg27
I200
sba(imain2
Polygon
p964
(dp965
g3
(I48
I123
tp966
sg5
I200
sg6
(I164
I42
I15
I81
tp967
sg8
(lp968
(I8
I113
tp969
a(I8
I127
tp970
a(I0
I97
tp971
a(I22
I76
tp972
a(I46
I104
tp973
a(I58
I146
tp974
a(I89
I76
tp975
a(I9
I121
tp976
a(I27
I162
tp977
a(I11
I146
tp978
a(I15
I82
tp979
asg27
I200
sba(imain2
Polygon
p980
(dp981
g3
(I59
I97
tp982
sg5
I200
sg6
(I202
I47
I122
I11
tp983
sg8
(lp984
(I70
I135
tp985
a(I85
I54
tp986
a(I45
I47
tp987
a(I104
I120
tp988
a(I44
I80
tp989
a(I63
I132
tp990
a(I18
I115
tp991
a(I107
I141
tp992
a(I83
I125
tp993
a(I74
I134
tp994
asg27
I200
sba(imain2
Polygon
p995
(dp996
g3
(I17
I149
tp997
sg5
I200
sg6
(I0
I34
I154
I1
tp998
sg8
(lp999
(I0
I124
tp1000
a(I0
I184
tp1001
a(I0
I172
tp1002
a(I5
I196
tp1003
a(I15
I142
tp1004
a(I0
I171
tp1005
a(I55
I198
tp1006
a(I22
I101
tp1007
a(I3
I116
tp1008
a(I63
I128
tp1009
asg27
I200
sba(imain2
Polygon
p1010
(dp1011
g3
(I88
I2
tp1012
sg5
I200
sg6
(I2
I101
I59
I33
tp1013
sg8
(lp1014
(I46
I0
tp1015
a(I122
I0
tp1016
a(I48
I0
tp1017
a(I105
I20
tp1018
a(I82
I0
tp1019
a(I78
I0
tp1020
a(I113
I12
tp1021
asg27
I200
sba(imain2
Polygon
p1022
(dp1023
g3
(I3
I161
tp1024
sg5
I200
sg6
(I172
I17
I188
I1
tp1025
sg8
(lp1026
(I21
I162
tp1027
a(I0
I169
tp1028
a(I0
I141
tp1029
a(I41
I178
tp1030
a(I0
I124
tp1031
a(I0
I163
tp1032
a(I0
I168
tp1033
a(I11
I145
tp1034
a(I0
I121
tp1035
a(I45
I146
tp1036
asg27
I200
sba(imain2
Polygon
p1037
(dp1038
g3
(I98
I58
tp1039
sg5
I200
sg6
(I36
I61
I167
I0
tp1040
sg8
(lp1041
(I68
I69
tp1042
a(I71
I81
tp1043
a(I74
I104
tp1044
a(I52
I73
tp1045
a(I125
I37
tp1046
a(I102
I11
tp1047
asg27
I200
sba(imain2
Polygon
p1048
(dp1049
g3
(I109
I111
tp1050
sg5
I200
sg6
(I225
I35
I97
I1
tp1051
sg8
(lp1052
(I91
I100
tp1053
a(I96
I159
tp1054
a(I64
I113
tp1055
a(I109
I97
tp1056
a(I135
I157
tp1057
a(I147
I83
tp1058
a(I140
I71
tp1059
a(I61
I72
tp1060
a(I126
I115
tp1061
a(I121
I150
tp1062
asg27
I200
sba(imain2
Polygon
p1063
(dp1064
g3
(I83
I155
tp1065
sg5
I200
sg6
(I201
I40
I178
I6
tp1066
sg8
(lp1067
(I67
I145
tp1068
a(I129
I115
tp1069
a(I132
I200
tp1070
a(I58
I195
tp1071
a(I116
I182
tp1072
a(I60
I111
tp1073
a(I110
I188
tp1074
a(I51
I131
tp1075
a(I87
I167
tp1076
a(I102
I130
tp1077
a(I90
I159
tp1078
a(I106
I115
tp1079
a(I76
I160
tp1080
a(I41
I151
tp1081
a(I33
I118
tp1082
a(I81
I114
tp1083
a(I76
I115
tp1084
a(I43
I119
tp1085
asg27
I200
sba(imain2
Polygon
p1086
(dp1087
g3
(I81
I21
tp1088
sg5
I200
sg6
(I135
I0
I24
I95
tp1089
sg8
(lp1090
(I94
I1
tp1091
a(I110
I0
tp1092
a(I90
I0
tp1093
a(I122
I60
tp1094
a(I103
I58
tp1095
a(I38
I0
tp1096
a(I64
I20
tp1097
a(I80
I0
tp1098
a(I31
I7
tp1099
asg27
I200
sba(imain2
Polygon
p1100
(dp1101
g3
(I77
I115
tp1102
sg5
I200
sg6
(I90
I234
I216
I0
tp1103
sg8
(lp1104
(I39
I74
tp1105
a(I45
I102
tp1106
a(I59
I149
tp1107
a(I81
I144
tp1108
a(I83
I96
tp1109
a(I123
I131
tp1110
a(I126
I153
tp1111
a(I34
I138
tp1112
a(I60
I98
tp1113
asg27
I200
sba(imain2
Polygon
p1114
(dp1115
g3
(I108
I110
tp1116
sg5
I200
sg6
(I141
I114
I142
I1
tp1117
sg8
(lp1118
(I128
I152
tp1119
a(I143
I78
tp1120
a(I76
I135
tp1121
a(I129
I123
tp1122
a(I153
I68
tp1123
a(I129
I106
tp1124
a(I101
I139
tp1125
a(I149
I82
tp1126
a(I109
I107
tp1127
a(I137
I94
tp1128
a(I104
I133
tp1129
a(I141
I157
tp1130
asg27
I200
sba(imain2
Polygon
p1131
(dp1132
g3
(I7
I122
tp1133
sg5
I200
sg6
(I150
I1
I155
I1
tp1134
sg8
(lp1135
(I1
I75
tp1136
a(I26
I136
tp1137
a(I40
I82
tp1138
a(I0
I168
tp1139
a(I15
I147
tp1140
a(I47
I133
tp1141
a(I0
I158
tp1142
a(I41
I128
tp1143
a(I46
I97
tp1144
a(I42
I170
tp1145
a(I18
I87
tp1146
a(I6
I142
tp1147
a(I38
I157
tp1148
a(I23
I87
tp1149
asg27
I200
sba(imain2
Polygon
p1150
(dp1151
g3
(I105
I20
tp1152
sg5
I200
sg6
(I211
I24
I227
I0
tp1153
sg8
(lp1154
(I68
I0
tp1155
a(I73
I0
tp1156
a(I85
I12
tp1157
a(I100
I0
tp1158
a(I138
I42
tp1159
a(I57
I22
tp1160
a(I142
I57
tp1161
asg27
I200
sba(imain2
Polygon
p1162
(dp1163
g3
(I47
I80
tp1164
sg5
I200
sg6
(I104
I45
I113
I5
tp1165
sg8
(lp1166
(I55
I102
tp1167
a(I79
I102
tp1168
a(I62
I30
tp1169
a(I0
I130
tp1170
a(I96
I67
tp1171
a(I97
I99
tp1172
a(I75
I53
tp1173
a(I87
I117
tp1174
a(I11
I37
tp1175
a(I13
I128
tp1176
a(I64
I108
tp1177
a(I23
I50
tp1178
a(I71
I123
tp1179
a(I68
I94
tp1180
a(I82
I49
tp1181
a(I8
I102
tp1182
a(I84
I126
tp1183
a(I53
I127
tp1184
a(I77
I84
tp1185
a(I25
I60
tp1186
asg27
I200
sba(imain2
Polygon
p1187
(dp1188
g3
(I131
I30
tp1189
sg5
I200
sg6
(I202
I121
I166
I0
tp1190
sg8
(lp1191
(I110
I79
tp1192
a(I102
I0
tp1193
a(I162
I8
tp1194
a(I116
I42
tp1195
asg27
I200
sba(imain2
Polygon
p1196
(dp1197
g3
(I199
I39
tp1198
sg5
I200
sg6
(I90
I187
I104
I50
tp1199
sg8
(lp1200
(I200
I0
tp1201
a(I150
I0
tp1202
a(I200
I89
tp1203
a(I200
I14
tp1204
a(I200
I75
tp1205
asg27
I200
sba(imain2
Polygon
p1206
(dp1207
g3
(I110
I156
tp1208
sg5
I200
sg6
(I186
I89
I123
I1
tp1209
sg8
(lp1210
(I106
I166
tp1211
a(I116
I155
tp1212
a(I91
I200
tp1213
a(I160
I151
tp1214
a(I133
I138
tp1215
a(I142
I110
tp1216
a(I103
I170
tp1217
a(I76
I200
tp1218
a(I138
I148
tp1219
a(I121
I145
tp1220
a(I144
I153
tp1221
a(I127
I174
tp1222
a(I108
I146
tp1223
asg27
I200
sba(imain2
Polygon
p1224
(dp1225
g3
(I14
I89
tp1226
sg5
I200
sg6
(I198
I19
I23
I62
tp1227
sg8
(lp1228
(I0
I61
tp1229
a(I53
I72
tp1230
a(I55
I44
tp1231
a(I17
I118
tp1232
a(I0
I99
tp1233
a(I5
I50
tp1234
a(I11
I80
tp1235
a(I30
I102
tp1236
asg27
I200
sba(imain2
Polygon
p1237
(dp1238
g3
(I124
I127
tp1239
sg5
I200
sg6
(I171
I215
I170
I0
tp1240
sg8
(lp1241
(I119
I158
tp1242
a(I99
I92
tp1243
a(I81
I155
tp1244
a(I111
I115
tp1245
a(I114
I144
tp1246
a(I97
I169
tp1247
a(I118
I147
tp1248
a(I135
I124
tp1249
a(I92
I110
tp1250
a(I100
I124
tp1251
a(I101
I170
tp1252
a(I82
I117
tp1253
a(I85
I154
tp1254
asg27
I200
sba(imain2
Polygon
p1255
(dp1256
g3
(I97
I78
tp1257
sg5
I200
sg6
(I144
I200
I157
I1
tp1258
sg8
(lp1259
(I62
I103
tp1260
a(I66
I110
tp1261
a(I135
I109
tp1262
a(I78
I58
tp1263
a(I55
I84
tp1264
a(I108
I101
tp1265
a(I55
I62
tp1266
a(I72
I48
tp1267
a(I74
I122
tp1268
asg27
I200
sba(imain2
Polygon
p1269
(dp1270
g3
(I71
I43
tp1271
sg5
I200
sg6
(I218
I209
I116
I0
tp1272
sg8
(lp1273
(I116
I31
tp1274
a(I38
I0
tp1275
a(I53
I38
tp1276
a(I49
I45
tp1277
a(I50
I41
tp1278
a(I24
I31
tp1279
a(I75
I14
tp1280
a(I39
I86
tp1281
asg27
I200
sba(imain2
Polygon
p1282
(dp1283
g3
(I109
I75
tp1284
sg5
I200
sg6
(I108
I159
I66
I115
tp1285
sg8
(lp1286
(I63
I26
tp1287
a(I61
I87
tp1288
a(I120
I76
tp1289
a(I87
I26
tp1290
a(I64
I35
tp1291
a(I71
I69
tp1292
a(I62
I35
tp1293
a(I91
I63
tp1294
asg27
I200
sba(imain2
Polygon
p1295
(dp1296
g3
(I149
I45
tp1297
sg5
I200
sg6
(I205
I139
I126
I84
tp1298
sg8
(lp1299
(I199
I90
tp1300
a(I165
I70
tp1301
a(I183
I12
tp1302
a(I128
I0
tp1303
a(I175
I87
tp1304
a(I158
I84
tp1305
a(I187
I0
tp1306
a(I194
I33
tp1307
a(I189
I0
tp1308
a(I130
I0
tp1309
a(I195
I19
tp1310
a(I199
I27
tp1311
asg27
I200
sba(imain2
Polygon
p1312
(dp1313
g3
(I29
I98
tp1314
sg5
I200
sg6
(I6
I134
I169
I31
tp1315
sg8
(lp1316
(I0
I145
tp1317
a(I75
I70
tp1318
a(I0
I73
tp1319
a(I0
I142
tp1320
a(I32
I77
tp1321
a(I67
I79
tp1322
a(I60
I84
tp1323
a(I47
I113
tp1324
a(I28
I90
tp1325
a(I56
I50
tp1326
a(I0
I116
tp1327
a(I19
I137
tp1328
a(I63
I95
tp1329
asg27
I200
sba(imain2
Polygon
p1330
(dp1331
g3
(I90
I62
tp1332
sg5
I200
sg6
(I176
I116
I129
I1
tp1333
sg8
(lp1334
(I71
I20
tp1335
a(I61
I49
tp1336
a(I54
I78
tp1337
a(I125
I83
tp1338
a(I117
I52
tp1339
a(I63
I51
tp1340
a(I74
I67
tp1341
asg27
I200
sba(imain2
Polygon
p1342
(dp1343
g3
(I63
I49
tp1344
sg5
I200
sg6
(I216
I249
I133
I1
tp1345
sg8
(lp1346
(I83
I99
tp1347
a(I71
I78
tp1348
a(I89
I60
tp1349
a(I14
I3
tp1350
a(I16
I27
tp1351
a(I35
I15
tp1352
a(I36
I61
tp1353
a(I99
I65
tp1354
a(I112
I39
tp1355
a(I80
I12
tp1356
a(I72
I39
tp1357
asg27
I200
sba(imain2
Polygon
p1358
(dp1359
g3
(I31
I132
tp1360
sg5
I200
sg6
(I73
I116
I195
I3
tp1361
sg8
(lp1362
(I0
I177
tp1363
a(I35
I167
tp1364
a(I5
I107
tp1365
a(I70
I131
tp1366
a(I53
I134
tp1367
a(I10
I143
tp1368
a(I0
I113
tp1369
a(I42
I100
tp1370
a(I0
I125
tp1371
a(I0
I146
tp1372
a(I14
I172
tp1373
a(I51
I169
tp1374
a(I28
I154
tp1375
a(I12
I140
tp1376
a(I69
I141
tp1377
a(I5
I164
tp1378
asg27
I200
sba(imain2
Polygon
p1379
(dp1380
g3
(I80
I158
tp1381
sg5
I200
sg6
(I24
I41
I57
I1
tp1382
sg8
(lp1383
(I60
I161
tp1384
a(I114
I200
tp1385
a(I54
I185
tp1386
a(I94
I151
tp1387
a(I69
I136
tp1388
a(I105
I129
tp1389
a(I74
I194
tp1390
a(I65
I200
tp1391
a(I111
I109
tp1392
a(I35
I139
tp1393
a(I124
I119
tp1394
a(I58
I172
tp1395
a(I126
I180
tp1396
a(I39
I119
tp1397
a(I37
I191
tp1398
a(I82
I200
tp1399
a(I109
I149
tp1400
a(I30
I146
tp1401
a(I48
I115
tp1402
asg27
I200
sba(imain2
Polygon
p1403
(dp1404
g3
(I168
I51
tp1405
sg5
I200
sg6
(I97
I202
I209
I1
tp1406
sg8
(lp1407
(I120
I98
tp1408
a(I200
I20
tp1409
a(I200
I37
tp1410
a(I200
I31
tp1411
a(I196
I9
tp1412
a(I141
I16
tp1413
asg27
I200
sba(imain2
Polygon
p1414
(dp1415
g3
(I110
I14
tp1416
sg5
I200
sg6
(I155
I137
I48
I137
tp1417
sg8
(lp1418
(I118
I49
tp1419
a(I72
I59
tp1420
a(I101
I0
tp1421
a(I152
I0
tp1422
a(I158
I0
tp1423
a(I157
I28
tp1424
a(I70
I14
tp1425
a(I61
I0
tp1426
a(I67
I58
tp1427
a(I105
I0
tp1428
a(I135
I0
tp1429
a(I61
I0
tp1430
a(I77
I25
tp1431
asg27
I200
sba(imain2
Polygon
p1432
(dp1433
g3
(I85
I94
tp1434
sg5
I200
sg6
(I202
I232
I83
I62
tp1435
sg8
(lp1436
(I43
I56
tp1437
a(I110
I104
tp1438
a(I64
I45
tp1439
a(I105
I45
tp1440
a(I125
I73
tp1441
a(I92
I95
tp1442
a(I79
I138
tp1443
a(I109
I144
tp1444
a(I124
I111
tp1445
a(I62
I45
tp1446
a(I45
I66
tp1447
a(I55
I140
tp1448
a(I103
I103
tp1449
asg27
I200
sba(imain2
Polygon
p1450
(dp1451
g3
(I153
I81
tp1452
sg5
I200
sg6
(I120
I86
I189
I0
tp1453
sg8
(lp1454
(I125
I112
tp1455
a(I121
I118
tp1456
a(I150
I46
tp1457
a(I188
I103
tp1458
a(I163
I70
tp1459
a(I120
I129
tp1460
a(I194
I60
tp1461
a(I150
I42
tp1462
asg27
I200
sba(imain2
Polygon
p1463
(dp1464
g3
(I146
I37
tp1465
sg5
I200
sg6
(I227
I81
I153
I0
tp1466
sg8
(lp1467
(I191
I0
tp1468
a(I105
I34
tp1469
a(I105
I42
tp1470
a(I170
I57
tp1471
a(I168
I0
tp1472
a(I178
I36
tp1473
a(I176
I68
tp1474
asg27
I200
sba(imain2
Polygon
p1475
(dp1476
g3
(I36
I71
tp1477
sg5
I200
sg6
(I177
I118
I133
I1
tp1478
sg8
(lp1479
(I67
I92
tp1480
a(I30
I41
tp1481
a(I71
I32
tp1482
a(I57
I71
tp1483
a(I48
I38
tp1484
a(I0
I51
tp1485
a(I42
I81
tp1486
a(I50
I114
tp1487
a(I58
I42
tp1488
a(I45
I110
tp1489
a(I2
I109
tp1490
asg27
I200
sba(imain2
Polygon
p1491
(dp1492
g3
(I36
I181
tp1493
sg5
I200
sg6
(I143
I211
I95
I65
tp1494
sg8
(lp1495
(I78
I149
tp1496
a(I57
I137
tp1497
a(I81
I147
tp1498
a(I71
I200
tp1499
a(I43
I172
tp1500
a(I0
I200
tp1501
a(I0
I149
tp1502
a(I84
I200
tp1503
a(I71
I200
tp1504
asg27
I200
sba(imain2
Polygon
p1505
(dp1506
g3
(I94
I181
tp1507
sg5
I200
sg6
(I112
I48
I35
I0
tp1508
sg8
(lp1509
(I112
I152
tp1510
a(I73
I197
tp1511
a(I100
I142
tp1512
a(I119
I171
tp1513
a(I133
I167
tp1514
a(I107
I200
tp1515
a(I112
I200
tp1516
a(I73
I176
tp1517
a(I98
I144
tp1518
a(I97
I200
tp1519
asg27
I200
sba(imain2
Polygon
p1520
(dp1521
g3
(I4
I26
tp1522
sg5
I200
sg6
(I27
I103
I59
I39
tp1523
sg8
(lp1524
(I25
I0
tp1525
a(I1
I19
tp1526
a(I0
I38
tp1527
a(I0
I29
tp1528
a(I9
I3
tp1529
a(I54
I51
tp1530
a(I32
I59
tp1531
a(I21
I18
tp1532
a(I33
I48
tp1533
a(I0
I76
tp1534
a(I0
I0
tp1535
a(I48
I7
tp1536
a(I0
I38
tp1537
a(I0
I69
tp1538
a(I20
I0
tp1539
asg27
I200
sba(imain2
Polygon
p1540
(dp1541
g3
(I14
I45
tp1542
sg5
I200
sg6
(I145
I107
I1
I1
tp1543
sg8
(lp1544
(I0
I56
tp1545
a(I12
I26
tp1546
a(I26
I76
tp1547
a(I0
I32
tp1548
a(I25
I22
tp1549
a(I8
I81
tp1550
a(I0
I86
tp1551
a(I0
I73
tp1552
a(I37
I75
tp1553
a(I31
I14
tp1554
a(I6
I53
tp1555
asg27
I200
sba(imain2
Polygon
p1556
(dp1557
g3
(I103
I69
tp1558
sg5
I200
sg6
(I231
I218
I1
I36
tp1559
sg8
(lp1560
(I55
I36
tp1561
a(I53
I116
tp1562
a(I125
I109
tp1563
a(I135
I89
tp1564
a(I85
I19
tp1565
a(I102
I36
tp1566
asg27
I200
sba(imain2
Polygon
p1567
(dp1568
g3
(I61
I77
tp1569
sg5
I200
sg6
(I60
I120
I190
I118
tp1570
sg8
(lp1571
(I45
I115
tp1572
a(I88
I94
tp1573
a(I89
I87
tp1574
asg27
I200
sba(imain2
Polygon
p1575
(dp1576
g3
(I36
I98
tp1577
sg5
I200
sg6
(I0
I197
I72
I37
tp1578
sg8
(lp1579
(I28
I97
tp1580
a(I4
I90
tp1581
a(I0
I121
tp1582
a(I0
I53
tp1583
a(I80
I75
tp1584
a(I30
I53
tp1585
a(I0
I59
tp1586
a(I36
I48
tp1587
a(I42
I52
tp1588
a(I19
I124
tp1589
asg27
I200
sba(imain2
Polygon
p1590
(dp1591
g3
(I20
I133
tp1592
sg5
I200
sg6
(I196
I236
I132
I70
tp1593
sg8
(lp1594
(I25
I183
tp1595
a(I0
I181
tp1596
a(I0
I175
tp1597
a(I21
I139
tp1598
a(I28
I170
tp1599
asg27
I200
sba(imain2
Polygon
p1600
(dp1601
g3
(I178
I74
tp1602
sg5
I200
sg6
(I28
I118
I23
I0
tp1603
sg8
(lp1604
(I193
I110
tp1605
a(I138
I55
tp1606
a(I200
I57
tp1607
a(I200
I29
tp1608
a(I200
I85
tp1609
a(I173
I107
tp1610
a(I172
I86
tp1611
asg27
I200
sba(imain2
Polygon
p1612
(dp1613
g3
(I191
I151
tp1614
sg5
I200
sg6
(I237
I38
I74
I51
tp1615
sg8
(lp1616
(I168
I135
tp1617
a(I200
I123
tp1618
a(I200
I189
tp1619
asg27
I200
sba(imain2
Polygon
p1620
(dp1621
g3
(I81
I200
tp1622
sg5
I200
sg6
(I39
I56
I159
I24
tp1623
sg8
(lp1624
(I63
I200
tp1625
a(I38
I191
tp1626
a(I46
I200
tp1627
a(I78
I172
tp1628
a(I46
I200
tp1629
a(I103
I198
tp1630
a(I103
I200
tp1631
a(I114
I200
tp1632
a(I99
I200
tp1633
asg27
I200
sba(imain2
Polygon
p1634
(dp1635
g3
(I8
I200
tp1636
sg5
I200
sg6
(I234
I14
I64
I126
tp1637
sg8
(lp1638
(I0
I200
tp1639
a(I0
I200
tp1640
a(I41
I200
tp1641
a(I0
I200
tp1642
a(I0
I200
tp1643
a(I35
I200
tp1644
a(I45
I200
tp1645
a(I23
I200
tp1646
asg27
I200
sba(imain2
Polygon
p1647
(dp1648
g3
(I12
I187
tp1649
sg5
I200
sg6
(I221
I0
I177
I0
tp1650
sg8
(lp1651
(I23
I192
tp1652
a(I22
I200
tp1653
a(I34
I164
tp1654
a(I0
I174
tp1655
a(I3
I143
tp1656
a(I3
I200
tp1657
a(I42
I172
tp1658
a(I54
I200
tp1659
a(I0
I173
tp1660
a(I20
I145
tp1661
a(I16
I198
tp1662
a(I0
I200
tp1663
a(I17
I200
tp1664
asg27
I200
sba(imain2
Polygon
p1665
(dp1666
g3
(I142
I43
tp1667
sg5
I200
sg6
(I49
I75
I163
I0
tp1668
sg8
(lp1669
(I129
I23
tp1670
a(I149
I90
tp1671
a(I150
I53
tp1672
a(I92
I48
tp1673
a(I131
I6
tp1674
a(I136
I59
tp1675
a(I125
I49
tp1676
a(I123
I43
tp1677
a(I95
I15
tp1678
a(I122
I35
tp1679
a(I170
I34
tp1680
a(I138
I19
tp1681
a(I152
I6
tp1682
a(I103
I43
tp1683
a(I146
I16
tp1684
a(I189
I16
tp1685
asg27
I200
sba(imain2
Polygon
p1686
(dp1687
g3
(I89
I37
tp1688
sg5
I200
sg6
(I0
I101
I197
I69
tp1689
sg8
(lp1690
(I104
I35
tp1691
a(I54
I51
tp1692
a(I55
I50
tp1693
asg27
I200
sba(imain2
Polygon
p1694
(dp1695
g3
(I43
I51
tp1696
sg5
I200
sg6
(I34
I140
I121
I1
tp1697
sg8
(lp1698
(I15
I67
tp1699
a(I5
I6
tp1700
a(I76
I90
tp1701
a(I20
I81
tp1702
a(I29
I5
tp1703
a(I66
I97
tp1704
a(I62
I59
tp1705
a(I37
I59
tp1706
a(I76
I99
tp1707
a(I47
I50
tp1708
a(I2
I88
tp1709
a(I41
I3
tp1710
a(I88
I11
tp1711
a(I51
I32
tp1712
a(I75
I8
tp1713
a(I15
I62
tp1714
asg27
I200
sba(imain2
Polygon
p1715
(dp1716
g3
(I23
I143
tp1717
sg5
I200
sg6
(I72
I245
I170
I38
tp1718
sg8
(lp1719
(I0
I94
tp1720
a(I0
I130
tp1721
a(I0
I188
tp1722
a(I29
I191
tp1723
a(I34
I148
tp1724
a(I0
I157
tp1725
a(I0
I133
tp1726
asg27
I200
sba(imain2
Polygon
p1727
(dp1728
g3
(I32
I143
tp1729
sg5
I200
sg6
(I51
I69
I159
I1
tp1730
sg8
(lp1731
(I82
I177
tp1732
a(I49
I177
tp1733
a(I63
I174
tp1734
a(I15
I156
tp1735
a(I45
I154
tp1736
a(I1
I141
tp1737
a(I27
I131
tp1738
a(I17
I146
tp1739
a(I70
I117
tp1740
a(I41
I99
tp1741
a(I58
I115
tp1742
a(I32
I170
tp1743
a(I0
I152
tp1744
a(I53
I187
tp1745
a(I22
I122
tp1746
a(I64
I151
tp1747
a(I37
I155
tp1748
asg27
I200
sba(imain2
Polygon
p1749
(dp1750
g3
(I69
I107
tp1751
sg5
I200
sg6
(I156
I228
I1
I4
tp1752
sg8
(lp1753
(I95
I66
tp1754
a(I48
I101
tp1755
a(I45
I119
tp1756
a(I109
I101
tp1757
a(I94
I134
tp1758
a(I49
I120
tp1759
a(I34
I151
tp1760
a(I93
I154
tp1761
a(I108
I69
tp1762
a(I51
I66
tp1763
a(I105
I141
tp1764
a(I73
I153
tp1765
a(I34
I125
tp1766
asg27
I200
sba(imain2
Polygon
p1767
(dp1768
g3
(I172
I111
tp1769
sg5
I200
sg6
(I236
I212
I83
I120
tp1770
sg8
(lp1771
(I200
I62
tp1772
a(I200
I94
tp1773
a(I166
I66
tp1774
asg27
I200
sba(imain2
Polygon
p1775
(dp1776
g3
(I150
I91
tp1777
sg5
I200
sg6
(I8
I239
I84
I35
tp1778
sg8
(lp1779
(I174
I136
tp1780
a(I165
I69
tp1781
a(I181
I124
tp1782
a(I199
I68
tp1783
a(I197
I130
tp1784
asg27
I200
sba(imain2
Polygon
p1785
(dp1786
g3
(I135
I188
tp1787
sg5
I200
sg6
(I76
I226
I4
I0
tp1788
sg8
(lp1789
(I184
I181
tp1790
a(I127
I200
tp1791
a(I133
I200
tp1792
a(I161
I166
tp1793
a(I166
I162
tp1794
a(I85
I183
tp1795
a(I164
I200
tp1796
asg27
I200
sba(imain2
Polygon
p1797
(dp1798
g3
(I127
I113
tp1799
sg5
I200
sg6
(I133
I210
I151
I1
tp1800
sg8
(lp1801
(I116
I100
tp1802
a(I174
I63
tp1803
a(I140
I80
tp1804
a(I158
I139
tp1805
a(I111
I130
tp1806
asg27
I200
sba(imain2
Polygon
p1807
(dp1808
g3
(I173
I20
tp1809
sg5
I200
sg6
(I230
I1
I218
I1
tp1810
sg8
(lp1811
(I166
I0
tp1812
a(I187
I8
tp1813
a(I183
I69
tp1814
a(I200
I0
tp1815
a(I145
I26
tp1816
a(I173
I62
tp1817
a(I152
I0
tp1818
a(I143
I58
tp1819
a(I186
I67
tp1820
a(I200
I0
tp1821
a(I166
I0
tp1822
a(I163
I0
tp1823
a(I173
I0
tp1824
a(I144
I0
tp1825
a(I200
I35
tp1826
asg27
I200
sba(imain2
Polygon
p1827
(dp1828
g3
(I100
I197
tp1829
sg5
I200
sg6
(I33
I102
I175
I59
tp1830
sg8
(lp1831
(I99
I200
tp1832
a(I118
I200
tp1833
a(I147
I200
tp1834
a(I104
I151
tp1835
a(I129
I173
tp1836
a(I105
I200
tp1837
a(I92
I200
tp1838
a(I140
I200
tp1839
a(I133
I200
tp1840
a(I139
I200
tp1841
a(I92
I200
tp1842
a(I121
I200
tp1843
a(I100
I199
tp1844
asg27
I200
sba(imain2
Polygon
p1845
(dp1846
g3
(I70
I0
tp1847
sg5
I200
sg6
(I135
I0
I193
I1
tp1848
sg8
(lp1849
(I62
I0
tp1850
a(I56
I0
tp1851
a(I112
I0
tp1852
a(I107
I0
tp1853
a(I109
I36
tp1854
a(I64
I0
tp1855
a(I30
I0
tp1856
asg27
I200
sba(imain2
Polygon
p1857
(dp1858
g3
(I106
I152
tp1859
sg5
I200
sg6
(I98
I161
I60
I65
tp1860
sg8
(lp1861
(I133
I114
tp1862
a(I119
I166
tp1863
a(I59
I200
tp1864
a(I140
I199
tp1865
a(I115
I114
tp1866
a(I85
I153
tp1867
a(I124
I140
tp1868
a(I142
I198
tp1869
a(I122
I150
tp1870
a(I68
I141
tp1871
a(I79
I165
tp1872
a(I99
I123
tp1873
a(I98
I156
tp1874
asg27
I200
sba(imain2
Polygon
p1875
(dp1876
g3
(I11
I38
tp1877
sg5
I200
sg6
(I108
I1
I123
I1
tp1878
sg8
(lp1879
(I11
I45
tp1880
a(I0
I65
tp1881
a(I35
I52
tp1882
a(I0
I12
tp1883
a(I8
I17
tp1884
a(I0
I79
tp1885
a(I52
I31
tp1886
a(I3
I4
tp1887
a(I46
I62
tp1888
a(I3
I0
tp1889
asg27
I200
sba(imain2
Polygon
p1890
(dp1891
g3
(I23
I68
tp1892
sg5
I200
sg6
(I215
I111
I188
I119
tp1893
sg8
(lp1894
(I35
I109
tp1895
a(I24
I85
tp1896
a(I54
I19
tp1897
a(I0
I66
tp1898
a(I35
I32
tp1899
a(I64
I43
tp1900
a(I0
I19
tp1901
a(I0
I111
tp1902
a(I7
I98
tp1903
a(I38
I112
tp1904
a(I10
I74
tp1905
asg27
I200
sba(imain2
Polygon
p1906
(dp1907
g3
(I73
I8
tp1908
sg5
I200
sg6
(I104
I162
I20
I128
tp1909
sg8
(lp1910
(I33
I0
tp1911
a(I113
I0
tp1912
a(I27
I56
tp1913
a(I23
I45
tp1914
a(I27
I13
tp1915
a(I32
I0
tp1916
a(I39
I9
tp1917
a(I28
I0
tp1918
a(I119
I40
tp1919
asg27
I200
sba(imain2
Polygon
p1920
(dp1921
g3
(I175
I187
tp1922
sg5
I200
sg6
(I117
I193
I196
I50
tp1923
sg8
(lp1924
(I159
I200
tp1925
a(I170
I200
tp1926
a(I146
I200
tp1927
asg27
I200
sba(imain2
Polygon
p1928
(dp1929
g3
(I153
I195
tp1930
sg5
I200
sg6
(I54
I165
I29
I1
tp1931
sg8
(lp1932
(I179
I189
tp1933
a(I123
I200
tp1934
a(I135
I200
tp1935
a(I197
I200
tp1936
a(I192
I184
tp1937
a(I196
I200
tp1938
a(I125
I147
tp1939
a(I103
I169
tp1940
a(I103
I196
tp1941
asg27
I200
sba(imain2
Polygon
p1942
(dp1943
g3
(I199
I6
tp1944
sg5
I200
sg6
(I143
I39
I86
I0
tp1945
sg8
(lp1946
(I200
I20
tp1947
a(I200
I2
tp1948
a(I156
I0
tp1949
a(I165
I20
tp1950
a(I200
I20
tp1951
a(I200
I0
tp1952
a(I191
I0
tp1953
a(I164
I0
tp1954
a(I200
I38
tp1955
asg27
I200
sba(imain2
Polygon
p1956
(dp1957
g3
(I46
I191
tp1958
sg5
I200
sg6
(I89
I15
I8
I102
tp1959
sg8
(lp1960
(I69
I200
tp1961
a(I84
I189
tp1962
a(I89
I167
tp1963
a(I0
I200
tp1964
a(I0
I146
tp1965
a(I27
I155
tp1966
a(I54
I200
tp1967
a(I34
I181
tp1968
a(I84
I178
tp1969
a(I60
I200
tp1970
asg27
I200
sba(imain2
Polygon
p1971
(dp1972
g3
(I144
I179
tp1973
sg5
I200
sg6
(I124
I32
I189
I29
tp1974
sg8
(lp1975
(I123
I130
tp1976
a(I153
I186
tp1977
a(I136
I182
tp1978
a(I130
I191
tp1979
a(I102
I180
tp1980
a(I191
I200
tp1981
a(I105
I200
tp1982
a(I133
I183
tp1983
a(I108
I200
tp1984
a(I164
I155
tp1985
a(I152
I132
tp1986
a(I175
I200
tp1987
a(I154
I153
tp1988
a(I168
I199
tp1989
a(I168
I200
tp1990
a(I181
I200
tp1991
asg27
I200
sba(imain2
Polygon
p1992
(dp1993
g3
(I120
I46
tp1994
sg5
I200
sg6
(I81
I82
I101
I48
tp1995
sg8
(lp1996
(I133
I48
tp1997
a(I126
I24
tp1998
a(I138
I46
tp1999
a(I132
I30
tp2000
a(I113
I91
tp2001
a(I132
I24
tp2002
a(I98
I13
tp2003
asg27
I200
sba(imain2
Polygon
p2004
(dp2005
g3
(I100
I144
tp2006
sg5
I200
sg6
(I122
I183
I165
I106
tp2007
sg8
(lp2008
(I112
I95
tp2009
a(I98
I152
tp2010
a(I98
I126
tp2011
a(I74
I100
tp2012
a(I73
I147
tp2013
a(I83
I152
tp2014
a(I125
I151
tp2015
a(I68
I158
tp2016
a(I57
I102
tp2017
a(I80
I97
tp2018
asg27
I200
sba(imain2
Polygon
p2019
(dp2020
g3
(I151
I184
tp2021
sg5
I200
sg6
(I138
I1
I175
I1
tp2022
sg8
(lp2023
(I141
I163
tp2024
a(I122
I200
tp2025
a(I162
I159
tp2026
asg27
I200
sba(imain2
Polygon
p2027
(dp2028
g3
(I124
I187
tp2029
sg5
I200
sg6
(I25
I27
I210
I0
tp2030
sg8
(lp2031
(I90
I200
tp2032
a(I138
I200
tp2033
a(I131
I200
tp2034
a(I140
I200
tp2035
a(I119
I200
tp2036
a(I147
I147
tp2037
a(I113
I200
tp2038
a(I117
I187
tp2039
a(I128
I165
tp2040
a(I118
I147
tp2041
asg27
I200
sba(imain2
Polygon
p2042
(dp2043
g3
(I48
I52
tp2044
sg5
I200
sg6
(I247
I132
I158
I141
tp2045
sg8
(lp2046
(I58
I94
tp2047
a(I79
I94
tp2048
a(I97
I60
tp2049
a(I67
I7
tp2050
a(I35
I65
tp2051
a(I31
I93
tp2052
a(I90
I3
tp2053
a(I0
I3
tp2054
a(I0
I82
tp2055
a(I2
I102
tp2056
a(I65
I76
tp2057
a(I18
I85
tp2058
a(I75
I83
tp2059
a(I67
I95
tp2060
asg27
I200
sba(imain2
Polygon
p2061
(dp2062
g3
(I139
I74
tp2063
sg5
I200
sg6
(I151
I190
I236
I80
tp2064
sg8
(lp2065
(I189
I47
tp2066
a(I185
I26
tp2067
a(I157
I30
tp2068
a(I169
I88
tp2069
a(I187
I48
tp2070
asg27
I200
sba(imain2
Polygon
p2071
(dp2072
g3
(I161
I83
tp2073
sg5
I200
sg6
(I202
I147
I102
I29
tp2074
sg8
(lp2075
(I114
I113
tp2076
a(I114
I49
tp2077
a(I178
I77
tp2078
a(I155
I98
tp2079
a(I177
I113
tp2080
a(I199
I106
tp2081
a(I200
I49
tp2082
a(I140
I35
tp2083
a(I180
I50
tp2084
a(I147
I60
tp2085
a(I145
I53
tp2086
a(I124
I126
tp2087
asg27
I200
sba(imain2
Polygon
p2088
(dp2089
g3
(I88
I36
tp2090
sg5
I200
sg6
(I1
I30
I70
I103
tp2091
sg8
(lp2092
(I80
I10
tp2093
a(I49
I39
tp2094
a(I102
I37
tp2095
a(I120
I27
tp2096
a(I125
I14
tp2097
a(I135
I16
tp2098
a(I71
I9
tp2099
a(I89
I8
tp2100
a(I58
I13
tp2101
asg27
I200
sba(imain2
Polygon
p2102
(dp2103
g3
(I12
I36
tp2104
sg5
I200
sg6
(I162
I102
I213
I1
tp2105
sg8
(lp2106
(I11
I65
tp2107
a(I0
I52
tp2108
a(I0
I69
tp2109
a(I31
I6
tp2110
a(I0
I79
tp2111
a(I0
I62
tp2112
a(I45
I0
tp2113
a(I6
I61
tp2114
asg27
I200
sba(imain2
Polygon
p2115
(dp2116
g3
(I79
I176
tp2117
sg5
I200
sg6
(I198
I83
I166
I98
tp2118
sg8
(lp2119
(I129
I200
tp2120
a(I127
I162
tp2121
a(I69
I200
tp2122
a(I91
I200
tp2123
a(I96
I200
tp2124
asg27
I200
sba(imain2
Polygon
p2125
(dp2126
g3
(I159
I193
tp2127
sg5
I200
sg6
(I188
I172
I60
I1
tp2128
sg8
(lp2129
(I115
I192
tp2130
a(I136
I181
tp2131
a(I185
I200
tp2132
a(I173
I200
tp2133
a(I180
I200
tp2134
a(I200
I196
tp2135
a(I192
I188
tp2136
a(I134
I143
tp2137
a(I129
I200
tp2138
a(I197
I200
tp2139
a(I157
I195
tp2140
a(I160
I187
tp2141
asg27
I200
sba(imain2
Polygon
p2142
(dp2143
g3
(I52
I197
tp2144
sg5
I200
sg6
(I164
I145
I228
I1
tp2145
sg8
(lp2146
(I87
I182
tp2147
a(I50
I179
tp2148
a(I29
I200
tp2149
a(I9
I200
tp2150
a(I10
I147
tp2151
a(I22
I181
tp2152
a(I16
I153
tp2153
a(I95
I187
tp2154
asg27
I200
sba(imain2
Polygon
p2155
(dp2156
g3
(I96
I168
tp2157
sg5
I200
sg6
(I80
I155
I161
I0
tp2158
sg8
(lp2159
(I105
I151
tp2160
a(I128
I200
tp2161
a(I97
I200
tp2162
a(I68
I178
tp2163
a(I144
I177
tp2164
a(I76
I196
tp2165
a(I75
I200
tp2166
a(I125
I166
tp2167
a(I139
I177
tp2168
a(I108
I170
tp2169
a(I123
I192
tp2170
asg27
I200
sba(imain2
Polygon
p2171
(dp2172
g3
(I148
I67
tp2173
sg5
I200
sg6
(I210
I28
I21
I1
tp2174
sg8
(lp2175
(I182
I102
tp2176
a(I165
I81
tp2177
a(I149
I107
tp2178
a(I181
I47
tp2179
a(I165
I109
tp2180
a(I110
I18
tp2181
a(I152
I25
tp2182
a(I123
I20
tp2183
a(I100
I97
tp2184
a(I171
I111
tp2185
a(I118
I56
tp2186
a(I159
I41
tp2187
a(I198
I101
tp2188
a(I117
I89
tp2189
asg27
I200
sba(imain2
Polygon
p2190
(dp2191
g3
(I185
I29
tp2192
sg5
I200
sg6
(I139
I164
I76
I74
tp2193
sg8
(lp2194
(I136
I0
tp2195
a(I199
I0
tp2196
a(I200
I25
tp2197
a(I174
I43
tp2198
a(I138
I31
tp2199
asg27
I200
sba(imain2
Polygon
p2200
(dp2201
g3
(I77
I185
tp2202
sg5
I200
sg6
(I27
I23
I96
I93
tp2203
sg8
(lp2204
(I122
I163
tp2205
a(I63
I154
tp2206
a(I110
I156
tp2207
a(I124
I169
tp2208
a(I40
I180
tp2209
a(I31
I177
tp2210
a(I35
I180
tp2211
a(I104
I149
tp2212
a(I64
I192
tp2213
a(I42
I162
tp2214
a(I74
I164
tp2215
a(I77
I170
tp2216
a(I75
I169
tp2217
asg27
I200
sba(imain2
Polygon
p2218
(dp2219
g3
(I183
I173
tp2220
sg5
I200
sg6
(I108
I214
I86
I39
tp2221
sg8
(lp2222
(I200
I200
tp2223
a(I200
I160
tp2224
a(I200
I200
tp2225
a(I200
I125
tp2226
a(I137
I200
tp2227
a(I165
I200
tp2228
a(I184
I179
tp2229
asg27
I200
sba(imain2
Polygon
p2230
(dp2231
g3
(I141
I78
tp2232
sg5
I200
sg6
(I230
I87
I164
I1
tp2233
sg8
(lp2234
(I99
I101
tp2235
a(I182
I64
tp2236
a(I176
I100
tp2237
a(I162
I119
tp2238
a(I134
I123
tp2239
a(I153
I109
tp2240
asg27
I200
sba(imain2
Polygon
p2241
(dp2242
g3
(I8
I10
tp2243
sg5
I200
sg6
(I61
I42
I71
I96
tp2244
sg8
(lp2245
(I33
I4
tp2246
a(I0
I0
tp2247
a(I30
I6
tp2248
a(I0
I0
tp2249
a(I30
I0
tp2250
asg27
I200
sba(imain2
Polygon
p2251
(dp2252
g3
(I37
I13
tp2253
sg5
I200
sg6
(I0
I114
I18
I105
tp2254
sg8
(lp2255
(I36
I0
tp2256
a(I16
I0
tp2257
a(I2
I0
tp2258
a(I0
I6
tp2259
a(I47
I4
tp2260
a(I33
I0
tp2261
a(I37
I0
tp2262
a(I53
I0
tp2263
a(I27
I0
tp2264
a(I38
I0
tp2265
a(I54
I0
tp2266
a(I41
I0
tp2267
asg27
I200
sba(imain2
Polygon
p2268
(dp2269
g3
(I168
I175
tp2270
sg5
I200
sg6
(I94
I52
I24
I0
tp2271
sg8
(lp2272
(I153
I168
tp2273
a(I179
I200
tp2274
a(I195
I166
tp2275
a(I185
I200
tp2276
a(I200
I200
tp2277
a(I200
I169
tp2278
a(I118
I182
tp2279
a(I200
I171
tp2280
a(I200
I200
tp2281
a(I122
I174
tp2282
a(I171
I200
tp2283
asg27
I200
sba(imain2
Polygon
p2284
(dp2285
g3
(I75
I83
tp2286
sg5
I200
sg6
(I27
I32
I18
I0
tp2287
sg8
(lp2288
(I91
I55
tp2289
a(I50
I113
tp2290
a(I118
I51
tp2291
a(I36
I133
tp2292
a(I36
I53
tp2293
a(I51
I69
tp2294
a(I28
I131
tp2295
a(I28
I89
tp2296
a(I87
I115
tp2297
a(I88
I88
tp2298
a(I101
I82
tp2299
a(I43
I89
tp2300
a(I101
I66
tp2301
a(I89
I66
tp2302
a(I111
I101
tp2303
a(I99
I102
tp2304
asg27
I200
sba(imain2
Polygon
p2305
(dp2306
g3
(I18
I79
tp2307
sg5
I200
sg6
(I80
I0
I174
I97
tp2308
sg8
(lp2309
(I36
I125
tp2310
a(I43
I109
tp2311
a(I18
I107
tp2312
a(I40
I111
tp2313
a(I12
I123
tp2314
a(I0
I103
tp2315
a(I0
I117
tp2316
a(I39
I119
tp2317
asg27
I200
sba(imain2
Polygon
p2318
(dp2319
g3
(I27
I28
tp2320
sg5
I200
sg6
(I220
I145
I39
I1
tp2321
sg8
(lp2322
(I26
I20
tp2323
a(I28
I70
tp2324
a(I19
I0
tp2325
a(I75
I77
tp2326
a(I71
I0
tp2327
a(I65
I38
tp2328
a(I69
I72
tp2329
a(I7
I78
tp2330
a(I0
I0
tp2331
a(I0
I0
tp2332
a(I63
I0
tp2333
a(I16
I59
tp2334
a(I64
I6
tp2335
a(I59
I6
tp2336
asg27
I200
sba(imain2
Polygon
p2337
(dp2338
g3
(I85
I60
tp2339
sg5
I200
sg6
(I83
I112
I11
I99
tp2340
sg8
(lp2341
(I115
I60
tp2342
a(I134
I87
tp2343
a(I55
I103
tp2344
a(I36
I62
tp2345
a(I72
I90
tp2346
a(I131
I73
tp2347
a(I117
I52
tp2348
a(I123
I32
tp2349
a(I108
I57
tp2350
asg27
I200
sba(imain2
Polygon
p2351
(dp2352
g3
(I45
I110
tp2353
sg5
I200
sg6
(I40
I239
I179
I38
tp2354
sg8
(lp2355
(I68
I158
tp2356
a(I45
I112
tp2357
a(I72
I109
tp2358
asg27
I200
sba(imain2
Polygon
p2359
(dp2360
g3
(I54
I138
tp2361
sg5
I200
sg6
(I117
I64
I185
I1
tp2362
sg8
(lp2363
(I18
I163
tp2364
a(I27
I154
tp2365
a(I45
I131
tp2366
a(I12
I130
tp2367
a(I95
I108
tp2368
a(I60
I176
tp2369
a(I103
I157
tp2370
a(I84
I118
tp2371
a(I4
I97
tp2372
asg27
I200
sba(imain2
Polygon
p2373
(dp2374
g3
(I162
I123
tp2375
sg5
I200
sg6
(I41
I58
I71
I6
tp2376
sg8
(lp2377
(I121
I78
tp2378
a(I200
I173
tp2379
a(I200
I137
tp2380
a(I119
I112
tp2381
a(I180
I78
tp2382
a(I200
I106
tp2383
a(I180
I124
tp2384
a(I188
I77
tp2385
a(I192
I98
tp2386
a(I169
I105
tp2387
a(I139
I167
tp2388
a(I120
I79
tp2389
a(I147
I147
tp2390
a(I156
I80
tp2391
a(I137
I130
tp2392
a(I196
I165
tp2393
a(I137
I78
tp2394
a(I194
I166
tp2395
a(I122
I121
tp2396
asg27
I200
sba(imain2
Polygon
p2397
(dp2398
g3
(I144
I70
tp2399
sg5
I200
sg6
(I191
I38
I117
I23
tp2400
sg8
(lp2401
(I170
I95
tp2402
a(I139
I84
tp2403
a(I142
I70
tp2404
asg27
I200
sba(imain2
Polygon
p2405
(dp2406
g3
(I11
I36
tp2407
sg5
I200
sg6
(I144
I30
I76
I22
tp2408
sg8
(lp2409
(I0
I42
tp2410
a(I0
I45
tp2411
a(I0
I0
tp2412
a(I0
I78
tp2413
a(I0
I56
tp2414
a(I0
I30
tp2415
a(I0
I35
tp2416
a(I0
I25
tp2417
asg27
I200
sba(imain2
Polygon
p2418
(dp2419
g3
(I85
I175
tp2420
sg5
I200
sg6
(I240
I52
I42
I1
tp2421
sg8
(lp2422
(I42
I130
tp2423
a(I112
I137
tp2424
a(I108
I186
tp2425
a(I118
I133
tp2426
a(I111
I200
tp2427
a(I114
I192
tp2428
a(I45
I126
tp2429
a(I38
I152
tp2430
a(I116
I138
tp2431
a(I61
I131
tp2432
a(I69
I177
tp2433
a(I80
I162
tp2434
a(I116
I200
tp2435
a(I105
I180
tp2436
asg27
I200
sba(imain2
Polygon
p2437
(dp2438
g3
(I78
I22
tp2439
sg5
I200
sg6
(I0
I239
I64
I1
tp2440
sg8
(lp2441
(I38
I0
tp2442
a(I64
I0
tp2443
a(I112
I7
tp2444
a(I106
I8
tp2445
a(I80
I0
tp2446
a(I127
I21
tp2447
a(I88
I0
tp2448
asg27
I200
sba(imain2
Polygon
p2449
(dp2450
g3
(I58
I165
tp2451
sg5
I200
sg6
(I72
I1
I134
I82
tp2452
sg8
(lp2453
(I40
I160
tp2454
a(I37
I152
tp2455
a(I46
I164
tp2456
asg27
I200
sba(imain2
Polygon
p2457
(dp2458
g3
(I98
I69
tp2459
sg5
I200
sg6
(I71
I212
I124
I22
tp2460
sg8
(lp2461
(I111
I113
tp2462
a(I126
I99
tp2463
a(I102
I89
tp2464
asg27
I200
sba(imain2
Polygon
p2465
(dp2466
g3
(I184
I193
tp2467
sg5
I200
sg6
(I17
I62
I68
I1
tp2468
sg8
(lp2469
(I194
I200
tp2470
a(I200
I163
tp2471
a(I151
I200
tp2472
a(I200
I155
tp2473
asg27
I200
sba(imain2
Polygon
p2474
(dp2475
g3
(I136
I181
tp2476
sg5
I200
sg6
(I117
I127
I188
I1
tp2477
sg8
(lp2478
(I107
I195
tp2479
a(I166
I184
tp2480
a(I132
I200
tp2481
a(I138
I200
tp2482
a(I127
I139
tp2483
a(I144
I147
tp2484
a(I99
I200
tp2485
asg27
I200
sba(imain2
Polygon
p2486
(dp2487
g3
(I65
I69
tp2488
sg5
I200
sg6
(I101
I90
I153
I0
tp2489
sg8
(lp2490
(I24
I101
tp2491
a(I37
I51
tp2492
a(I113
I49
tp2493
a(I65
I53
tp2494
a(I69
I46
tp2495
a(I87
I23
tp2496
a(I26
I115
tp2497
a(I73
I48
tp2498
a(I38
I37
tp2499
a(I17
I99
tp2500
a(I88
I83
tp2501
asg27
I200
sba(imain2
Polygon
p2502
(dp2503
g3
(I146
I60
tp2504
sg5
I200
sg6
(I1
I0
I199
I0
tp2505
sg8
(lp2506
(I143
I66
tp2507
a(I149
I28
tp2508
a(I120
I67
tp2509
a(I145
I56
tp2510
a(I133
I38
tp2511
asg27
I200
sba(imain2
Polygon
p2512
(dp2513
g3
(I7
I191
tp2514
sg5
I200
sg6
(I1
I165
I63
I1
tp2515
sg8
(lp2516
(I9
I200
tp2517
a(I0
I194
tp2518
a(I57
I200
tp2519
a(I0
I198
tp2520
a(I0
I162
tp2521
a(I24
I148
tp2522
a(I51
I182
tp2523
a(I46
I173
tp2524
a(I0
I150
tp2525
a(I32
I200
tp2526
a(I12
I200
tp2527
a(I0
I143
tp2528
a(I54
I200
tp2529
asg27
I200
sba(imain2
Polygon
p2530
(dp2531
g3
(I177
I12
tp2532
sg5
I200
sg6
(I0
I126
I136
I0
tp2533
sg8
(lp2534
(I179
I47
tp2535
a(I180
I42
tp2536
a(I131
I0
tp2537
a(I192
I0
tp2538
a(I143
I37
tp2539
a(I200
I50
tp2540
a(I172
I22
tp2541
a(I200
I0
tp2542
asg27
I200
sba(imain2
Polygon
p2543
(dp2544
g3
(I98
I60
tp2545
sg5
I200
sg6
(I140
I35
I46
I0
tp2546
sg8
(lp2547
(I138
I25
tp2548
a(I70
I57
tp2549
a(I104
I32
tp2550
a(I147
I11
tp2551
a(I125
I68
tp2552
a(I77
I21
tp2553
a(I108
I102
tp2554
a(I52
I33
tp2555
asg27
I200
sba(imain2
Polygon
p2556
(dp2557
g3
(I26
I121
tp2558
sg5
I200
sg6
(I19
I110
I2
I73
tp2559
sg8
(lp2560
(I5
I167
tp2561
a(I39
I85
tp2562
a(I0
I101
tp2563
a(I0
I166
tp2564
a(I30
I111
tp2565
a(I14
I135
tp2566
a(I45
I83
tp2567
a(I42
I128
tp2568
a(I26
I128
tp2569
a(I47
I156
tp2570
asg27
I200
sba(imain2
Polygon
p2571
(dp2572
g3
(I59
I10
tp2573
sg5
I200
sg6
(I178
I55
I106
I122
tp2574
sg8
(lp2575
(I13
I0
tp2576
a(I71
I0
tp2577
a(I73
I6
tp2578
a(I69
I0
tp2579
a(I109
I0
tp2580
a(I101
I15
tp2581
a(I10
I0
tp2582
a(I17
I23
tp2583
asg27
I200
sba(imain2
Polygon
p2584
(dp2585
g3
(I171
I141
tp2586
sg5
I200
sg6
(I36
I196
I137
I1
tp2587
sg8
(lp2588
(I125
I189
tp2589
a(I145
I150
tp2590
a(I153
I146
tp2591
a(I177
I154
tp2592
a(I200
I145
tp2593
a(I157
I111
tp2594
a(I200
I94
tp2595
a(I135
I99
tp2596
a(I170
I107
tp2597
asg27
I200
sba(imain2
Polygon
p2598
(dp2599
g3
(I80
I143
tp2600
sg5
I200
sg6
(I72
I74
I9
I109
tp2601
sg8
(lp2602
(I66
I140
tp2603
a(I70
I145
tp2604
a(I93
I192
tp2605
a(I130
I187
tp2606
a(I120
I141
tp2607
a(I69
I128
tp2608
a(I62
I133
tp2609
a(I71
I170
tp2610
a(I62
I180
tp2611
a(I86
I147
tp2612
asg27
I200
sba(imain2
Polygon
p2613
(dp2614
g3
(I191
I199
tp2615
sg5
I200
sg6
(I0
I223
I23
I1
tp2616
sg8
(lp2617
(I169
I200
tp2618
a(I190
I200
tp2619
a(I200
I200
tp2620
a(I193
I156
tp2621
a(I146
I150
tp2622
a(I200
I200
tp2623
a(I200
I200
tp2624
a(I186
I196
tp2625
a(I200
I200
tp2626
asg27
I200
sba(imain2
Polygon
p2627
(dp2628
g3
(I6
I112
tp2629
sg5
I200
sg6
(I131
I70
I127
I50
tp2630
sg8
(lp2631
(I0
I137
tp2632
a(I0
I140
tp2633
a(I25
I84
tp2634
a(I0
I100
tp2635
a(I28
I147
tp2636
a(I0
I109
tp2637
a(I0
I159
tp2638
a(I0
I63
tp2639
asg27
I200
sba(imain2
Polygon
p2640
(dp2641
g3
(I189
I37
tp2642
sg5
I200
sg6
(I31
I237
I163
I40
tp2643
sg8
(lp2644
(I200
I46
tp2645
a(I191
I37
tp2646
a(I188
I0
tp2647
a(I199
I1
tp2648
asg27
I200
sba(imain2
Polygon
p2649
(dp2650
g3
(I121
I50
tp2651
sg5
I200
sg6
(I3
I72
I1
I0
tp2652
sg8
(lp2653
(I136
I45
tp2654
a(I104
I15
tp2655
a(I148
I69
tp2656
asg27
I200
sba(imain2
Polygon
p2657
(dp2658
g3
(I58
I165
tp2659
sg5
I200
sg6
(I141
I99
I1
I1
tp2660
sg8
(lp2661
(I30
I120
tp2662
a(I68
I175
tp2663
a(I37
I128
tp2664
a(I27
I192
tp2665
a(I37
I149
tp2666
a(I66
I130
tp2667
a(I99
I183
tp2668
a(I107
I152
tp2669
a(I87
I182
tp2670
a(I27
I137
tp2671
a(I65
I160
tp2672
a(I36
I200
tp2673
a(I56
I182
tp2674
asg27
I200
sba(imain2
Polygon
p2675
(dp2676
g3
(I155
I38
tp2677
sg5
I200
sg6
(I99
I107
I235
I79
tp2678
sg8
(lp2679
(I160
I2
tp2680
a(I162
I13
tp2681
a(I165
I27
tp2682
asg27
I200
sba(imain2
Polygon
p2683
(dp2684
g3
(I80
I130
tp2685
sg5
I200
sg6
(I223
I90
I0
I112
tp2686
sg8
(lp2687
(I90
I107
tp2688
a(I38
I91
tp2689
a(I127
I91
tp2690
a(I86
I180
tp2691
a(I90
I97
tp2692
a(I42
I107
tp2693
a(I57
I140
tp2694
a(I81
I161
tp2695
a(I95
I173
tp2696
a(I77
I124
tp2697
a(I91
I85
tp2698
a(I88
I146
tp2699
asg27
I200
sba(imain2
Polygon
p2700
(dp2701
g3
(I182
I31
tp2702
sg5
I200
sg6
(I109
I84
I111
I0
tp2703
sg8
(lp2704
(I200
I18
tp2705
a(I195
I0
tp2706
a(I135
I9
tp2707
a(I186
I37
tp2708
a(I164
I0
tp2709
a(I174
I46
tp2710
a(I151
I81
tp2711
a(I193
I4
tp2712
a(I200
I57
tp2713
a(I152
I25
tp2714
a(I188
I0
tp2715
a(I162
I2
tp2716
a(I154
I80
tp2717
a(I174
I47
tp2718
a(I195
I67
tp2719
a(I188
I45
tp2720
a(I157
I0
tp2721
a(I165
I65
tp2722
a(I145
I0
tp2723
a(I186
I59
tp2724
a(I170
I0
tp2725
a(I169
I11
tp2726
a(I195
I0
tp2727
a(I174
I23
tp2728
asg27
I200
sba(imain2
Polygon
p2729
(dp2730
g3
(I164
I132
tp2731
sg5
I200
sg6
(I50
I67
I1
I0
tp2732
sg8
(lp2733
(I152
I112
tp2734
a(I140
I175
tp2735
a(I168
I173
tp2736
a(I180
I136
tp2737
a(I190
I82
tp2738
a(I132
I128
tp2739
a(I125
I176
tp2740
a(I199
I84
tp2741
a(I200
I115
tp2742
a(I157
I141
tp2743
a(I185
I112
tp2744
asg27
I200
sba(imain2
Polygon
p2745
(dp2746
g3
(I67
I123
tp2747
sg5
I200
sg6
(I203
I168
I125
I71
tp2748
sg8
(lp2749
(I114
I101
tp2750
a(I112
I148
tp2751
a(I67
I158
tp2752
a(I43
I93
tp2753
a(I96
I92
tp2754
a(I107
I100
tp2755
a(I49
I107
tp2756
a(I55
I111
tp2757
a(I46
I107
tp2758
a(I101
I102
tp2759
a(I87
I99
tp2760
asg27
I200
sba(imain2
Polygon
p2761
(dp2762
g3
(I139
I46
tp2763
sg5
I200
sg6
(I1
I111
I82
I68
tp2764
sg8
(lp2765
(I185
I84
tp2766
a(I137
I74
tp2767
a(I164
I79
tp2768
asg27
I200
sba(imain2
Polygon
p2769
(dp2770
g3
(I137
I13
tp2771
sg5
I200
sg6
(I201
I131
I218
I3
tp2772
sg8
(lp2773
(I146
I0
tp2774
a(I180
I37
tp2775
a(I89
I20
tp2776
a(I139
I19
tp2777
a(I157
I0
tp2778
a(I152
I49
tp2779
a(I154
I46
tp2780
a(I160
I57
tp2781
a(I117
I1
tp2782
asg27
I200
sba(imain2
Polygon
p2783
(dp2784
g3
(I72
I81
tp2785
sg5
I200
sg6
(I239
I108
I79
I0
tp2786
sg8
(lp2787
(I95
I99
tp2788
a(I83
I109
tp2789
a(I26
I64
tp2790
a(I57
I104
tp2791
a(I59
I58
tp2792
a(I120
I57
tp2793
a(I53
I62
tp2794
a(I116
I85
tp2795
asg27
I200
sba(imain2
Polygon
p2796
(dp2797
g3
(I24
I70
tp2798
sg5
I200
sg6
(I5
I224
I8
I12
tp2799
sg8
(lp2800
(I37
I25
tp2801
a(I72
I32
tp2802
a(I2
I21
tp2803
a(I0
I105
tp2804
a(I15
I106
tp2805
a(I47
I88
tp2806
asg27
I200
sba(imain2
Polygon
p2807
(dp2808
g3
(I144
I200
tp2809
sg5
I200
sg6
(I123
I88
I10
I1
tp2810
sg8
(lp2811
(I164
I200
tp2812
a(I121
I196
tp2813
a(I142
I154
tp2814
a(I154
I187
tp2815
a(I106
I200
tp2816
a(I111
I200
tp2817
a(I130
I200
tp2818
a(I181
I194
tp2819
a(I160
I170
tp2820
a(I98
I181
tp2821
a(I107
I153
tp2822
a(I189
I150
tp2823
a(I127
I153
tp2824
a(I175
I183
tp2825
a(I128
I200
tp2826
a(I98
I186
tp2827
a(I146
I200
tp2828
a(I145
I200
tp2829
a(I122
I150
tp2830
asg27
I200
sba(imain2
Polygon
p2831
(dp2832
g3
(I63
I64
tp2833
sg5
I200
sg6
(I192
I193
I44
I4
tp2834
sg8
(lp2835
(I90
I67
tp2836
a(I18
I106
tp2837
a(I18
I45
tp2838
a(I97
I38
tp2839
a(I97
I107
tp2840
a(I48
I88
tp2841
a(I43
I112
tp2842
a(I106
I109
tp2843
a(I52
I111
tp2844
asg27
I200
sba(imain2
Polygon
p2845
(dp2846
g3
(I87
I65
tp2847
sg5
I200
sg6
(I216
I55
I97
I0
tp2848
sg8
(lp2849
(I136
I80
tp2850
a(I106
I35
tp2851
a(I86
I83
tp2852
a(I40
I93
tp2853
a(I60
I111
tp2854
a(I53
I95
tp2855
a(I128
I62
tp2856
a(I47
I39
tp2857
a(I124
I17
tp2858
a(I96
I80
tp2859
a(I124
I65
tp2860
asg27
I200
sba(imain2
Polygon
p2861
(dp2862
g3
(I110
I191
tp2863
sg5
I200
sg6
(I160
I195
I225
I1
tp2864
sg8
(lp2865
(I91
I200
tp2866
a(I153
I200
tp2867
a(I74
I143
tp2868
a(I77
I167
tp2869
a(I150
I169
tp2870
a(I60
I163
tp2871
a(I66
I185
tp2872
a(I118
I200
tp2873
a(I78
I200
tp2874
a(I141
I200
tp2875
asg27
I200
sba(imain2
Polygon
p2876
(dp2877
g3
(I108
I110
tp2878
sg5
I200
sg6
(I97
I178
I164
I1
tp2879
sg8
(lp2880
(I101
I127
tp2881
a(I117
I114
tp2882
a(I87
I125
tp2883
a(I76
I126
tp2884
a(I79
I109
tp2885
a(I96
I141
tp2886
asg27
I200
sba(imain2
Polygon
p2887
(dp2888
g3
(I112
I52
tp2889
sg5
I200
sg6
(I80
I200
I79
I88
tp2890
sg8
(lp2891
(I158
I54
tp2892
a(I152
I56
tp2893
a(I149
I58
tp2894
asg27
I200
sba.