(lp0
(imain2
Polygon
p1
(dp2
S'origin'
p3
(I39
I29
tp4
sS'h'
p5
I200
sS'color'
p6
(I192
I23
I137
I64
tp7
sS'corner_list'
p8
(lp9
(I0
I0
tp10
a(I33
I71
tp11
a(I71
I41
tp12
a(I83
I36
tp13
a(I71
I0
tp14
a(I11
I74
tp15
a(I0
I33
tp16
a(I70
I7
tp17
a(I72
I59
tp18
a(I83
I19
tp19
a(I17
I62
tp20
a(I4
I54
tp21
a(I0
I33
tp22
a(I60
I37
tp23
a(I77
I15
tp24
a(I64
I0
tp25
a(I0
I0
tp26
asS'w'
p27
I200
sba(imain2
Polygon
p28
(dp29
g3
(I66
I177
tp30
sg5
I200
sg6
(I137
I53
I47
I23
tp31
sg8
(lp32
(I81
I174
tp33
a(I77
I165
tp34
a(I111
I200
tp35
a(I34
I200
tp36
a(I112
I200
tp37
a(I20
I192
tp38
a(I44
I200
tp39
a(I77
I200
tp40
a(I100
I127
tp41
asg27
I200
sba(imain2
Polygon
p42
(dp43
g3
(I59
I53
tp44
sg5
I200
sg6
(I109
I42
I106
I130
tp45
sg8
(lp46
(I106
I10
tp47
a(I26
I102
tp48
a(I9
I53
tp49
a(I89
I14
tp50
a(I41
I9
tp51
a(I45
I35
tp52
a(I40
I72
tp53
a(I32
I51
tp54
a(I38
I88
tp55
a(I97
I87
tp56
a(I109
I84
tp57
a(I91
I22
tp58
a(I92
I46
tp59
a(I76
I61
tp60
a(I103
I97
tp61
a(I50
I59
tp62
a(I53
I45
tp63
a(I58
I40
tp64
asg27
I200
sba(imain2
Polygon
p65
(dp66
g3
(I79
I99
tp67
sg5
I200
sg6
(I71
I89
I67
I82
tp68
sg8
(lp69
(I122
I134
tp70
a(I76
I117
tp71
a(I76
I74
tp72
a(I35
I63
tp73
a(I123
I57
tp74
a(I114
I125
tp75
a(I63
I146
tp76
a(I86
I147
tp77
asg27
I200
sba(imain2
Polygon
p78
(dp79
g3
(I200
I83
tp80
sg5
I200
sg6
(I165
I227
I63
I3
tp81
sg8
(lp82
(I200
I58
tp83
a(I164
I41
tp84
a(I200
I37
tp85
a(I178
I101
tp86
a(I200
I130
tp87
asg27
I200
sba(imain2
Polygon
p88
(dp89
g3
(I48
I136
tp90
sg5
I200
sg6
(I101
I109
I142
I48
tp91
sg8
(lp92
(I78
I127
tp93
a(I87
I127
tp94
a(I82
I171
tp95
a(I43
I102
tp96
a(I5
I168
tp97
a(I60
I171
tp98
a(I89
I93
tp99
a(I16
I112
tp100
a(I78
I105
tp101
a(I86
I178
tp102
a(I47
I126
tp103
a(I46
I109
tp104
a(I2
I151
tp105
a(I64
I175
tp106
a(I58
I161
tp107
a(I45
I165
tp108
a(I87
I144
tp109
a(I84
I97
tp110
a(I97
I86
tp111
a(I45
I125
tp112
asg27
I200
sba(imain2
Polygon
p113
(dp114
g3
(I118
I72
tp115
sg5
I200
sg6
(I132
I136
I59
I44
tp116
sg8
(lp117
(I99
I82
tp118
a(I118
I81
tp119
a(I118
I115
tp120
a(I126
I57
tp121
a(I89
I36
tp122
a(I68
I93
tp123
a(I104
I108
tp124
a(I97
I43
tp125
asg27
I200
sba(imain2
Polygon
p126
(dp127
g3
(I75
I194
tp128
sg5
I200
sg6
(I210
I85
I103
I0
tp129
sg8
(lp130
(I38
I200
tp131
a(I81
I145
tp132
a(I100
I167
tp133
a(I64
I200
tp134
a(I92
I188
tp135
a(I72
I157
tp136
asg27
I200
sba(imain2
Polygon
p137
(dp138
g3
(I7
I180
tp139
sg5
I200
sg6
(I231
I31
I1
I1
tp140
sg8
(lp141
(I24
I177
tp142
a(I0
I200
tp143
a(I0
I200
tp144
a(I8
I136
tp145
a(I0
I192
tp146
a(I41
I140
tp147
a(I15
I200
tp148
a(I26
I166
tp149
a(I0
I188
tp150
a(I0
I161
tp151
a(I15
I137
tp152
asg27
I200
sba(imain2
Polygon
p153
(dp154
g3
(I200
I5
tp155
sg5
I200
sg6
(I172
I75
I111
I26
tp156
sg8
(lp157
(I200
I0
tp158
a(I172
I0
tp159
a(I179
I0
tp160
a(I155
I28
tp161
a(I185
I7
tp162
a(I200
I7
tp163
a(I200
I45
tp164
a(I155
I15
tp165
a(I199
I0
tp166
a(I196
I52
tp167
asg27
I200
sba(imain2
Polygon
p168
(dp169
g3
(I180
I27
tp170
sg5
I200
sg6
(I103
I110
I153
I0
tp171
sg8
(lp172
(I200
I66
tp173
a(I156
I65
tp174
a(I200
I4
tp175
a(I162
I29
tp176
a(I160
I32
tp177
a(I200
I4
tp178
a(I138
I4
tp179
a(I147
I0
tp180
a(I160
I38
tp181
a(I195
I10
tp182
a(I160
I0
tp183
a(I200
I67
tp184
a(I161
I58
tp185
asg27
I200
sba(imain2
Polygon
p186
(dp187
g3
(I59
I197
tp188
sg5
I200
sg6
(I79
I205
I135
I124
tp189
sg8
(lp190
(I98
I200
tp191
a(I93
I157
tp192
a(I71
I197
tp193
a(I54
I200
tp194
a(I33
I200
tp195
asg27
I200
sba(imain2
Polygon
p196
(dp197
g3
(I129
I124
tp198
sg5
I200
sg6
(I169
I187
I95
I55
tp199
sg8
(lp200
(I122
I123
tp201
a(I92
I168
tp202
a(I130
I89
tp203
a(I111
I89
tp204
a(I104
I118
tp205
a(I88
I150
tp206
a(I119
I138
tp207
a(I82
I90
tp208
a(I85
I118
tp209
asg27
I200
sba(imain2
Polygon
p210
(dp211
g3
(I107
I2
tp212
sg5
I200
sg6
(I46
I1
I159
I98
tp213
sg8
(lp214
(I83
I0
tp215
a(I107
I0
tp216
a(I97
I0
tp217
a(I62
I0
tp218
a(I90
I0
tp219
a(I106
I7
tp220
a(I142
I27
tp221
a(I156
I2
tp222
a(I151
I0
tp223
asg27
I200
sba(imain2
Polygon
p224
(dp225
g3
(I25
I107
tp226
sg5
I200
sg6
(I100
I25
I168
I1
tp227
sg8
(lp228
(I30
I146
tp229
a(I41
I66
tp230
a(I72
I82
tp231
a(I0
I68
tp232
a(I47
I76
tp233
a(I61
I150
tp234
a(I56
I122
tp235
a(I56
I62
tp236
a(I0
I59
tp237
a(I3
I58
tp238
a(I9
I75
tp239
a(I69
I74
tp240
a(I7
I57
tp241
a(I52
I137
tp242
asg27
I200
sba(imain2
Polygon
p243
(dp244
g3
(I194
I197
tp245
sg5
I200
sg6
(I5
I193
I62
I81
tp246
sg8
(lp247
(I193
I168
tp248
a(I200
I200
tp249
a(I200
I180
tp250
a(I199
I156
tp251
asg27
I200
sba(imain2
Polygon
p252
(dp253
g3
(I8
I2
tp254
sg5
I200
sg6
(I204
I193
I217
I1
tp255
sg8
(lp256
(I6
I8
tp257
a(I0
I5
tp258
a(I16
I0
tp259
a(I5
I25
tp260
a(I0
I0
tp261
a(I57
I0
tp262
a(I9
I17
tp263
a(I52
I0
tp264
a(I0
I45
tp265
a(I45
I0
tp266
a(I55
I0
tp267
a(I0
I0
tp268
asg27
I200
sba(imain2
Polygon
p269
(dp270
g3
(I171
I144
tp271
sg5
I200
sg6
(I108
I155
I184
I1
tp272
sg8
(lp273
(I178
I114
tp274
a(I126
I156
tp275
a(I200
I110
tp276
a(I153
I190
tp277
a(I148
I190
tp278
a(I178
I125
tp279
a(I126
I121
tp280
a(I145
I130
tp281
asg27
I200
sba(imain2
Polygon
p282
(dp283
g3
(I44
I42
tp284
sg5
I200
sg6
(I76
I126
I71
I0
tp285
sg8
(lp286
(I29
I80
tp287
a(I41
I39
tp288
a(I91
I0
tp289
a(I69
I42
tp290
a(I86
I82
tp291
a(I88
I72
tp292
a(I10
I65
tp293
asg27
I200
sba(imain2
Polygon
p294
(dp295
g3
(I26
I99
tp296
sg5
I200
sg6
(I165
I96
I166
I61
tp297
sg8
(lp298
(I56
I57
tp299
a(I54
I125
tp300
a(I69
I134
tp301
a(I72
I53
tp302
asg27
I200
sba(imain2
Polygon
p303
(dp304
g3
(I114
I46
tp305
sg5
I200
sg6
(I95
I191
I193
I1
tp306
sg8
(lp307
(I79
I0
tp308
a(I126
I34
tp309
a(I145
I56
tp310
a(I90
I66
tp311
a(I111
I68
tp312
a(I81
I83
tp313
asg27
I200
sba(imain2
Polygon
p314
(dp315
g3
(I68
I194
tp316
sg5
I200
sg6
(I85
I191
I147
I0
tp317
sg8
(lp318
(I43
I200
tp319
a(I52
I200
tp320
a(I37
I184
tp321
a(I65
I200
tp322
a(I57
I192
tp323
a(I73
I172
tp324
asg27
I200
sba(imain2
Polygon
p325
(dp326
g3
(I200
I53
tp327
sg5
I200
sg6
(I176
I181
I163
I1
tp328
sg8
(lp329
(I183
I79
tp330
a(I152
I41
tp331
a(I200
I31
tp332
asg27
I200
sba(imain2
Polygon
p333
(dp334
g3
(I172
I155
tp335
sg5
I200
sg6
(I196
I75
I240
I1
tp336
sg8
(lp337
(I156
I193
tp338
a(I186
I170
tp339
a(I159
I155
tp340
a(I125
I176
tp341
a(I143
I179
tp342
a(I149
I135
tp343
a(I138
I123
tp344
a(I137
I184
tp345
a(I166
I121
tp346
a(I154
I196
tp347
a(I127
I165
tp348
a(I148
I197
tp349
asg27
I200
sba(imain2
Polygon
p350
(dp351
g3
(I154
I159
tp352
sg5
I200
sg6
(I52
I205
I31
I0
tp353
sg8
(lp354
(I200
I117
tp355
a(I122
I109
tp356
a(I164
I130
tp357
a(I127
I131
tp358
a(I176
I190
tp359
a(I178
I195
tp360
a(I141
I167
tp361
a(I153
I178
tp362
a(I160
I110
tp363
a(I159
I171
tp364
a(I147
I168
tp365
asg27
I200
sba(imain2
Polygon
p366
(dp367
g3
(I55
I59
tp368
sg5
I200
sg6
(I71
I191
I200
I1
tp369
sg8
(lp370
(I35
I56
tp371
a(I83
I49
tp372
a(I85
I40
tp373
a(I36
I16
tp374
a(I88
I54
tp375
a(I22
I16
tp376
a(I82
I44
tp377
a(I47
I28
tp378
a(I66
I10
tp379
a(I103
I76
tp380
a(I25
I105
tp381
a(I102
I65
tp382
a(I36
I25
tp383
a(I103
I88
tp384
a(I47
I104
tp385
a(I89
I41
tp386
a(I21
I16
tp387
a(I7
I61
tp388
a(I17
I70
tp389
a(I12
I21
tp390
a(I46
I100
tp391
asg27
I200
sba(imain2
Polygon
p392
(dp393
g3
(I127
I147
tp394
sg5
I200
sg6
(I45
I64
I111
I85
tp395
sg8
(lp396
(I109
I194
tp397
a(I79
I101
tp398
a(I97
I160
tp399
a(I161
I191
tp400
asg27
I200
sba(imain2
Polygon
p401
(dp402
g3
(I123
I114
tp403
sg5
I200
sg6
(I115
I0
I5
I1
tp404
sg8
(lp405
(I118
I78
tp406
a(I162
I88
tp407
a(I167
I90
tp408
a(I86
I139
tp409
a(I118
I115
tp410
a(I102
I142
tp411
a(I161
I129
tp412
asg27
I200
sba(imain2
Polygon
p413
(dp414
g3
(I2
I51
tp415
sg5
I200
sg6
(I121
I136
I221
I1
tp416
sg8
(lp417
(I0
I85
tp418
a(I0
I10
tp419
a(I0
I4
tp420
a(I0
I44
tp421
a(I0
I20
tp422
a(I0
I61
tp423
a(I0
I75
tp424
a(I22
I88
tp425
a(I22
I98
tp426
a(I0
I7
tp427
a(I0
I75
tp428
a(I50
I67
tp429
asg27
I200
sba(imain2
Polygon
p430
(dp431
g3
(I166
I21
tp432
sg5
I200
sg6
(I210
I244
I213
I75
tp433
sg8
(lp434
(I200
I0
tp435
a(I200
I59
tp436
a(I169
I70
tp437
a(I131
I0
tp438
a(I153
I0
tp439
a(I131
I6
tp440
a(I135
I0
tp441
a(I200
I0
tp442
a(I190
I0
tp443
asg27
I200
sba(imain2
Polygon
p444
(dp445
g3
(I110
I91
tp446
sg5
I200
sg6
(I125
I30
I28
I0
tp447
sg8
(lp448
(I78
I111
tp449
a(I70
I70
tp450
a(I80
I118
tp451
a(I153
I89
tp452
a(I69
I141
tp453
a(I81
I95
tp454
a(I68
I96
tp455
a(I100
I114
tp456
a(I109
I100
tp457
a(I67
I66
tp458
a(I94
I93
tp459
a(I75
I65
tp460
a(I150
I136
tp461
a(I130
I41
tp462
a(I104
I65
tp463
a(I92
I48
tp464
a(I114
I65
tp465
a(I139
I58
tp466
a(I134
I101
tp467
asg27
I200
sba(imain2
Polygon
p468
(dp469
g3
(I148
I41
tp470
sg5
I200
sg6
(I155
I1
I204
I0
tp471
sg8
(lp472
(I103
I13
tp473
a(I127
I19
tp474
a(I192
I6
tp475
a(I102
I17
tp476
a(I155
I13
tp477
a(I138
I62
tp478
a(I160
I9
tp479
a(I110
I80
tp480
a(I103
I84
tp481
a(I114
I14
tp482
a(I153
I30
tp483
a(I135
I21
tp484
a(I144
I23
tp485
asg27
I200
sba(imain2
Polygon
p486
(dp487
g3
(I188
I159
tp488
sg5
I200
sg6
(I157
I68
I63
I0
tp489
sg8
(lp490
(I153
I158
tp491
a(I164
I115
tp492
a(I200
I197
tp493
a(I200
I137
tp494
a(I158
I121
tp495
a(I200
I111
tp496
a(I156
I170
tp497
asg27
I200
sba(imain2
Polygon
p498
(dp499
g3
(I55
I106
tp500
sg5
I200
sg6
(I54
I89
I39
I1
tp501
sg8
(lp502
(I69
I94
tp503
a(I70
I97
tp504
a(I74
I146
tp505
a(I54
I93
tp506
a(I46
I114
tp507
a(I99
I105
tp508
a(I75
I126
tp509
a(I31
I130
tp510
a(I92
I93
tp511
asg27
I200
sba(imain2
Polygon
p512
(dp513
g3
(I118
I64
tp514
sg5
I200
sg6
(I126
I36
I2
I0
tp515
sg8
(lp516
(I131
I17
tp517
a(I88
I65
tp518
a(I149
I49
tp519
a(I137
I15
tp520
a(I95
I23
tp521
a(I100
I81
tp522
a(I146
I72
tp523
a(I160
I97
tp524
a(I88
I20
tp525
a(I123
I23
tp526
a(I105
I36
tp527
a(I98
I55
tp528
asg27
I200
sba(imain2
Polygon
p529
(dp530
g3
(I101
I127
tp531
sg5
I200
sg6
(I82
I171
I94
I58
tp532
sg8
(lp533
(I82
I132
tp534
a(I60
I130
tp535
a(I118
I127
tp536
a(I132
I81
tp537
a(I63
I110
tp538
a(I134
I145
tp539
asg27
I200
sba(imain2
Polygon
p540
(dp541
g3
(I42
I89
tp542
sg5
I200
sg6
(I15
I90
I176
I1
tp543
sg8
(lp544
(I82
I88
tp545
a(I34
I55
tp546
a(I20
I128
tp547
a(I78
I95
tp548
a(I15
I128
tp549
a(I61
I62
tp550
a(I0
I99
tp551
a(I39
I127
tp552
a(I53
I130
tp553
a(I36
I80
tp554
asg27
I200
sba(imain2
Polygon
p555
(dp556
g3
(I71
I151
tp557
sg5
I200
sg6
(I150
I167
I219
I118
tp558
sg8
(lp559
(I59
I125
tp560
a(I74
I126
tp561
a(I115
I198
tp562
a(I68
I200
tp563
a(I91
I177
tp564
a(I121
I195
tp565
asg27
I200
sba(imain2
Polygon
p566
(dp567
g3
(I13
I141
tp568
sg5
I200
sg6
(I241
I1
I193
I1
tp569
sg8
(lp570
(I0
I134
tp571
a(I0
I168
tp572
a(I0
I162
tp573
a(I28
I147
tp574
a(I53
I153
tp575
a(I7
I133
tp576
a(I59
I176
tp577
a(I31
I95
tp578
a(I38
I142
tp579
a(I47
I102
tp580
a(I52
I124
tp581
a(I63
I126
tp582
asg27
I200
sba(imain2
Polygon
p583
(dp584
g3
(I37
I11
tp585
sg5
I200
sg6
(I112
I18
I9
I85
tp586
sg8
(lp587
(I77
I0
tp588
a(I0
I56
tp589
a(I15
I11
tp590
a(I20
I28
tp591
a(I3
I0
tp592
a(I70
I6
tp593
a(I36
I38
tp594
asg27
I200
sba(imain2
Polygon
p595
(dp596
g3
(I97
I114
tp597
sg5
I200
sg6
(I144
I8
I201
I66
tp598
sg8
(lp599
(I126
I160
tp600
a(I86
I149
tp601
a(I121
I97
tp602
a(I126
I64
tp603
a(I62
I77
tp604
a(I84
I101
tp605
a(I48
I82
tp606
a(I75
I158
tp607
a(I100
I154
tp608
a(I115
I101
tp609
a(I51
I65
tp610
a(I84
I72
tp611
a(I110
I85
tp612
a(I80
I151
tp613
a(I113
I101
tp614
a(I64
I125
tp615
a(I75
I78
tp616
a(I57
I142
tp617
asg27
I200
sba(imain2
Polygon
p618
(dp619
g3
(I77
I12
tp620
sg5
I200
sg6
(I100
I0
I194
I0
tp621
sg8
(lp622
(I97
I0
tp623
a(I85
I0
tp624
a(I31
I43
tp625
a(I46
I41
tp626
a(I50
I51
tp627
a(I116
I55
tp628
a(I69
I0
tp629
a(I96
I0
tp630
a(I51
I42
tp631
asg27
I200
sba(imain2
Polygon
p632
(dp633
g3
(I114
I16
tp634
sg5
I200
sg6
(I1
I99
I175
I136
tp635
sg8
(lp636
(I119
I24
tp637
a(I151
I0
tp638
a(I71
I2
tp639
a(I142
I23
tp640
a(I160
I13
tp641
a(I130
I13
tp642
asg27
I200
sba(imain2
Polygon
p643
(dp644
g3
(I150
I10
tp645
sg5
I200
sg6
(I109
I56
I223
I146
tp646
sg8
(lp647
(I119
I0
tp648
a(I175
I1
tp649
a(I132
I0
tp650
a(I182
I0
tp651
a(I163
I0
tp652
a(I119
I18
tp653
a(I101
I0
tp654
a(I137
I0
tp655
a(I174
I0
tp656
a(I170
I0
tp657
a(I150
I0
tp658
asg27
I200
sba(imain2
Polygon
p659
(dp660
g3
(I41
I10
tp661
sg5
I200
sg6
(I112
I202
I82
I1
tp662
sg8
(lp663
(I28
I17
tp664
a(I23
I53
tp665
a(I0
I4
tp666
a(I0
I0
tp667
a(I60
I0
tp668
asg27
I200
sba(imain2
Polygon
p669
(dp670
g3
(I174
I159
tp671
sg5
I200
sg6
(I168
I106
I84
I86
tp672
sg8
(lp673
(I200
I125
tp674
a(I200
I200
tp675
a(I184
I191
tp676
a(I168
I116
tp677
a(I200
I121
tp678
a(I200
I173
tp679
a(I200
I119
tp680
asg27
I200
sba(imain2
Polygon
p681
(dp682
g3
(I61
I97
tp683
sg5
I200
sg6
(I121
I30
I105
I77
tp684
sg8
(lp685
(I66
I87
tp686
a(I94
I137
tp687
a(I64
I49
tp688
a(I103
I82
tp689
a(I64
I94
tp690
a(I102
I53
tp691
a(I108
I74
tp692
a(I96
I125
tp693
a(I52
I115
tp694
a(I50
I59
tp695
asg27
I200
sba(imain2
Polygon
p696
(dp697
g3
(I180
I97
tp698
sg5
I200
sg6
(I158
I153
I196
I1
tp699
sg8
(lp700
(I180
I99
tp701
a(I200
I54
tp702
a(I200
I62
tp703
a(I172
I65
tp704
a(I200
I145
tp705
a(I196
I133
tp706
a(I179
I133
tp707
a(I200
I63
tp708
asg27
I200
sba(imain2
Polygon
p709
(dp710
g3
(I101
I122
tp711
sg5
I200
sg6
(I162
I82
I1
I56
tp712
sg8
(lp713
(I87
I91
tp714
a(I111
I157
tp715
a(I98
I108
tp716
a(I93
I147
tp717
a(I122
I142
tp718
a(I125
I80
tp719
a(I61
I152
tp720
a(I62
I88
tp721
a(I147
I140
tp722
a(I58
I84
tp723
a(I77
I77
tp724
a(I124
I77
tp725
asg27
I200
sba(imain2
Polygon
p726
(dp727
g3
(I131
I15
tp728
sg5
I200
sg6
(I56
I126
I126
I1
tp729
sg8
(lp730
(I154
I0
tp731
a(I140
I8
tp732
a(I179
I62
tp733
a(I91
I0
tp734
a(I82
I0
tp735
a(I95
I0
tp736
a(I81
I62
tp737
a(I131
I0
tp738
a(I91
I0
tp739
a(I178
I32
tp740
asg27
I200
sba(imain2
Polygon
p741
(dp742
g3
(I113
I24
tp743
sg5
I200
sg6
(I147
I239
I0
I1
tp744
sg8
(lp745
(I163
I0
tp746
a(I88
I27
tp747
a(I85
I60
tp748
a(I123
I70
tp749
a(I125
I3
tp750
a(I115
I8
tp751
a(I117
I66
tp752
a(I110
I46
tp753
a(I138
I18
tp754
a(I122
I0
tp755
a(I77
I58
tp756
a(I110
I0
tp757
a(I163
I41
tp758
asg27
I200
sba(imain2
Polygon
p759
(dp760
g3
(I15
I21
tp761
sg5
I200
sg6
(I41
I40
I23
I1
tp762
sg8
(lp763
(I8
I18
tp764
a(I2
I12
tp765
a(I59
I59
tp766
a(I51
I26
tp767
a(I50
I29
tp768
a(I38
I50
tp769
a(I2
I0
tp770
a(I15
I36
tp771
a(I0
I44
tp772
a(I39
I0
tp773
asg27
I200
sba(imain2
Polygon
p774
(dp775
g3
(I75
I18
tp776
sg5
I200
sg6
(I118
I124
I38
I135
tp777
sg8
(lp778
(I98
I0
tp779
a(I82
I30
tp780
a(I76
I17
tp781
a(I90
I0
tp782
a(I32
I0
tp783
a(I29
I0
tp784
a(I70
I49
tp785
a(I31
I0
tp786
a(I64
I30
tp787
a(I77
I0
tp788
a(I26
I62
tp789
a(I118
I0
tp790
a(I123
I13
tp791
a(I25
I19
tp792
a(I53
I67
tp793
a(I111
I64
tp794
a(I124
I63
tp795
a(I72
I12
tp796
a(I104
I7
tp797
a(I73
I11
tp798
a(I54
I26
tp799
asg27
I200
sba(imain2
Polygon
p800
(dp801
g3
(I147
I31
tp802
sg5
I200
sg6
(I240
I1
I220
I130
tp803
sg8
(lp804
(I197
I0
tp805
a(I196
I42
tp806
a(I180
I38
tp807
a(I168
I65
tp808
a(I153
I34
tp809
a(I193
I77
tp810
a(I187
I24
tp811
a(I176
I51
tp812
a(I126
I17
tp813
a(I97
I10
tp814
a(I130
I0
tp815
asg27
I200
sba(imain2
Polygon
p816
(dp817
g3
(I43
I128
tp818
sg5
I200
sg6
(I89
I21
I103
I110
tp819
sg8
(lp820
(I6
I108
tp821
a(I0
I99
tp822
a(I15
I103
tp823
a(I5
I162
tp824
a(I3
I155
tp825
asg27
I200
sba(imain2
Polygon
p826
(dp827
g3
(I191
I52
tp828
sg5
I200
sg6
(I138
I139
I97
I0
tp829
sg8
(lp830
(I200
I4
tp831
a(I200
I26
tp832
a(I179
I57
tp833
a(I160
I85
tp834
a(I200
I9
tp835
a(I200
I78
tp836
a(I150
I21
tp837
a(I186
I45
tp838
a(I162
I13
tp839
asg27
I200
sba(imain2
Polygon
p840
(dp841
g3
(I124
I96
tp842
sg5
I200
sg6
(I220
I84
I119
I1
tp843
sg8
(lp844
(I86
I139
tp845
a(I142
I107
tp846
a(I106
I89
tp847
a(I142
I104
tp848
a(I100
I144
tp849
a(I91
I110
tp850
a(I113
I48
tp851
a(I102
I110
tp852
a(I81
I129
tp853
a(I157
I142
tp854
a(I167
I108
tp855
a(I164
I73
tp856
asg27
I200
sba(imain2
Polygon
p857
(dp858
g3
(I14
I107
tp859
sg5
I200
sg6
(I54
I1
I216
I113
tp860
sg8
(lp861
(I0
I128
tp862
a(I0
I102
tp863
a(I11
I71
tp864
a(I0
I109
tp865
asg27
I200
sba(imain2
Polygon
p866
(dp867
g3
(I84
I159
tp868
sg5
I200
sg6
(I49
I9
I190
I0
tp869
sg8
(lp870
(I88
I152
tp871
a(I90
I134
tp872
a(I51
I133
tp873
a(I113
I185
tp874
a(I101
I200
tp875
a(I118
I139
tp876
a(I101
I138
tp877
a(I64
I172
tp878
a(I99
I119
tp879
asg27
I200
sba(imain2
Polygon
p880
(dp881
g3
(I141
I115
tp882
sg5
I200
sg6
(I236
I169
I168
I1
tp883
sg8
(lp884
(I180
I117
tp885
a(I151
I144
tp886
a(I126
I104
tp887
asg27
I200
sba(imain2
Polygon
p888
(dp889
g3
(I199
I78
tp890
sg5
I200
sg6
(I204
I198
I82
I116
tp891
sg8
(lp892
(I151
I34
tp893
a(I153
I30
tp894
a(I200
I28
tp895
a(I200
I125
tp896
a(I164
I113
tp897
a(I175
I100
tp898
a(I171
I79
tp899
asg27
I200
sba(imain2
Polygon
p900
(dp901
g3
(I167
I90
tp902
sg5
I200
sg6
(I31
I185
I28
I35
tp903
sg8
(lp904
(I193
I65
tp905
a(I137
I128
tp906
a(I182
I102
tp907
a(I200
I85
tp908
a(I155
I50
tp909
asg27
I200
sba(imain2
Polygon
p910
(dp911
g3
(I17
I14
tp912
sg5
I200
sg6
(I1
I6
I90
I16
tp913
sg8
(lp914
(I37
I26
tp915
a(I0
I12
tp916
a(I30
I27
tp917
a(I0
I8
tp918
a(I21
I0
tp919
a(I0
I0
tp920
a(I0
I17
tp921
a(I0
I29
tp922
a(I0
I0
tp923
a(I23
I18
tp924
a(I0
I50
tp925
a(I44
I1
tp926
a(I0
I2
tp927
a(I8
I0
tp928
a(I17
I0
tp929
asg27
I200
sba(imain2
Polygon
p930
(dp931
g3
(I190
I180
tp932
sg5
I200
sg6
(I224
I100
I46
I1
tp933
sg8
(lp934
(I197
I149
tp935
a(I156
I200
tp936
a(I200
I200
tp937
a(I200
I200
tp938
a(I181
I178
tp939
asg27
I200
sba(imain2
Polygon
p940
(dp941
g3
(I70
I166
tp942
sg5
I200
sg6
(I104
I177
I0
I1
tp943
sg8
(lp944
(I106
I200
tp945
a(I112
I200
tp946
a(I84
I188
tp947
a(I77
I128
tp948
a(I36
I127
tp949
a(I110
I188
tp950
a(I48
I131
tp951
a(I106
I184
tp952
a(I58
I200
tp953
a(I72
I186
tp954
asg27
I200
sba(imain2
Polygon
p955
(dp956
g3
(I196
I185
tp957
sg5
I200
sg6
(I17
I153
I128
I0
tp958
sg8
(lp959
(I153
I200
tp960
a(I200
I163
tp961
a(I200
I200
tp962
a(I151
I200
tp963
a(I150
I137
tp964
a(I200
I200
tp965
asg27
I200
sba(imain2
Polygon
p966
(dp967
g3
(I48
I123
tp968
sg5
I200
sg6
(I164
I42
I15
I81
tp969
sg8
(lp970
(I8
I113
tp971
a(I8
I127
tp972
a(I0
I97
tp973
a(I22
I76
tp974
a(I46
I104
tp975
a(I58
I146
tp976
a(I89
I76
tp977
a(I9
I121
tp978
a(I27
I162
tp979
a(I11
I146
tp980
a(I15
I82
tp981
asg27
I200
sba(imain2
Polygon
p982
(dp983
g3
(I59
I97
tp984
sg5
I200
sg6
(I202
I47
I123
I14
tp985
sg8
(lp986
(I70
I135
tp987
a(I85
I54
tp988
a(I45
I47
tp989
a(I104
I120
tp990
a(I44
I80
tp991
a(I63
I132
tp992
a(I18
I115
tp993
a(I107
I141
tp994
a(I83
I125
tp995
a(I74
I134
tp996
asg27
I200
sba(imain2
Polygon
p997
(dp998
g3
(I17
I149
tp999
sg5
I200
sg6
(I0
I35
I154
I1
tp1000
sg8
(lp1001
(I0
I124
tp1002
a(I0
I184
tp1003
a(I0
I172
tp1004
a(I5
I196
tp1005
a(I15
I142
tp1006
a(I0
I171
tp1007
a(I55
I198
tp1008
a(I22
I101
tp1009
asg27
I200
sba(imain2
Polygon
p1010
(dp1011
g3
(I88
I2
tp1012
sg5
I200
sg6
(I2
I101
I60
I37
tp1013
sg8
(lp1014
(I76
I0
tp1015
a(I122
I0
tp1016
a(I48
I0
tp1017
a(I105
I20
tp1018
a(I82
I0
tp1019
a(I78
I0
tp1020
a(I113
I12
tp1021
asg27
I200
sba(imain2
Polygon
p1022
(dp1023
g3
(I3
I161
tp1024
sg5
I200
sg6
(I172
I17
I188
I1
tp1025
sg8
(lp1026
(I21
I162
tp1027
a(I0
I169
tp1028
a(I0
I141
tp1029
a(I41
I178
tp1030
a(I0
I124
tp1031
a(I0
I163
tp1032
a(I0
I168
tp1033
a(I11
I145
tp1034
a(I0
I121
tp1035
asg27
I200
sba(imain2
Polygon
p1036
(dp1037
g3
(I98
I58
tp1038
sg5
I200
sg6
(I36
I61
I167
I1
tp1039
sg8
(lp1040
(I68
I69
tp1041
a(I71
I81
tp1042
a(I74
I104
tp1043
a(I52
I73
tp1044
a(I125
I37
tp1045
a(I102
I11
tp1046
asg27
I200
sba(imain2
Polygon
p1047
(dp1048
g3
(I109
I111
tp1049
sg5
I200
sg6
(I225
I35
I97
I0
tp1050
sg8
(lp1051
(I91
I100
tp1052
a(I96
I159
tp1053
a(I64
I113
tp1054
a(I109
I97
tp1055
a(I135
I157
tp1056
a(I147
I83
tp1057
a(I140
I71
tp1058
a(I83
I82
tp1059
a(I126
I115
tp1060
a(I121
I150
tp1061
asg27
I200
sba(imain2
Polygon
p1062
(dp1063
g3
(I83
I155
tp1064
sg5
I200
sg6
(I201
I40
I179
I6
tp1065
sg8
(lp1066
(I67
I145
tp1067
a(I129
I115
tp1068
a(I132
I200
tp1069
a(I58
I195
tp1070
a(I116
I182
tp1071
a(I60
I111
tp1072
a(I110
I188
tp1073
a(I51
I131
tp1074
a(I87
I167
tp1075
a(I102
I130
tp1076
a(I90
I159
tp1077
a(I106
I115
tp1078
a(I76
I160
tp1079
a(I84
I144
tp1080
a(I33
I118
tp1081
a(I81
I114
tp1082
a(I112
I109
tp1083
a(I43
I119
tp1084
asg27
I200
sba(imain2
Polygon
p1085
(dp1086
g3
(I81
I21
tp1087
sg5
I200
sg6
(I135
I0
I24
I95
tp1088
sg8
(lp1089
(I94
I1
tp1090
a(I110
I0
tp1091
a(I90
I0
tp1092
a(I122
I60
tp1093
a(I103
I58
tp1094
a(I38
I0
tp1095
a(I64
I20
tp1096
a(I80
I0
tp1097
asg27
I200
sba(imain2
Polygon
p1098
(dp1099
g3
(I77
I115
tp1100
sg5
I200
sg6
(I90
I234
I216
I1
tp1101
sg8
(lp1102
(I39
I74
tp1103
a(I45
I102
tp1104
a(I59
I149
tp1105
a(I81
I144
tp1106
a(I83
I96
tp1107
a(I85
I78
tp1108
a(I126
I153
tp1109
a(I34
I138
tp1110
asg27
I200
sba(imain2
Polygon
p1111
(dp1112
g3
(I108
I110
tp1113
sg5
I200
sg6
(I141
I114
I142
I1
tp1114
sg8
(lp1115
(I128
I152
tp1116
a(I143
I78
tp1117
a(I76
I135
tp1118
a(I129
I123
tp1119
a(I153
I68
tp1120
a(I129
I106
tp1121
a(I101
I139
tp1122
a(I149
I82
tp1123
a(I109
I107
tp1124
a(I137
I94
tp1125
a(I104
I133
tp1126
a(I141
I157
tp1127
asg27
I200
sba(imain2
Polygon
p1128
(dp1129
g3
(I7
I122
tp1130
sg5
I200
sg6
(I150
I1
I155
I1
tp1131
sg8
(lp1132
(I1
I75
tp1133
a(I26
I136
tp1134
a(I40
I82
tp1135
a(I0
I168
tp1136
a(I15
I147
tp1137
a(I47
I133
tp1138
a(I0
I158
tp1139
a(I48
I92
tp1140
a(I46
I97
tp1141
a(I42
I170
tp1142
a(I0
I160
tp1143
a(I6
I142
tp1144
a(I24
I123
tp1145
a(I23
I87
tp1146
asg27
I200
sba(imain2
Polygon
p1147
(dp1148
g3
(I105
I20
tp1149
sg5
I200
sg6
(I211
I24
I227
I1
tp1150
sg8
(lp1151
(I68
I0
tp1152
a(I73
I0
tp1153
a(I85
I12
tp1154
a(I66
I0
tp1155
a(I138
I42
tp1156
a(I57
I22
tp1157
a(I142
I57
tp1158
asg27
I200
sba(imain2
Polygon
p1159
(dp1160
g3
(I47
I80
tp1161
sg5
I200
sg6
(I104
I46
I113
I5
tp1162
sg8
(lp1163
(I55
I102
tp1164
a(I79
I102
tp1165
a(I24
I107
tp1166
a(I45
I84
tp1167
a(I96
I67
tp1168
a(I97
I99
tp1169
a(I75
I53
tp1170
a(I52
I37
tp1171
a(I11
I37
tp1172
a(I13
I128
tp1173
a(I64
I108
tp1174
a(I23
I50
tp1175
a(I71
I123
tp1176
a(I68
I94
tp1177
a(I82
I49
tp1178
a(I8
I102
tp1179
a(I84
I126
tp1180
a(I90
I110
tp1181
a(I54
I57
tp1182
a(I13
I123
tp1183
asg27
I200
sba(imain2
Polygon
p1184
(dp1185
g3
(I131
I30
tp1186
sg5
I200
sg6
(I202
I121
I166
I0
tp1187
sg8
(lp1188
(I87
I17
tp1189
a(I102
I0
tp1190
a(I162
I8
tp1191
asg27
I200
sba(imain2
Polygon
p1192
(dp1193
g3
(I199
I39
tp1194
sg5
I200
sg6
(I90
I187
I104
I50
tp1195
sg8
(lp1196
(I200
I0
tp1197
a(I150
I0
tp1198
a(I200
I89
tp1199
a(I200
I14
tp1200
asg27
I200
sba(imain2
Polygon
p1201
(dp1202
g3
(I110
I156
tp1203
sg5
I200
sg6
(I186
I90
I123
I0
tp1204
sg8
(lp1205
(I106
I166
tp1206
a(I116
I155
tp1207
a(I91
I200
tp1208
a(I160
I151
tp1209
a(I133
I138
tp1210
a(I63
I146
tp1211
a(I103
I170
tp1212
a(I76
I200
tp1213
a(I138
I148
tp1214
a(I121
I145
tp1215
a(I144
I153
tp1216
a(I127
I174
tp1217
a(I108
I146
tp1218
asg27
I200
sba(imain2
Polygon
p1219
(dp1220
g3
(I14
I89
tp1221
sg5
I200
sg6
(I199
I19
I24
I63
tp1222
sg8
(lp1223
(I0
I61
tp1224
a(I53
I72
tp1225
a(I55
I44
tp1226
a(I17
I118
tp1227
a(I0
I99
tp1228
a(I5
I50
tp1229
a(I11
I80
tp1230
a(I34
I109
tp1231
asg27
I200
sba(imain2
Polygon
p1232
(dp1233
g3
(I124
I127
tp1234
sg5
I200
sg6
(I171
I215
I170
I1
tp1235
sg8
(lp1236
(I119
I158
tp1237
a(I99
I92
tp1238
a(I81
I155
tp1239
a(I111
I115
tp1240
a(I114
I144
tp1241
a(I97
I169
tp1242
a(I170
I95
tp1243
a(I135
I124
tp1244
a(I92
I110
tp1245
a(I100
I124
tp1246
a(I101
I170
tp1247
a(I82
I117
tp1248
a(I85
I154
tp1249
asg27
I200
sba(imain2
Polygon
p1250
(dp1251
g3
(I97
I78
tp1252
sg5
I200
sg6
(I146
I200
I157
I1
tp1253
sg8
(lp1254
(I62
I103
tp1255
a(I66
I110
tp1256
a(I110
I111
tp1257
a(I135
I109
tp1258
a(I118
I78
tp1259
a(I78
I58
tp1260
a(I55
I84
tp1261
a(I108
I101
tp1262
a(I55
I62
tp1263
a(I89
I87
tp1264
a(I77
I65
tp1265
asg27
I200
sba(imain2
Polygon
p1266
(dp1267
g3
(I71
I43
tp1268
sg5
I200
sg6
(I218
I209
I116
I1
tp1269
sg8
(lp1270
(I116
I31
tp1271
a(I38
I0
tp1272
a(I53
I38
tp1273
a(I49
I45
tp1274
a(I50
I41
tp1275
a(I24
I70
tp1276
a(I75
I14
tp1277
a(I39
I86
tp1278
asg27
I200
sba(imain2
Polygon
p1279
(dp1280
g3
(I109
I75
tp1281
sg5
I200
sg6
(I108
I159
I66
I117
tp1282
sg8
(lp1283
(I63
I26
tp1284
a(I62
I79
tp1285
a(I120
I76
tp1286
a(I87
I26
tp1287
a(I64
I35
tp1288
a(I71
I69
tp1289
a(I62
I35
tp1290
a(I91
I63
tp1291
asg27
I200
sba(imain2
Polygon
p1292
(dp1293
g3
(I149
I45
tp1294
sg5
I200
sg6
(I205
I139
I126
I84
tp1295
sg8
(lp1296
(I199
I90
tp1297
a(I165
I70
tp1298
a(I183
I12
tp1299
a(I128
I0
tp1300
a(I175
I87
tp1301
a(I158
I84
tp1302
a(I187
I0
tp1303
a(I194
I33
tp1304
a(I189
I0
tp1305
a(I130
I0
tp1306
a(I195
I19
tp1307
a(I199
I27
tp1308
asg27
I200
sba(imain2
Polygon
p1309
(dp1310
g3
(I29
I98
tp1311
sg5
I200
sg6
(I6
I134
I169
I32
tp1312
sg8
(lp1313
(I0
I145
tp1314
a(I75
I70
tp1315
a(I0
I73
tp1316
a(I0
I142
tp1317
a(I32
I77
tp1318
a(I67
I79
tp1319
a(I60
I84
tp1320
a(I47
I113
tp1321
a(I28
I90
tp1322
a(I56
I50
tp1323
a(I0
I116
tp1324
a(I19
I137
tp1325
asg27
I200
sba(imain2
Polygon
p1326
(dp1327
g3
(I90
I62
tp1328
sg5
I200
sg6
(I176
I116
I129
I1
tp1329
sg8
(lp1330
(I71
I20
tp1331
a(I61
I49
tp1332
a(I54
I78
tp1333
a(I125
I83
tp1334
a(I117
I52
tp1335
a(I63
I51
tp1336
asg27
I200
sba(imain2
Polygon
p1337
(dp1338
g3
(I63
I49
tp1339
sg5
I200
sg6
(I216
I249
I133
I1
tp1340
sg8
(lp1341
(I83
I99
tp1342
a(I60
I50
tp1343
a(I89
I60
tp1344
a(I14
I3
tp1345
a(I16
I27
tp1346
a(I35
I15
tp1347
a(I36
I61
tp1348
a(I99
I65
tp1349
a(I24
I58
tp1350
a(I80
I12
tp1351
a(I31
I14
tp1352
asg27
I200
sba(imain2
Polygon
p1353
(dp1354
g3
(I31
I132
tp1355
sg5
I200
sg6
(I73
I116
I195
I4
tp1356
sg8
(lp1357
(I8
I160
tp1358
a(I35
I167
tp1359
a(I5
I107
tp1360
a(I70
I131
tp1361
a(I53
I134
tp1362
a(I10
I143
tp1363
a(I0
I113
tp1364
a(I42
I100
tp1365
a(I0
I125
tp1366
a(I0
I146
tp1367
a(I14
I172
tp1368
a(I51
I169
tp1369
a(I28
I154
tp1370
a(I12
I140
tp1371
a(I69
I141
tp1372
a(I5
I164
tp1373
asg27
I200
sba(imain2
Polygon
p1374
(dp1375
g3
(I80
I158
tp1376
sg5
I200
sg6
(I24
I41
I57
I0
tp1377
sg8
(lp1378
(I60
I161
tp1379
a(I114
I200
tp1380
a(I54
I185
tp1381
a(I94
I151
tp1382
a(I69
I136
tp1383
a(I105
I129
tp1384
a(I74
I194
tp1385
a(I65
I200
tp1386
a(I111
I109
tp1387
a(I35
I139
tp1388
a(I124
I119
tp1389
a(I58
I172
tp1390
a(I126
I180
tp1391
a(I39
I119
tp1392
a(I37
I191
tp1393
a(I82
I200
tp1394
a(I120
I184
tp1395
a(I30
I146
tp1396
a(I38
I116
tp1397
a(I64
I164
tp1398
asg27
I200
sba(imain2
Polygon
p1399
(dp1400
g3
(I168
I51
tp1401
sg5
I200
sg6
(I97
I202
I209
I0
tp1402
sg8
(lp1403
(I120
I98
tp1404
a(I200
I20
tp1405
a(I200
I37
tp1406
a(I200
I31
tp1407
a(I196
I9
tp1408
a(I141
I16
tp1409
asg27
I200
sba(imain2
Polygon
p1410
(dp1411
g3
(I110
I14
tp1412
sg5
I200
sg6
(I155
I137
I49
I139
tp1413
sg8
(lp1414
(I118
I49
tp1415
a(I72
I59
tp1416
a(I101
I0
tp1417
a(I156
I0
tp1418
a(I158
I0
tp1419
a(I157
I28
tp1420
a(I70
I14
tp1421
a(I61
I0
tp1422
a(I67
I58
tp1423
a(I105
I0
tp1424
a(I135
I0
tp1425
a(I61
I0
tp1426
a(I77
I25
tp1427
asg27
I200
sba(imain2
Polygon
p1428
(dp1429
g3
(I85
I94
tp1430
sg5
I200
sg6
(I202
I232
I83
I62
tp1431
sg8
(lp1432
(I43
I56
tp1433
a(I110
I104
tp1434
a(I62
I48
tp1435
a(I105
I45
tp1436
a(I125
I73
tp1437
a(I92
I95
tp1438
a(I79
I138
tp1439
a(I109
I144
tp1440
a(I124
I111
tp1441
a(I62
I45
tp1442
a(I45
I66
tp1443
a(I55
I140
tp1444
a(I103
I103
tp1445
asg27
I200
sba(imain2
Polygon
p1446
(dp1447
g3
(I153
I81
tp1448
sg5
I200
sg6
(I120
I86
I189
I0
tp1449
sg8
(lp1450
(I197
I49
tp1451
a(I121
I118
tp1452
a(I150
I46
tp1453
a(I188
I103
tp1454
a(I163
I70
tp1455
a(I194
I108
tp1456
a(I194
I60
tp1457
a(I150
I42
tp1458
asg27
I200
sba(imain2
Polygon
p1459
(dp1460
g3
(I146
I37
tp1461
sg5
I200
sg6
(I227
I81
I154
I1
tp1462
sg8
(lp1463
(I166
I5
tp1464
a(I105
I34
tp1465
a(I105
I42
tp1466
a(I170
I57
tp1467
a(I168
I0
tp1468
a(I178
I36
tp1469
a(I176
I68
tp1470
asg27
I200
sba(imain2
Polygon
p1471
(dp1472
g3
(I36
I71
tp1473
sg5
I200
sg6
(I177
I119
I133
I0
tp1474
sg8
(lp1475
(I67
I92
tp1476
a(I7
I113
tp1477
a(I71
I32
tp1478
a(I57
I71
tp1479
a(I48
I38
tp1480
a(I0
I51
tp1481
a(I42
I81
tp1482
a(I50
I114
tp1483
a(I58
I42
tp1484
a(I45
I110
tp1485
a(I2
I109
tp1486
asg27
I200
sba(imain2
Polygon
p1487
(dp1488
g3
(I36
I181
tp1489
sg5
I200
sg6
(I143
I211
I95
I66
tp1490
sg8
(lp1491
(I78
I149
tp1492
a(I38
I131
tp1493
a(I81
I147
tp1494
a(I71
I200
tp1495
a(I43
I172
tp1496
a(I0
I200
tp1497
a(I0
I149
tp1498
a(I84
I200
tp1499
a(I71
I200
tp1500
asg27
I200
sba(imain2
Polygon
p1501
(dp1502
g3
(I94
I181
tp1503
sg5
I200
sg6
(I112
I48
I35
I0
tp1504
sg8
(lp1505
(I110
I200
tp1506
a(I73
I197
tp1507
a(I100
I142
tp1508
a(I119
I171
tp1509
a(I133
I167
tp1510
a(I107
I200
tp1511
a(I112
I200
tp1512
a(I73
I176
tp1513
a(I144
I145
tp1514
a(I63
I171
tp1515
asg27
I200
sba(imain2
Polygon
p1516
(dp1517
g3
(I4
I26
tp1518
sg5
I200
sg6
(I27
I103
I59
I39
tp1519
sg8
(lp1520
(I25
I0
tp1521
a(I1
I19
tp1522
a(I0
I38
tp1523
a(I0
I29
tp1524
a(I9
I3
tp1525
a(I54
I51
tp1526
a(I32
I59
tp1527
a(I21
I18
tp1528
a(I33
I48
tp1529
a(I0
I76
tp1530
a(I0
I0
tp1531
a(I48
I7
tp1532
a(I0
I38
tp1533
a(I30
I39
tp1534
a(I20
I0
tp1535
asg27
I200
sba(imain2
Polygon
p1536
(dp1537
g3
(I14
I45
tp1538
sg5
I200
sg6
(I145
I107
I0
I1
tp1539
sg8
(lp1540
(I0
I56
tp1541
a(I12
I26
tp1542
a(I26
I76
tp1543
a(I0
I32
tp1544
a(I25
I22
tp1545
a(I8
I81
tp1546
a(I42
I67
tp1547
a(I0
I73
tp1548
a(I37
I75
tp1549
a(I31
I14
tp1550
a(I6
I53
tp1551
asg27
I200
sba(imain2
Polygon
p1552
(dp1553
g3
(I103
I69
tp1554
sg5
I200
sg6
(I231
I218
I1
I36
tp1555
sg8
(lp1556
(I55
I36
tp1557
a(I53
I116
tp1558
a(I125
I109
tp1559
a(I135
I89
tp1560
a(I85
I19
tp1561
a(I102
I36
tp1562
asg27
I200
sba(imain2
Polygon
p1563
(dp1564
g3
(I61
I77
tp1565
sg5
I200
sg6
(I60
I120
I190
I119
tp1566
sg8
(lp1567
(I45
I115
tp1568
a(I88
I94
tp1569
a(I89
I87
tp1570
asg27
I200
sba(imain2
Polygon
p1571
(dp1572
g3
(I36
I98
tp1573
sg5
I200
sg6
(I0
I197
I72
I37
tp1574
sg8
(lp1575
(I28
I97
tp1576
a(I4
I90
tp1577
a(I0
I121
tp1578
a(I0
I53
tp1579
a(I80
I75
tp1580
a(I30
I53
tp1581
a(I0
I130
tp1582
a(I36
I48
tp1583
a(I42
I52
tp1584
a(I19
I124
tp1585
asg27
I200
sba(imain2
Polygon
p1586
(dp1587
g3
(I20
I133
tp1588
sg5
I200
sg6
(I196
I236
I132
I72
tp1589
sg8
(lp1590
(I30
I179
tp1591
a(I0
I181
tp1592
a(I0
I175
tp1593
a(I21
I139
tp1594
a(I28
I170
tp1595
asg27
I200
sba(imain2
Polygon
p1596
(dp1597
g3
(I178
I74
tp1598
sg5
I200
sg6
(I28
I119
I23
I0
tp1599
sg8
(lp1600
(I193
I110
tp1601
a(I160
I42
tp1602
a(I200
I57
tp1603
a(I200
I29
tp1604
a(I200
I85
tp1605
a(I200
I79
tp1606
a(I172
I86
tp1607
asg27
I200
sba(imain2
Polygon
p1608
(dp1609
g3
(I191
I151
tp1610
sg5
I200
sg6
(I237
I38
I74
I51
tp1611
sg8
(lp1612
(I168
I135
tp1613
a(I200
I123
tp1614
a(I200
I189
tp1615
asg27
I200
sba(imain2
Polygon
p1616
(dp1617
g3
(I81
I200
tp1618
sg5
I200
sg6
(I39
I57
I159
I24
tp1619
sg8
(lp1620
(I63
I200
tp1621
a(I38
I191
tp1622
a(I46
I200
tp1623
a(I78
I172
tp1624
a(I46
I200
tp1625
a(I103
I198
tp1626
a(I103
I200
tp1627
a(I101
I171
tp1628
a(I99
I200
tp1629
asg27
I200
sba(imain2
Polygon
p1630
(dp1631
g3
(I8
I200
tp1632
sg5
I200
sg6
(I235
I14
I64
I127
tp1633
sg8
(lp1634
(I0
I200
tp1635
a(I0
I200
tp1636
a(I41
I200
tp1637
a(I0
I200
tp1638
a(I0
I200
tp1639
a(I35
I200
tp1640
a(I45
I200
tp1641
a(I23
I200
tp1642
asg27
I200
sba(imain2
Polygon
p1643
(dp1644
g3
(I12
I187
tp1645
sg5
I200
sg6
(I222
I0
I177
I1
tp1646
sg8
(lp1647
(I23
I192
tp1648
a(I22
I200
tp1649
a(I34
I164
tp1650
a(I0
I174
tp1651
a(I3
I143
tp1652
a(I3
I200
tp1653
a(I42
I172
tp1654
a(I54
I200
tp1655
a(I0
I173
tp1656
a(I20
I145
tp1657
a(I16
I198
tp1658
a(I0
I200
tp1659
asg27
I200
sba(imain2
Polygon
p1660
(dp1661
g3
(I142
I43
tp1662
sg5
I200
sg6
(I49
I76
I163
I0
tp1663
sg8
(lp1664
(I129
I23
tp1665
a(I149
I90
tp1666
a(I150
I53
tp1667
a(I92
I48
tp1668
a(I118
I49
tp1669
a(I136
I59
tp1670
a(I125
I49
tp1671
a(I123
I43
tp1672
a(I95
I15
tp1673
a(I122
I35
tp1674
a(I170
I34
tp1675
a(I138
I19
tp1676
a(I152
I6
tp1677
a(I103
I43
tp1678
a(I146
I16
tp1679
a(I189
I16
tp1680
asg27
I200
sba(imain2
Polygon
p1681
(dp1682
g3
(I89
I37
tp1683
sg5
I200
sg6
(I0
I101
I197
I70
tp1684
sg8
(lp1685
(I104
I35
tp1686
a(I54
I51
tp1687
a(I55
I50
tp1688
asg27
I200
sba(imain2
Polygon
p1689
(dp1690
g3
(I43
I51
tp1691
sg5
I200
sg6
(I34
I140
I121
I0
tp1692
sg8
(lp1693
(I15
I67
tp1694
a(I39
I8
tp1695
a(I54
I93
tp1696
a(I20
I81
tp1697
a(I29
I5
tp1698
a(I66
I97
tp1699
a(I62
I59
tp1700
a(I37
I59
tp1701
a(I76
I99
tp1702
a(I47
I50
tp1703
a(I2
I88
tp1704
a(I41
I3
tp1705
a(I88
I11
tp1706
a(I51
I32
tp1707
a(I75
I8
tp1708
a(I15
I62
tp1709
asg27
I200
sba(imain2
Polygon
p1710
(dp1711
g3
(I23
I143
tp1712
sg5
I200
sg6
(I72
I245
I170
I39
tp1713
sg8
(lp1714
(I0
I94
tp1715
a(I0
I130
tp1716
a(I0
I188
tp1717
a(I29
I191
tp1718
a(I34
I148
tp1719
a(I0
I157
tp1720
a(I0
I133
tp1721
asg27
I200
sba(imain2
Polygon
p1722
(dp1723
g3
(I32
I143
tp1724
sg5
I200
sg6
(I52
I69
I159
I0
tp1725
sg8
(lp1726
(I82
I177
tp1727
a(I49
I177
tp1728
a(I63
I174
tp1729
a(I52
I121
tp1730
a(I45
I154
tp1731
a(I1
I141
tp1732
a(I0
I171
tp1733
a(I17
I146
tp1734
a(I70
I117
tp1735
a(I41
I99
tp1736
a(I58
I115
tp1737
a(I32
I170
tp1738
a(I0
I152
tp1739
a(I53
I187
tp1740
a(I22
I122
tp1741
a(I64
I151
tp1742
asg27
I200
sba(imain2
Polygon
p1743
(dp1744
g3
(I69
I107
tp1745
sg5
I200
sg6
(I156
I228
I1
I4
tp1746
sg8
(lp1747
(I95
I66
tp1748
a(I48
I101
tp1749
a(I45
I119
tp1750
a(I109
I101
tp1751
a(I57
I154
tp1752
a(I49
I120
tp1753
a(I34
I151
tp1754
a(I93
I154
tp1755
a(I108
I69
tp1756
a(I51
I66
tp1757
a(I105
I141
tp1758
a(I73
I153
tp1759
a(I34
I125
tp1760
asg27
I200
sba(imain2
Polygon
p1761
(dp1762
g3
(I172
I111
tp1763
sg5
I200
sg6
(I236
I212
I83
I121
tp1764
sg8
(lp1765
(I200
I62
tp1766
a(I200
I94
tp1767
a(I166
I66
tp1768
asg27
I200
sba(imain2
Polygon
p1769
(dp1770
g3
(I150
I91
tp1771
sg5
I200
sg6
(I8
I239
I84
I36
tp1772
sg8
(lp1773
(I174
I136
tp1774
a(I165
I69
tp1775
a(I174
I90
tp1776
a(I199
I68
tp1777
a(I197
I130
tp1778
asg27
I200
sba(imain2
Polygon
p1779
(dp1780
g3
(I135
I188
tp1781
sg5
I200
sg6
(I76
I226
I4
I1
tp1782
sg8
(lp1783
(I184
I181
tp1784
a(I127
I200
tp1785
a(I104
I200
tp1786
a(I161
I166
tp1787
a(I139
I200
tp1788
a(I85
I183
tp1789
asg27
I200
sba(imain2
Polygon
p1790
(dp1791
g3
(I127
I113
tp1792
sg5
I200
sg6
(I133
I210
I151
I1
tp1793
sg8
(lp1794
(I116
I100
tp1795
a(I174
I63
tp1796
a(I140
I80
tp1797
a(I158
I139
tp1798
a(I111
I130
tp1799
asg27
I200
sba(imain2
Polygon
p1800
(dp1801
g3
(I173
I20
tp1802
sg5
I200
sg6
(I230
I1
I218
I1
tp1803
sg8
(lp1804
(I166
I0
tp1805
a(I198
I62
tp1806
a(I171
I46
tp1807
a(I200
I0
tp1808
a(I145
I26
tp1809
a(I200
I0
tp1810
a(I152
I0
tp1811
a(I189
I36
tp1812
a(I186
I67
tp1813
a(I200
I0
tp1814
a(I166
I0
tp1815
a(I163
I0
tp1816
a(I173
I0
tp1817
a(I144
I0
tp1818
a(I200
I35
tp1819
asg27
I200
sba(imain2
Polygon
p1820
(dp1821
g3
(I100
I197
tp1822
sg5
I200
sg6
(I33
I102
I176
I61
tp1823
sg8
(lp1824
(I99
I200
tp1825
a(I118
I200
tp1826
a(I147
I200
tp1827
a(I104
I151
tp1828
a(I129
I173
tp1829
a(I105
I200
tp1830
a(I92
I200
tp1831
a(I140
I200
tp1832
a(I133
I200
tp1833
a(I139
I200
tp1834
a(I92
I200
tp1835
a(I121
I200
tp1836
a(I100
I199
tp1837
asg27
I200
sba(imain2
Polygon
p1838
(dp1839
g3
(I70
I0
tp1840
sg5
I200
sg6
(I135
I1
I193
I1
tp1841
sg8
(lp1842
(I62
I0
tp1843
a(I115
I27
tp1844
a(I112
I0
tp1845
a(I107
I0
tp1846
a(I109
I36
tp1847
a(I64
I0
tp1848
a(I30
I0
tp1849
asg27
I200
sba(imain2
Polygon
p1850
(dp1851
g3
(I106
I152
tp1852
sg5
I200
sg6
(I98
I161
I61
I65
tp1853
sg8
(lp1854
(I133
I114
tp1855
a(I119
I166
tp1856
a(I59
I200
tp1857
a(I140
I199
tp1858
a(I115
I114
tp1859
a(I85
I153
tp1860
a(I124
I140
tp1861
a(I142
I198
tp1862
a(I122
I150
tp1863
a(I68
I141
tp1864
a(I79
I165
tp1865
a(I99
I123
tp1866
asg27
I200
sba(imain2
Polygon
p1867
(dp1868
g3
(I11
I38
tp1869
sg5
I200
sg6
(I109
I1
I123
I0
tp1870
sg8
(lp1871
(I11
I45
tp1872
a(I0
I65
tp1873
a(I35
I52
tp1874
a(I0
I12
tp1875
a(I8
I17
tp1876
a(I0
I79
tp1877
a(I52
I31
tp1878
a(I3
I4
tp1879
a(I46
I62
tp1880
a(I11
I25
tp1881
a(I3
I0
tp1882
asg27
I200
sba(imain2
Polygon
p1883
(dp1884
g3
(I23
I68
tp1885
sg5
I200
sg6
(I215
I111
I188
I119
tp1886
sg8
(lp1887
(I35
I109
tp1888
a(I24
I85
tp1889
a(I54
I19
tp1890
a(I0
I66
tp1891
a(I35
I32
tp1892
a(I64
I43
tp1893
a(I0
I19
tp1894
a(I0
I111
tp1895
a(I7
I98
tp1896
a(I38
I112
tp1897
a(I10
I74
tp1898
asg27
I200
sba(imain2
Polygon
p1899
(dp1900
g3
(I73
I8
tp1901
sg5
I200
sg6
(I104
I162
I20
I129
tp1902
sg8
(lp1903
(I33
I0
tp1904
a(I113
I0
tp1905
a(I27
I56
tp1906
a(I23
I45
tp1907
a(I27
I13
tp1908
a(I32
I0
tp1909
a(I39
I9
tp1910
a(I28
I0
tp1911
a(I119
I40
tp1912
asg27
I200
sba(imain2
Polygon
p1913
(dp1914
g3
(I175
I187
tp1915
sg5
I200
sg6
(I117
I193
I196
I51
tp1916
sg8
(lp1917
(I159
I200
tp1918
a(I170
I200
tp1919
a(I146
I200
tp1920
asg27
I200
sba(imain2
Polygon
p1921
(dp1922
g3
(I153
I195
tp1923
sg5
I200
sg6
(I54
I165
I29
I1
tp1924
sg8
(lp1925
(I179
I189
tp1926
a(I123
I200
tp1927
a(I135
I200
tp1928
a(I197
I200
tp1929
a(I192
I184
tp1930
a(I196
I200
tp1931
a(I125
I147
tp1932
a(I103
I169
tp1933
a(I103
I196
tp1934
asg27
I200
sba(imain2
Polygon
p1935
(dp1936
g3
(I199
I6
tp1937
sg5
I200
sg6
(I143
I39
I87
I1
tp1938
sg8
(lp1939
(I200
I20
tp1940
a(I200
I2
tp1941
a(I156
I0
tp1942
a(I165
I20
tp1943
a(I200
I20
tp1944
a(I200
I0
tp1945
a(I200
I32
tp1946
a(I150
I2
tp1947
a(I200
I38
tp1948
asg27
I200
sba(imain2
Polygon
p1949
(dp1950
g3
(I46
I191
tp1951
sg5
I200
sg6
(I89
I15
I8
I105
tp1952
sg8
(lp1953
(I69
I200
tp1954
a(I84
I189
tp1955
a(I89
I167
tp1956
a(I0
I200
tp1957
a(I0
I146
tp1958
a(I27
I155
tp1959
a(I54
I200
tp1960
a(I34
I181
tp1961
a(I84
I178
tp1962
a(I52
I173
tp1963
asg27
I200
sba(imain2
Polygon
p1964
(dp1965
g3
(I144
I179
tp1966
sg5
I200
sg6
(I124
I32
I189
I31
tp1967
sg8
(lp1968
(I123
I130
tp1969
a(I153
I186
tp1970
a(I136
I182
tp1971
a(I130
I191
tp1972
a(I102
I180
tp1973
a(I191
I200
tp1974
a(I105
I200
tp1975
a(I133
I183
tp1976
a(I108
I200
tp1977
a(I164
I155
tp1978
a(I148
I156
tp1979
a(I175
I200
tp1980
a(I154
I153
tp1981
a(I168
I199
tp1982
a(I168
I200
tp1983
asg27
I200
sba(imain2
Polygon
p1984
(dp1985
g3
(I120
I46
tp1986
sg5
I200
sg6
(I81
I82
I101
I49
tp1987
sg8
(lp1988
(I133
I48
tp1989
a(I126
I24
tp1990
a(I138
I46
tp1991
a(I132
I30
tp1992
a(I113
I91
tp1993
a(I132
I24
tp1994
a(I98
I13
tp1995
asg27
I200
sba(imain2
Polygon
p1996
(dp1997
g3
(I100
I144
tp1998
sg5
I200
sg6
(I122
I183
I165
I107
tp1999
sg8
(lp2000
(I112
I95
tp2001
a(I98
I152
tp2002
a(I98
I126
tp2003
a(I74
I100
tp2004
a(I73
I147
tp2005
a(I83
I152
tp2006
a(I125
I151
tp2007
a(I68
I158
tp2008
a(I56
I110
tp2009
a(I80
I97
tp2010
asg27
I200
sba(imain2
Polygon
p2011
(dp2012
g3
(I151
I184
tp2013
sg5
I200
sg6
(I138
I0
I175
I0
tp2014
sg8
(lp2015
(I141
I163
tp2016
a(I169
I169
tp2017
a(I122
I200
tp2018
a(I162
I159
tp2019
asg27
I200
sba(imain2
Polygon
p2020
(dp2021
g3
(I124
I187
tp2022
sg5
I200
sg6
(I25
I27
I210
I0
tp2023
sg8
(lp2024
(I135
I158
tp2025
a(I138
I200
tp2026
a(I131
I200
tp2027
a(I140
I200
tp2028
a(I119
I200
tp2029
a(I147
I147
tp2030
a(I113
I200
tp2031
a(I117
I187
tp2032
a(I128
I165
tp2033
a(I118
I147
tp2034
asg27
I200
sba(imain2
Polygon
p2035
(dp2036
g3
(I48
I52
tp2037
sg5
I200
sg6
(I247
I132
I158
I141
tp2038
sg8
(lp2039
(I58
I94
tp2040
a(I79
I94
tp2041
a(I97
I60
tp2042
a(I67
I7
tp2043
a(I35
I65
tp2044
a(I31
I93
tp2045
a(I90
I3
tp2046
a(I0
I3
tp2047
a(I0
I82
tp2048
a(I2
I102
tp2049
a(I65
I76
tp2050
a(I18
I85
tp2051
a(I75
I83
tp2052
a(I67
I95
tp2053
asg27
I200
sba(imain2
Polygon
p2054
(dp2055
g3
(I139
I74
tp2056
sg5
I200
sg6
(I151
I190
I236
I81
tp2057
sg8
(lp2058
(I189
I47
tp2059
a(I185
I26
tp2060
a(I157
I30
tp2061
a(I169
I88
tp2062
a(I187
I48
tp2063
asg27
I200
sba(imain2
Polygon
p2064
(dp2065
g3
(I161
I83
tp2066
sg5
I200
sg6
(I202
I147
I103
I29
tp2067
sg8
(lp2068
(I114
I113
tp2069
a(I114
I49
tp2070
a(I178
I77
tp2071
a(I155
I98
tp2072
a(I177
I113
tp2073
a(I199
I106
tp2074
a(I200
I49
tp2075
a(I140
I35
tp2076
a(I197
I72
tp2077
a(I199
I71
tp2078
a(I145
I53
tp2079
a(I124
I126
tp2080
asg27
I200
sba(imain2
Polygon
p2081
(dp2082
g3
(I88
I36
tp2083
sg5
I200
sg6
(I1
I30
I71
I104
tp2084
sg8
(lp2085
(I80
I10
tp2086
a(I49
I39
tp2087
a(I102
I37
tp2088
a(I120
I27
tp2089
a(I125
I14
tp2090
a(I135
I16
tp2091
a(I71
I9
tp2092
a(I89
I8
tp2093
a(I58
I13
tp2094
asg27
I200
sba(imain2
Polygon
p2095
(dp2096
g3
(I12
I36
tp2097
sg5
I200
sg6
(I162
I102
I213
I0
tp2098
sg8
(lp2099
(I11
I65
tp2100
a(I0
I52
tp2101
a(I0
I69
tp2102
a(I31
I6
tp2103
a(I0
I79
tp2104
a(I0
I62
tp2105
a(I45
I0
tp2106
a(I6
I61
tp2107
asg27
I200
sba(imain2
Polygon
p2108
(dp2109
g3
(I79
I176
tp2110
sg5
I200
sg6
(I198
I84
I166
I98
tp2111
sg8
(lp2112
(I129
I200
tp2113
a(I127
I162
tp2114
a(I69
I200
tp2115
a(I91
I200
tp2116
a(I96
I200
tp2117
asg27
I200
sba(imain2
Polygon
p2118
(dp2119
g3
(I159
I193
tp2120
sg5
I200
sg6
(I188
I172
I60
I1
tp2121
sg8
(lp2122
(I115
I192
tp2123
a(I136
I181
tp2124
a(I185
I200
tp2125
a(I173
I200
tp2126
a(I180
I200
tp2127
a(I200
I196
tp2128
a(I192
I188
tp2129
a(I191
I154
tp2130
a(I134
I143
tp2131
a(I129
I200
tp2132
a(I197
I200
tp2133
a(I157
I195
tp2134
asg27
I200
sba(imain2
Polygon
p2135
(dp2136
g3
(I52
I197
tp2137
sg5
I200
sg6
(I164
I146
I228
I1
tp2138
sg8
(lp2139
(I87
I182
tp2140
a(I66
I195
tp2141
a(I29
I200
tp2142
a(I49
I200
tp2143
a(I10
I147
tp2144
a(I22
I181
tp2145
a(I16
I153
tp2146
a(I83
I153
tp2147
asg27
I200
sba(imain2
Polygon
p2148
(dp2149
g3
(I96
I168
tp2150
sg5
I200
sg6
(I81
I155
I161
I1
tp2151
sg8
(lp2152
(I105
I151
tp2153
a(I128
I200
tp2154
a(I97
I200
tp2155
a(I68
I178
tp2156
a(I144
I177
tp2157
a(I146
I166
tp2158
a(I85
I168
tp2159
a(I125
I166
tp2160
a(I139
I177
tp2161
a(I108
I170
tp2162
a(I123
I192
tp2163
asg27
I200
sba(imain2
Polygon
p2164
(dp2165
g3
(I148
I67
tp2166
sg5
I200
sg6
(I210
I29
I21
I0
tp2167
sg8
(lp2168
(I156
I67
tp2169
a(I162
I93
tp2170
a(I149
I107
tp2171
a(I181
I47
tp2172
a(I165
I109
tp2173
a(I105
I34
tp2174
a(I152
I25
tp2175
a(I123
I20
tp2176
a(I100
I97
tp2177
a(I106
I33
tp2178
a(I118
I56
tp2179
a(I159
I41
tp2180
a(I198
I101
tp2181
a(I117
I89
tp2182
asg27
I200
sba(imain2
Polygon
p2183
(dp2184
g3
(I185
I29
tp2185
sg5
I200
sg6
(I139
I164
I76
I76
tp2186
sg8
(lp2187
(I136
I0
tp2188
a(I199
I0
tp2189
a(I200
I25
tp2190
a(I174
I43
tp2191
a(I138
I31
tp2192
asg27
I200
sba(imain2
Polygon
p2193
(dp2194
g3
(I77
I185
tp2195
sg5
I200
sg6
(I27
I24
I96
I93
tp2196
sg8
(lp2197
(I122
I163
tp2198
a(I63
I154
tp2199
a(I110
I156
tp2200
a(I124
I169
tp2201
a(I40
I180
tp2202
a(I124
I175
tp2203
a(I35
I180
tp2204
a(I104
I149
tp2205
a(I64
I192
tp2206
a(I42
I162
tp2207
a(I74
I164
tp2208
a(I77
I170
tp2209
a(I75
I169
tp2210
asg27
I200
sba(imain2
Polygon
p2211
(dp2212
g3
(I183
I173
tp2213
sg5
I200
sg6
(I108
I214
I86
I39
tp2214
sg8
(lp2215
(I200
I200
tp2216
a(I200
I160
tp2217
a(I200
I200
tp2218
a(I200
I125
tp2219
a(I137
I200
tp2220
a(I165
I200
tp2221
a(I184
I179
tp2222
asg27
I200
sba(imain2
Polygon
p2223
(dp2224
g3
(I141
I78
tp2225
sg5
I200
sg6
(I231
I87
I164
I1
tp2226
sg8
(lp2227
(I99
I101
tp2228
a(I182
I64
tp2229
a(I176
I100
tp2230
a(I162
I119
tp2231
a(I134
I123
tp2232
a(I153
I109
tp2233
asg27
I200
sba(imain2
Polygon
p2234
(dp2235
g3
(I8
I10
tp2236
sg5
I200
sg6
(I61
I42
I71
I96
tp2237
sg8
(lp2238
(I33
I4
tp2239
a(I0
I0
tp2240
a(I30
I6
tp2241
a(I0
I0
tp2242
a(I30
I0
tp2243
asg27
I200
sba(imain2
Polygon
p2244
(dp2245
g3
(I37
I13
tp2246
sg5
I200
sg6
(I0
I114
I18
I108
tp2247
sg8
(lp2248
(I36
I0
tp2249
a(I16
I0
tp2250
a(I2
I0
tp2251
a(I0
I6
tp2252
a(I47
I4
tp2253
a(I33
I0
tp2254
a(I37
I0
tp2255
a(I53
I0
tp2256
a(I27
I0
tp2257
a(I38
I0
tp2258
a(I54
I0
tp2259
a(I41
I0
tp2260
asg27
I200
sba(imain2
Polygon
p2261
(dp2262
g3
(I168
I175
tp2263
sg5
I200
sg6
(I94
I52
I24
I0
tp2264
sg8
(lp2265
(I153
I168
tp2266
a(I179
I200
tp2267
a(I195
I166
tp2268
a(I185
I200
tp2269
a(I200
I200
tp2270
a(I200
I169
tp2271
a(I118
I182
tp2272
a(I200
I171
tp2273
a(I200
I200
tp2274
a(I122
I174
tp2275
a(I171
I200
tp2276
asg27
I200
sba(imain2
Polygon
p2277
(dp2278
g3
(I75
I83
tp2279
sg5
I200
sg6
(I27
I32
I18
I0
tp2280
sg8
(lp2281
(I91
I55
tp2282
a(I50
I113
tp2283
a(I118
I51
tp2284
a(I36
I133
tp2285
a(I36
I53
tp2286
a(I51
I69
tp2287
a(I28
I131
tp2288
a(I28
I89
tp2289
a(I87
I115
tp2290
a(I88
I88
tp2291
a(I101
I82
tp2292
a(I43
I89
tp2293
a(I101
I66
tp2294
a(I89
I66
tp2295
a(I111
I101
tp2296
a(I99
I102
tp2297
asg27
I200
sba(imain2
Polygon
p2298
(dp2299
g3
(I18
I79
tp2300
sg5
I200
sg6
(I80
I0
I174
I98
tp2301
sg8
(lp2302
(I36
I125
tp2303
a(I43
I109
tp2304
a(I18
I107
tp2305
a(I40
I111
tp2306
a(I12
I123
tp2307
a(I0
I103
tp2308
a(I0
I117
tp2309
a(I39
I119
tp2310
asg27
I200
sba(imain2
Polygon
p2311
(dp2312
g3
(I27
I28
tp2313
sg5
I200
sg6
(I220
I145
I39
I1
tp2314
sg8
(lp2315
(I26
I20
tp2316
a(I28
I70
tp2317
a(I19
I0
tp2318
a(I75
I77
tp2319
a(I71
I0
tp2320
a(I65
I38
tp2321
a(I69
I72
tp2322
a(I7
I78
tp2323
a(I0
I0
tp2324
a(I0
I0
tp2325
a(I63
I0
tp2326
a(I16
I59
tp2327
a(I64
I6
tp2328
a(I59
I6
tp2329
asg27
I200
sba(imain2
Polygon
p2330
(dp2331
g3
(I85
I60
tp2332
sg5
I200
sg6
(I83
I112
I11
I99
tp2333
sg8
(lp2334
(I115
I60
tp2335
a(I134
I87
tp2336
a(I55
I103
tp2337
a(I36
I62
tp2338
a(I72
I90
tp2339
a(I131
I73
tp2340
a(I117
I52
tp2341
a(I123
I32
tp2342
a(I108
I57
tp2343
asg27
I200
sba(imain2
Polygon
p2344
(dp2345
g3
(I45
I110
tp2346
sg5
I200
sg6
(I40
I239
I179
I42
tp2347
sg8
(lp2348
(I68
I158
tp2349
a(I45
I112
tp2350
a(I72
I109
tp2351
asg27
I200
sba(imain2
Polygon
p2352
(dp2353
g3
(I54
I138
tp2354
sg5
I200
sg6
(I117
I64
I185
I0
tp2355
sg8
(lp2356
(I18
I163
tp2357
a(I27
I154
tp2358
a(I45
I131
tp2359
a(I12
I130
tp2360
a(I95
I108
tp2361
a(I60
I176
tp2362
a(I79
I119
tp2363
a(I84
I118
tp2364
a(I4
I97
tp2365
asg27
I200
sba(imain2
Polygon
p2366
(dp2367
g3
(I162
I123
tp2368
sg5
I200
sg6
(I42
I58
I71
I9
tp2369
sg8
(lp2370
(I175
I164
tp2371
a(I200
I173
tp2372
a(I200
I137
tp2373
a(I119
I112
tp2374
a(I180
I78
tp2375
a(I200
I106
tp2376
a(I180
I124
tp2377
a(I188
I77
tp2378
a(I192
I98
tp2379
a(I169
I105
tp2380
a(I139
I167
tp2381
a(I113
I156
tp2382
a(I147
I147
tp2383
a(I156
I80
tp2384
a(I137
I130
tp2385
a(I196
I165
tp2386
a(I137
I78
tp2387
a(I194
I166
tp2388
a(I122
I121
tp2389
asg27
I200
sba(imain2
Polygon
p2390
(dp2391
g3
(I144
I70
tp2392
sg5
I200
sg6
(I191
I38
I117
I24
tp2393
sg8
(lp2394
(I170
I95
tp2395
a(I139
I84
tp2396
a(I149
I71
tp2397
a(I142
I70
tp2398
asg27
I200
sba(imain2
Polygon
p2399
(dp2400
g3
(I11
I36
tp2401
sg5
I200
sg6
(I144
I30
I76
I23
tp2402
sg8
(lp2403
(I0
I42
tp2404
a(I0
I45
tp2405
a(I0
I0
tp2406
a(I0
I78
tp2407
a(I0
I31
tp2408
a(I0
I30
tp2409
a(I0
I35
tp2410
a(I0
I25
tp2411
asg27
I200
sba(imain2
Polygon
p2412
(dp2413
g3
(I85
I175
tp2414
sg5
I200
sg6
(I240
I52
I42
I1
tp2415
sg8
(lp2416
(I42
I130
tp2417
a(I112
I137
tp2418
a(I100
I133
tp2419
a(I108
I186
tp2420
a(I118
I133
tp2421
a(I111
I200
tp2422
a(I114
I192
tp2423
a(I45
I126
tp2424
a(I38
I152
tp2425
a(I116
I138
tp2426
a(I61
I131
tp2427
a(I69
I177
tp2428
a(I80
I162
tp2429
a(I116
I200
tp2430
a(I105
I180
tp2431
asg27
I200
sba(imain2
Polygon
p2432
(dp2433
g3
(I78
I22
tp2434
sg5
I200
sg6
(I0
I239
I64
I0
tp2435
sg8
(lp2436
(I38
I0
tp2437
a(I117
I32
tp2438
a(I112
I7
tp2439
a(I106
I8
tp2440
a(I80
I0
tp2441
a(I127
I21
tp2442
a(I88
I0
tp2443
asg27
I200
sba(imain2
Polygon
p2444
(dp2445
g3
(I58
I165
tp2446
sg5
I200
sg6
(I72
I1
I134
I85
tp2447
sg8
(lp2448
(I40
I160
tp2449
a(I37
I152
tp2450
a(I46
I164
tp2451
asg27
I200
sba(imain2
Polygon
p2452
(dp2453
g3
(I98
I69
tp2454
sg5
I200
sg6
(I71
I213
I124
I25
tp2455
sg8
(lp2456
(I111
I113
tp2457
a(I126
I99
tp2458
a(I51
I93
tp2459
asg27
I200
sba(imain2
Polygon
p2460
(dp2461
g3
(I184
I193
tp2462
sg5
I200
sg6
(I17
I62
I68
I0
tp2463
sg8
(lp2464
(I194
I200
tp2465
a(I200
I163
tp2466
a(I151
I200
tp2467
a(I200
I155
tp2468
asg27
I200
sba(imain2
Polygon
p2469
(dp2470
g3
(I136
I181
tp2471
sg5
I200
sg6
(I117
I127
I188
I0
tp2472
sg8
(lp2473
(I107
I195
tp2474
a(I99
I198
tp2475
a(I132
I200
tp2476
a(I138
I200
tp2477
a(I127
I139
tp2478
a(I136
I138
tp2479
a(I99
I200
tp2480
asg27
I200
sba(imain2
Polygon
p2481
(dp2482
g3
(I65
I69
tp2483
sg5
I200
sg6
(I101
I90
I153
I0
tp2484
sg8
(lp2485
(I24
I101
tp2486
a(I37
I51
tp2487
a(I113
I49
tp2488
a(I65
I53
tp2489
a(I63
I93
tp2490
a(I16
I47
tp2491
a(I26
I115
tp2492
a(I73
I48
tp2493
a(I38
I37
tp2494
a(I17
I99
tp2495
asg27
I200
sba(imain2
Polygon
p2496
(dp2497
g3
(I146
I60
tp2498
sg5
I200
sg6
(I1
I1
I199
I0
tp2499
sg8
(lp2500
(I143
I66
tp2501
a(I149
I28
tp2502
a(I120
I67
tp2503
a(I193
I89
tp2504
a(I133
I38
tp2505
asg27
I200
sba(imain2
Polygon
p2506
(dp2507
g3
(I7
I191
tp2508
sg5
I200
sg6
(I0
I165
I63
I1
tp2509
sg8
(lp2510
(I9
I200
tp2511
a(I0
I194
tp2512
a(I0
I200
tp2513
a(I36
I192
tp2514
a(I0
I162
tp2515
a(I24
I148
tp2516
a(I51
I182
tp2517
a(I0
I143
tp2518
a(I46
I173
tp2519
a(I0
I150
tp2520
a(I32
I200
tp2521
a(I12
I200
tp2522
a(I0
I181
tp2523
a(I46
I178
tp2524
asg27
I200
sba(imain2
Polygon
p2525
(dp2526
g3
(I177
I12
tp2527
sg5
I200
sg6
(I1
I126
I136
I0
tp2528
sg8
(lp2529
(I179
I47
tp2530
a(I166
I0
tp2531
a(I131
I0
tp2532
a(I192
I0
tp2533
a(I143
I37
tp2534
a(I200
I50
tp2535
a(I172
I22
tp2536
a(I200
I0
tp2537
asg27
I200
sba(imain2
Polygon
p2538
(dp2539
g3
(I98
I60
tp2540
sg5
I200
sg6
(I141
I35
I46
I0
tp2541
sg8
(lp2542
(I138
I25
tp2543
a(I70
I57
tp2544
a(I104
I32
tp2545
a(I147
I11
tp2546
a(I125
I68
tp2547
a(I77
I21
tp2548
a(I108
I102
tp2549
a(I52
I33
tp2550
asg27
I200
sba(imain2
Polygon
p2551
(dp2552
g3
(I26
I121
tp2553
sg5
I200
sg6
(I19
I110
I2
I76
tp2554
sg8
(lp2555
(I5
I167
tp2556
a(I39
I85
tp2557
a(I0
I101
tp2558
a(I0
I166
tp2559
a(I30
I111
tp2560
a(I14
I135
tp2561
a(I45
I83
tp2562
a(I42
I128
tp2563
a(I26
I128
tp2564
a(I47
I156
tp2565
asg27
I200
sba(imain2
Polygon
p2566
(dp2567
g3
(I59
I10
tp2568
sg5
I200
sg6
(I178
I55
I106
I123
tp2569
sg8
(lp2570
(I13
I0
tp2571
a(I71
I0
tp2572
a(I73
I6
tp2573
a(I69
I0
tp2574
a(I109
I0
tp2575
a(I101
I15
tp2576
a(I10
I0
tp2577
a(I17
I23
tp2578
asg27
I200
sba(imain2
Polygon
p2579
(dp2580
g3
(I171
I141
tp2581
sg5
I200
sg6
(I36
I196
I137
I0
tp2582
sg8
(lp2583
(I125
I189
tp2584
a(I145
I150
tp2585
a(I153
I146
tp2586
a(I177
I154
tp2587
a(I200
I145
tp2588
a(I157
I111
tp2589
a(I200
I94
tp2590
a(I135
I99
tp2591
a(I170
I107
tp2592
asg27
I200
sba(imain2
Polygon
p2593
(dp2594
g3
(I80
I143
tp2595
sg5
I200
sg6
(I72
I74
I10
I109
tp2596
sg8
(lp2597
(I66
I140
tp2598
a(I70
I145
tp2599
a(I93
I192
tp2600
a(I130
I187
tp2601
a(I120
I141
tp2602
a(I69
I128
tp2603
a(I62
I133
tp2604
a(I71
I170
tp2605
a(I62
I180
tp2606
a(I86
I147
tp2607
asg27
I200
sba(imain2
Polygon
p2608
(dp2609
g3
(I191
I199
tp2610
sg5
I200
sg6
(I0
I223
I23
I1
tp2611
sg8
(lp2612
(I169
I200
tp2613
a(I190
I200
tp2614
a(I200
I200
tp2615
a(I193
I156
tp2616
a(I200
I166
tp2617
a(I200
I200
tp2618
a(I163
I187
tp2619
a(I141
I160
tp2620
a(I200
I200
tp2621
asg27
I200
sba(imain2
Polygon
p2622
(dp2623
g3
(I6
I112
tp2624
sg5
I200
sg6
(I131
I70
I127
I52
tp2625
sg8
(lp2626
(I0
I137
tp2627
a(I0
I140
tp2628
a(I25
I84
tp2629
a(I0
I100
tp2630
a(I28
I147
tp2631
a(I0
I109
tp2632
a(I0
I159
tp2633
a(I0
I63
tp2634
asg27
I200
sba(imain2
Polygon
p2635
(dp2636
g3
(I189
I37
tp2637
sg5
I200
sg6
(I31
I237
I163
I41
tp2638
sg8
(lp2639
(I200
I46
tp2640
a(I191
I37
tp2641
a(I188
I0
tp2642
a(I199
I1
tp2643
asg27
I200
sba(imain2
Polygon
p2644
(dp2645
g3
(I121
I50
tp2646
sg5
I200
sg6
(I3
I72
I1
I0
tp2647
sg8
(lp2648
(I136
I45
tp2649
a(I104
I15
tp2650
a(I148
I69
tp2651
asg27
I200
sba(imain2
Polygon
p2652
(dp2653
g3
(I58
I165
tp2654
sg5
I200
sg6
(I141
I99
I1
I1
tp2655
sg8
(lp2656
(I30
I120
tp2657
a(I68
I175
tp2658
a(I9
I168
tp2659
a(I97
I177
tp2660
a(I37
I149
tp2661
a(I66
I130
tp2662
a(I99
I183
tp2663
a(I107
I152
tp2664
a(I56
I151
tp2665
a(I33
I161
tp2666
a(I83
I175
tp2667
a(I36
I200
tp2668
a(I56
I182
tp2669
asg27
I200
sba(imain2
Polygon
p2670
(dp2671
g3
(I155
I38
tp2672
sg5
I200
sg6
(I99
I107
I235
I81
tp2673
sg8
(lp2674
(I160
I2
tp2675
a(I162
I13
tp2676
a(I165
I27
tp2677
asg27
I200
sba(imain2
Polygon
p2678
(dp2679
g3
(I80
I130
tp2680
sg5
I200
sg6
(I223
I90
I0
I112
tp2681
sg8
(lp2682
(I90
I107
tp2683
a(I38
I91
tp2684
a(I127
I91
tp2685
a(I86
I180
tp2686
a(I90
I97
tp2687
a(I42
I107
tp2688
a(I57
I140
tp2689
a(I81
I161
tp2690
a(I95
I173
tp2691
a(I77
I124
tp2692
a(I91
I85
tp2693
a(I88
I146
tp2694
asg27
I200
sba(imain2
Polygon
p2695
(dp2696
g3
(I182
I31
tp2697
sg5
I200
sg6
(I110
I84
I111
I0
tp2698
sg8
(lp2699
(I146
I0
tp2700
a(I198
I51
tp2701
a(I135
I9
tp2702
a(I186
I37
tp2703
a(I164
I0
tp2704
a(I175
I40
tp2705
a(I151
I81
tp2706
a(I193
I4
tp2707
a(I200
I57
tp2708
a(I152
I25
tp2709
a(I188
I0
tp2710
a(I162
I2
tp2711
a(I154
I80
tp2712
a(I174
I47
tp2713
a(I195
I67
tp2714
a(I188
I45
tp2715
a(I157
I0
tp2716
a(I165
I65
tp2717
a(I145
I0
tp2718
a(I186
I59
tp2719
a(I200
I28
tp2720
a(I169
I11
tp2721
a(I133
I0
tp2722
asg27
I200
sba(imain2
Polygon
p2723
(dp2724
g3
(I164
I132
tp2725
sg5
I200
sg6
(I50
I67
I1
I1
tp2726
sg8
(lp2727
(I152
I112
tp2728
a(I140
I175
tp2729
a(I168
I173
tp2730
a(I180
I136
tp2731
a(I190
I82
tp2732
a(I132
I128
tp2733
a(I125
I176
tp2734
a(I199
I84
tp2735
a(I200
I115
tp2736
a(I157
I141
tp2737
a(I185
I112
tp2738
asg27
I200
sba(imain2
Polygon
p2739
(dp2740
g3
(I67
I123
tp2741
sg5
I200
sg6
(I203
I168
I125
I71
tp2742
sg8
(lp2743
(I114
I101
tp2744
a(I112
I148
tp2745
a(I67
I158
tp2746
a(I43
I93
tp2747
a(I96
I92
tp2748
a(I107
I100
tp2749
a(I49
I107
tp2750
a(I55
I111
tp2751
a(I46
I107
tp2752
a(I101
I102
tp2753
a(I87
I99
tp2754
asg27
I200
sba(imain2
Polygon
p2755
(dp2756
g3
(I139
I46
tp2757
sg5
I200
sg6
(I1
I111
I82
I70
tp2758
sg8
(lp2759
(I185
I84
tp2760
a(I137
I74
tp2761
a(I164
I79
tp2762
asg27
I200
sba(imain2
Polygon
p2763
(dp2764
g3
(I137
I13
tp2765
sg5
I200
sg6
(I202
I131
I218
I3
tp2766
sg8
(lp2767
(I146
I0
tp2768
a(I180
I37
tp2769
a(I89
I20
tp2770
a(I139
I19
tp2771
a(I157
I0
tp2772
a(I152
I49
tp2773
a(I154
I46
tp2774
a(I160
I57
tp2775
a(I117
I1
tp2776
asg27
I200
sba(imain2
Polygon
p2777
(dp2778
g3
(I72
I81
tp2779
sg5
I200
sg6
(I239
I108
I79
I0
tp2780
sg8
(lp2781
(I95
I99
tp2782
a(I83
I109
tp2783
a(I26
I64
tp2784
a(I57
I104
tp2785
a(I59
I58
tp2786
a(I120
I57
tp2787
a(I53
I62
tp2788
a(I116
I85
tp2789
asg27
I200
sba(imain2
Polygon
p2790
(dp2791
g3
(I24
I70
tp2792
sg5
I200
sg6
(I5
I224
I8
I12
tp2793
sg8
(lp2794
(I37
I25
tp2795
a(I72
I32
tp2796
a(I2
I21
tp2797
a(I0
I105
tp2798
a(I15
I106
tp2799
a(I47
I88
tp2800
asg27
I200
sba(imain2
Polygon
p2801
(dp2802
g3
(I144
I200
tp2803
sg5
I200
sg6
(I123
I88
I11
I1
tp2804
sg8
(lp2805
(I164
I200
tp2806
a(I121
I196
tp2807
a(I107
I168
tp2808
a(I154
I187
tp2809
a(I106
I200
tp2810
a(I111
I200
tp2811
a(I130
I200
tp2812
a(I181
I194
tp2813
a(I160
I170
tp2814
a(I98
I181
tp2815
a(I107
I153
tp2816
a(I103
I200
tp2817
a(I127
I153
tp2818
a(I175
I183
tp2819
a(I128
I200
tp2820
a(I98
I186
tp2821
a(I146
I200
tp2822
a(I145
I200
tp2823
a(I122
I150
tp2824
asg27
I200
sba(imain2
Polygon
p2825
(dp2826
g3
(I63
I64
tp2827
sg5
I200
sg6
(I192
I193
I44
I4
tp2828
sg8
(lp2829
(I90
I67
tp2830
a(I18
I106
tp2831
a(I18
I45
tp2832
a(I97
I38
tp2833
a(I97
I107
tp2834
a(I48
I88
tp2835
a(I43
I112
tp2836
a(I106
I109
tp2837
a(I52
I111
tp2838
asg27
I200
sba(imain2
Polygon
p2839
(dp2840
g3
(I87
I65
tp2841
sg5
I200
sg6
(I216
I55
I97
I1
tp2842
sg8
(lp2843
(I136
I80
tp2844
a(I106
I35
tp2845
a(I86
I83
tp2846
a(I40
I93
tp2847
a(I60
I111
tp2848
a(I53
I95
tp2849
a(I128
I62
tp2850
a(I47
I39
tp2851
a(I124
I17
tp2852
a(I96
I80
tp2853
a(I124
I65
tp2854
asg27
I200
sba(imain2
Polygon
p2855
(dp2856
g3
(I110
I191
tp2857
sg5
I200
sg6
(I160
I195
I225
I1
tp2858
sg8
(lp2859
(I91
I200
tp2860
a(I153
I200
tp2861
a(I74
I143
tp2862
a(I77
I167
tp2863
a(I150
I169
tp2864
a(I60
I163
tp2865
a(I66
I185
tp2866
a(I118
I200
tp2867
a(I78
I200
tp2868
a(I141
I200
tp2869
asg27
I200
sba(imain2
Polygon
p2870
(dp2871
g3
(I108
I110
tp2872
sg5
I200
sg6
(I97
I178
I164
I0
tp2873
sg8
(lp2874
(I101
I127
tp2875
a(I117
I114
tp2876
a(I87
I125
tp2877
a(I76
I126
tp2878
a(I79
I109
tp2879
a(I121
I150
tp2880
asg27
I200
sba(imain2
Polygon
p2881
(dp2882
g3
(I112
I52
tp2883
sg5
I200
sg6
(I80
I200
I79
I90
tp2884
sg8
(lp2885
(I158
I54
tp2886
a(I152
I56
tp2887
a(I149
I58
tp2888
asg27
I200
sba.