(lp0
(imain2
Polygon
p1
(dp2
S'origin'
p3
(I39
I29
tp4
sS'h'
p5
I200
sS'color'
p6
(I196
I23
I139
I83
tp7
sS'corner_list'
p8
(lp9
(I0
I0
tp10
a(I33
I71
tp11
a(I71
I41
tp12
a(I83
I36
tp13
a(I53
I0
tp14
a(I50
I57
tp15
a(I0
I33
tp16
a(I24
I0
tp17
a(I0
I37
tp18
a(I83
I19
tp19
a(I65
I20
tp20
a(I58
I39
tp21
a(I36
I0
tp22
a(I21
I30
tp23
a(I43
I62
tp24
a(I39
I30
tp25
a(I64
I0
tp26
asS'w'
p27
I200
sba(imain2
Polygon
p28
(dp29
g3
(I66
I177
tp30
sg5
I200
sg6
(I138
I57
I48
I37
tp31
sg8
(lp32
(I77
I143
tp33
a(I82
I135
tp34
a(I89
I186
tp35
a(I34
I200
tp36
a(I71
I200
tp37
a(I102
I200
tp38
a(I92
I175
tp39
a(I77
I200
tp40
asg27
I200
sba(imain2
Polygon
p41
(dp42
g3
(I59
I53
tp43
sg5
I200
sg6
(I110
I44
I109
I150
tp44
sg8
(lp45
(I106
I10
tp46
a(I26
I102
tp47
a(I10
I62
tp48
a(I59
I26
tp49
a(I63
I3
tp50
a(I15
I3
tp51
a(I40
I72
tp52
a(I30
I51
tp53
a(I38
I88
tp54
a(I94
I64
tp55
a(I79
I32
tp56
a(I91
I22
tp57
a(I92
I46
tp58
a(I76
I61
tp59
a(I51
I74
tp60
a(I79
I46
tp61
a(I53
I45
tp62
a(I57
I67
tp63
asg27
I200
sba(imain2
Polygon
p64
(dp65
g3
(I79
I99
tp66
sg5
I200
sg6
(I72
I89
I70
I98
tp67
sg8
(lp68
(I119
I65
tp69
a(I62
I79
tp70
a(I105
I125
tp71
a(I71
I51
tp72
a(I85
I54
tp73
a(I35
I63
tp74
a(I46
I81
tp75
a(I123
I57
tp76
a(I114
I125
tp77
a(I30
I114
tp78
asg27
I200
sba(imain2
Polygon
p79
(dp80
g3
(I200
I83
tp81
sg5
I200
sg6
(I167
I230
I64
I11
tp82
sg8
(lp83
(I200
I104
tp84
a(I172
I56
tp85
a(I163
I71
tp86
a(I200
I100
tp87
a(I200
I53
tp88
a(I177
I38
tp89
a(I152
I55
tp90
asg27
I200
sba(imain2
Polygon
p91
(dp92
g3
(I48
I136
tp93
sg5
I200
sg6
(I104
I110
I146
I70
tp94
sg8
(lp95
(I74
I106
tp96
a(I87
I127
tp97
a(I94
I141
tp98
a(I85
I153
tp99
a(I43
I102
tp100
a(I5
I168
tp101
a(I82
I166
tp102
a(I89
I93
tp103
a(I88
I108
tp104
a(I68
I100
tp105
a(I87
I101
tp106
a(I86
I178
tp107
a(I46
I130
tp108
a(I46
I109
tp109
a(I2
I151
tp110
a(I64
I175
tp111
a(I20
I153
tp112
a(I45
I165
tp113
a(I87
I144
tp114
a(I85
I127
tp115
a(I79
I93
tp116
a(I56
I161
tp117
asg27
I200
sba(imain2
Polygon
p118
(dp119
g3
(I118
I72
tp120
sg5
I200
sg6
(I133
I138
I60
I60
tp121
sg8
(lp122
(I105
I74
tp123
a(I99
I82
tp124
a(I118
I81
tp125
a(I118
I115
tp126
a(I126
I57
tp127
a(I89
I36
tp128
a(I68
I93
tp129
a(I104
I108
tp130
asg27
I200
sba(imain2
Polygon
p131
(dp132
g3
(I75
I194
tp133
sg5
I200
sg6
(I212
I85
I107
I15
tp134
sg8
(lp135
(I118
I184
tp136
a(I107
I200
tp137
a(I113
I188
tp138
a(I100
I167
tp139
a(I63
I200
tp140
asg27
I200
sba(imain2
Polygon
p141
(dp142
g3
(I7
I180
tp143
sg5
I200
sg6
(I234
I36
I1
I1
tp144
sg8
(lp145
(I15
I138
tp146
a(I0
I197
tp147
a(I52
I161
tp148
a(I24
I183
tp149
a(I0
I168
tp150
a(I0
I173
tp151
a(I39
I200
tp152
a(I38
I151
tp153
a(I0
I200
tp154
a(I0
I200
tp155
a(I5
I200
tp156
asg27
I200
sba(imain2
Polygon
p157
(dp158
g3
(I200
I5
tp159
sg5
I200
sg6
(I172
I75
I112
I37
tp160
sg8
(lp161
(I189
I41
tp162
a(I200
I0
tp163
a(I200
I0
tp164
a(I174
I38
tp165
a(I191
I0
tp166
a(I200
I40
tp167
a(I162
I46
tp168
a(I150
I1
tp169
a(I200
I0
tp170
a(I200
I45
tp171
a(I155
I15
tp172
a(I200
I0
tp173
asg27
I200
sba(imain2
Polygon
p174
(dp175
g3
(I180
I27
tp176
sg5
I200
sg6
(I104
I112
I154
I1
tp177
sg8
(lp178
(I200
I66
tp179
a(I200
I76
tp180
a(I199
I7
tp181
a(I151
I63
tp182
a(I177
I21
tp183
a(I174
I1
tp184
a(I163
I0
tp185
a(I184
I25
tp186
a(I187
I34
tp187
a(I160
I34
tp188
a(I200
I60
tp189
a(I169
I65
tp190
asg27
I200
sba(imain2
Polygon
p191
(dp192
g3
(I59
I197
tp193
sg5
I200
sg6
(I82
I207
I136
I137
tp194
sg8
(lp195
(I98
I200
tp196
a(I93
I157
tp197
a(I71
I197
tp198
a(I54
I200
tp199
asg27
I200
sba(imain2
Polygon
p200
(dp201
g3
(I129
I124
tp202
sg5
I200
sg6
(I169
I188
I96
I69
tp203
sg8
(lp204
(I100
I125
tp205
a(I122
I123
tp206
a(I92
I168
tp207
a(I130
I89
tp208
a(I111
I89
tp209
a(I90
I106
tp210
a(I88
I150
tp211
a(I133
I128
tp212
asg27
I200
sba(imain2
Polygon
p213
(dp214
g3
(I107
I2
tp215
sg5
I200
sg6
(I47
I0
I159
I113
tp216
sg8
(lp217
(I83
I0
tp218
a(I62
I4
tp219
a(I94
I0
tp220
a(I134
I0
tp221
a(I86
I0
tp222
a(I150
I0
tp223
a(I106
I7
tp224
a(I142
I27
tp225
asg27
I200
sba(imain2
Polygon
p226
(dp227
g3
(I25
I107
tp228
sg5
I200
sg6
(I102
I25
I170
I0
tp229
sg8
(lp230
(I49
I141
tp231
a(I0
I81
tp232
a(I0
I123
tp233
a(I27
I114
tp234
a(I47
I130
tp235
a(I58
I62
tp236
a(I4
I147
tp237
a(I0
I100
tp238
a(I47
I83
tp239
a(I47
I135
tp240
a(I22
I124
tp241
a(I0
I132
tp242
a(I3
I58
tp243
a(I27
I112
tp244
a(I0
I98
tp245
a(I21
I117
tp246
a(I13
I133
tp247
a(I55
I130
tp248
asg27
I200
sba(imain2
Polygon
p249
(dp250
g3
(I194
I197
tp251
sg5
I200
sg6
(I9
I197
I62
I94
tp252
sg8
(lp253
(I200
I187
tp254
a(I161
I170
tp255
a(I200
I172
tp256
a(I200
I180
tp257
asg27
I200
sba(imain2
Polygon
p258
(dp259
g3
(I8
I2
tp260
sg5
I200
sg6
(I204
I195
I218
I0
tp261
sg8
(lp262
(I30
I0
tp263
a(I33
I40
tp264
a(I0
I0
tp265
a(I0
I46
tp266
a(I40
I9
tp267
a(I0
I11
tp268
a(I0
I0
tp269
a(I19
I6
tp270
a(I16
I0
tp271
a(I0
I0
tp272
a(I0
I3
tp273
a(I0
I16
tp274
a(I0
I43
tp275
a(I55
I0
tp276
asg27
I200
sba(imain2
Polygon
p277
(dp278
g3
(I171
I144
tp279
sg5
I200
sg6
(I111
I156
I186
I1
tp280
sg8
(lp281
(I127
I125
tp282
a(I159
I135
tp283
a(I200
I181
tp284
a(I132
I141
tp285
a(I132
I120
tp286
a(I145
I154
tp287
a(I123
I111
tp288
asg27
I200
sba(imain2
Polygon
p289
(dp290
g3
(I44
I42
tp291
sg5
I200
sg6
(I78
I129
I75
I0
tp292
sg8
(lp293
(I29
I80
tp294
a(I41
I39
tp295
a(I91
I0
tp296
a(I76
I41
tp297
a(I28
I58
tp298
a(I18
I19
tp299
asg27
I200
sba(imain2
Polygon
p300
(dp301
g3
(I26
I99
tp302
sg5
I200
sg6
(I167
I97
I167
I74
tp303
sg8
(lp304
(I71
I87
tp305
a(I54
I125
tp306
a(I75
I72
tp307
asg27
I200
sba(imain2
Polygon
p308
(dp309
g3
(I114
I46
tp310
sg5
I200
sg6
(I96
I192
I193
I0
tp311
sg8
(lp312
(I117
I22
tp313
a(I138
I79
tp314
a(I78
I89
tp315
a(I134
I0
tp316
asg27
I200
sba(imain2
Polygon
p317
(dp318
g3
(I68
I194
tp319
sg5
I200
sg6
(I85
I192
I149
I0
tp320
sg8
(lp321
(I73
I200
tp322
a(I63
I182
tp323
a(I30
I194
tp324
a(I115
I200
tp325
a(I65
I200
tp326
a(I57
I192
tp327
asg27
I200
sba(imain2
Polygon
p328
(dp329
g3
(I200
I53
tp330
sg5
I200
sg6
(I179
I181
I163
I0
tp331
sg8
(lp332
(I183
I79
tp333
a(I200
I53
tp334
a(I152
I41
tp335
asg27
I200
sba(imain2
Polygon
p336
(dp337
g3
(I172
I155
tp338
sg5
I200
sg6
(I198
I78
I243
I1
tp339
sg8
(lp340
(I200
I118
tp341
a(I186
I112
tp342
a(I135
I150
tp343
a(I167
I200
tp344
a(I139
I119
tp345
a(I158
I120
tp346
a(I200
I179
tp347
a(I177
I185
tp348
a(I193
I200
tp349
a(I200
I139
tp350
a(I141
I162
tp351
a(I200
I135
tp352
a(I196
I156
tp353
a(I144
I196
tp354
asg27
I200
sba(imain2
Polygon
p355
(dp356
g3
(I154
I159
tp357
sg5
I200
sg6
(I54
I205
I33
I1
tp358
sg8
(lp359
(I150
I131
tp360
a(I122
I109
tp361
a(I167
I196
tp362
a(I127
I131
tp363
a(I190
I169
tp364
a(I108
I117
tp365
a(I124
I177
tp366
a(I129
I170
tp367
a(I158
I198
tp368
a(I128
I200
tp369
a(I105
I200
tp370
a(I105
I183
tp371
a(I113
I158
tp372
asg27
I200
sba(imain2
Polygon
p373
(dp374
g3
(I55
I59
tp375
sg5
I200
sg6
(I73
I196
I202
I1
tp376
sg8
(lp377
(I41
I39
tp378
a(I83
I49
tp379
a(I28
I19
tp380
a(I77
I97
tp381
a(I65
I103
tp382
a(I44
I80
tp383
a(I93
I9
tp384
a(I47
I28
tp385
a(I81
I9
tp386
a(I7
I48
tp387
a(I52
I62
tp388
a(I31
I25
tp389
a(I30
I55
tp390
a(I30
I79
tp391
a(I16
I39
tp392
asg27
I200
sba(imain2
Polygon
p393
(dp394
g3
(I127
I147
tp395
sg5
I200
sg6
(I46
I67
I112
I100
tp396
sg8
(lp397
(I109
I194
tp398
a(I79
I101
tp399
a(I97
I160
tp400
a(I161
I191
tp401
asg27
I200
sba(imain2
Polygon
p402
(dp403
g3
(I123
I114
tp404
sg5
I200
sg6
(I116
I1
I8
I0
tp405
sg8
(lp406
(I118
I78
tp407
a(I80
I136
tp408
a(I144
I156
tp409
a(I113
I76
tp410
a(I78
I113
tp411
a(I144
I118
tp412
a(I110
I94
tp413
a(I100
I148
tp414
a(I161
I129
tp415
asg27
I200
sba(imain2
Polygon
p416
(dp417
g3
(I2
I51
tp418
sg5
I200
sg6
(I122
I140
I221
I1
tp419
sg8
(lp420
(I0
I39
tp421
a(I36
I22
tp422
a(I0
I4
tp423
a(I18
I24
tp424
a(I0
I95
tp425
a(I11
I81
tp426
a(I0
I16
tp427
a(I0
I97
tp428
a(I45
I76
tp429
a(I15
I75
tp430
asg27
I200
sba(imain2
Polygon
p431
(dp432
g3
(I166
I21
tp433
sg5
I200
sg6
(I210
I245
I214
I82
tp434
sg8
(lp435
(I200
I0
tp436
a(I200
I59
tp437
a(I169
I70
tp438
a(I131
I0
tp439
a(I153
I0
tp440
a(I174
I0
tp441
a(I135
I0
tp442
a(I200
I0
tp443
a(I141
I29
tp444
asg27
I200
sba(imain2
Polygon
p445
(dp446
g3
(I110
I91
tp447
sg5
I200
sg6
(I127
I33
I29
I0
tp448
sg8
(lp449
(I112
I141
tp450
a(I90
I64
tp451
a(I116
I46
tp452
a(I128
I88
tp453
a(I135
I89
tp454
a(I111
I63
tp455
a(I73
I59
tp456
a(I119
I112
tp457
a(I147
I105
tp458
a(I129
I93
tp459
a(I123
I69
tp460
a(I94
I93
tp461
a(I75
I65
tp462
a(I74
I100
tp463
a(I145
I49
tp464
a(I116
I88
tp465
a(I120
I128
tp466
asg27
I200
sba(imain2
Polygon
p467
(dp468
g3
(I148
I41
tp469
sg5
I200
sg6
(I156
I0
I206
I0
tp470
sg8
(lp471
(I119
I7
tp472
a(I178
I44
tp473
a(I195
I72
tp474
a(I115
I74
tp475
a(I127
I77
tp476
a(I136
I20
tp477
a(I155
I13
tp478
a(I195
I36
tp479
a(I134
I5
tp480
a(I110
I80
tp481
a(I103
I84
tp482
a(I122
I1
tp483
asg27
I200
sba(imain2
Polygon
p484
(dp485
g3
(I188
I159
tp486
sg5
I200
sg6
(I161
I69
I65
I1
tp487
sg8
(lp488
(I200
I159
tp489
a(I166
I141
tp490
a(I200
I124
tp491
a(I200
I160
tp492
a(I200
I137
tp493
a(I200
I118
tp494
a(I197
I200
tp495
a(I156
I170
tp496
asg27
I200
sba(imain2
Polygon
p497
(dp498
g3
(I55
I106
tp499
sg5
I200
sg6
(I55
I89
I41
I0
tp500
sg8
(lp501
(I33
I100
tp502
a(I89
I61
tp503
a(I85
I102
tp504
a(I56
I94
tp505
a(I55
I63
tp506
a(I63
I66
tp507
a(I21
I156
tp508
a(I103
I124
tp509
a(I104
I87
tp510
a(I51
I130
tp511
asg27
I200
sba(imain2
Polygon
p512
(dp513
g3
(I118
I64
tp514
sg5
I200
sg6
(I129
I37
I3
I15
tp515
sg8
(lp516
(I151
I76
tp517
a(I79
I63
tp518
a(I77
I86
tp519
a(I74
I55
tp520
a(I125
I37
tp521
a(I68
I76
tp522
a(I146
I16
tp523
a(I122
I15
tp524
a(I138
I16
tp525
a(I100
I38
tp526
a(I88
I20
tp527
a(I123
I23
tp528
a(I160
I71
tp529
a(I105
I36
tp530
a(I147
I109
tp531
a(I168
I101
tp532
asg27
I200
sba(imain2
Polygon
p533
(dp534
g3
(I101
I127
tp535
sg5
I200
sg6
(I83
I171
I95
I77
tp536
sg8
(lp537
(I82
I132
tp538
a(I125
I83
tp539
a(I83
I154
tp540
a(I53
I122
tp541
a(I58
I112
tp542
asg27
I200
sba(imain2
Polygon
p543
(dp544
g3
(I42
I89
tp545
sg5
I200
sg6
(I17
I90
I178
I0
tp546
sg8
(lp547
(I76
I43
tp548
a(I0
I126
tp549
a(I9
I100
tp550
a(I59
I84
tp551
a(I61
I123
tp552
a(I51
I59
tp553
a(I7
I119
tp554
a(I1
I107
tp555
a(I77
I119
tp556
asg27
I200
sba(imain2
Polygon
p557
(dp558
g3
(I71
I151
tp559
sg5
I200
sg6
(I150
I168
I219
I131
tp560
sg8
(lp561
(I59
I125
tp562
a(I74
I126
tp563
a(I115
I198
tp564
a(I68
I200
tp565
a(I77
I200
tp566
a(I91
I177
tp567
a(I89
I164
tp568
asg27
I200
sba(imain2
Polygon
p569
(dp570
g3
(I13
I141
tp571
sg5
I200
sg6
(I244
I0
I196
I0
tp572
sg8
(lp573
(I30
I167
tp574
a(I16
I104
tp575
a(I9
I106
tp576
a(I55
I180
tp577
a(I11
I131
tp578
a(I8
I155
tp579
a(I53
I153
tp580
a(I55
I119
tp581
a(I12
I103
tp582
a(I30
I173
tp583
a(I38
I142
tp584
a(I47
I102
tp585
a(I28
I117
tp586
asg27
I200
sba(imain2
Polygon
p587
(dp588
g3
(I37
I11
tp589
sg5
I200
sg6
(I114
I18
I10
I97
tp590
sg8
(lp591
(I84
I0
tp592
a(I1
I7
tp593
a(I5
I26
tp594
a(I22
I34
tp595
a(I32
I53
tp596
a(I70
I6
tp597
asg27
I200
sba(imain2
Polygon
p598
(dp599
g3
(I97
I114
tp600
sg5
I200
sg6
(I145
I9
I202
I84
tp601
sg8
(lp602
(I62
I140
tp603
a(I96
I103
tp604
a(I62
I147
tp605
a(I121
I97
tp606
a(I126
I66
tp607
a(I62
I77
tp608
a(I102
I68
tp609
a(I48
I82
tp610
a(I94
I93
tp611
a(I100
I154
tp612
a(I83
I130
tp613
a(I61
I69
tp614
a(I56
I114
tp615
a(I77
I138
tp616
a(I76
I71
tp617
a(I110
I85
tp618
a(I80
I151
tp619
a(I113
I101
tp620
a(I48
I130
tp621
asg27
I200
sba(imain2
Polygon
p622
(dp623
g3
(I77
I12
tp624
sg5
I200
sg6
(I104
I0
I197
I0
tp625
sg8
(lp626
(I54
I0
tp627
a(I85
I0
tp628
a(I67
I54
tp629
a(I30
I23
tp630
a(I41
I0
tp631
a(I86
I30
tp632
a(I69
I0
tp633
a(I33
I5
tp634
a(I51
I42
tp635
asg27
I200
sba(imain2
Polygon
p636
(dp637
g3
(I114
I16
tp638
sg5
I200
sg6
(I1
I101
I178
I146
tp639
sg8
(lp640
(I164
I18
tp641
a(I151
I0
tp642
a(I70
I0
tp643
a(I124
I21
tp644
a(I160
I13
tp645
a(I135
I0
tp646
asg27
I200
sba(imain2
Polygon
p647
(dp648
g3
(I150
I10
tp649
sg5
I200
sg6
(I109
I57
I223
I160
tp650
sg8
(lp651
(I172
I0
tp652
a(I175
I1
tp653
a(I190
I0
tp654
a(I119
I0
tp655
a(I156
I0
tp656
a(I119
I18
tp657
a(I101
I0
tp658
a(I137
I0
tp659
a(I176
I52
tp660
a(I125
I0
tp661
a(I188
I0
tp662
asg27
I200
sba(imain2
Polygon
p663
(dp664
g3
(I41
I10
tp665
sg5
I200
sg6
(I113
I204
I84
I1
tp666
sg8
(lp667
(I4
I39
tp668
a(I23
I53
tp669
a(I74
I26
tp670
a(I86
I0
tp671
a(I64
I0
tp672
asg27
I200
sba(imain2
Polygon
p673
(dp674
g3
(I174
I159
tp675
sg5
I200
sg6
(I169
I107
I85
I102
tp676
sg8
(lp677
(I200
I125
tp678
a(I200
I200
tp679
a(I184
I191
tp680
a(I168
I116
tp681
a(I200
I121
tp682
asg27
I200
sba(imain2
Polygon
p683
(dp684
g3
(I61
I97
tp685
sg5
I200
sg6
(I123
I35
I107
I91
tp686
sg8
(lp687
(I45
I82
tp688
a(I76
I70
tp689
a(I56
I96
tp690
a(I103
I82
tp691
a(I64
I94
tp692
a(I102
I53
tp693
a(I108
I74
tp694
a(I96
I125
tp695
a(I52
I115
tp696
asg27
I200
sba(imain2
Polygon
p697
(dp698
g3
(I180
I97
tp699
sg5
I200
sg6
(I161
I155
I198
I1
tp700
sg8
(lp701
(I200
I88
tp702
a(I200
I71
tp703
a(I134
I131
tp704
a(I200
I138
tp705
a(I172
I65
tp706
a(I200
I145
tp707
a(I137
I86
tp708
asg27
I200
sba(imain2
Polygon
p709
(dp710
g3
(I101
I122
tp711
sg5
I200
sg6
(I163
I85
I0
I74
tp712
sg8
(lp713
(I107
I111
tp714
a(I71
I95
tp715
a(I111
I157
tp716
a(I106
I130
tp717
a(I95
I96
tp718
a(I118
I155
tp719
a(I135
I76
tp720
a(I61
I152
tp721
a(I83
I142
tp722
a(I52
I169
tp723
a(I123
I74
tp724
a(I77
I77
tp725
asg27
I200
sba(imain2
Polygon
p726
(dp727
g3
(I131
I15
tp728
sg5
I200
sg6
(I56
I126
I126
I1
tp729
sg8
(lp730
(I99
I0
tp731
a(I148
I25
tp732
a(I140
I30
tp733
a(I179
I62
tp734
a(I177
I17
tp735
a(I100
I0
tp736
a(I154
I62
tp737
a(I115
I0
tp738
a(I134
I55
tp739
a(I86
I62
tp740
asg27
I200
sba(imain2
Polygon
p741
(dp742
g3
(I113
I24
tp743
sg5
I200
sg6
(I151
I239
I0
I0
tp744
sg8
(lp745
(I163
I0
tp746
a(I142
I0
tp747
a(I125
I69
tp748
a(I143
I0
tp749
a(I125
I3
tp750
a(I104
I15
tp751
a(I117
I66
tp752
a(I110
I46
tp753
a(I84
I32
tp754
a(I122
I0
tp755
a(I77
I58
tp756
a(I89
I6
tp757
asg27
I200
sba(imain2
Polygon
p758
(dp759
g3
(I15
I21
tp760
sg5
I200
sg6
(I44
I42
I25
I0
tp761
sg8
(lp762
(I40
I54
tp763
a(I7
I0
tp764
a(I37
I64
tp765
a(I42
I34
tp766
a(I36
I65
tp767
a(I32
I0
tp768
asg27
I200
sba(imain2
Polygon
p769
(dp770
g3
(I75
I18
tp771
sg5
I200
sg6
(I119
I125
I39
I145
tp772
sg8
(lp773
(I125
I0
tp774
a(I82
I30
tp775
a(I98
I0
tp776
a(I90
I0
tp777
a(I64
I0
tp778
a(I29
I0
tp779
a(I86
I51
tp780
a(I54
I14
tp781
a(I64
I30
tp782
a(I69
I0
tp783
a(I26
I62
tp784
a(I118
I0
tp785
a(I74
I16
tp786
a(I25
I19
tp787
a(I53
I67
tp788
a(I111
I64
tp789
a(I97
I0
tp790
a(I84
I38
tp791
a(I72
I12
tp792
a(I104
I7
tp793
a(I96
I39
tp794
a(I73
I11
tp795
asg27
I200
sba(imain2
Polygon
p796
(dp797
g3
(I147
I31
tp798
sg5
I200
sg6
(I240
I1
I222
I145
tp799
sg8
(lp800
(I189
I0
tp801
a(I196
I42
tp802
a(I180
I38
tp803
a(I168
I65
tp804
a(I153
I34
tp805
a(I193
I77
tp806
a(I183
I0
tp807
a(I187
I24
tp808
a(I176
I51
tp809
a(I126
I17
tp810
a(I116
I7
tp811
a(I129
I0
tp812
asg27
I200
sba(imain2
Polygon
p813
(dp814
g3
(I43
I128
tp815
sg5
I200
sg6
(I89
I23
I105
I124
tp816
sg8
(lp817
(I7
I89
tp818
a(I0
I99
tp819
a(I21
I114
tp820
a(I15
I103
tp821
a(I5
I162
tp822
a(I19
I96
tp823
a(I39
I102
tp824
asg27
I200
sba(imain2
Polygon
p825
(dp826
g3
(I191
I52
tp827
sg5
I200
sg6
(I140
I142
I102
I1
tp828
sg8
(lp829
(I200
I4
tp830
a(I200
I31
tp831
a(I163
I6
tp832
a(I167
I81
tp833
a(I141
I80
tp834
a(I161
I48
tp835
a(I200
I28
tp836
a(I200
I17
tp837
a(I186
I45
tp838
asg27
I200
sba(imain2
Polygon
p839
(dp840
g3
(I124
I96
tp841
sg5
I200
sg6
(I222
I87
I120
I1
tp842
sg8
(lp843
(I156
I93
tp844
a(I154
I145
tp845
a(I142
I78
tp846
a(I156
I121
tp847
a(I156
I112
tp848
a(I101
I113
tp849
a(I91
I110
tp850
a(I172
I131
tp851
a(I138
I110
tp852
a(I100
I115
tp853
a(I117
I140
tp854
a(I128
I121
tp855
asg27
I200
sba(imain2
Polygon
p856
(dp857
g3
(I14
I107
tp858
sg5
I200
sg6
(I56
I0
I217
I132
tp859
sg8
(lp860
(I17
I104
tp861
a(I2
I107
tp862
a(I0
I102
tp863
a(I0
I111
tp864
a(I0
I104
tp865
a(I59
I117
tp866
asg27
I200
sba(imain2
Polygon
p867
(dp868
g3
(I84
I159
tp869
sg5
I200
sg6
(I51
I12
I193
I0
tp870
sg8
(lp871
(I55
I146
tp872
a(I84
I140
tp873
a(I112
I114
tp874
a(I98
I180
tp875
a(I113
I185
tp876
a(I87
I159
tp877
a(I122
I200
tp878
a(I40
I150
tp879
a(I45
I112
tp880
a(I64
I172
tp881
asg27
I200
sba(imain2
Polygon
p882
(dp883
g3
(I141
I115
tp884
sg5
I200
sg6
(I238
I170
I169
I1
tp885
sg8
(lp886
(I178
I152
tp887
a(I125
I106
tp888
a(I116
I140
tp889
asg27
I200
sba(imain2
Polygon
p890
(dp891
g3
(I199
I78
tp892
sg5
I200
sg6
(I204
I202
I84
I129
tp893
sg8
(lp894
(I151
I34
tp895
a(I200
I32
tp896
a(I200
I32
tp897
a(I200
I125
tp898
a(I164
I113
tp899
a(I175
I100
tp900
a(I189
I127
tp901
asg27
I200
sba(imain2
Polygon
p902
(dp903
g3
(I167
I90
tp904
sg5
I200
sg6
(I35
I188
I29
I54
tp905
sg8
(lp906
(I200
I94
tp907
a(I149
I78
tp908
a(I182
I102
tp909
a(I164
I106
tp910
a(I187
I129
tp911
a(I172
I52
tp912
asg27
I200
sba(imain2
Polygon
p913
(dp914
g3
(I17
I14
tp915
sg5
I200
sg6
(I1
I10
I92
I30
tp916
sg8
(lp917
(I0
I56
tp918
a(I0
I0
tp919
a(I51
I50
tp920
a(I17
I50
tp921
a(I8
I0
tp922
a(I28
I11
tp923
a(I0
I17
tp924
a(I0
I0
tp925
a(I55
I54
tp926
a(I54
I3
tp927
a(I8
I60
tp928
a(I22
I0
tp929
asg27
I200
sba(imain2
Polygon
p930
(dp931
g3
(I190
I180
tp932
sg5
I200
sg6
(I225
I104
I47
I0
tp933
sg8
(lp934
(I197
I149
tp935
a(I149
I200
tp936
a(I195
I199
tp937
asg27
I200
sba(imain2
Polygon
p938
(dp939
g3
(I70
I166
tp940
sg5
I200
sg6
(I107
I177
I2
I1
tp941
sg8
(lp942
(I76
I134
tp943
a(I117
I200
tp944
a(I56
I127
tp945
a(I21
I178
tp946
a(I54
I157
tp947
a(I29
I194
tp948
a(I48
I123
tp949
a(I34
I190
tp950
a(I52
I183
tp951
asg27
I200
sba(imain2
Polygon
p952
(dp953
g3
(I196
I185
tp954
sg5
I200
sg6
(I18
I159
I128
I0
tp955
sg8
(lp956
(I200
I191
tp957
a(I153
I136
tp958
a(I186
I150
tp959
a(I171
I192
tp960
a(I200
I156
tp961
a(I186
I148
tp962
a(I165
I169
tp963
asg27
I200
sba(imain2
Polygon
p964
(dp965
g3
(I48
I123
tp966
sg5
I200
sg6
(I164
I46
I18
I98
tp967
sg8
(lp968
(I8
I113
tp969
a(I18
I117
tp970
a(I0
I97
tp971
a(I48
I105
tp972
a(I47
I100
tp973
a(I58
I146
tp974
a(I90
I79
tp975
a(I89
I76
tp976
a(I9
I121
tp977
a(I27
I162
tp978
a(I11
I146
tp979
a(I19
I151
tp980
asg27
I200
sba(imain2
Polygon
p981
(dp982
g3
(I59
I97
tp983
sg5
I200
sg6
(I202
I48
I127
I27
tp984
sg8
(lp985
(I35
I56
tp986
a(I89
I86
tp987
a(I51
I58
tp988
a(I70
I64
tp989
a(I44
I80
tp990
a(I107
I114
tp991
a(I74
I82
tp992
a(I93
I57
tp993
a(I92
I57
tp994
a(I56
I68
tp995
asg27
I200
sba(imain2
Polygon
p996
(dp997
g3
(I17
I149
tp998
sg5
I200
sg6
(I1
I35
I156
I1
tp999
sg8
(lp1000
(I15
I167
tp1001
a(I0
I101
tp1002
a(I0
I181
tp1003
a(I0
I172
tp1004
a(I5
I196
tp1005
a(I0
I101
tp1006
a(I40
I145
tp1007
a(I44
I176
tp1008
asg27
I200
sba(imain2
Polygon
p1009
(dp1010
g3
(I88
I2
tp1011
sg5
I200
sg6
(I3
I101
I62
I54
tp1012
sg8
(lp1013
(I95
I0
tp1014
a(I115
I0
tp1015
a(I53
I0
tp1016
a(I48
I0
tp1017
a(I55
I24
tp1018
a(I79
I0
tp1019
a(I105
I20
tp1020
a(I117
I0
tp1021
a(I82
I0
tp1022
a(I73
I49
tp1023
a(I78
I0
tp1024
a(I129
I0
tp1025
asg27
I200
sba(imain2
Polygon
p1026
(dp1027
g3
(I3
I161
tp1028
sg5
I200
sg6
(I176
I18
I190
I11
tp1029
sg8
(lp1030
(I24
I146
tp1031
a(I30
I152
tp1032
a(I0
I141
tp1033
a(I29
I156
tp1034
a(I0
I194
tp1035
a(I41
I138
tp1036
a(I0
I170
tp1037
a(I0
I145
tp1038
a(I11
I145
tp1039
a(I0
I121
tp1040
a(I0
I114
tp1041
asg27
I200
sba(imain2
Polygon
p1042
(dp1043
g3
(I98
I58
tp1044
sg5
I200
sg6
(I37
I61
I167
I1
tp1045
sg8
(lp1046
(I92
I81
tp1047
a(I64
I60
tp1048
a(I74
I72
tp1049
asg27
I200
sba(imain2
Polygon
p1050
(dp1051
g3
(I109
I111
tp1052
sg5
I200
sg6
(I227
I37
I98
I6
tp1053
sg8
(lp1054
(I65
I139
tp1055
a(I96
I159
tp1056
a(I64
I113
tp1057
a(I109
I97
tp1058
a(I124
I120
tp1059
a(I111
I73
tp1060
a(I143
I127
tp1061
a(I124
I122
tp1062
a(I79
I147
tp1063
asg27
I200
sba(imain2
Polygon
p1064
(dp1065
g3
(I83
I155
tp1066
sg5
I200
sg6
(I202
I44
I183
I21
tp1067
sg8
(lp1068
(I81
I142
tp1069
a(I102
I200
tp1070
a(I132
I200
tp1071
a(I73
I148
tp1072
a(I112
I160
tp1073
a(I74
I167
tp1074
a(I50
I153
tp1075
a(I51
I131
tp1076
a(I117
I195
tp1077
a(I131
I190
tp1078
a(I120
I173
tp1079
a(I93
I152
tp1080
a(I64
I176
tp1081
a(I114
I149
tp1082
a(I100
I163
tp1083
a(I99
I200
tp1084
a(I102
I105
tp1085
a(I94
I122
tp1086
asg27
I200
sba(imain2
Polygon
p1087
(dp1088
g3
(I81
I21
tp1089
sg5
I200
sg6
(I136
I0
I26
I116
tp1090
sg8
(lp1091
(I69
I0
tp1092
a(I65
I6
tp1093
a(I43
I48
tp1094
a(I90
I0
tp1095
a(I122
I60
tp1096
a(I103
I58
tp1097
a(I63
I3
tp1098
a(I117
I0
tp1099
asg27
I200
sba(imain2
Polygon
p1100
(dp1101
g3
(I77
I115
tp1102
sg5
I200
sg6
(I92
I239
I219
I0
tp1103
sg8
(lp1104
(I99
I164
tp1105
a(I65
I128
tp1106
a(I35
I77
tp1107
a(I101
I94
tp1108
a(I34
I83
tp1109
a(I85
I78
tp1110
a(I76
I143
tp1111
asg27
I200
sba(imain2
Polygon
p1112
(dp1113
g3
(I108
I110
tp1114
sg5
I200
sg6
(I144
I115
I144
I0
tp1115
sg8
(lp1116
(I109
I74
tp1117
a(I132
I95
tp1118
a(I154
I119
tp1119
a(I76
I135
tp1120
a(I115
I134
tp1121
a(I153
I68
tp1122
a(I88
I60
tp1123
a(I101
I139
tp1124
a(I80
I113
tp1125
a(I110
I143
tp1126
a(I129
I139
tp1127
a(I124
I94
tp1128
asg27
I200
sba(imain2
Polygon
p1129
(dp1130
g3
(I7
I122
tp1131
sg5
I200
sg6
(I152
I0
I158
I0
tp1132
sg8
(lp1133
(I53
I94
tp1134
a(I42
I98
tp1135
a(I30
I118
tp1136
a(I35
I73
tp1137
a(I0
I113
tp1138
a(I3
I152
tp1139
a(I0
I105
tp1140
a(I0
I119
tp1141
a(I0
I123
tp1142
a(I0
I77
tp1143
a(I0
I149
tp1144
a(I0
I121
tp1145
a(I0
I165
tp1146
a(I0
I145
tp1147
a(I44
I153
tp1148
a(I0
I96
tp1149
a(I0
I114
tp1150
asg27
I200
sba(imain2
Polygon
p1151
(dp1152
g3
(I105
I20
tp1153
sg5
I200
sg6
(I212
I28
I228
I1
tp1154
sg8
(lp1155
(I124
I25
tp1156
a(I153
I35
tp1157
a(I148
I4
tp1158
a(I70
I44
tp1159
a(I96
I0
tp1160
a(I143
I0
tp1161
asg27
I200
sba(imain2
Polygon
p1162
(dp1163
g3
(I47
I80
tp1164
sg5
I200
sg6
(I108
I47
I113
I27
tp1165
sg8
(lp1166
(I55
I102
tp1167
a(I68
I48
tp1168
a(I48
I106
tp1169
a(I21
I62
tp1170
a(I87
I50
tp1171
a(I35
I42
tp1172
a(I94
I123
tp1173
a(I53
I46
tp1174
a(I38
I43
tp1175
a(I13
I128
tp1176
a(I45
I105
tp1177
a(I40
I86
tp1178
a(I37
I61
tp1179
a(I19
I101
tp1180
a(I19
I59
tp1181
a(I86
I34
tp1182
a(I7
I60
tp1183
a(I68
I74
tp1184
a(I54
I57
tp1185
a(I13
I123
tp1186
asg27
I200
sba(imain2
Polygon
p1187
(dp1188
g3
(I131
I30
tp1189
sg5
I200
sg6
(I203
I123
I169
I1
tp1190
sg8
(lp1191
(I108
I74
tp1192
a(I155
I71
tp1193
a(I162
I8
tp1194
asg27
I200
sba(imain2
Polygon
p1195
(dp1196
g3
(I199
I39
tp1197
sg5
I200
sg6
(I92
I189
I106
I56
tp1198
sg8
(lp1199
(I200
I0
tp1200
a(I187
I1
tp1201
a(I150
I0
tp1202
a(I200
I89
tp1203
a(I200
I6
tp1204
a(I178
I0
tp1205
asg27
I200
sba(imain2
Polygon
p1206
(dp1207
g3
(I110
I156
tp1208
sg5
I200
sg6
(I190
I91
I125
I0
tp1209
sg8
(lp1210
(I72
I138
tp1211
a(I120
I200
tp1212
a(I94
I199
tp1213
a(I131
I138
tp1214
a(I116
I137
tp1215
a(I160
I151
tp1216
a(I62
I193
tp1217
a(I145
I141
tp1218
a(I133
I146
tp1219
a(I154
I193
tp1220
a(I85
I187
tp1221
a(I147
I189
tp1222
a(I100
I170
tp1223
asg27
I200
sba(imain2
Polygon
p1224
(dp1225
g3
(I14
I89
tp1226
sg5
I200
sg6
(I200
I19
I25
I81
tp1227
sg8
(lp1228
(I0
I70
tp1229
a(I49
I72
tp1230
a(I53
I72
tp1231
a(I55
I44
tp1232
a(I17
I118
tp1233
a(I0
I99
tp1234
asg27
I200
sba(imain2
Polygon
p1235
(dp1236
g3
(I124
I127
tp1237
sg5
I200
sg6
(I172
I217
I173
I0
tp1238
sg8
(lp1239
(I134
I100
tp1240
a(I129
I138
tp1241
a(I96
I162
tp1242
a(I111
I115
tp1243
a(I147
I96
tp1244
a(I124
I85
tp1245
a(I96
I82
tp1246
a(I170
I95
tp1247
a(I135
I124
tp1248
a(I153
I94
tp1249
a(I123
I89
tp1250
a(I92
I110
tp1251
asg27
I200
sba(imain2
Polygon
p1252
(dp1253
g3
(I97
I78
tp1254
sg5
I200
sg6
(I146
I200
I158
I1
tp1255
sg8
(lp1256
(I113
I61
tp1257
a(I62
I103
tp1258
a(I66
I110
tp1259
a(I110
I111
tp1260
a(I56
I51
tp1261
a(I91
I125
tp1262
a(I78
I58
tp1263
a(I98
I57
tp1264
a(I69
I107
tp1265
a(I132
I100
tp1266
a(I58
I80
tp1267
a(I77
I65
tp1268
asg27
I200
sba(imain2
Polygon
p1269
(dp1270
g3
(I71
I43
tp1271
sg5
I200
sg6
(I219
I211
I119
I0
tp1272
sg8
(lp1273
(I107
I87
tp1274
a(I67
I73
tp1275
a(I64
I18
tp1276
a(I84
I79
tp1277
a(I92
I40
tp1278
a(I77
I18
tp1279
a(I50
I41
tp1280
a(I47
I52
tp1281
a(I29
I2
tp1282
a(I95
I32
tp1283
asg27
I200
sba(imain2
Polygon
p1284
(dp1285
g3
(I109
I75
tp1286
sg5
I200
sg6
(I109
I161
I67
I128
tp1287
sg8
(lp1288
(I63
I26
tp1289
a(I62
I79
tp1290
a(I120
I76
tp1291
a(I87
I26
tp1292
a(I64
I35
tp1293
asg27
I200
sba(imain2
Polygon
p1294
(dp1295
g3
(I149
I45
tp1296
sg5
I200
sg6
(I206
I141
I127
I85
tp1297
sg8
(lp1298
(I199
I90
tp1299
a(I165
I70
tp1300
a(I161
I69
tp1301
a(I183
I12
tp1302
a(I128
I0
tp1303
a(I175
I87
tp1304
a(I158
I84
tp1305
a(I187
I0
tp1306
a(I121
I6
tp1307
a(I189
I0
tp1308
a(I130
I0
tp1309
a(I187
I18
tp1310
a(I198
I21
tp1311
asg27
I200
sba(imain2
Polygon
p1312
(dp1313
g3
(I29
I98
tp1314
sg5
I200
sg6
(I6
I134
I169
I44
tp1315
sg8
(lp1316
(I0
I145
tp1317
a(I62
I70
tp1318
a(I0
I73
tp1319
a(I46
I51
tp1320
a(I32
I77
tp1321
a(I40
I82
tp1322
a(I7
I82
tp1323
a(I39
I54
tp1324
a(I60
I84
tp1325
a(I0
I135
tp1326
a(I28
I90
tp1327
a(I31
I80
tp1328
asg27
I200
sba(imain2
Polygon
p1329
(dp1330
g3
(I90
I62
tp1331
sg5
I200
sg6
(I177
I118
I130
I1
tp1332
sg8
(lp1333
(I52
I15
tp1334
a(I124
I39
tp1335
a(I129
I98
tp1336
a(I137
I73
tp1337
a(I61
I49
tp1338
a(I54
I78
tp1339
a(I100
I106
tp1340
a(I46
I96
tp1341
a(I113
I23
tp1342
asg27
I200
sba(imain2
Polygon
p1343
(dp1344
g3
(I63
I49
tp1345
sg5
I200
sg6
(I219
I251
I135
I1
tp1346
sg8
(lp1347
(I76
I48
tp1348
a(I30
I15
tp1349
a(I53
I1
tp1350
a(I93
I34
tp1351
a(I93
I64
tp1352
a(I66
I88
tp1353
a(I69
I24
tp1354
a(I82
I92
tp1355
a(I74
I43
tp1356
a(I75
I70
tp1357
a(I24
I58
tp1358
asg27
I200
sba(imain2
Polygon
p1359
(dp1360
g3
(I31
I132
tp1361
sg5
I200
sg6
(I73
I118
I196
I28
tp1362
sg8
(lp1363
(I16
I171
tp1364
a(I35
I167
tp1365
a(I3
I115
tp1366
a(I0
I120
tp1367
a(I30
I175
tp1368
a(I10
I143
tp1369
a(I31
I164
tp1370
a(I70
I85
tp1371
a(I9
I172
tp1372
a(I0
I125
tp1373
a(I0
I111
tp1374
a(I0
I159
tp1375
a(I49
I135
tp1376
a(I69
I92
tp1377
asg27
I200
sba(imain2
Polygon
p1378
(dp1379
g3
(I80
I158
tp1380
sg5
I200
sg6
(I24
I43
I60
I0
tp1381
sg8
(lp1382
(I130
I158
tp1383
a(I119
I172
tp1384
a(I114
I200
tp1385
a(I55
I186
tp1386
a(I94
I151
tp1387
a(I111
I110
tp1388
a(I34
I137
tp1389
a(I74
I194
tp1390
a(I65
I200
tp1391
a(I111
I109
tp1392
a(I64
I184
tp1393
a(I68
I200
tp1394
a(I112
I146
tp1395
a(I30
I119
tp1396
a(I37
I162
tp1397
a(I95
I151
tp1398
a(I82
I200
tp1399
a(I40
I155
tp1400
a(I120
I184
tp1401
asg27
I200
sba(imain2
Polygon
p1402
(dp1403
g3
(I168
I51
tp1404
sg5
I200
sg6
(I100
I203
I209
I0
tp1405
sg8
(lp1406
(I123
I53
tp1407
a(I174
I19
tp1408
a(I153
I39
tp1409
a(I173
I60
tp1410
a(I137
I13
tp1411
a(I119
I61
tp1412
a(I166
I31
tp1413
asg27
I200
sba(imain2
Polygon
p1414
(dp1415
g3
(I110
I14
tp1416
sg5
I200
sg6
(I156
I137
I49
I150
tp1417
sg8
(lp1418
(I118
I49
tp1419
a(I72
I59
tp1420
a(I101
I0
tp1421
a(I156
I0
tp1422
a(I158
I0
tp1423
a(I157
I28
tp1424
a(I144
I28
tp1425
a(I65
I3
tp1426
a(I67
I58
tp1427
a(I105
I0
tp1428
a(I79
I0
tp1429
a(I61
I0
tp1430
a(I77
I25
tp1431
asg27
I200
sba(imain2
Polygon
p1432
(dp1433
g3
(I85
I94
tp1434
sg5
I200
sg6
(I203
I232
I85
I64
tp1435
sg8
(lp1436
(I122
I114
tp1437
a(I110
I104
tp1438
a(I62
I48
tp1439
a(I105
I45
tp1440
a(I125
I73
tp1441
a(I93
I111
tp1442
a(I79
I138
tp1443
a(I109
I144
tp1444
a(I124
I111
tp1445
a(I62
I45
tp1446
a(I45
I66
tp1447
a(I55
I129
tp1448
a(I126
I96
tp1449
asg27
I200
sba(imain2
Polygon
p1450
(dp1451
g3
(I153
I81
tp1452
sg5
I200
sg6
(I122
I86
I190
I1
tp1453
sg8
(lp1454
(I112
I62
tp1455
a(I121
I118
tp1456
a(I150
I46
tp1457
a(I159
I50
tp1458
a(I182
I97
tp1459
a(I188
I103
tp1460
asg27
I200
sba(imain2
Polygon
p1461
(dp1462
g3
(I146
I37
tp1463
sg5
I200
sg6
(I227
I84
I157
I0
tp1464
sg8
(lp1465
(I166
I5
tp1466
a(I134
I75
tp1467
a(I140
I78
tp1468
a(I111
I12
tp1469
a(I106
I32
tp1470
a(I185
I9
tp1471
a(I157
I74
tp1472
a(I196
I84
tp1473
a(I99
I2
tp1474
asg27
I200
sba(imain2
Polygon
p1475
(dp1476
g3
(I36
I71
tp1477
sg5
I200
sg6
(I178
I120
I134
I0
tp1478
sg8
(lp1479
(I7
I61
tp1480
a(I82
I65
tp1481
a(I60
I30
tp1482
a(I14
I70
tp1483
a(I0
I99
tp1484
a(I48
I38
tp1485
a(I27
I63
tp1486
a(I13
I40
tp1487
a(I46
I58
tp1488
a(I0
I88
tp1489
a(I61
I117
tp1490
a(I10
I121
tp1491
asg27
I200
sba(imain2
Polygon
p1492
(dp1493
g3
(I36
I181
tp1494
sg5
I200
sg6
(I143
I212
I96
I86
tp1495
sg8
(lp1496
(I78
I149
tp1497
a(I60
I152
tp1498
a(I48
I150
tp1499
a(I0
I170
tp1500
a(I52
I149
tp1501
a(I81
I147
tp1502
a(I71
I200
tp1503
a(I13
I140
tp1504
a(I43
I172
tp1505
a(I80
I200
tp1506
a(I55
I200
tp1507
a(I66
I188
tp1508
a(I68
I200
tp1509
a(I71
I200
tp1510
asg27
I200
sba(imain2
Polygon
p1511
(dp1512
g3
(I94
I181
tp1513
sg5
I200
sg6
(I112
I50
I36
I0
tp1514
sg8
(lp1515
(I110
I200
tp1516
a(I136
I200
tp1517
a(I108
I160
tp1518
a(I89
I200
tp1519
a(I56
I136
tp1520
a(I130
I200
tp1521
a(I128
I200
tp1522
a(I88
I191
tp1523
a(I130
I142
tp1524
asg27
I200
sba(imain2
Polygon
p1525
(dp1526
g3
(I4
I26
tp1527
sg5
I200
sg6
(I29
I105
I61
I50
tp1528
sg8
(lp1529
(I25
I0
tp1530
a(I0
I0
tp1531
a(I26
I50
tp1532
a(I21
I31
tp1533
a(I0
I38
tp1534
a(I9
I3
tp1535
a(I54
I51
tp1536
a(I7
I69
tp1537
a(I0
I66
tp1538
a(I0
I27
tp1539
a(I10
I24
tp1540
a(I17
I0
tp1541
a(I21
I16
tp1542
a(I0
I0
tp1543
a(I0
I52
tp1544
a(I0
I38
tp1545
asg27
I200
sba(imain2
Polygon
p1546
(dp1547
g3
(I14
I45
tp1548
sg5
I200
sg6
(I148
I107
I0
I1
tp1549
sg8
(lp1550
(I32
I34
tp1551
a(I0
I0
tp1552
a(I35
I27
tp1553
a(I0
I69
tp1554
a(I0
I8
tp1555
a(I0
I21
tp1556
a(I0
I82
tp1557
a(I44
I7
tp1558
a(I0
I21
tp1559
a(I14
I33
tp1560
asg27
I200
sba(imain2
Polygon
p1561
(dp1562
g3
(I103
I69
tp1563
sg5
I200
sg6
(I232
I219
I1
I44
tp1564
sg8
(lp1565
(I55
I36
tp1566
a(I53
I116
tp1567
a(I127
I84
tp1568
a(I135
I89
tp1569
a(I85
I19
tp1570
asg27
I200
sba(imain2
Polygon
p1571
(dp1572
g3
(I61
I77
tp1573
sg5
I200
sg6
(I61
I122
I192
I137
tp1574
sg8
(lp1575
(I90
I104
tp1576
a(I88
I94
tp1577
a(I79
I107
tp1578
asg27
I200
sba(imain2
Polygon
p1579
(dp1580
g3
(I36
I98
tp1581
sg5
I200
sg6
(I0
I200
I74
I52
tp1582
sg8
(lp1583
(I28
I97
tp1584
a(I4
I90
tp1585
a(I0
I121
tp1586
a(I0
I53
tp1587
a(I50
I78
tp1588
a(I30
I53
tp1589
a(I0
I53
tp1590
a(I18
I50
tp1591
asg27
I200
sba(imain2
Polygon
p1592
(dp1593
g3
(I20
I133
tp1594
sg5
I200
sg6
(I199
I239
I132
I90
tp1595
sg8
(lp1596
(I30
I179
tp1597
a(I0
I181
tp1598
a(I0
I175
tp1599
a(I21
I139
tp1600
asg27
I200
sba(imain2
Polygon
p1601
(dp1602
g3
(I178
I74
tp1603
sg5
I200
sg6
(I32
I121
I29
I0
tp1604
sg8
(lp1605
(I198
I80
tp1606
a(I128
I75
tp1607
a(I200
I57
tp1608
a(I200
I45
tp1609
a(I141
I76
tp1610
a(I149
I92
tp1611
a(I175
I32
tp1612
a(I176
I34
tp1613
a(I200
I79
tp1614
a(I200
I114
tp1615
asg27
I200
sba(imain2
Polygon
p1616
(dp1617
g3
(I191
I151
tp1618
sg5
I200
sg6
(I239
I43
I77
I68
tp1619
sg8
(lp1620
(I190
I106
tp1621
a(I189
I120
tp1622
a(I175
I104
tp1623
asg27
I200
sba(imain2
Polygon
p1624
(dp1625
g3
(I81
I200
tp1626
sg5
I200
sg6
(I41
I59
I160
I41
tp1627
sg8
(lp1628
(I63
I200
tp1629
a(I33
I187
tp1630
a(I118
I153
tp1631
a(I38
I191
tp1632
a(I59
I200
tp1633
a(I46
I200
tp1634
a(I101
I200
tp1635
a(I46
I200
tp1636
a(I62
I200
tp1637
a(I68
I200
tp1638
a(I120
I200
tp1639
asg27
I200
sba(imain2
Polygon
p1640
(dp1641
g3
(I8
I200
tp1642
sg5
I200
sg6
(I236
I15
I66
I147
tp1643
sg8
(lp1644
(I0
I200
tp1645
a(I0
I200
tp1646
a(I2
I200
tp1647
a(I41
I200
tp1648
a(I52
I200
tp1649
a(I23
I200
tp1650
a(I1
I200
tp1651
a(I0
I200
tp1652
a(I17
I195
tp1653
a(I0
I200
tp1654
a(I0
I200
tp1655
asg27
I200
sba(imain2
Polygon
p1656
(dp1657
g3
(I12
I187
tp1658
sg5
I200
sg6
(I224
I0
I179
I0
tp1659
sg8
(lp1660
(I34
I167
tp1661
a(I0
I167
tp1662
a(I22
I200
tp1663
a(I0
I174
tp1664
a(I0
I174
tp1665
a(I59
I200
tp1666
a(I44
I171
tp1667
a(I50
I200
tp1668
a(I25
I200
tp1669
a(I13
I200
tp1670
a(I18
I166
tp1671
a(I56
I175
tp1672
asg27
I200
sba(imain2
Polygon
p1673
(dp1674
g3
(I142
I43
tp1675
sg5
I200
sg6
(I50
I78
I164
I16
tp1676
sg8
(lp1677
(I132
I26
tp1678
a(I147
I48
tp1679
a(I148
I68
tp1680
a(I135
I64
tp1681
a(I100
I67
tp1682
a(I136
I59
tp1683
a(I138
I14
tp1684
a(I123
I43
tp1685
a(I106
I40
tp1686
a(I122
I35
tp1687
a(I94
I31
tp1688
a(I138
I19
tp1689
a(I122
I27
tp1690
a(I101
I36
tp1691
asg27
I200
sba(imain2
Polygon
p1692
(dp1693
g3
(I89
I37
tp1694
sg5
I200
sg6
(I1
I104
I197
I85
tp1695
sg8
(lp1696
(I104
I35
tp1697
a(I54
I51
tp1698
a(I55
I50
tp1699
asg27
I200
sba(imain2
Polygon
p1700
(dp1701
g3
(I43
I51
tp1702
sg5
I200
sg6
(I38
I141
I122
I1
tp1703
sg8
(lp1704
(I37
I89
tp1705
a(I36
I91
tp1706
a(I91
I92
tp1707
a(I58
I29
tp1708
a(I39
I44
tp1709
a(I47
I38
tp1710
a(I39
I44
tp1711
a(I62
I59
tp1712
a(I89
I46
tp1713
a(I11
I86
tp1714
a(I47
I50
tp1715
a(I40
I49
tp1716
a(I39
I83
tp1717
a(I88
I11
tp1718
a(I44
I25
tp1719
a(I25
I83
tp1720
a(I55
I58
tp1721
a(I15
I62
tp1722
asg27
I200
sba(imain2
Polygon
p1723
(dp1724
g3
(I23
I143
tp1725
sg5
I200
sg6
(I76
I246
I171
I57
tp1726
sg8
(lp1727
(I6
I147
tp1728
a(I4
I149
tp1729
a(I0
I188
tp1730
a(I29
I191
tp1731
a(I25
I165
tp1732
a(I0
I157
tp1733
a(I14
I128
tp1734
asg27
I200
sba(imain2
Polygon
p1735
(dp1736
g3
(I32
I143
tp1737
sg5
I200
sg6
(I53
I70
I163
I1
tp1738
sg8
(lp1739
(I61
I156
tp1740
a(I32
I159
tp1741
a(I5
I104
tp1742
a(I50
I122
tp1743
a(I44
I162
tp1744
a(I0
I175
tp1745
a(I54
I104
tp1746
a(I68
I151
tp1747
a(I34
I106
tp1748
a(I33
I138
tp1749
a(I39
I126
tp1750
a(I39
I147
tp1751
a(I55
I193
tp1752
a(I45
I108
tp1753
a(I53
I187
tp1754
a(I31
I165
tp1755
asg27
I200
sba(imain2
Polygon
p1756
(dp1757
g3
(I69
I107
tp1758
sg5
I200
sg6
(I160
I229
I0
I20
tp1759
sg8
(lp1760
(I92
I73
tp1761
a(I40
I61
tp1762
a(I104
I157
tp1763
a(I58
I92
tp1764
a(I103
I75
tp1765
a(I95
I93
tp1766
a(I29
I60
tp1767
a(I19
I90
tp1768
a(I93
I154
tp1769
a(I52
I77
tp1770
a(I69
I96
tp1771
a(I113
I129
tp1772
asg27
I200
sba(imain2
Polygon
p1773
(dp1774
g3
(I172
I111
tp1775
sg5
I200
sg6
(I238
I215
I84
I135
tp1776
sg8
(lp1777
(I162
I84
tp1778
a(I200
I88
tp1779
a(I177
I85
tp1780
asg27
I200
sba(imain2
Polygon
p1781
(dp1782
g3
(I150
I91
tp1783
sg5
I200
sg6
(I8
I243
I87
I51
tp1784
sg8
(lp1785
(I191
I127
tp1786
a(I169
I84
tp1787
a(I165
I85
tp1788
a(I174
I90
tp1789
a(I191
I123
tp1790
asg27
I200
sba(imain2
Polygon
p1791
(dp1792
g3
(I135
I188
tp1793
sg5
I200
sg6
(I79
I228
I8
I1
tp1794
sg8
(lp1795
(I161
I187
tp1796
a(I174
I200
tp1797
a(I90
I186
tp1798
a(I97
I156
tp1799
a(I141
I192
tp1800
a(I102
I176
tp1801
a(I142
I178
tp1802
a(I139
I172
tp1803
a(I100
I163
tp1804
asg27
I200
sba(imain2
Polygon
p1805
(dp1806
g3
(I127
I113
tp1807
sg5
I200
sg6
(I133
I211
I151
I18
tp1808
sg8
(lp1809
(I82
I119
tp1810
a(I116
I100
tp1811
a(I148
I82
tp1812
a(I81
I98
tp1813
a(I94
I89
tp1814
asg27
I200
sba(imain2
Polygon
p1815
(dp1816
g3
(I173
I20
tp1817
sg5
I200
sg6
(I231
I0
I219
I1
tp1818
sg8
(lp1819
(I147
I47
tp1820
a(I145
I56
tp1821
a(I171
I46
tp1822
a(I200
I0
tp1823
a(I182
I0
tp1824
a(I147
I0
tp1825
a(I137
I18
tp1826
a(I148
I37
tp1827
a(I189
I36
tp1828
a(I185
I0
tp1829
a(I159
I0
tp1830
a(I174
I41
tp1831
a(I176
I56
tp1832
a(I190
I0
tp1833
a(I186
I12
tp1834
asg27
I200
sba(imain2
Polygon
p1835
(dp1836
g3
(I100
I197
tp1837
sg5
I200
sg6
(I34
I102
I177
I76
tp1838
sg8
(lp1839
(I99
I200
tp1840
a(I118
I200
tp1841
a(I147
I200
tp1842
a(I104
I151
tp1843
a(I135
I187
tp1844
a(I106
I200
tp1845
a(I137
I200
tp1846
a(I86
I179
tp1847
a(I135
I200
tp1848
a(I72
I198
tp1849
a(I133
I200
tp1850
a(I51
I200
tp1851
a(I55
I200
tp1852
a(I121
I200
tp1853
asg27
I200
sba(imain2
Polygon
p1854
(dp1855
g3
(I70
I0
tp1856
sg5
I200
sg6
(I136
I0
I196
I0
tp1857
sg8
(lp1858
(I62
I0
tp1859
a(I80
I22
tp1860
a(I65
I26
tp1861
a(I90
I0
tp1862
a(I115
I27
tp1863
a(I52
I0
tp1864
a(I76
I34
tp1865
a(I78
I0
tp1866
a(I73
I0
tp1867
asg27
I200
sba(imain2
Polygon
p1868
(dp1869
g3
(I106
I152
tp1870
sg5
I200
sg6
(I99
I163
I63
I69
tp1871
sg8
(lp1872
(I133
I114
tp1873
a(I119
I166
tp1874
a(I59
I200
tp1875
a(I140
I199
tp1876
a(I115
I114
tp1877
a(I56
I163
tp1878
a(I124
I140
tp1879
a(I138
I185
tp1880
a(I122
I150
tp1881
a(I68
I141
tp1882
a(I128
I144
tp1883
asg27
I200
sba(imain2
Polygon
p1884
(dp1885
g3
(I11
I38
tp1886
sg5
I200
sg6
(I111
I0
I125
I10
tp1887
sg8
(lp1888
(I0
I3
tp1889
a(I0
I37
tp1890
a(I35
I52
tp1891
a(I0
I5
tp1892
a(I54
I81
tp1893
a(I14
I34
tp1894
a(I60
I54
tp1895
a(I51
I63
tp1896
a(I13
I62
tp1897
a(I53
I84
tp1898
a(I42
I66
tp1899
asg27
I200
sba(imain2
Polygon
p1900
(dp1901
g3
(I23
I68
tp1902
sg5
I200
sg6
(I217
I112
I190
I129
tp1903
sg8
(lp1904
(I35
I109
tp1905
a(I24
I85
tp1906
a(I54
I19
tp1907
a(I25
I33
tp1908
a(I35
I32
tp1909
a(I36
I40
tp1910
a(I0
I19
tp1911
a(I0
I111
tp1912
a(I7
I98
tp1913
a(I38
I112
tp1914
a(I4
I66
tp1915
asg27
I200
sba(imain2
Polygon
p1916
(dp1917
g3
(I73
I8
tp1918
sg5
I200
sg6
(I107
I163
I20
I142
tp1919
sg8
(lp1920
(I33
I0
tp1921
a(I31
I0
tp1922
a(I113
I0
tp1923
a(I27
I56
tp1924
a(I23
I45
tp1925
a(I24
I0
tp1926
a(I84
I33
tp1927
a(I39
I6
tp1928
a(I49
I29
tp1929
a(I58
I40
tp1930
asg27
I200
sba(imain2
Polygon
p1931
(dp1932
g3
(I175
I187
tp1933
sg5
I200
sg6
(I122
I193
I199
I64
tp1934
sg8
(lp1935
(I186
I200
tp1936
a(I170
I200
tp1937
a(I146
I200
tp1938
asg27
I200
sba(imain2
Polygon
p1939
(dp1940
g3
(I153
I195
tp1941
sg5
I200
sg6
(I54
I168
I29
I0
tp1942
sg8
(lp1943
(I138
I200
tp1944
a(I172
I184
tp1945
a(I144
I196
tp1946
a(I169
I200
tp1947
a(I143
I190
tp1948
a(I149
I200
tp1949
a(I136
I184
tp1950
a(I140
I198
tp1951
a(I125
I147
tp1952
asg27
I200
sba(imain2
Polygon
p1953
(dp1954
g3
(I199
I6
tp1955
sg5
I200
sg6
(I145
I41
I87
I0
tp1956
sg8
(lp1957
(I200
I0
tp1958
a(I200
I0
tp1959
a(I200
I0
tp1960
a(I200
I0
tp1961
a(I200
I20
tp1962
a(I200
I0
tp1963
a(I200
I6
tp1964
a(I200
I0
tp1965
asg27
I200
sba(imain2
Polygon
p1966
(dp1967
g3
(I46
I191
tp1968
sg5
I200
sg6
(I91
I16
I8
I126
tp1969
sg8
(lp1970
(I69
I200
tp1971
a(I73
I200
tp1972
a(I94
I165
tp1973
a(I0
I200
tp1974
a(I0
I146
tp1975
a(I27
I155
tp1976
a(I49
I200
tp1977
a(I34
I181
tp1978
a(I35
I167
tp1979
asg27
I200
sba(imain2
Polygon
p1980
(dp1981
g3
(I144
I179
tp1982
sg5
I200
sg6
(I125
I32
I190
I52
tp1983
sg8
(lp1984
(I165
I180
tp1985
a(I161
I152
tp1986
a(I115
I194
tp1987
a(I130
I191
tp1988
a(I133
I187
tp1989
a(I191
I200
tp1990
a(I106
I200
tp1991
a(I113
I200
tp1992
a(I159
I164
tp1993
a(I159
I200
tp1994
a(I164
I155
tp1995
a(I120
I200
tp1996
a(I105
I180
tp1997
a(I154
I153
tp1998
a(I168
I199
tp1999
a(I168
I200
tp2000
asg27
I200
sba(imain2
Polygon
p2001
(dp2002
g3
(I120
I46
tp2003
sg5
I200
sg6
(I84
I82
I103
I62
tp2004
sg8
(lp2005
(I118
I65
tp2006
a(I95
I18
tp2007
a(I126
I24
tp2008
a(I97
I17
tp2009
a(I112
I27
tp2010
a(I122
I89
tp2011
a(I125
I46
tp2012
asg27
I200
sba(imain2
Polygon
p2013
(dp2014
g3
(I100
I144
tp2015
sg5
I200
sg6
(I124
I184
I167
I129
tp2016
sg8
(lp2017
(I112
I95
tp2018
a(I104
I138
tp2019
a(I98
I126
tp2020
a(I74
I100
tp2021
a(I78
I118
tp2022
a(I83
I152
tp2023
a(I125
I151
tp2024
a(I68
I158
tp2025
a(I56
I110
tp2026
asg27
I200
sba(imain2
Polygon
p2027
(dp2028
g3
(I151
I184
tp2029
sg5
I200
sg6
(I139
I1
I175
I5
tp2030
sg8
(lp2031
(I190
I200
tp2032
a(I200
I200
tp2033
a(I169
I169
tp2034
a(I122
I200
tp2035
asg27
I200
sba(imain2
Polygon
p2036
(dp2037
g3
(I124
I187
tp2038
sg5
I200
sg6
(I27
I28
I211
I1
tp2039
sg8
(lp2040
(I113
I140
tp2041
a(I97
I200
tp2042
a(I153
I191
tp2043
a(I90
I200
tp2044
a(I84
I197
tp2045
a(I119
I200
tp2046
a(I80
I200
tp2047
a(I143
I154
tp2048
asg27
I200
sba(imain2
Polygon
p2049
(dp2050
g3
(I48
I52
tp2051
sg5
I200
sg6
(I247
I132
I163
I141
tp2052
sg8
(lp2053
(I58
I94
tp2054
a(I79
I94
tp2055
a(I97
I60
tp2056
a(I67
I7
tp2057
a(I35
I65
tp2058
a(I31
I93
tp2059
a(I88
I8
tp2060
a(I0
I10
tp2061
a(I0
I82
tp2062
a(I2
I102
tp2063
a(I65
I76
tp2064
a(I18
I85
tp2065
a(I75
I83
tp2066
asg27
I200
sba(imain2
Polygon
p2067
(dp2068
g3
(I139
I74
tp2069
sg5
I200
sg6
(I153
I190
I238
I100
tp2070
sg8
(lp2071
(I174
I48
tp2072
a(I189
I47
tp2073
a(I185
I26
tp2074
a(I157
I30
tp2075
a(I171
I52
tp2076
a(I187
I48
tp2077
asg27
I200
sba(imain2
Polygon
p2078
(dp2079
g3
(I161
I83
tp2080
sg5
I200
sg6
(I203
I149
I103
I32
tp2081
sg8
(lp2082
(I114
I113
tp2083
a(I114
I49
tp2084
a(I178
I77
tp2085
a(I185
I60
tp2086
a(I155
I98
tp2087
a(I177
I113
tp2088
a(I199
I106
tp2089
a(I118
I73
tp2090
a(I200
I106
tp2091
a(I200
I49
tp2092
a(I140
I35
tp2093
a(I197
I72
tp2094
a(I120
I118
tp2095
a(I199
I71
tp2096
a(I145
I53
tp2097
a(I124
I126
tp2098
asg27
I200
sba(imain2
Polygon
p2099
(dp2100
g3
(I88
I36
tp2101
sg5
I200
sg6
(I0
I31
I72
I120
tp2102
sg8
(lp2103
(I82
I0
tp2104
a(I49
I39
tp2105
a(I102
I37
tp2106
a(I120
I27
tp2107
a(I125
I14
tp2108
a(I135
I16
tp2109
a(I71
I9
tp2110
a(I42
I13
tp2111
a(I58
I13
tp2112
asg27
I200
sba(imain2
Polygon
p2113
(dp2114
g3
(I12
I36
tp2115
sg5
I200
sg6
(I169
I102
I215
I0
tp2116
sg8
(lp2117
(I0
I57
tp2118
a(I4
I56
tp2119
a(I30
I24
tp2120
a(I0
I0
tp2121
a(I50
I5
tp2122
a(I9
I54
tp2123
asg27
I200
sba(imain2
Polygon
p2124
(dp2125
g3
(I79
I176
tp2126
sg5
I200
sg6
(I199
I84
I176
I106
tp2127
sg8
(lp2128
(I129
I200
tp2129
a(I119
I162
tp2130
a(I69
I200
tp2131
a(I128
I200
tp2132
asg27
I200
sba(imain2
Polygon
p2133
(dp2134
g3
(I159
I193
tp2135
sg5
I200
sg6
(I189
I174
I62
I1
tp2136
sg8
(lp2137
(I200
I175
tp2138
a(I156
I151
tp2139
a(I179
I191
tp2140
a(I180
I153
tp2141
a(I200
I200
tp2142
a(I200
I196
tp2143
a(I192
I188
tp2144
a(I125
I183
tp2145
a(I175
I146
tp2146
a(I118
I200
tp2147
a(I176
I178
tp2148
a(I139
I200
tp2149
asg27
I200
sba(imain2
Polygon
p2150
(dp2151
g3
(I52
I197
tp2152
sg5
I200
sg6
(I164
I149
I230
I0
tp2153
sg8
(lp2154
(I55
I200
tp2155
a(I57
I200
tp2156
a(I29
I200
tp2157
a(I49
I200
tp2158
a(I14
I199
tp2159
a(I22
I181
tp2160
a(I37
I200
tp2161
asg27
I200
sba(imain2
Polygon
p2162
(dp2163
g3
(I96
I168
tp2164
sg5
I200
sg6
(I84
I155
I167
I0
tp2165
sg8
(lp2166
(I55
I118
tp2167
a(I128
I200
tp2168
a(I73
I156
tp2169
a(I138
I200
tp2170
a(I139
I200
tp2171
a(I72
I170
tp2172
a(I145
I191
tp2173
a(I74
I200
tp2174
asg27
I200
sba(imain2
Polygon
p2175
(dp2176
g3
(I148
I67
tp2177
sg5
I200
sg6
(I211
I30
I22
I1
tp2178
sg8
(lp2179
(I174
I47
tp2180
a(I110
I44
tp2181
a(I120
I55
tp2182
a(I113
I19
tp2183
a(I164
I58
tp2184
a(I108
I94
tp2185
a(I178
I39
tp2186
a(I165
I74
tp2187
a(I102
I67
tp2188
a(I168
I46
tp2189
a(I106
I33
tp2190
a(I191
I88
tp2191
asg27
I200
sba(imain2
Polygon
p2192
(dp2193
g3
(I185
I29
tp2194
sg5
I200
sg6
(I139
I164
I77
I84
tp2195
sg8
(lp2196
(I136
I0
tp2197
a(I199
I0
tp2198
a(I200
I25
tp2199
a(I174
I43
tp2200
a(I138
I31
tp2201
asg27
I200
sba(imain2
Polygon
p2202
(dp2203
g3
(I77
I185
tp2204
sg5
I200
sg6
(I29
I26
I98
I113
tp2205
sg8
(lp2206
(I61
I200
tp2207
a(I63
I154
tp2208
a(I39
I143
tp2209
a(I124
I169
tp2210
a(I40
I180
tp2211
a(I39
I144
tp2212
a(I35
I180
tp2213
a(I81
I200
tp2214
a(I64
I192
tp2215
a(I31
I161
tp2216
asg27
I200
sba(imain2
Polygon
p2217
(dp2218
g3
(I183
I173
tp2219
sg5
I200
sg6
(I108
I216
I89
I56
tp2220
sg8
(lp2221
(I150
I200
tp2222
a(I175
I200
tp2223
a(I173
I200
tp2224
a(I173
I194
tp2225
a(I164
I182
tp2226
asg27
I200
sba(imain2
Polygon
p2227
(dp2228
g3
(I141
I78
tp2229
sg5
I200
sg6
(I233
I87
I167
I1
tp2230
sg8
(lp2231
(I99
I101
tp2232
a(I168
I60
tp2233
a(I134
I66
tp2234
a(I154
I66
tp2235
a(I125
I122
tp2236
a(I182
I84
tp2237
a(I124
I124
tp2238
a(I120
I98
tp2239
a(I176
I101
tp2240
a(I106
I72
tp2241
asg27
I200
sba(imain2
Polygon
p2242
(dp2243
g3
(I8
I10
tp2244
sg5
I200
sg6
(I63
I44
I74
I116
tp2245
sg8
(lp2246
(I17
I0
tp2247
a(I0
I0
tp2248
a(I30
I6
tp2249
a(I32
I6
tp2250
a(I0
I0
tp2251
a(I0
I21
tp2252
a(I0
I0
tp2253
asg27
I200
sba(imain2
Polygon
p2254
(dp2255
g3
(I37
I13
tp2256
sg5
I200
sg6
(I1
I115
I20
I126
tp2257
sg8
(lp2258
(I36
I0
tp2259
a(I16
I0
tp2260
a(I17
I0
tp2261
a(I19
I8
tp2262
a(I0
I0
tp2263
a(I47
I12
tp2264
a(I0
I0
tp2265
a(I2
I12
tp2266
a(I61
I0
tp2267
a(I79
I31
tp2268
a(I38
I0
tp2269
asg27
I200
sba(imain2
Polygon
p2270
(dp2271
g3
(I168
I175
tp2272
sg5
I200
sg6
(I97
I56
I24
I7
tp2273
sg8
(lp2274
(I152
I200
tp2275
a(I120
I181
tp2276
a(I162
I183
tp2277
a(I163
I181
tp2278
a(I177
I200
tp2279
a(I193
I183
tp2280
a(I142
I174
tp2281
a(I192
I161
tp2282
a(I170
I133
tp2283
a(I174
I140
tp2284
a(I122
I174
tp2285
asg27
I200
sba(imain2
Polygon
p2286
(dp2287
g3
(I75
I83
tp2288
sg5
I200
sg6
(I27
I33
I20
I0
tp2289
sg8
(lp2290
(I114
I59
tp2291
a(I50
I113
tp2292
a(I120
I50
tp2293
a(I37
I102
tp2294
a(I91
I37
tp2295
a(I51
I69
tp2296
a(I72
I87
tp2297
a(I68
I133
tp2298
a(I106
I101
tp2299
a(I115
I36
tp2300
a(I89
I59
tp2301
a(I85
I90
tp2302
a(I100
I106
tp2303
a(I42
I130
tp2304
asg27
I200
sba(imain2
Polygon
p2305
(dp2306
g3
(I18
I79
tp2307
sg5
I200
sg6
(I81
I1
I176
I121
tp2308
sg8
(lp2309
(I61
I110
tp2310
a(I51
I115
tp2311
a(I44
I52
tp2312
a(I43
I101
tp2313
a(I25
I110
tp2314
a(I12
I123
tp2315
a(I0
I103
tp2316
a(I0
I117
tp2317
a(I39
I119
tp2318
asg27
I200
sba(imain2
Polygon
p2319
(dp2320
g3
(I27
I28
tp2321
sg5
I200
sg6
(I222
I145
I40
I1
tp2322
sg8
(lp2323
(I50
I74
tp2324
a(I58
I68
tp2325
a(I0
I0
tp2326
a(I75
I71
tp2327
a(I69
I0
tp2328
a(I32
I0
tp2329
a(I0
I0
tp2330
a(I0
I50
tp2331
a(I72
I42
tp2332
a(I0
I42
tp2333
a(I0
I23
tp2334
a(I26
I69
tp2335
a(I68
I73
tp2336
asg27
I200
sba(imain2
Polygon
p2337
(dp2338
g3
(I85
I60
tp2339
sg5
I200
sg6
(I84
I115
I14
I111
tp2340
sg8
(lp2341
(I115
I60
tp2342
a(I134
I87
tp2343
a(I55
I107
tp2344
a(I36
I62
tp2345
a(I72
I90
tp2346
a(I131
I73
tp2347
a(I117
I52
tp2348
a(I123
I32
tp2349
asg27
I200
sba(imain2
Polygon
p2350
(dp2351
g3
(I45
I110
tp2352
sg5
I200
sg6
(I42
I243
I179
I60
tp2353
sg8
(lp2354
(I68
I158
tp2355
a(I45
I112
tp2356
a(I89
I87
tp2357
a(I72
I109
tp2358
asg27
I200
sba(imain2
Polygon
p2359
(dp2360
g3
(I54
I138
tp2361
sg5
I200
sg6
(I118
I64
I186
I0
tp2362
sg8
(lp2363
(I97
I93
tp2364
a(I41
I139
tp2365
a(I99
I90
tp2366
a(I40
I154
tp2367
a(I88
I174
tp2368
a(I91
I117
tp2369
a(I77
I110
tp2370
a(I14
I186
tp2371
a(I72
I137
tp2372
a(I101
I147
tp2373
asg27
I200
sba(imain2
Polygon
p2374
(dp2375
g3
(I162
I123
tp2376
sg5
I200
sg6
(I47
I60
I73
I20
tp2377
sg8
(lp2378
(I119
I79
tp2379
a(I153
I85
tp2380
a(I200
I137
tp2381
a(I200
I144
tp2382
a(I125
I137
tp2383
a(I142
I158
tp2384
a(I180
I124
tp2385
a(I168
I135
tp2386
a(I123
I93
tp2387
a(I158
I73
tp2388
a(I184
I95
tp2389
a(I158
I164
tp2390
a(I116
I146
tp2391
a(I156
I80
tp2392
a(I161
I109
tp2393
a(I197
I100
tp2394
a(I154
I106
tp2395
a(I118
I94
tp2396
a(I125
I109
tp2397
asg27
I200
sba(imain2
Polygon
p2398
(dp2399
g3
(I144
I70
tp2400
sg5
I200
sg6
(I194
I40
I118
I46
tp2401
sg8
(lp2402
(I149
I30
tp2403
a(I169
I95
tp2404
a(I155
I49
tp2405
asg27
I200
sba(imain2
Polygon
p2406
(dp2407
g3
(I11
I36
tp2408
sg5
I200
sg6
(I146
I33
I79
I38
tp2409
sg8
(lp2410
(I0
I29
tp2411
a(I37
I36
tp2412
a(I0
I13
tp2413
a(I35
I7
tp2414
a(I0
I0
tp2415
a(I0
I57
tp2416
a(I0
I17
tp2417
a(I29
I0
tp2418
a(I0
I35
tp2419
a(I0
I0
tp2420
asg27
I200
sba(imain2
Polygon
p2421
(dp2422
g3
(I85
I175
tp2423
sg5
I200
sg6
(I240
I54
I45
I4
tp2424
sg8
(lp2425
(I122
I200
tp2426
a(I89
I168
tp2427
a(I112
I137
tp2428
a(I61
I130
tp2429
a(I77
I143
tp2430
a(I122
I198
tp2431
a(I40
I200
tp2432
a(I66
I189
tp2433
a(I114
I192
tp2434
a(I100
I188
tp2435
a(I70
I129
tp2436
a(I91
I200
tp2437
a(I109
I150
tp2438
a(I61
I131
tp2439
a(I89
I176
tp2440
a(I47
I146
tp2441
asg27
I200
sba(imain2
Polygon
p2442
(dp2443
g3
(I78
I22
tp2444
sg5
I200
sg6
(I0
I239
I66
I0
tp2445
sg8
(lp2446
(I80
I54
tp2447
a(I86
I25
tp2448
a(I80
I67
tp2449
a(I122
I5
tp2450
a(I112
I49
tp2451
a(I51
I15
tp2452
a(I103
I9
tp2453
a(I80
I0
tp2454
a(I80
I27
tp2455
a(I97
I0
tp2456
a(I37
I57
tp2457
asg27
I200
sba(imain2
Polygon
p2458
(dp2459
g3
(I58
I165
tp2460
sg5
I200
sg6
(I74
I0
I135
I101
tp2461
sg8
(lp2462
(I39
I165
tp2463
a(I19
I159
tp2464
a(I46
I164
tp2465
a(I53
I157
tp2466
a(I43
I143
tp2467
asg27
I200
sba(imain2
Polygon
p2468
(dp2469
g3
(I98
I69
tp2470
sg5
I200
sg6
(I74
I214
I127
I41
tp2471
sg8
(lp2472
(I111
I113
tp2473
a(I126
I99
tp2474
a(I78
I90
tp2475
asg27
I200
sba(imain2
Polygon
p2476
(dp2477
g3
(I184
I193
tp2478
sg5
I200
sg6
(I18
I63
I70
I1
tp2479
sg8
(lp2480
(I197
I200
tp2481
a(I185
I200
tp2482
a(I200
I163
tp2483
a(I200
I200
tp2484
a(I159
I167
tp2485
a(I159
I200
tp2486
asg27
I200
sba(imain2
Polygon
p2487
(dp2488
g3
(I136
I181
tp2489
sg5
I200
sg6
(I120
I127
I190
I1
tp2490
sg8
(lp2491
(I148
I200
tp2492
a(I87
I180
tp2493
a(I129
I164
tp2494
a(I175
I181
tp2495
a(I115
I142
tp2496
a(I116
I139
tp2497
a(I124
I156
tp2498
a(I180
I199
tp2499
a(I127
I139
tp2500
a(I178
I200
tp2501
asg27
I200
sba(imain2
Polygon
p2502
(dp2503
g3
(I65
I69
tp2504
sg5
I200
sg6
(I101
I93
I153
I21
tp2505
sg8
(lp2506
(I57
I66
tp2507
a(I42
I83
tp2508
a(I79
I112
tp2509
a(I80
I100
tp2510
a(I37
I106
tp2511
a(I63
I93
tp2512
a(I42
I61
tp2513
a(I37
I81
tp2514
a(I73
I48
tp2515
asg27
I200
sba(imain2
Polygon
p2516
(dp2517
g3
(I146
I60
tp2518
sg5
I200
sg6
(I1
I2
I200
I7
tp2519
sg8
(lp2520
(I167
I55
tp2521
a(I165
I71
tp2522
a(I158
I56
tp2523
a(I151
I109
tp2524
a(I164
I56
tp2525
a(I111
I50
tp2526
asg27
I200
sba(imain2
Polygon
p2527
(dp2528
g3
(I7
I191
tp2529
sg5
I200
sg6
(I1
I166
I63
I1
tp2530
sg8
(lp2531
(I42
I172
tp2532
a(I53
I198
tp2533
a(I35
I200
tp2534
a(I31
I200
tp2535
a(I37
I200
tp2536
a(I0
I200
tp2537
a(I0
I195
tp2538
a(I56
I177
tp2539
a(I0
I187
tp2540
asg27
I200
sba(imain2
Polygon
p2541
(dp2542
g3
(I177
I12
tp2543
sg5
I200
sg6
(I0
I128
I138
I0
tp2544
sg8
(lp2545
(I179
I47
tp2546
a(I200
I31
tp2547
a(I131
I0
tp2548
a(I173
I62
tp2549
a(I200
I45
tp2550
a(I200
I50
tp2551
a(I148
I56
tp2552
a(I198
I11
tp2553
asg27
I200
sba(imain2
Polygon
p2554
(dp2555
g3
(I98
I60
tp2556
sg5
I200
sg6
(I143
I37
I48
I3
tp2557
sg8
(lp2558
(I87
I83
tp2559
a(I57
I109
tp2560
a(I138
I25
tp2561
a(I80
I91
tp2562
a(I126
I103
tp2563
a(I147
I11
tp2564
a(I125
I68
tp2565
asg27
I200
sba(imain2
Polygon
p2566
(dp2567
g3
(I26
I121
tp2568
sg5
I200
sg6
(I19
I114
I4
I95
tp2569
sg8
(lp2570
(I5
I167
tp2571
a(I39
I85
tp2572
a(I0
I101
tp2573
a(I0
I166
tp2574
a(I51
I153
tp2575
a(I14
I135
tp2576
a(I45
I83
tp2577
a(I52
I113
tp2578
a(I0
I157
tp2579
a(I0
I125
tp2580
asg27
I200
sba(imain2
Polygon
p2581
(dp2582
g3
(I59
I10
tp2583
sg5
I200
sg6
(I180
I56
I106
I136
tp2584
sg8
(lp2585
(I13
I0
tp2586
a(I70
I0
tp2587
a(I73
I6
tp2588
a(I69
I0
tp2589
a(I109
I0
tp2590
a(I63
I23
tp2591
a(I10
I0
tp2592
a(I17
I23
tp2593
asg27
I200
sba(imain2
Polygon
p2594
(dp2595
g3
(I171
I141
tp2596
sg5
I200
sg6
(I37
I200
I138
I5
tp2597
sg8
(lp2598
(I200
I170
tp2599
a(I200
I173
tp2600
a(I200
I174
tp2601
a(I175
I116
tp2602
a(I176
I119
tp2603
a(I200
I183
tp2604
a(I126
I103
tp2605
a(I187
I97
tp2606
asg27
I200
sba(imain2
Polygon
p2607
(dp2608
g3
(I80
I143
tp2609
sg5
I200
sg6
(I73
I76
I11
I120
tp2610
sg8
(lp2611
(I106
I144
tp2612
a(I70
I145
tp2613
a(I93
I192
tp2614
a(I130
I187
tp2615
a(I107
I140
tp2616
a(I32
I121
tp2617
a(I39
I93
tp2618
a(I65
I188
tp2619
a(I118
I114
tp2620
a(I89
I141
tp2621
a(I111
I114
tp2622
a(I86
I147
tp2623
asg27
I200
sba(imain2
Polygon
p2624
(dp2625
g3
(I191
I199
tp2626
sg5
I200
sg6
(I0
I224
I25
I0
tp2627
sg8
(lp2628
(I148
I156
tp2629
a(I196
I200
tp2630
a(I200
I171
tp2631
a(I150
I150
tp2632
a(I171
I200
tp2633
a(I151
I170
tp2634
a(I200
I170
tp2635
a(I148
I149
tp2636
a(I200
I153
tp2637
asg27
I200
sba(imain2
Polygon
p2638
(dp2639
g3
(I6
I112
tp2640
sg5
I200
sg6
(I132
I71
I131
I71
tp2641
sg8
(lp2642
(I0
I137
tp2643
a(I0
I140
tp2644
a(I25
I84
tp2645
a(I0
I123
tp2646
a(I0
I106
tp2647
a(I0
I161
tp2648
a(I15
I79
tp2649
asg27
I200
sba(imain2
Polygon
p2650
(dp2651
g3
(I189
I37
tp2652
sg5
I200
sg6
(I31
I238
I165
I62
tp2653
sg8
(lp2654
(I200
I41
tp2655
a(I177
I46
tp2656
a(I200
I40
tp2657
a(I199
I1
tp2658
asg27
I200
sba(imain2
Polygon
p2659
(dp2660
g3
(I121
I50
tp2661
sg5
I200
sg6
(I5
I72
I1
I0
tp2662
sg8
(lp2663
(I170
I34
tp2664
a(I142
I7
tp2665
a(I160
I54
tp2666
asg27
I200
sba(imain2
Polygon
p2667
(dp2668
g3
(I58
I165
tp2669
sg5
I200
sg6
(I144
I99
I3
I0
tp2670
sg8
(lp2671
(I53
I140
tp2672
a(I75
I148
tp2673
a(I59
I187
tp2674
a(I95
I181
tp2675
a(I97
I177
tp2676
a(I50
I165
tp2677
a(I17
I134
tp2678
a(I59
I152
tp2679
a(I88
I129
tp2680
a(I56
I151
tp2681
asg27
I200
sba(imain2
Polygon
p2682
(dp2683
g3
(I155
I38
tp2684
sg5
I200
sg6
(I101
I108
I238
I107
tp2685
sg8
(lp2686
(I160
I2
tp2687
a(I162
I13
tp2688
a(I165
I27
tp2689
asg27
I200
sba(imain2
Polygon
p2690
(dp2691
g3
(I80
I130
tp2692
sg5
I200
sg6
(I224
I90
I1
I125
tp2693
sg8
(lp2694
(I90
I107
tp2695
a(I38
I91
tp2696
a(I127
I91
tp2697
a(I86
I180
tp2698
a(I90
I97
tp2699
a(I42
I107
tp2700
a(I57
I140
tp2701
a(I81
I161
tp2702
a(I95
I173
tp2703
a(I77
I124
tp2704
a(I91
I85
tp2705
a(I88
I146
tp2706
asg27
I200
sba(imain2
Polygon
p2707
(dp2708
g3
(I182
I31
tp2709
sg5
I200
sg6
(I112
I85
I112
I0
tp2710
sg8
(lp2711
(I200
I3
tp2712
a(I198
I51
tp2713
a(I174
I66
tp2714
a(I140
I64
tp2715
a(I164
I0
tp2716
a(I200
I47
tp2717
a(I163
I17
tp2718
a(I182
I55
tp2719
a(I164
I73
tp2720
a(I200
I13
tp2721
a(I191
I0
tp2722
a(I168
I44
tp2723
a(I200
I15
tp2724
a(I174
I6
tp2725
a(I195
I67
tp2726
a(I196
I17
tp2727
a(I192
I0
tp2728
a(I200
I72
tp2729
a(I198
I23
tp2730
a(I199
I1
tp2731
a(I200
I28
tp2732
asg27
I200
sba(imain2
Polygon
p2733
(dp2734
g3
(I164
I132
tp2735
sg5
I200
sg6
(I50
I69
I1
I1
tp2736
sg8
(lp2737
(I162
I178
tp2738
a(I129
I182
tp2739
a(I154
I157
tp2740
a(I125
I177
tp2741
a(I158
I139
tp2742
a(I146
I102
tp2743
a(I143
I150
tp2744
a(I200
I125
tp2745
a(I144
I129
tp2746
a(I181
I85
tp2747
a(I127
I166
tp2748
a(I122
I127
tp2749
a(I116
I151
tp2750
a(I122
I170
tp2751
asg27
I200
sba(imain2
Polygon
p2752
(dp2753
g3
(I67
I123
tp2754
sg5
I200
sg6
(I204
I170
I128
I74
tp2755
sg8
(lp2756
(I114
I101
tp2757
a(I112
I148
tp2758
a(I65
I154
tp2759
a(I43
I93
tp2760
a(I96
I92
tp2761
a(I107
I100
tp2762
a(I49
I107
tp2763
a(I115
I104
tp2764
a(I46
I107
tp2765
a(I101
I102
tp2766
asg27
I200
sba(imain2
Polygon
p2767
(dp2768
g3
(I139
I46
tp2769
sg5
I200
sg6
(I2
I111
I83
I84
tp2770
sg8
(lp2771
(I185
I84
tp2772
a(I98
I73
tp2773
a(I164
I79
tp2774
asg27
I200
sba(imain2
Polygon
p2775
(dp2776
g3
(I137
I13
tp2777
sg5
I200
sg6
(I203
I132
I222
I5
tp2778
sg8
(lp2779
(I165
I0
tp2780
a(I179
I43
tp2781
a(I165
I55
tp2782
a(I148
I0
tp2783
a(I139
I19
tp2784
a(I157
I0
tp2785
a(I92
I0
tp2786
a(I100
I0
tp2787
a(I88
I17
tp2788
a(I160
I57
tp2789
asg27
I200
sba(imain2
Polygon
p2790
(dp2791
g3
(I72
I81
tp2792
sg5
I200
sg6
(I239
I109
I83
I0
tp2793
sg8
(lp2794
(I57
I71
tp2795
a(I48
I109
tp2796
a(I26
I64
tp2797
a(I119
I81
tp2798
a(I50
I126
tp2799
a(I81
I126
tp2800
a(I72
I104
tp2801
a(I63
I131
tp2802
asg27
I200
sba(imain2
Polygon
p2803
(dp2804
g3
(I24
I70
tp2805
sg5
I200
sg6
(I7
I225
I10
I16
tp2806
sg8
(lp2807
(I37
I25
tp2808
a(I72
I32
tp2809
a(I2
I21
tp2810
a(I0
I105
tp2811
a(I15
I106
tp2812
a(I38
I101
tp2813
a(I0
I104
tp2814
a(I52
I117
tp2815
a(I46
I40
tp2816
a(I22
I27
tp2817
asg27
I200
sba(imain2
Polygon
p2818
(dp2819
g3
(I144
I200
tp2820
sg5
I200
sg6
(I124
I88
I12
I1
tp2821
sg8
(lp2822
(I119
I183
tp2823
a(I188
I200
tp2824
a(I107
I168
tp2825
a(I185
I200
tp2826
a(I183
I167
tp2827
a(I100
I189
tp2828
a(I179
I200
tp2829
a(I147
I151
tp2830
a(I156
I200
tp2831
a(I186
I200
tp2832
a(I129
I178
tp2833
a(I104
I200
tp2834
a(I131
I200
tp2835
a(I174
I196
tp2836
a(I117
I165
tp2837
a(I105
I200
tp2838
a(I162
I183
tp2839
a(I175
I200
tp2840
a(I114
I189
tp2841
a(I145
I200
tp2842
asg27
I200
sba(imain2
Polygon
p2843
(dp2844
g3
(I63
I64
tp2845
sg5
I200
sg6
(I193
I193
I46
I4
tp2846
sg8
(lp2847
(I112
I33
tp2848
a(I18
I106
tp2849
a(I18
I45
tp2850
a(I97
I38
tp2851
a(I97
I107
tp2852
a(I22
I101
tp2853
asg27
I200
sba(imain2
Polygon
p2854
(dp2855
g3
(I87
I65
tp2856
sg5
I200
sg6
(I217
I57
I100
I0
tp2857
sg8
(lp2858
(I54
I64
tp2859
a(I95
I106
tp2860
a(I74
I35
tp2861
a(I86
I89
tp2862
a(I45
I28
tp2863
a(I39
I69
tp2864
a(I64
I66
tp2865
a(I125
I66
tp2866
a(I136
I93
tp2867
a(I96
I80
tp2868
asg27
I200
sba(imain2
Polygon
p2869
(dp2870
g3
(I110
I191
tp2871
sg5
I200
sg6
(I162
I198
I225
I1
tp2872
sg8
(lp2873
(I150
I191
tp2874
a(I98
I178
tp2875
a(I157
I152
tp2876
a(I83
I180
tp2877
a(I85
I161
tp2878
a(I115
I169
tp2879
a(I78
I200
tp2880
a(I122
I200
tp2881
a(I118
I200
tp2882
asg27
I200
sba(imain2
Polygon
p2883
(dp2884
g3
(I108
I110
tp2885
sg5
I200
sg6
(I99
I179
I166
I0
tp2886
sg8
(lp2887
(I101
I127
tp2888
a(I63
I155
tp2889
a(I132
I160
tp2890
a(I75
I84
tp2891
a(I70
I134
tp2892
a(I76
I126
tp2893
a(I100
I157
tp2894
asg27
I200
sba(imain2
Polygon
p2895
(dp2896
g3
(I112
I52
tp2897
sg5
I200
sg6
(I81
I201
I81
I106
tp2898
sg8
(lp2899
(I158
I54
tp2900
a(I77
I86
tp2901
a(I149
I58
tp2902
asg27
I200
sba.