(lp0
(imain2
Polygon
p1
(dp2
S'origin'
p3
(I39
I29
tp4
sS'h'
p5
I200
sS'color'
p6
(I195
I23
I139
I76
tp7
sS'corner_list'
p8
(lp9
(I0
I0
tp10
a(I33
I71
tp11
a(I71
I41
tp12
a(I83
I36
tp13
a(I71
I0
tp14
a(I0
I70
tp15
a(I0
I33
tp16
a(I18
I16
tp17
a(I0
I37
tp18
a(I83
I19
tp19
a(I58
I39
tp20
a(I4
I54
tp21
a(I0
I33
tp22
a(I60
I37
tp23
a(I39
I30
tp24
a(I64
I0
tp25
asS'w'
p26
I200
sba(imain2
Polygon
p27
(dp28
g3
(I66
I177
tp29
sg5
I200
sg6
(I138
I55
I47
I27
tp30
sg8
(lp31
(I77
I143
tp32
a(I77
I165
tp33
a(I111
I200
tp34
a(I34
I200
tp35
a(I30
I166
tp36
a(I17
I179
tp37
a(I44
I200
tp38
a(I77
I200
tp39
asg26
I200
sba(imain2
Polygon
p40
(dp41
g3
(I59
I53
tp42
sg5
I200
sg6
(I109
I43
I107
I139
tp43
sg8
(lp44
(I106
I10
tp45
a(I26
I102
tp46
a(I9
I53
tp47
a(I89
I14
tp48
a(I41
I9
tp49
a(I45
I35
tp50
a(I40
I72
tp51
a(I32
I51
tp52
a(I38
I88
tp53
a(I97
I87
tp54
a(I109
I84
tp55
a(I91
I22
tp56
a(I92
I46
tp57
a(I76
I61
tp58
a(I97
I29
tp59
a(I50
I59
tp60
a(I53
I45
tp61
a(I57
I67
tp62
asg26
I200
sba(imain2
Polygon
p63
(dp64
g3
(I79
I99
tp65
sg5
I200
sg6
(I71
I89
I68
I87
tp66
sg8
(lp67
(I88
I78
tp68
a(I98
I98
tp69
a(I76
I117
tp70
a(I76
I74
tp71
a(I35
I63
tp72
a(I72
I80
tp73
a(I123
I57
tp74
a(I114
I125
tp75
a(I30
I114
tp76
asg26
I200
sba(imain2
Polygon
p77
(dp78
g3
(I200
I83
tp79
sg5
I200
sg6
(I165
I229
I64
I6
tp80
sg8
(lp81
(I200
I58
tp82
a(I172
I56
tp83
a(I200
I37
tp84
a(I178
I101
tp85
a(I200
I94
tp86
asg26
I200
sba(imain2
Polygon
p87
(dp88
g3
(I48
I136
tp89
sg5
I200
sg6
(I104
I110
I143
I52
tp90
sg8
(lp91
(I74
I106
tp92
a(I87
I127
tp93
a(I94
I141
tp94
a(I43
I102
tp95
a(I5
I168
tp96
a(I60
I171
tp97
a(I89
I93
tp98
a(I16
I112
tp99
a(I78
I105
tp100
a(I86
I178
tp101
a(I47
I126
tp102
a(I46
I109
tp103
a(I2
I151
tp104
a(I64
I175
tp105
a(I58
I161
tp106
a(I45
I165
tp107
a(I87
I144
tp108
a(I84
I97
tp109
a(I79
I93
tp110
a(I69
I164
tp111
a(I78
I145
tp112
asg26
I200
sba(imain2
Polygon
p113
(dp114
g3
(I118
I72
tp115
sg5
I200
sg6
(I132
I137
I59
I48
tp116
sg8
(lp117
(I99
I82
tp118
a(I118
I81
tp119
a(I118
I115
tp120
a(I126
I57
tp121
a(I89
I36
tp122
a(I68
I93
tp123
a(I104
I108
tp124
a(I97
I43
tp125
asg26
I200
sba(imain2
Polygon
p126
(dp127
g3
(I75
I194
tp128
sg5
I200
sg6
(I211
I85
I104
I7
tp129
sg8
(lp130
(I38
I200
tp131
a(I81
I145
tp132
a(I100
I167
tp133
a(I41
I160
tp134
a(I98
I158
tp135
a(I72
I157
tp136
asg26
I200
sba(imain2
Polygon
p137
(dp138
g3
(I7
I180
tp139
sg5
I200
sg6
(I232
I33
I1
I1
tp140
sg8
(lp141
(I24
I177
tp142
a(I0
I200
tp143
a(I0
I200
tp144
a(I45
I200
tp145
a(I0
I192
tp146
a(I41
I140
tp147
a(I15
I200
tp148
a(I9
I194
tp149
a(I0
I200
tp150
a(I0
I188
tp151
a(I0
I161
tp152
a(I47
I179
tp153
a(I15
I137
tp154
asg26
I200
sba(imain2
Polygon
p155
(dp156
g3
(I200
I5
tp157
sg5
I200
sg6
(I172
I75
I111
I28
tp158
sg8
(lp159
(I200
I28
tp160
a(I200
I0
tp161
a(I200
I0
tp162
a(I179
I0
tp163
a(I154
I0
tp164
a(I180
I0
tp165
a(I200
I6
tp166
a(I200
I45
tp167
a(I155
I15
tp168
a(I200
I0
tp169
asg26
I200
sba(imain2
Polygon
p170
(dp171
g3
(I180
I27
tp172
sg5
I200
sg6
(I104
I110
I153
I1
tp173
sg8
(lp174
(I200
I66
tp175
a(I200
I0
tp176
a(I183
I1
tp177
a(I162
I29
tp178
a(I186
I32
tp179
a(I200
I4
tp180
a(I138
I4
tp181
a(I153
I0
tp182
a(I160
I38
tp183
a(I160
I34
tp184
a(I150
I0
tp185
a(I169
I65
tp186
a(I200
I41
tp187
a(I200
I0
tp188
asg26
I200
sba(imain2
Polygon
p189
(dp190
g3
(I59
I197
tp191
sg5
I200
sg6
(I80
I206
I135
I127
tp192
sg8
(lp193
(I98
I200
tp194
a(I93
I157
tp195
a(I71
I197
tp196
a(I54
I200
tp197
a(I24
I200
tp198
asg26
I200
sba(imain2
Polygon
p199
(dp200
g3
(I129
I124
tp201
sg5
I200
sg6
(I169
I187
I96
I58
tp202
sg8
(lp203
(I122
I123
tp204
a(I92
I168
tp205
a(I130
I89
tp206
a(I111
I89
tp207
a(I90
I106
tp208
a(I88
I150
tp209
a(I119
I138
tp210
asg26
I200
sba(imain2
Polygon
p211
(dp212
g3
(I107
I2
tp213
sg5
I200
sg6
(I47
I1
I159
I105
tp214
sg8
(lp215
(I83
I0
tp216
a(I107
I0
tp217
a(I97
I0
tp218
a(I134
I0
tp219
a(I86
I0
tp220
a(I106
I7
tp221
a(I142
I27
tp222
a(I156
I2
tp223
asg26
I200
sba(imain2
Polygon
p224
(dp225
g3
(I25
I107
tp226
sg5
I200
sg6
(I102
I25
I170
I0
tp227
sg8
(lp228
(I30
I146
tp229
a(I12
I69
tp230
a(I72
I82
tp231
a(I0
I68
tp232
a(I47
I76
tp233
a(I63
I86
tp234
a(I32
I154
tp235
a(I47
I83
tp236
a(I56
I62
tp237
a(I0
I59
tp238
a(I3
I58
tp239
a(I0
I103
tp240
a(I9
I75
tp241
a(I7
I139
tp242
a(I58
I86
tp243
a(I18
I134
tp244
asg26
I200
sba(imain2
Polygon
p245
(dp246
g3
(I194
I197
tp247
sg5
I200
sg6
(I7
I195
I62
I85
tp248
sg8
(lp249
(I200
I171
tp250
a(I200
I200
tp251
a(I200
I180
tp252
asg26
I200
sba(imain2
Polygon
p253
(dp254
g3
(I8
I2
tp255
sg5
I200
sg6
(I204
I193
I218
I0
tp256
sg8
(lp257
(I20
I0
tp258
a(I36
I0
tp259
a(I53
I9
tp260
a(I40
I9
tp261
a(I0
I4
tp262
a(I0
I0
tp263
a(I9
I17
tp264
a(I52
I0
tp265
a(I0
I45
tp266
a(I20
I0
tp267
a(I55
I0
tp268
a(I0
I0
tp269
asg26
I200
sba(imain2
Polygon
p270
(dp271
g3
(I171
I144
tp272
sg5
I200
sg6
(I109
I156
I184
I1
tp273
sg8
(lp274
(I166
I140
tp275
a(I126
I156
tp276
a(I200
I110
tp277
a(I132
I120
tp278
a(I176
I147
tp279
a(I141
I188
tp280
a(I198
I129
tp281
a(I200
I153
tp282
asg26
I200
sba(imain2
Polygon
p283
(dp284
g3
(I44
I42
tp285
sg5
I200
sg6
(I78
I127
I73
I0
tp286
sg8
(lp287
(I29
I80
tp288
a(I41
I39
tp289
a(I91
I0
tp290
a(I69
I42
tp291
a(I86
I82
tp292
a(I79
I69
tp293
a(I46
I74
tp294
asg26
I200
sba(imain2
Polygon
p295
(dp296
g3
(I26
I99
tp297
sg5
I200
sg6
(I166
I96
I166
I67
tp298
sg8
(lp299
(I56
I57
tp300
a(I54
I125
tp301
a(I69
I134
tp302
a(I72
I53
tp303
asg26
I200
sba(imain2
Polygon
p304
(dp305
g3
(I114
I46
tp306
sg5
I200
sg6
(I95
I192
I193
I0
tp307
sg8
(lp308
(I79
I0
tp309
a(I126
I34
tp310
a(I145
I56
tp311
a(I90
I66
tp312
a(I111
I68
tp313
a(I104
I20
tp314
asg26
I200
sba(imain2
Polygon
p315
(dp316
g3
(I68
I194
tp317
sg5
I200
sg6
(I85
I192
I149
I0
tp318
sg8
(lp319
(I73
I200
tp320
a(I52
I200
tp321
a(I30
I194
tp322
a(I65
I200
tp323
a(I57
I192
tp324
a(I45
I200
tp325
asg26
I200
sba(imain2
Polygon
p326
(dp327
g3
(I200
I53
tp328
sg5
I200
sg6
(I178
I181
I163
I0
tp329
sg8
(lp330
(I183
I79
tp331
a(I152
I41
tp332
a(I200
I14
tp333
asg26
I200
sba(imain2
Polygon
p334
(dp335
g3
(I172
I155
tp336
sg5
I200
sg6
(I197
I75
I240
I1
tp337
sg8
(lp338
(I156
I193
tp339
a(I186
I112
tp340
a(I159
I155
tp341
a(I144
I130
tp342
a(I139
I119
tp343
a(I158
I120
tp344
a(I138
I123
tp345
a(I137
I184
tp346
a(I166
I121
tp347
a(I154
I196
tp348
a(I139
I154
tp349
a(I197
I144
tp350
a(I200
I146
tp351
asg26
I200
sba(imain2
Polygon
p352
(dp353
g3
(I154
I159
tp354
sg5
I200
sg6
(I52
I205
I31
I1
tp355
sg8
(lp356
(I150
I131
tp357
a(I122
I109
tp358
a(I164
I130
tp359
a(I127
I131
tp360
a(I176
I190
tp361
a(I120
I145
tp362
a(I141
I167
tp363
a(I112
I162
tp364
a(I128
I200
tp365
a(I160
I110
tp366
a(I159
I171
tp367
a(I147
I168
tp368
asg26
I200
sba(imain2
Polygon
p369
(dp370
g3
(I55
I59
tp371
sg5
I200
sg6
(I72
I194
I200
I0
tp372
sg8
(lp373
(I35
I56
tp374
a(I83
I49
tp375
a(I85
I40
tp376
a(I55
I83
tp377
a(I33
I69
tp378
a(I22
I16
tp379
a(I93
I9
tp380
a(I47
I28
tp381
a(I66
I10
tp382
a(I103
I76
tp383
a(I60
I9
tp384
a(I31
I25
tp385
a(I10
I22
tp386
a(I103
I88
tp387
a(I56
I13
tp388
a(I89
I41
tp389
a(I21
I16
tp390
a(I7
I61
tp391
a(I24
I97
tp392
asg26
I200
sba(imain2
Polygon
p393
(dp394
g3
(I127
I147
tp395
sg5
I200
sg6
(I45
I65
I112
I89
tp396
sg8
(lp397
(I109
I194
tp398
a(I79
I101
tp399
a(I97
I160
tp400
a(I161
I191
tp401
asg26
I200
sba(imain2
Polygon
p402
(dp403
g3
(I123
I114
tp404
sg5
I200
sg6
(I115
I0
I5
I1
tp405
sg8
(lp406
(I118
I78
tp407
a(I162
I88
tp408
a(I167
I90
tp409
a(I86
I139
tp410
a(I118
I115
tp411
a(I102
I142
tp412
a(I161
I129
tp413
a(I153
I78
tp414
asg26
I200
sba(imain2
Polygon
p415
(dp416
g3
(I2
I51
tp417
sg5
I200
sg6
(I121
I139
I221
I1
tp418
sg8
(lp419
(I0
I61
tp420
a(I34
I85
tp421
a(I0
I4
tp422
a(I0
I44
tp423
a(I0
I95
tp424
a(I0
I20
tp425
a(I0
I48
tp426
a(I0
I75
tp427
a(I48
I18
tp428
a(I15
I75
tp429
asg26
I200
sba(imain2
Polygon
p430
(dp431
g3
(I166
I21
tp432
sg5
I200
sg6
(I210
I244
I213
I78
tp433
sg8
(lp434
(I200
I0
tp435
a(I200
I59
tp436
a(I169
I70
tp437
a(I131
I0
tp438
a(I153
I0
tp439
a(I131
I6
tp440
a(I135
I0
tp441
a(I200
I0
tp442
a(I178
I26
tp443
asg26
I200
sba(imain2
Polygon
p444
(dp445
g3
(I110
I91
tp446
sg5
I200
sg6
(I127
I32
I28
I1
tp447
sg8
(lp448
(I78
I111
tp449
a(I70
I70
tp450
a(I80
I118
tp451
a(I66
I74
tp452
a(I111
I63
tp453
a(I81
I95
tp454
a(I68
I96
tp455
a(I128
I95
tp456
a(I109
I100
tp457
a(I123
I69
tp458
a(I94
I93
tp459
a(I75
I65
tp460
a(I150
I136
tp461
a(I134
I67
tp462
a(I129
I138
tp463
a(I105
I65
tp464
a(I110
I82
tp465
a(I155
I99
tp466
a(I134
I101
tp467
asg26
I200
sba(imain2
Polygon
p468
(dp469
g3
(I148
I41
tp470
sg5
I200
sg6
(I156
I1
I205
I0
tp471
sg8
(lp472
(I127
I76
tp473
a(I127
I19
tp474
a(I192
I6
tp475
a(I147
I69
tp476
a(I130
I54
tp477
a(I155
I13
tp478
a(I195
I36
tp479
a(I160
I9
tp480
a(I110
I80
tp481
a(I103
I84
tp482
a(I145
I24
tp483
a(I145
I45
tp484
a(I153
I30
tp485
a(I135
I21
tp486
asg26
I200
sba(imain2
Polygon
p487
(dp488
g3
(I188
I159
tp489
sg5
I200
sg6
(I161
I68
I63
I0
tp490
sg8
(lp491
(I153
I158
tp492
a(I164
I115
tp493
a(I200
I197
tp494
a(I200
I137
tp495
a(I200
I118
tp496
a(I200
I111
tp497
a(I156
I170
tp498
asg26
I200
sba(imain2
Polygon
p499
(dp500
g3
(I55
I106
tp501
sg5
I200
sg6
(I54
I89
I39
I1
tp502
sg8
(lp503
(I91
I89
tp504
a(I104
I93
tp505
a(I82
I142
tp506
a(I56
I94
tp507
a(I12
I98
tp508
a(I46
I114
tp509
a(I99
I105
tp510
a(I7
I154
tp511
a(I75
I126
tp512
a(I98
I130
tp513
a(I92
I93
tp514
asg26
I200
sba(imain2
Polygon
p515
(dp516
g3
(I118
I64
tp517
sg5
I200
sg6
(I128
I36
I2
I1
tp518
sg8
(lp519
(I68
I113
tp520
a(I91
I27
tp521
a(I77
I86
tp522
a(I125
I37
tp523
a(I149
I42
tp524
a(I146
I16
tp525
a(I100
I81
tp526
a(I89
I110
tp527
a(I160
I97
tp528
a(I88
I20
tp529
a(I123
I23
tp530
a(I105
I36
tp531
a(I92
I32
tp532
asg26
I200
sba(imain2
Polygon
p533
(dp534
g3
(I101
I127
tp535
sg5
I200
sg6
(I83
I171
I94
I68
tp536
sg8
(lp537
(I82
I132
tp538
a(I60
I130
tp539
a(I83
I154
tp540
a(I132
I81
tp541
a(I63
I110
tp542
asg26
I200
sba(imain2
Polygon
p543
(dp544
g3
(I42
I89
tp545
sg5
I200
sg6
(I16
I90
I177
I1
tp546
sg8
(lp547
(I82
I88
tp548
a(I78
I118
tp549
a(I43
I73
tp550
a(I78
I95
tp551
a(I15
I128
tp552
a(I7
I119
tp553
a(I0
I131
tp554
a(I29
I107
tp555
a(I53
I130
tp556
a(I0
I79
tp557
asg26
I200
sba(imain2
Polygon
p558
(dp559
g3
(I71
I151
tp560
sg5
I200
sg6
(I150
I167
I219
I124
tp561
sg8
(lp562
(I59
I125
tp563
a(I74
I126
tp564
a(I115
I198
tp565
a(I68
I200
tp566
a(I91
I177
tp567
a(I121
I195
tp568
asg26
I200
sba(imain2
Polygon
p569
(dp570
g3
(I13
I141
tp571
sg5
I200
sg6
(I243
I1
I194
I0
tp572
sg8
(lp573
(I0
I181
tp574
a(I0
I181
tp575
a(I0
I119
tp576
a(I28
I147
tp577
a(I53
I153
tp578
a(I7
I133
tp579
a(I0
I112
tp580
a(I30
I173
tp581
a(I38
I142
tp582
a(I47
I102
tp583
a(I52
I124
tp584
a(I0
I110
tp585
asg26
I200
sba(imain2
Polygon
p586
(dp587
g3
(I37
I11
tp588
sg5
I200
sg6
(I113
I18
I9
I88
tp589
sg8
(lp590
(I84
I0
tp591
a(I0
I56
tp592
a(I5
I26
tp593
a(I0
I46
tp594
a(I3
I0
tp595
a(I70
I6
tp596
a(I61
I0
tp597
asg26
I200
sba(imain2
Polygon
p598
(dp599
g3
(I97
I114
tp600
sg5
I200
sg6
(I144
I9
I201
I70
tp601
sg8
(lp602
(I62
I140
tp603
a(I86
I149
tp604
a(I121
I97
tp605
a(I126
I64
tp606
a(I62
I77
tp607
a(I73
I100
tp608
a(I48
I82
tp609
a(I75
I158
tp610
a(I100
I154
tp611
a(I115
I101
tp612
a(I56
I114
tp613
a(I84
I72
tp614
a(I76
I71
tp615
a(I110
I85
tp616
a(I80
I151
tp617
a(I113
I101
tp618
a(I64
I125
tp619
a(I85
I64
tp620
asg26
I200
sba(imain2
Polygon
p621
(dp622
g3
(I77
I12
tp623
sg5
I200
sg6
(I100
I0
I195
I1
tp624
sg8
(lp625
(I97
I0
tp626
a(I85
I0
tp627
a(I42
I0
tp628
a(I46
I41
tp629
a(I50
I51
tp630
a(I99
I49
tp631
a(I69
I0
tp632
a(I114
I19
tp633
a(I51
I42
tp634
asg26
I200
sba(imain2
Polygon
p635
(dp636
g3
(I114
I16
tp637
sg5
I200
sg6
(I1
I100
I177
I138
tp638
sg8
(lp639
(I159
I40
tp640
a(I151
I0
tp641
a(I70
I0
tp642
a(I142
I23
tp643
a(I160
I13
tp644
a(I130
I13
tp645
asg26
I200
sba(imain2
Polygon
p646
(dp647
g3
(I150
I10
tp648
sg5
I200
sg6
(I109
I56
I223
I150
tp649
sg8
(lp650
(I172
I0
tp651
a(I175
I1
tp652
a(I153
I0
tp653
a(I182
I0
tp654
a(I129
I11
tp655
a(I119
I18
tp656
a(I101
I0
tp657
a(I137
I0
tp658
a(I176
I52
tp659
a(I174
I0
tp660
a(I185
I0
tp661
a(I159
I0
tp662
asg26
I200
sba(imain2
Polygon
p663
(dp664
g3
(I41
I10
tp665
sg5
I200
sg6
(I113
I202
I84
I1
tp666
sg8
(lp667
(I28
I17
tp668
a(I23
I53
tp669
a(I0
I4
tp670
a(I72
I21
tp671
a(I30
I0
tp672
a(I60
I0
tp673
asg26
I200
sba(imain2
Polygon
p674
(dp675
g3
(I174
I159
tp676
sg5
I200
sg6
(I168
I106
I84
I88
tp677
sg8
(lp678
(I200
I125
tp679
a(I200
I200
tp680
a(I184
I191
tp681
a(I168
I116
tp682
a(I200
I121
tp683
a(I200
I173
tp684
a(I200
I119
tp685
asg26
I200
sba(imain2
Polygon
p686
(dp687
g3
(I61
I97
tp688
sg5
I200
sg6
(I123
I32
I105
I82
tp689
sg8
(lp690
(I51
I61
tp691
a(I103
I126
tp692
a(I64
I49
tp693
a(I103
I82
tp694
a(I64
I94
tp695
a(I102
I53
tp696
a(I108
I74
tp697
a(I96
I125
tp698
a(I52
I115
tp699
asg26
I200
sba(imain2
Polygon
p700
(dp701
g3
(I180
I97
tp702
sg5
I200
sg6
(I159
I154
I197
I1
tp703
sg8
(lp704
(I200
I88
tp705
a(I200
I108
tp706
a(I196
I110
tp707
a(I172
I65
tp708
a(I200
I145
tp709
a(I196
I133
tp710
a(I181
I70
tp711
asg26
I200
sba(imain2
Polygon
p712
(dp713
g3
(I101
I122
tp714
sg5
I200
sg6
(I163
I83
I1
I62
tp715
sg8
(lp716
(I87
I91
tp717
a(I111
I157
tp718
a(I106
I130
tp719
a(I93
I147
tp720
a(I118
I155
tp721
a(I125
I80
tp722
a(I61
I152
tp723
a(I86
I102
tp724
a(I54
I133
tp725
a(I58
I84
tp726
a(I77
I77
tp727
a(I124
I77
tp728
asg26
I200
sba(imain2
Polygon
p729
(dp730
g3
(I131
I15
tp731
sg5
I200
sg6
(I56
I126
I126
I1
tp732
sg8
(lp733
(I154
I0
tp734
a(I148
I25
tp735
a(I140
I30
tp736
a(I179
I62
tp737
a(I91
I0
tp738
a(I107
I43
tp739
a(I95
I0
tp740
a(I179
I0
tp741
a(I134
I55
tp742
a(I91
I0
tp743
a(I158
I0
tp744
asg26
I200
sba(imain2
Polygon
p745
(dp746
g3
(I113
I24
tp747
sg5
I200
sg6
(I147
I239
I1
I1
tp748
sg8
(lp749
(I163
I0
tp750
a(I88
I27
tp751
a(I103
I36
tp752
a(I73
I38
tp753
a(I125
I3
tp754
a(I115
I8
tp755
a(I117
I66
tp756
a(I110
I46
tp757
a(I138
I18
tp758
a(I122
I0
tp759
a(I77
I58
tp760
a(I110
I0
tp761
a(I82
I0
tp762
asg26
I200
sba(imain2
Polygon
p763
(dp764
g3
(I15
I21
tp765
sg5
I200
sg6
(I42
I40
I25
I0
tp766
sg8
(lp767
(I8
I18
tp768
a(I31
I13
tp769
a(I0
I26
tp770
a(I51
I26
tp771
a(I7
I47
tp772
a(I46
I37
tp773
a(I2
I0
tp774
a(I15
I36
tp775
asg26
I200
sba(imain2
Polygon
p776
(dp777
g3
(I75
I18
tp778
sg5
I200
sg6
(I118
I124
I38
I138
tp779
sg8
(lp780
(I77
I8
tp781
a(I82
I30
tp782
a(I98
I0
tp783
a(I90
I0
tp784
a(I60
I0
tp785
a(I29
I0
tp786
a(I70
I49
tp787
a(I31
I0
tp788
a(I64
I30
tp789
a(I69
I0
tp790
a(I26
I62
tp791
a(I118
I0
tp792
a(I123
I13
tp793
a(I25
I19
tp794
a(I53
I67
tp795
a(I111
I64
tp796
a(I124
I63
tp797
a(I72
I12
tp798
a(I104
I7
tp799
a(I73
I11
tp800
a(I30
I38
tp801
asg26
I200
sba(imain2
Polygon
p802
(dp803
g3
(I147
I31
tp804
sg5
I200
sg6
(I240
I1
I220
I134
tp805
sg8
(lp806
(I189
I0
tp807
a(I196
I42
tp808
a(I180
I38
tp809
a(I168
I65
tp810
a(I153
I34
tp811
a(I193
I77
tp812
a(I183
I0
tp813
a(I187
I24
tp814
a(I176
I51
tp815
a(I126
I17
tp816
a(I116
I7
tp817
a(I130
I0
tp818
asg26
I200
sba(imain2
Polygon
p819
(dp820
g3
(I43
I128
tp821
sg5
I200
sg6
(I89
I21
I103
I114
tp822
sg8
(lp823
(I7
I89
tp824
a(I0
I99
tp825
a(I41
I87
tp826
a(I15
I103
tp827
a(I5
I162
tp828
a(I19
I96
tp829
a(I5
I149
tp830
asg26
I200
sba(imain2
Polygon
p831
(dp832
g3
(I191
I52
tp833
sg5
I200
sg6
(I139
I140
I98
I1
tp834
sg8
(lp835
(I200
I4
tp836
a(I200
I26
tp837
a(I179
I57
tp838
a(I200
I80
tp839
a(I184
I37
tp840
a(I187
I56
tp841
a(I151
I8
tp842
a(I186
I45
tp843
a(I162
I13
tp844
asg26
I200
sba(imain2
Polygon
p845
(dp846
g3
(I124
I96
tp847
sg5
I200
sg6
(I221
I85
I120
I0
tp848
sg8
(lp849
(I156
I93
tp850
a(I142
I107
tp851
a(I106
I89
tp852
a(I140
I135
tp853
a(I87
I134
tp854
a(I91
I110
tp855
a(I151
I68
tp856
a(I138
I110
tp857
a(I109
I135
tp858
a(I87
I114
tp859
a(I81
I129
tp860
asg26
I200
sba(imain2
Polygon
p861
(dp862
g3
(I14
I107
tp863
sg5
I200
sg6
(I54
I1
I216
I121
tp864
sg8
(lp865
(I17
I104
tp866
a(I0
I102
tp867
a(I6
I81
tp868
a(I0
I109
tp869
asg26
I200
sba(imain2
Polygon
p870
(dp871
g3
(I84
I159
tp872
sg5
I200
sg6
(I49
I11
I192
I0
tp873
sg8
(lp874
(I84
I140
tp875
a(I90
I134
tp876
a(I51
I133
tp877
a(I113
I185
tp878
a(I101
I200
tp879
a(I63
I158
tp880
a(I96
I165
tp881
a(I64
I172
tp882
asg26
I200
sba(imain2
Polygon
p883
(dp884
g3
(I141
I115
tp885
sg5
I200
sg6
(I236
I170
I168
I1
tp886
sg8
(lp887
(I95
I66
tp888
a(I152
I78
tp889
a(I126
I104
tp890
asg26
I200
sba(imain2
Polygon
p891
(dp892
g3
(I199
I78
tp893
sg5
I200
sg6
(I204
I201
I82
I120
tp894
sg8
(lp895
(I151
I34
tp896
a(I153
I30
tp897
a(I200
I32
tp898
a(I200
I125
tp899
a(I164
I113
tp900
a(I175
I100
tp901
a(I189
I127
tp902
asg26
I200
sba(imain2
Polygon
p903
(dp904
g3
(I167
I90
tp905
sg5
I200
sg6
(I35
I185
I28
I41
tp906
sg8
(lp907
(I200
I91
tp908
a(I200
I99
tp909
a(I182
I102
tp910
a(I200
I110
tp911
a(I172
I52
tp912
asg26
I200
sba(imain2
Polygon
p913
(dp914
g3
(I17
I14
tp915
sg5
I200
sg6
(I1
I7
I91
I18
tp916
sg8
(lp917
(I44
I0
tp918
a(I58
I8
tp919
a(I24
I22
tp920
a(I0
I8
tp921
a(I21
I0
tp922
a(I0
I0
tp923
a(I0
I17
tp924
a(I0
I29
tp925
a(I55
I54
tp926
a(I54
I3
tp927
a(I0
I50
tp928
a(I44
I1
tp929
a(I16
I31
tp930
a(I44
I37
tp931
asg26
I200
sba(imain2
Polygon
p932
(dp933
g3
(I190
I180
tp934
sg5
I200
sg6
(I224
I102
I46
I1
tp935
sg8
(lp936
(I197
I149
tp937
a(I156
I200
tp938
a(I200
I200
tp939
a(I176
I200
tp940
asg26
I200
sba(imain2
Polygon
p941
(dp942
g3
(I70
I166
tp943
sg5
I200
sg6
(I105
I177
I0
I0
tp944
sg8
(lp945
(I106
I200
tp946
a(I21
I192
tp947
a(I84
I188
tp948
a(I77
I128
tp949
a(I36
I127
tp950
a(I82
I200
tp951
a(I90
I195
tp952
a(I96
I132
tp953
a(I52
I183
tp954
asg26
I200
sba(imain2
Polygon
p955
(dp956
g3
(I196
I185
tp957
sg5
I200
sg6
(I17
I156
I128
I1
tp958
sg8
(lp959
(I200
I166
tp960
a(I198
I140
tp961
a(I150
I141
tp962
a(I167
I191
tp963
a(I151
I200
tp964
a(I150
I137
tp965
asg26
I200
sba(imain2
Polygon
p966
(dp967
g3
(I48
I123
tp968
sg5
I200
sg6
(I164
I42
I16
I88
tp969
sg8
(lp970
(I8
I113
tp971
a(I8
I127
tp972
a(I0
I97
tp973
a(I22
I76
tp974
a(I47
I100
tp975
a(I58
I146
tp976
a(I89
I76
tp977
a(I9
I121
tp978
a(I27
I162
tp979
a(I11
I146
tp980
a(I19
I151
tp981
asg26
I200
sba(imain2
Polygon
p982
(dp983
g3
(I59
I97
tp984
sg5
I200
sg6
(I202
I47
I127
I18
tp985
sg8
(lp986
(I70
I135
tp987
a(I85
I54
tp988
a(I108
I117
tp989
a(I70
I64
tp990
a(I44
I80
tp991
a(I107
I114
tp992
a(I67
I65
tp993
a(I101
I127
tp994
a(I108
I130
tp995
a(I56
I68
tp996
asg26
I200
sba(imain2
Polygon
p997
(dp998
g3
(I17
I149
tp999
sg5
I200
sg6
(I0
I35
I155
I0
tp1000
sg8
(lp1001
(I26
I188
tp1002
a(I0
I184
tp1003
a(I40
I138
tp1004
a(I0
I172
tp1005
a(I5
I196
tp1006
a(I0
I129
tp1007
a(I40
I145
tp1008
a(I44
I176
tp1009
asg26
I200
sba(imain2
Polygon
p1010
(dp1011
g3
(I88
I2
tp1012
sg5
I200
sg6
(I2
I101
I60
I44
tp1013
sg8
(lp1014
(I95
I0
tp1015
a(I76
I0
tp1016
a(I107
I6
tp1017
a(I48
I0
tp1018
a(I105
I20
tp1019
a(I82
I0
tp1020
a(I78
I0
tp1021
a(I85
I0
tp1022
a(I113
I12
tp1023
asg26
I200
sba(imain2
Polygon
p1024
(dp1025
g3
(I3
I161
tp1026
sg5
I200
sg6
(I174
I17
I188
I2
tp1027
sg8
(lp1028
(I46
I119
tp1029
a(I0
I169
tp1030
a(I0
I141
tp1031
a(I0
I194
tp1032
a(I0
I158
tp1033
a(I0
I163
tp1034
a(I0
I168
tp1035
a(I11
I145
tp1036
a(I0
I121
tp1037
a(I0
I200
tp1038
asg26
I200
sba(imain2
Polygon
p1039
(dp1040
g3
(I98
I58
tp1041
sg5
I200
sg6
(I36
I61
I167
I0
tp1042
sg8
(lp1043
(I126
I105
tp1044
a(I54
I55
tp1045
a(I145
I40
tp1046
a(I74
I104
tp1047
a(I52
I73
tp1048
asg26
I200
sba(imain2
Polygon
p1049
(dp1050
g3
(I109
I111
tp1051
sg5
I200
sg6
(I226
I36
I97
I1
tp1052
sg8
(lp1053
(I91
I100
tp1054
a(I96
I159
tp1055
a(I64
I113
tp1056
a(I109
I97
tp1057
a(I60
I145
tp1058
a(I103
I136
tp1059
a(I122
I76
tp1060
a(I74
I92
tp1061
a(I126
I115
tp1062
asg26
I200
sba(imain2
Polygon
p1063
(dp1064
g3
(I83
I155
tp1065
sg5
I200
sg6
(I201
I42
I180
I6
tp1066
sg8
(lp1067
(I104
I131
tp1068
a(I129
I115
tp1069
a(I132
I200
tp1070
a(I58
I195
tp1071
a(I112
I160
tp1072
a(I60
I111
tp1073
a(I50
I153
tp1074
a(I51
I131
tp1075
a(I87
I167
tp1076
a(I49
I160
tp1077
a(I78
I123
tp1078
a(I116
I131
tp1079
a(I76
I160
tp1080
a(I84
I144
tp1081
a(I73
I167
tp1082
a(I69
I148
tp1083
a(I112
I188
tp1084
a(I43
I119
tp1085
asg26
I200
sba(imain2
Polygon
p1086
(dp1087
g3
(I81
I21
tp1088
sg5
I200
sg6
(I136
I0
I25
I102
tp1089
sg8
(lp1090
(I65
I6
tp1091
a(I110
I0
tp1092
a(I90
I0
tp1093
a(I122
I60
tp1094
a(I103
I58
tp1095
a(I63
I3
tp1096
a(I117
I0
tp1097
a(I80
I0
tp1098
asg26
I200
sba(imain2
Polygon
p1099
(dp1100
g3
(I77
I115
tp1101
sg5
I200
sg6
(I91
I235
I217
I0
tp1102
sg8
(lp1103
(I39
I74
tp1104
a(I45
I102
tp1105
a(I63
I143
tp1106
a(I81
I144
tp1107
a(I32
I139
tp1108
a(I85
I78
tp1109
a(I76
I143
tp1110
asg26
I200
sba(imain2
Polygon
p1111
(dp1112
g3
(I108
I110
tp1113
sg5
I200
sg6
(I142
I114
I143
I1
tp1114
sg8
(lp1115
(I109
I74
tp1116
a(I143
I78
tp1117
a(I76
I135
tp1118
a(I129
I123
tp1119
a(I153
I68
tp1120
a(I129
I106
tp1121
a(I101
I139
tp1122
a(I68
I108
tp1123
a(I110
I143
tp1124
a(I109
I107
tp1125
a(I113
I121
tp1126
asg26
I200
sba(imain2
Polygon
p1127
(dp1128
g3
(I7
I122
tp1129
sg5
I200
sg6
(I150
I1
I155
I1
tp1130
sg8
(lp1131
(I1
I75
tp1132
a(I26
I136
tp1133
a(I5
I155
tp1134
a(I0
I168
tp1135
a(I15
I147
tp1136
a(I47
I143
tp1137
a(I0
I123
tp1138
a(I0
I77
tp1139
a(I48
I92
tp1140
a(I57
I139
tp1141
a(I15
I79
tp1142
a(I0
I145
tp1143
a(I0
I160
tp1144
a(I0
I145
tp1145
a(I24
I123
tp1146
a(I23
I87
tp1147
asg26
I200
sba(imain2
Polygon
p1148
(dp1149
g3
(I105
I20
tp1150
sg5
I200
sg6
(I211
I25
I227
I0
tp1151
sg8
(lp1152
(I124
I25
tp1153
a(I117
I17
tp1154
a(I81
I44
tp1155
a(I66
I0
tp1156
a(I143
I0
tp1157
a(I57
I22
tp1158
asg26
I200
sba(imain2
Polygon
p1159
(dp1160
g3
(I47
I80
tp1161
sg5
I200
sg6
(I106
I46
I113
I10
tp1162
sg8
(lp1163
(I55
I102
tp1164
a(I20
I55
tp1165
a(I24
I107
tp1166
a(I6
I49
tp1167
a(I87
I50
tp1168
a(I26
I77
tp1169
a(I19
I65
tp1170
a(I52
I37
tp1171
a(I11
I37
tp1172
a(I13
I128
tp1173
a(I45
I105
tp1174
a(I23
I50
tp1175
a(I85
I58
tp1176
a(I68
I94
tp1177
a(I82
I49
tp1178
a(I86
I34
tp1179
a(I84
I126
tp1180
a(I68
I74
tp1181
a(I54
I57
tp1182
a(I13
I123
tp1183
asg26
I200
sba(imain2
Polygon
p1184
(dp1185
g3
(I131
I30
tp1186
sg5
I200
sg6
(I202
I121
I168
I0
tp1187
sg8
(lp1188
(I120
I0
tp1189
a(I102
I0
tp1190
a(I162
I8
tp1191
asg26
I200
sba(imain2
Polygon
p1192
(dp1193
g3
(I199
I39
tp1194
sg5
I200
sg6
(I90
I187
I104
I53
tp1195
sg8
(lp1196
(I187
I1
tp1197
a(I150
I0
tp1198
a(I200
I89
tp1199
a(I200
I6
tp1200
asg26
I200
sba(imain2
Polygon
p1201
(dp1202
g3
(I110
I156
tp1203
sg5
I200
sg6
(I187
I90
I124
I0
tp1204
sg8
(lp1205
(I106
I166
tp1206
a(I138
I163
tp1207
a(I97
I173
tp1208
a(I131
I138
tp1209
a(I116
I137
tp1210
a(I160
I151
tp1211
a(I133
I138
tp1212
a(I153
I170
tp1213
a(I133
I146
tp1214
a(I63
I108
tp1215
a(I76
I200
tp1216
a(I138
I148
tp1217
a(I121
I145
tp1218
a(I144
I153
tp1219
a(I152
I115
tp1220
a(I153
I194
tp1221
asg26
I200
sba(imain2
Polygon
p1222
(dp1223
g3
(I14
I89
tp1224
sg5
I200
sg6
(I200
I19
I24
I70
tp1225
sg8
(lp1226
(I0
I61
tp1227
a(I49
I72
tp1228
a(I53
I72
tp1229
a(I55
I44
tp1230
a(I17
I118
tp1231
a(I0
I99
tp1232
a(I5
I50
tp1233
a(I11
I80
tp1234
a(I34
I109
tp1235
asg26
I200
sba(imain2
Polygon
p1236
(dp1237
g3
(I124
I127
tp1238
sg5
I200
sg6
(I172
I216
I170
I0
tp1239
sg8
(lp1240
(I154
I110
tp1241
a(I99
I92
tp1242
a(I81
I155
tp1243
a(I111
I115
tp1244
a(I147
I96
tp1245
a(I97
I169
tp1246
a(I170
I95
tp1247
a(I135
I124
tp1248
a(I104
I171
tp1249
a(I92
I110
tp1250
a(I82
I151
tp1251
a(I101
I170
tp1252
a(I154
I141
tp1253
asg26
I200
sba(imain2
Polygon
p1254
(dp1255
g3
(I97
I78
tp1256
sg5
I200
sg6
(I146
I200
I157
I0
tp1257
sg8
(lp1258
(I62
I103
tp1259
a(I66
I110
tp1260
a(I110
I111
tp1261
a(I135
I109
tp1262
a(I118
I78
tp1263
a(I78
I58
tp1264
a(I97
I51
tp1265
a(I108
I101
tp1266
a(I55
I62
tp1267
a(I54
I111
tp1268
a(I77
I65
tp1269
asg26
I200
sba(imain2
Polygon
p1270
(dp1271
g3
(I71
I43
tp1272
sg5
I200
sg6
(I218
I210
I118
I0
tp1273
sg8
(lp1274
(I22
I60
tp1275
a(I75
I22
tp1276
a(I79
I84
tp1277
a(I53
I38
tp1278
a(I62
I36
tp1279
a(I50
I41
tp1280
a(I24
I70
tp1281
a(I75
I14
tp1282
a(I39
I86
tp1283
a(I111
I75
tp1284
asg26
I200
sba(imain2
Polygon
p1285
(dp1286
g3
(I109
I75
tp1287
sg5
I200
sg6
(I108
I159
I66
I121
tp1288
sg8
(lp1289
(I63
I26
tp1290
a(I62
I79
tp1291
a(I120
I76
tp1292
a(I87
I26
tp1293
a(I64
I35
tp1294
a(I71
I69
tp1295
asg26
I200
sba(imain2
Polygon
p1296
(dp1297
g3
(I149
I45
tp1298
sg5
I200
sg6
(I206
I139
I126
I84
tp1299
sg8
(lp1300
(I199
I90
tp1301
a(I165
I70
tp1302
a(I161
I69
tp1303
a(I183
I12
tp1304
a(I128
I0
tp1305
a(I175
I87
tp1306
a(I158
I84
tp1307
a(I187
I0
tp1308
a(I194
I33
tp1309
a(I189
I0
tp1310
a(I130
I0
tp1311
a(I195
I19
tp1312
a(I199
I27
tp1313
asg26
I200
sba(imain2
Polygon
p1314
(dp1315
g3
(I29
I98
tp1316
sg5
I200
sg6
(I6
I134
I169
I35
tp1317
sg8
(lp1318
(I0
I145
tp1319
a(I62
I70
tp1320
a(I0
I73
tp1321
a(I0
I142
tp1322
a(I32
I77
tp1323
a(I67
I79
tp1324
a(I60
I84
tp1325
a(I0
I135
tp1326
a(I28
I90
tp1327
a(I56
I50
tp1328
a(I3
I123
tp1329
asg26
I200
sba(imain2
Polygon
p1330
(dp1331
g3
(I90
I62
tp1332
sg5
I200
sg6
(I176
I117
I130
I1
tp1333
sg8
(lp1334
(I71
I20
tp1335
a(I61
I49
tp1336
a(I54
I78
tp1337
a(I100
I106
tp1338
a(I119
I28
tp1339
a(I87
I21
tp1340
asg26
I200
sba(imain2
Polygon
p1341
(dp1342
g3
(I63
I49
tp1343
sg5
I200
sg6
(I219
I250
I133
I1
tp1344
sg8
(lp1345
(I75
I83
tp1346
a(I30
I15
tp1347
a(I53
I1
tp1348
a(I14
I3
tp1349
a(I16
I27
tp1350
a(I85
I25
tp1351
a(I69
I24
tp1352
a(I99
I65
tp1353
a(I24
I58
tp1354
a(I97
I41
tp1355
asg26
I200
sba(imain2
Polygon
p1356
(dp1357
g3
(I31
I132
tp1358
sg5
I200
sg6
(I73
I117
I196
I11
tp1359
sg8
(lp1360
(I8
I160
tp1361
a(I35
I167
tp1362
a(I5
I107
tp1363
a(I45
I179
tp1364
a(I53
I134
tp1365
a(I10
I143
tp1366
a(I31
I164
tp1367
a(I9
I172
tp1368
a(I0
I125
tp1369
a(I0
I146
tp1370
a(I14
I172
tp1371
a(I49
I135
tp1372
a(I28
I154
tp1373
a(I12
I140
tp1374
a(I69
I141
tp1375
asg26
I200
sba(imain2
Polygon
p1376
(dp1377
g3
(I80
I158
tp1378
sg5
I200
sg6
(I24
I42
I59
I1
tp1379
sg8
(lp1380
(I62
I145
tp1381
a(I114
I200
tp1382
a(I55
I186
tp1383
a(I94
I151
tp1384
a(I69
I136
tp1385
a(I105
I129
tp1386
a(I74
I194
tp1387
a(I65
I200
tp1388
a(I111
I109
tp1389
a(I55
I186
tp1390
a(I124
I119
tp1391
a(I102
I143
tp1392
a(I126
I180
tp1393
a(I37
I162
tp1394
a(I128
I170
tp1395
a(I82
I200
tp1396
a(I117
I168
tp1397
a(I120
I184
tp1398
a(I85
I183
tp1399
a(I80
I110
tp1400
a(I56
I174
tp1401
asg26
I200
sba(imain2
Polygon
p1402
(dp1403
g3
(I168
I51
tp1404
sg5
I200
sg6
(I98
I202
I209
I1
tp1405
sg8
(lp1406
(I120
I98
tp1407
a(I174
I19
tp1408
a(I200
I37
tp1409
a(I195
I54
tp1410
a(I119
I61
tp1411
a(I141
I16
tp1412
asg26
I200
sba(imain2
Polygon
p1413
(dp1414
g3
(I110
I14
tp1415
sg5
I200
sg6
(I156
I137
I49
I142
tp1416
sg8
(lp1417
(I118
I49
tp1418
a(I72
I59
tp1419
a(I101
I0
tp1420
a(I156
I0
tp1421
a(I158
I0
tp1422
a(I157
I28
tp1423
a(I144
I28
tp1424
a(I61
I0
tp1425
a(I67
I58
tp1426
a(I105
I0
tp1427
a(I140
I0
tp1428
a(I61
I0
tp1429
a(I77
I25
tp1430
asg26
I200
sba(imain2
Polygon
p1431
(dp1432
g3
(I85
I94
tp1433
sg5
I200
sg6
(I202
I232
I84
I64
tp1434
sg8
(lp1435
(I43
I56
tp1436
a(I110
I104
tp1437
a(I62
I48
tp1438
a(I105
I45
tp1439
a(I125
I73
tp1440
a(I92
I95
tp1441
a(I79
I138
tp1442
a(I109
I144
tp1443
a(I124
I111
tp1444
a(I62
I45
tp1445
a(I45
I66
tp1446
a(I55
I129
tp1447
a(I107
I102
tp1448
asg26
I200
sba(imain2
Polygon
p1449
(dp1450
g3
(I153
I81
tp1451
sg5
I200
sg6
(I121
I86
I189
I0
tp1452
sg8
(lp1453
(I165
I41
tp1454
a(I121
I118
tp1455
a(I150
I46
tp1456
a(I188
I103
tp1457
a(I163
I70
tp1458
a(I188
I127
tp1459
a(I194
I60
tp1460
a(I154
I91
tp1461
asg26
I200
sba(imain2
Polygon
p1462
(dp1463
g3
(I146
I37
tp1464
sg5
I200
sg6
(I227
I83
I156
I0
tp1465
sg8
(lp1466
(I166
I5
tp1467
a(I120
I58
tp1468
a(I105
I42
tp1469
a(I147
I30
tp1470
a(I170
I57
tp1471
a(I168
I0
tp1472
a(I187
I0
tp1473
asg26
I200
sba(imain2
Polygon
p1474
(dp1475
g3
(I36
I71
tp1476
sg5
I200
sg6
(I178
I119
I134
I0
tp1477
sg8
(lp1478
(I67
I92
tp1479
a(I15
I104
tp1480
a(I71
I32
tp1481
a(I14
I70
tp1482
a(I48
I38
tp1483
a(I0
I51
tp1484
a(I42
I81
tp1485
a(I50
I114
tp1486
a(I29
I32
tp1487
a(I61
I117
tp1488
a(I10
I121
tp1489
asg26
I200
sba(imain2
Polygon
p1490
(dp1491
g3
(I36
I181
tp1492
sg5
I200
sg6
(I143
I212
I96
I74
tp1493
sg8
(lp1494
(I78
I149
tp1495
a(I48
I150
tp1496
a(I81
I147
tp1497
a(I71
I200
tp1498
a(I13
I140
tp1499
a(I43
I172
tp1500
a(I0
I200
tp1501
a(I0
I149
tp1502
a(I66
I188
tp1503
a(I68
I200
tp1504
a(I71
I200
tp1505
asg26
I200
sba(imain2
Polygon
p1506
(dp1507
g3
(I94
I181
tp1508
sg5
I200
sg6
(I112
I48
I36
I0
tp1509
sg8
(lp1510
(I110
I200
tp1511
a(I73
I197
tp1512
a(I100
I142
tp1513
a(I119
I171
tp1514
a(I133
I167
tp1515
a(I44
I131
tp1516
a(I112
I200
tp1517
a(I122
I170
tp1518
a(I81
I200
tp1519
asg26
I200
sba(imain2
Polygon
p1520
(dp1521
g3
(I4
I26
tp1522
sg5
I200
sg6
(I27
I104
I59
I42
tp1523
sg8
(lp1524
(I25
I0
tp1525
a(I25
I0
tp1526
a(I1
I19
tp1527
a(I0
I38
tp1528
a(I0
I29
tp1529
a(I9
I3
tp1530
a(I54
I51
tp1531
a(I32
I59
tp1532
a(I0
I27
tp1533
a(I36
I14
tp1534
a(I0
I76
tp1535
a(I0
I0
tp1536
a(I48
I7
tp1537
a(I0
I38
tp1538
a(I30
I39
tp1539
asg26
I200
sba(imain2
Polygon
p1540
(dp1541
g3
(I14
I45
tp1542
sg5
I200
sg6
(I146
I107
I0
I0
tp1543
sg8
(lp1544
(I0
I56
tp1545
a(I31
I9
tp1546
a(I0
I69
tp1547
a(I26
I76
tp1548
a(I0
I32
tp1549
a(I21
I81
tp1550
a(I8
I81
tp1551
a(I0
I21
tp1552
a(I0
I73
tp1553
a(I37
I75
tp1554
asg26
I200
sba(imain2
Polygon
p1555
(dp1556
g3
(I103
I69
tp1557
sg5
I200
sg6
(I231
I218
I1
I40
tp1558
sg8
(lp1559
(I55
I36
tp1560
a(I53
I116
tp1561
a(I125
I109
tp1562
a(I135
I89
tp1563
a(I85
I19
tp1564
asg26
I200
sba(imain2
Polygon
p1565
(dp1566
g3
(I61
I77
tp1567
sg5
I200
sg6
(I60
I120
I190
I125
tp1568
sg8
(lp1569
(I106
I108
tp1570
a(I88
I94
tp1571
a(I89
I87
tp1572
asg26
I200
sba(imain2
Polygon
p1573
(dp1574
g3
(I36
I98
tp1575
sg5
I200
sg6
(I0
I199
I72
I41
tp1576
sg8
(lp1577
(I28
I97
tp1578
a(I4
I90
tp1579
a(I0
I121
tp1580
a(I0
I53
tp1581
a(I80
I75
tp1582
a(I30
I53
tp1583
a(I0
I53
tp1584
a(I38
I79
tp1585
a(I42
I52
tp1586
a(I19
I124
tp1587
asg26
I200
sba(imain2
Polygon
p1588
(dp1589
g3
(I20
I133
tp1590
sg5
I200
sg6
(I198
I238
I132
I78
tp1591
sg8
(lp1592
(I30
I179
tp1593
a(I0
I181
tp1594
a(I0
I175
tp1595
a(I21
I139
tp1596
a(I28
I170
tp1597
asg26
I200
sba(imain2
Polygon
p1598
(dp1599
g3
(I178
I74
tp1600
sg5
I200
sg6
(I31
I119
I25
I1
tp1601
sg8
(lp1602
(I193
I110
tp1603
a(I186
I112
tp1604
a(I200
I57
tp1605
a(I161
I83
tp1606
a(I200
I85
tp1607
a(I200
I79
tp1608
a(I140
I63
tp1609
asg26
I200
sba(imain2
Polygon
p1610
(dp1611
g3
(I191
I151
tp1612
sg5
I200
sg6
(I238
I38
I74
I59
tp1613
sg8
(lp1614
(I190
I106
tp1615
a(I200
I123
tp1616
a(I200
I189
tp1617
asg26
I200
sba(imain2
Polygon
p1618
(dp1619
g3
(I81
I200
tp1620
sg5
I200
sg6
(I41
I59
I159
I30
tp1621
sg8
(lp1622
(I63
I200
tp1623
a(I33
I187
tp1624
a(I38
I191
tp1625
a(I46
I200
tp1626
a(I69
I176
tp1627
a(I46
I200
tp1628
a(I103
I198
tp1629
a(I103
I200
tp1630
a(I95
I195
tp1631
asg26
I200
sba(imain2
Polygon
p1632
(dp1633
g3
(I8
I200
tp1634
sg5
I200
sg6
(I235
I14
I66
I133
tp1635
sg8
(lp1636
(I0
I200
tp1637
a(I0
I200
tp1638
a(I41
I200
tp1639
a(I52
I200
tp1640
a(I23
I200
tp1641
a(I0
I200
tp1642
a(I0
I200
tp1643
a(I0
I200
tp1644
a(I0
I200
tp1645
a(I23
I200
tp1646
asg26
I200
sba(imain2
Polygon
p1647
(dp1648
g3
(I12
I187
tp1649
sg5
I200
sg6
(I223
I0
I177
I1
tp1650
sg8
(lp1651
(I0
I172
tp1652
a(I0
I167
tp1653
a(I22
I200
tp1654
a(I0
I174
tp1655
a(I0
I174
tp1656
a(I49
I147
tp1657
a(I3
I200
tp1658
a(I0
I160
tp1659
a(I25
I200
tp1660
a(I0
I173
tp1661
a(I20
I145
tp1662
a(I16
I198
tp1663
a(I0
I200
tp1664
asg26
I200
sba(imain2
Polygon
p1665
(dp1666
g3
(I142
I43
tp1667
sg5
I200
sg6
(I49
I77
I163
I5
tp1668
sg8
(lp1669
(I129
I23
tp1670
a(I149
I90
tp1671
a(I148
I68
tp1672
a(I159
I5
tp1673
a(I118
I49
tp1674
a(I136
I59
tp1675
a(I106
I13
tp1676
a(I123
I43
tp1677
a(I150
I57
tp1678
a(I122
I35
tp1679
a(I124
I30
tp1680
a(I138
I19
tp1681
a(I152
I6
tp1682
a(I121
I37
tp1683
asg26
I200
sba(imain2
Polygon
p1684
(dp1685
g3
(I89
I37
tp1686
sg5
I200
sg6
(I0
I103
I197
I76
tp1687
sg8
(lp1688
(I104
I35
tp1689
a(I54
I51
tp1690
a(I55
I50
tp1691
asg26
I200
sba(imain2
Polygon
p1692
(dp1693
g3
(I43
I51
tp1694
sg5
I200
sg6
(I36
I141
I122
I1
tp1695
sg8
(lp1696
(I15
I67
tp1697
a(I36
I91
tp1698
a(I91
I92
tp1699
a(I54
I93
tp1700
a(I0
I85
tp1701
a(I47
I38
tp1702
a(I50
I77
tp1703
a(I62
I59
tp1704
a(I37
I59
tp1705
a(I76
I99
tp1706
a(I47
I50
tp1707
a(I2
I88
tp1708
a(I39
I83
tp1709
a(I88
I11
tp1710
a(I79
I30
tp1711
a(I52
I83
tp1712
a(I12
I42
tp1713
a(I15
I62
tp1714
asg26
I200
sba(imain2
Polygon
p1715
(dp1716
g3
(I23
I143
tp1717
sg5
I200
sg6
(I72
I246
I171
I44
tp1718
sg8
(lp1719
(I27
I98
tp1720
a(I0
I130
tp1721
a(I0
I188
tp1722
a(I29
I191
tp1723
a(I34
I148
tp1724
a(I0
I157
tp1725
a(I0
I133
tp1726
asg26
I200
sba(imain2
Polygon
p1727
(dp1728
g3
(I32
I143
tp1729
sg5
I200
sg6
(I52
I69
I161
I0
tp1730
sg8
(lp1731
(I61
I156
tp1732
a(I32
I159
tp1733
a(I63
I174
tp1734
a(I52
I121
tp1735
a(I45
I154
tp1736
a(I1
I141
tp1737
a(I0
I102
tp1738
a(I68
I151
tp1739
a(I55
I190
tp1740
a(I63
I118
tp1741
a(I41
I99
tp1742
a(I39
I147
tp1743
a(I55
I193
tp1744
a(I0
I152
tp1745
a(I53
I187
tp1746
a(I22
I122
tp1747
a(I64
I151
tp1748
asg26
I200
sba(imain2
Polygon
p1749
(dp1750
g3
(I69
I107
tp1751
sg5
I200
sg6
(I157
I228
I0
I11
tp1752
sg8
(lp1753
(I95
I66
tp1754
a(I48
I101
tp1755
a(I45
I119
tp1756
a(I103
I75
tp1757
a(I57
I154
tp1758
a(I49
I120
tp1759
a(I19
I90
tp1760
a(I93
I154
tp1761
a(I47
I112
tp1762
a(I69
I96
tp1763
a(I113
I129
tp1764
a(I73
I153
tp1765
asg26
I200
sba(imain2
Polygon
p1766
(dp1767
g3
(I172
I111
tp1768
sg5
I200
sg6
(I237
I212
I84
I124
tp1769
sg8
(lp1770
(I200
I62
tp1771
a(I200
I94
tp1772
a(I177
I85
tp1773
asg26
I200
sba(imain2
Polygon
p1774
(dp1775
g3
(I150
I91
tp1776
sg5
I200
sg6
(I8
I240
I86
I41
tp1777
sg8
(lp1778
(I174
I136
tp1779
a(I165
I69
tp1780
a(I174
I90
tp1781
a(I192
I141
tp1782
asg26
I200
sba(imain2
Polygon
p1783
(dp1784
g3
(I135
I188
tp1785
sg5
I200
sg6
(I76
I227
I6
I0
tp1786
sg8
(lp1787
(I175
I190
tp1788
a(I119
I200
tp1789
a(I184
I181
tp1790
a(I127
I200
tp1791
a(I141
I192
tp1792
a(I107
I200
tp1793
a(I87
I200
tp1794
a(I174
I151
tp1795
asg26
I200
sba(imain2
Polygon
p1796
(dp1797
g3
(I127
I113
tp1798
sg5
I200
sg6
(I133
I210
I151
I6
tp1799
sg8
(lp1800
(I116
I100
tp1801
a(I174
I63
tp1802
a(I164
I110
tp1803
a(I158
I139
tp1804
a(I111
I130
tp1805
asg26
I200
sba(imain2
Polygon
p1806
(dp1807
g3
(I173
I20
tp1808
sg5
I200
sg6
(I231
I1
I218
I1
tp1809
sg8
(lp1810
(I147
I47
tp1811
a(I198
I62
tp1812
a(I171
I46
tp1813
a(I200
I0
tp1814
a(I159
I22
tp1815
a(I154
I64
tp1816
a(I200
I50
tp1817
a(I152
I0
tp1818
a(I189
I36
tp1819
a(I123
I0
tp1820
a(I200
I0
tp1821
a(I172
I44
tp1822
a(I163
I0
tp1823
a(I173
I0
tp1824
a(I186
I12
tp1825
a(I200
I35
tp1826
asg26
I200
sba(imain2
Polygon
p1827
(dp1828
g3
(I100
I197
tp1829
sg5
I200
sg6
(I33
I102
I176
I64
tp1830
sg8
(lp1831
(I99
I200
tp1832
a(I118
I200
tp1833
a(I147
I200
tp1834
a(I104
I151
tp1835
a(I135
I187
tp1836
a(I106
I200
tp1837
a(I92
I200
tp1838
a(I85
I200
tp1839
a(I133
I200
tp1840
a(I139
I200
tp1841
a(I55
I200
tp1842
a(I121
I200
tp1843
asg26
I200
sba(imain2
Polygon
p1844
(dp1845
g3
(I70
I0
tp1846
sg5
I200
sg6
(I136
I0
I193
I1
tp1847
sg8
(lp1848
(I62
I0
tp1849
a(I115
I27
tp1850
a(I33
I15
tp1851
a(I90
I0
tp1852
a(I107
I0
tp1853
a(I44
I0
tp1854
a(I34
I24
tp1855
a(I63
I0
tp1856
asg26
I200
sba(imain2
Polygon
p1857
(dp1858
g3
(I106
I152
tp1859
sg5
I200
sg6
(I99
I162
I62
I66
tp1860
sg8
(lp1861
(I133
I114
tp1862
a(I119
I166
tp1863
a(I59
I200
tp1864
a(I140
I199
tp1865
a(I115
I114
tp1866
a(I85
I153
tp1867
a(I124
I140
tp1868
a(I138
I185
tp1869
a(I122
I150
tp1870
a(I68
I141
tp1871
a(I112
I141
tp1872
asg26
I200
sba(imain2
Polygon
p1873
(dp1874
g3
(I11
I38
tp1875
sg5
I200
sg6
(I110
I1
I124
I1
tp1876
sg8
(lp1877
(I11
I45
tp1878
a(I0
I37
tp1879
a(I35
I52
tp1880
a(I0
I12
tp1881
a(I8
I17
tp1882
a(I0
I79
tp1883
a(I52
I31
tp1884
a(I3
I4
tp1885
a(I13
I62
tp1886
a(I53
I84
tp1887
a(I0
I54
tp1888
asg26
I200
sba(imain2
Polygon
p1889
(dp1890
g3
(I23
I68
tp1891
sg5
I200
sg6
(I216
I111
I189
I123
tp1892
sg8
(lp1893
(I35
I109
tp1894
a(I24
I85
tp1895
a(I54
I19
tp1896
a(I25
I33
tp1897
a(I35
I32
tp1898
a(I64
I43
tp1899
a(I0
I19
tp1900
a(I0
I111
tp1901
a(I7
I98
tp1902
a(I38
I112
tp1903
a(I4
I66
tp1904
asg26
I200
sba(imain2
Polygon
p1905
(dp1906
g3
(I73
I8
tp1907
sg5
I200
sg6
(I106
I163
I20
I133
tp1908
sg8
(lp1909
(I33
I0
tp1910
a(I113
I0
tp1911
a(I27
I56
tp1912
a(I23
I45
tp1913
a(I27
I13
tp1914
a(I32
I0
tp1915
a(I44
I19
tp1916
a(I49
I29
tp1917
a(I58
I40
tp1918
asg26
I200
sba(imain2
Polygon
p1919
(dp1920
g3
(I175
I187
tp1921
sg5
I200
sg6
(I118
I193
I198
I53
tp1922
sg8
(lp1923
(I186
I200
tp1924
a(I170
I200
tp1925
a(I146
I200
tp1926
asg26
I200
sba(imain2
Polygon
p1927
(dp1928
g3
(I153
I195
tp1929
sg5
I200
sg6
(I54
I166
I29
I1
tp1930
sg8
(lp1931
(I179
I189
tp1932
a(I164
I149
tp1933
a(I123
I200
tp1934
a(I135
I200
tp1935
a(I158
I200
tp1936
a(I192
I184
tp1937
a(I181
I160
tp1938
a(I125
I147
tp1939
a(I153
I187
tp1940
a(I103
I196
tp1941
asg26
I200
sba(imain2
Polygon
p1942
(dp1943
g3
(I199
I6
tp1944
sg5
I200
sg6
(I143
I40
I87
I0
tp1945
sg8
(lp1946
(I156
I21
tp1947
a(I194
I0
tp1948
a(I200
I0
tp1949
a(I149
I0
tp1950
a(I200
I20
tp1951
a(I200
I0
tp1952
a(I173
I23
tp1953
a(I150
I2
tp1954
asg26
I200
sba(imain2
Polygon
p1955
(dp1956
g3
(I46
I191
tp1957
sg5
I200
sg6
(I91
I15
I8
I113
tp1958
sg8
(lp1959
(I69
I200
tp1960
a(I84
I189
tp1961
a(I89
I167
tp1962
a(I0
I200
tp1963
a(I0
I146
tp1964
a(I27
I155
tp1965
a(I79
I193
tp1966
a(I34
I181
tp1967
a(I35
I167
tp1968
asg26
I200
sba(imain2
Polygon
p1969
(dp1970
g3
(I144
I179
tp1971
sg5
I200
sg6
(I125
I32
I189
I40
tp1972
sg8
(lp1973
(I150
I154
tp1974
a(I153
I186
tp1975
a(I115
I194
tp1976
a(I130
I191
tp1977
a(I102
I180
tp1978
a(I191
I200
tp1979
a(I167
I200
tp1980
a(I113
I200
tp1981
a(I133
I183
tp1982
a(I99
I183
tp1983
a(I164
I155
tp1984
a(I148
I156
tp1985
a(I120
I177
tp1986
a(I154
I153
tp1987
a(I168
I199
tp1988
a(I168
I200
tp1989
asg26
I200
sba(imain2
Polygon
p1990
(dp1991
g3
(I120
I46
tp1992
sg5
I200
sg6
(I83
I82
I101
I52
tp1993
sg8
(lp1994
(I118
I65
tp1995
a(I133
I48
tp1996
a(I126
I24
tp1997
a(I97
I17
tp1998
a(I132
I30
tp1999
a(I113
I91
tp2000
a(I132
I24
tp2001
asg26
I200
sba(imain2
Polygon
p2002
(dp2003
g3
(I100
I144
tp2004
sg5
I200
sg6
(I123
I183
I166
I116
tp2005
sg8
(lp2006
(I112
I95
tp2007
a(I104
I138
tp2008
a(I98
I126
tp2009
a(I74
I100
tp2010
a(I73
I147
tp2011
a(I83
I152
tp2012
a(I125
I151
tp2013
a(I68
I158
tp2014
a(I56
I110
tp2015
a(I69
I97
tp2016
asg26
I200
sba(imain2
Polygon
p2017
(dp2018
g3
(I151
I184
tp2019
sg5
I200
sg6
(I139
I1
I175
I0
tp2020
sg8
(lp2021
(I141
I163
tp2022
a(I169
I169
tp2023
a(I122
I200
tp2024
a(I162
I159
tp2025
asg26
I200
sba(imain2
Polygon
p2026
(dp2027
g3
(I124
I187
tp2028
sg5
I200
sg6
(I25
I27
I210
I0
tp2029
sg8
(lp2030
(I154
I200
tp2031
a(I164
I200
tp2032
a(I90
I200
tp2033
a(I140
I200
tp2034
a(I119
I200
tp2035
a(I80
I200
tp2036
a(I143
I154
tp2037
a(I133
I200
tp2038
asg26
I200
sba(imain2
Polygon
p2039
(dp2040
g3
(I48
I52
tp2041
sg5
I200
sg6
(I247
I132
I158
I141
tp2042
sg8
(lp2043
(I58
I94
tp2044
a(I79
I94
tp2045
a(I97
I60
tp2046
a(I67
I7
tp2047
a(I35
I65
tp2048
a(I31
I93
tp2049
a(I88
I8
tp2050
a(I0
I3
tp2051
a(I0
I82
tp2052
a(I2
I102
tp2053
a(I65
I76
tp2054
a(I18
I85
tp2055
a(I75
I83
tp2056
asg26
I200
sba(imain2
Polygon
p2057
(dp2058
g3
(I139
I74
tp2059
sg5
I200
sg6
(I151
I190
I236
I86
tp2060
sg8
(lp2061
(I174
I48
tp2062
a(I189
I47
tp2063
a(I185
I26
tp2064
a(I157
I30
tp2065
a(I169
I88
tp2066
a(I187
I48
tp2067
asg26
I200
sba(imain2
Polygon
p2068
(dp2069
g3
(I161
I83
tp2070
sg5
I200
sg6
(I202
I148
I103
I29
tp2071
sg8
(lp2072
(I114
I113
tp2073
a(I114
I49
tp2074
a(I178
I77
tp2075
a(I155
I98
tp2076
a(I177
I113
tp2077
a(I199
I106
tp2078
a(I200
I106
tp2079
a(I200
I49
tp2080
a(I140
I35
tp2081
a(I197
I72
tp2082
a(I199
I71
tp2083
a(I145
I53
tp2084
a(I124
I126
tp2085
asg26
I200
sba(imain2
Polygon
p2086
(dp2087
g3
(I88
I36
tp2088
sg5
I200
sg6
(I1
I30
I71
I111
tp2089
sg8
(lp2090
(I80
I10
tp2091
a(I49
I39
tp2092
a(I102
I37
tp2093
a(I120
I27
tp2094
a(I125
I14
tp2095
a(I135
I16
tp2096
a(I71
I9
tp2097
a(I83
I9
tp2098
a(I58
I13
tp2099
asg26
I200
sba(imain2
Polygon
p2100
(dp2101
g3
(I12
I36
tp2102
sg5
I200
sg6
(I166
I102
I213
I0
tp2103
sg8
(lp2104
(I11
I65
tp2105
a(I29
I70
tp2106
a(I0
I69
tp2107
a(I21
I2
tp2108
a(I0
I79
tp2109
a(I0
I34
tp2110
asg26
I200
sba(imain2
Polygon
p2111
(dp2112
g3
(I79
I176
tp2113
sg5
I200
sg6
(I199
I84
I168
I102
tp2114
sg8
(lp2115
(I129
I200
tp2116
a(I119
I162
tp2117
a(I69
I200
tp2118
a(I128
I200
tp2119
a(I96
I200
tp2120
asg26
I200
sba(imain2
Polygon
p2121
(dp2122
g3
(I159
I193
tp2123
sg5
I200
sg6
(I188
I172
I62
I1
tp2124
sg8
(lp2125
(I118
I200
tp2126
a(I136
I181
tp2127
a(I185
I200
tp2128
a(I149
I200
tp2129
a(I111
I200
tp2130
a(I200
I196
tp2131
a(I192
I188
tp2132
a(I157
I200
tp2133
a(I129
I169
tp2134
a(I129
I200
tp2135
a(I176
I178
tp2136
a(I110
I181
tp2137
asg26
I200
sba(imain2
Polygon
p2138
(dp2139
g3
(I52
I197
tp2140
sg5
I200
sg6
(I164
I147
I228
I1
tp2141
sg8
(lp2142
(I87
I182
tp2143
a(I60
I200
tp2144
a(I29
I200
tp2145
a(I49
I200
tp2146
a(I14
I199
tp2147
a(I22
I181
tp2148
a(I16
I153
tp2149
a(I46
I170
tp2150
asg26
I200
sba(imain2
Polygon
p2151
(dp2152
g3
(I96
I168
tp2153
sg5
I200
sg6
(I81
I155
I163
I0
tp2154
sg8
(lp2155
(I105
I151
tp2156
a(I128
I200
tp2157
a(I56
I193
tp2158
a(I68
I178
tp2159
a(I72
I127
tp2160
a(I146
I166
tp2161
a(I145
I191
tp2162
a(I125
I166
tp2163
asg26
I200
sba(imain2
Polygon
p2164
(dp2165
g3
(I148
I67
tp2166
sg5
I200
sg6
(I211
I29
I21
I0
tp2167
sg8
(lp2168
(I132
I62
tp2169
a(I162
I93
tp2170
a(I136
I96
tp2171
a(I181
I47
tp2172
a(I165
I109
tp2173
a(I105
I34
tp2174
a(I99
I75
tp2175
a(I152
I25
tp2176
a(I102
I67
tp2177
a(I100
I97
tp2178
a(I106
I33
tp2179
a(I191
I88
tp2180
a(I159
I41
tp2181
a(I198
I101
tp2182
a(I117
I89
tp2183
asg26
I200
sba(imain2
Polygon
p2184
(dp2185
g3
(I185
I29
tp2186
sg5
I200
sg6
(I139
I164
I77
I80
tp2187
sg8
(lp2188
(I136
I0
tp2189
a(I199
I0
tp2190
a(I200
I25
tp2191
a(I174
I43
tp2192
a(I138
I31
tp2193
asg26
I200
sba(imain2
Polygon
p2194
(dp2195
g3
(I77
I185
tp2196
sg5
I200
sg6
(I28
I24
I96
I95
tp2197
sg8
(lp2198
(I122
I163
tp2199
a(I63
I154
tp2200
a(I110
I156
tp2201
a(I124
I169
tp2202
a(I40
I180
tp2203
a(I42
I200
tp2204
a(I35
I180
tp2205
a(I81
I200
tp2206
a(I64
I192
tp2207
a(I49
I200
tp2208
a(I102
I143
tp2209
a(I115
I140
tp2210
asg26
I200
sba(imain2
Polygon
p2211
(dp2212
g3
(I183
I173
tp2213
sg5
I200
sg6
(I108
I214
I86
I44
tp2214
sg8
(lp2215
(I200
I200
tp2216
a(I146
I200
tp2217
a(I200
I200
tp2218
a(I200
I125
tp2219
a(I137
I200
tp2220
asg26
I200
sba(imain2
Polygon
p2221
(dp2222
g3
(I141
I78
tp2223
sg5
I200
sg6
(I231
I87
I165
I1
tp2224
sg8
(lp2225
(I99
I101
tp2226
a(I182
I64
tp2227
a(I94
I70
tp2228
a(I162
I119
tp2229
a(I185
I74
tp2230
a(I149
I115
tp2231
a(I177
I35
tp2232
asg26
I200
sba(imain2
Polygon
p2233
(dp2234
g3
(I8
I10
tp2235
sg5
I200
sg6
(I61
I43
I73
I101
tp2236
sg8
(lp2237
(I33
I4
tp2238
a(I0
I0
tp2239
a(I30
I6
tp2240
a(I0
I0
tp2241
a(I30
I0
tp2242
asg26
I200
sba(imain2
Polygon
p2243
(dp2244
g3
(I37
I13
tp2245
sg5
I200
sg6
(I1
I114
I18
I115
tp2246
sg8
(lp2247
(I36
I0
tp2248
a(I16
I0
tp2249
a(I2
I0
tp2250
a(I19
I8
tp2251
a(I47
I4
tp2252
a(I33
I0
tp2253
a(I37
I0
tp2254
a(I53
I0
tp2255
a(I1
I0
tp2256
a(I38
I0
tp2257
a(I54
I0
tp2258
a(I41
I0
tp2259
asg26
I200
sba(imain2
Polygon
p2260
(dp2261
g3
(I168
I175
tp2262
sg5
I200
sg6
(I96
I55
I24
I0
tp2263
sg8
(lp2264
(I152
I200
tp2265
a(I120
I181
tp2266
a(I195
I166
tp2267
a(I189
I168
tp2268
a(I146
I200
tp2269
a(I200
I169
tp2270
a(I118
I182
tp2271
a(I158
I174
tp2272
a(I200
I200
tp2273
a(I122
I174
tp2274
asg26
I200
sba(imain2
Polygon
p2275
(dp2276
g3
(I75
I83
tp2277
sg5
I200
sg6
(I27
I33
I20
I0
tp2278
sg8
(lp2279
(I114
I59
tp2280
a(I50
I113
tp2281
a(I118
I51
tp2282
a(I103
I96
tp2283
a(I36
I53
tp2284
a(I51
I69
tp2285
a(I28
I131
tp2286
a(I93
I78
tp2287
a(I87
I115
tp2288
a(I115
I36
tp2289
a(I101
I82
tp2290
a(I71
I42
tp2291
a(I92
I54
tp2292
a(I89
I66
tp2293
asg26
I200
sba(imain2
Polygon
p2294
(dp2295
g3
(I18
I79
tp2296
sg5
I200
sg6
(I80
I1
I175
I107
tp2297
sg8
(lp2298
(I36
I125
tp2299
a(I43
I109
tp2300
a(I18
I107
tp2301
a(I43
I101
tp2302
a(I25
I110
tp2303
a(I12
I123
tp2304
a(I0
I103
tp2305
a(I0
I117
tp2306
a(I39
I119
tp2307
asg26
I200
sba(imain2
Polygon
p2308
(dp2309
g3
(I27
I28
tp2310
sg5
I200
sg6
(I221
I145
I39
I1
tp2311
sg8
(lp2312
(I68
I12
tp2313
a(I28
I26
tp2314
a(I19
I0
tp2315
a(I75
I77
tp2316
a(I71
I0
tp2317
a(I65
I38
tp2318
a(I19
I2
tp2319
a(I9
I62
tp2320
a(I0
I42
tp2321
a(I0
I0
tp2322
a(I49
I6
tp2323
a(I68
I73
tp2324
a(I16
I59
tp2325
a(I1
I0
tp2326
asg26
I200
sba(imain2
Polygon
p2327
(dp2328
g3
(I85
I60
tp2329
sg5
I200
sg6
(I84
I114
I12
I105
tp2330
sg8
(lp2331
(I115
I60
tp2332
a(I134
I87
tp2333
a(I55
I107
tp2334
a(I36
I62
tp2335
a(I72
I90
tp2336
a(I131
I73
tp2337
a(I117
I52
tp2338
a(I123
I32
tp2339
a(I108
I57
tp2340
asg26
I200
sba(imain2
Polygon
p2341
(dp2342
g3
(I45
I110
tp2343
sg5
I200
sg6
(I42
I239
I179
I50
tp2344
sg8
(lp2345
(I68
I158
tp2346
a(I45
I112
tp2347
a(I72
I109
tp2348
asg26
I200
sba(imain2
Polygon
p2349
(dp2350
g3
(I54
I138
tp2351
sg5
I200
sg6
(I117
I64
I186
I1
tp2352
sg8
(lp2353
(I18
I163
tp2354
a(I21
I111
tp2355
a(I69
I90
tp2356
a(I27
I135
tp2357
a(I95
I108
tp2358
a(I41
I128
tp2359
a(I15
I156
tp2360
a(I84
I118
tp2361
asg26
I200
sba(imain2
Polygon
p2362
(dp2363
g3
(I162
I123
tp2364
sg5
I200
sg6
(I44
I58
I71
I12
tp2365
sg8
(lp2366
(I175
I164
tp2367
a(I131
I118
tp2368
a(I200
I137
tp2369
a(I119
I112
tp2370
a(I125
I137
tp2371
a(I200
I106
tp2372
a(I180
I124
tp2373
a(I188
I77
tp2374
a(I123
I93
tp2375
a(I194
I111
tp2376
a(I185
I169
tp2377
a(I124
I157
tp2378
a(I147
I147
tp2379
a(I156
I80
tp2380
a(I161
I109
tp2381
a(I196
I165
tp2382
a(I177
I99
tp2383
a(I200
I97
tp2384
a(I122
I121
tp2385
asg26
I200
sba(imain2
Polygon
p2386
(dp2387
g3
(I144
I70
tp2388
sg5
I200
sg6
(I192
I39
I118
I30
tp2389
sg8
(lp2390
(I170
I95
tp2391
a(I169
I95
tp2392
a(I149
I71
tp2393
asg26
I200
sba(imain2
Polygon
p2394
(dp2395
g3
(I11
I36
tp2396
sg5
I200
sg6
(I145
I32
I77
I25
tp2397
sg8
(lp2398
(I0
I42
tp2399
a(I0
I45
tp2400
a(I0
I0
tp2401
a(I0
I0
tp2402
a(I18
I0
tp2403
a(I0
I31
tp2404
a(I0
I0
tp2405
a(I0
I35
tp2406
a(I1
I41
tp2407
asg26
I200
sba(imain2
Polygon
p2408
(dp2409
g3
(I85
I175
tp2410
sg5
I200
sg6
(I240
I52
I44
I1
tp2411
sg8
(lp2412
(I60
I200
tp2413
a(I112
I137
tp2414
a(I100
I133
tp2415
a(I108
I186
tp2416
a(I42
I200
tp2417
a(I66
I189
tp2418
a(I114
I192
tp2419
a(I100
I188
tp2420
a(I38
I152
tp2421
a(I116
I138
tp2422
a(I61
I131
tp2423
a(I89
I176
tp2424
a(I80
I162
tp2425
a(I116
I200
tp2426
asg26
I200
sba(imain2
Polygon
p2427
(dp2428
g3
(I78
I22
tp2429
sg5
I200
sg6
(I0
I239
I65
I0
tp2430
sg8
(lp2431
(I38
I0
tp2432
a(I47
I0
tp2433
a(I28
I18
tp2434
a(I112
I49
tp2435
a(I107
I0
tp2436
a(I80
I0
tp2437
a(I127
I21
tp2438
a(I88
I0
tp2439
a(I97
I0
tp2440
asg26
I200
sba(imain2
Polygon
p2441
(dp2442
g3
(I58
I165
tp2443
sg5
I200
sg6
(I74
I1
I134
I90
tp2444
sg8
(lp2445
(I40
I160
tp2446
a(I10
I120
tp2447
a(I46
I164
tp2448
a(I43
I143
tp2449
asg26
I200
sba(imain2
Polygon
p2450
(dp2451
g3
(I98
I69
tp2452
sg5
I200
sg6
(I73
I213
I127
I31
tp2453
sg8
(lp2454
(I111
I113
tp2455
a(I126
I99
tp2456
a(I78
I90
tp2457
asg26
I200
sba(imain2
Polygon
p2458
(dp2459
g3
(I184
I193
tp2460
sg5
I200
sg6
(I17
I62
I68
I1
tp2461
sg8
(lp2462
(I200
I177
tp2463
a(I185
I200
tp2464
a(I200
I163
tp2465
a(I200
I200
tp2466
a(I135
I200
tp2467
a(I159
I200
tp2468
asg26
I200
sba(imain2
Polygon
p2469
(dp2470
g3
(I136
I181
tp2471
sg5
I200
sg6
(I120
I127
I190
I0
tp2472
sg8
(lp2473
(I148
I200
tp2474
a(I87
I180
tp2475
a(I129
I164
tp2476
a(I115
I142
tp2477
a(I106
I200
tp2478
a(I127
I139
tp2479
a(I141
I181
tp2480
asg26
I200
sba(imain2
Polygon
p2481
(dp2482
g3
(I65
I69
tp2483
sg5
I200
sg6
(I101
I91
I153
I2
tp2484
sg8
(lp2485
(I24
I101
tp2486
a(I37
I51
tp2487
a(I89
I104
tp2488
a(I37
I106
tp2489
a(I63
I93
tp2490
a(I16
I47
tp2491
a(I26
I115
tp2492
a(I73
I48
tp2493
asg26
I200
sba(imain2
Polygon
p2494
(dp2495
g3
(I146
I60
tp2496
sg5
I200
sg6
(I1
I1
I199
I0
tp2497
sg8
(lp2498
(I167
I55
tp2499
a(I196
I53
tp2500
a(I126
I28
tp2501
a(I193
I89
tp2502
a(I135
I34
tp2503
asg26
I200
sba(imain2
Polygon
p2504
(dp2505
g3
(I7
I191
tp2506
sg5
I200
sg6
(I1
I165
I63
I1
tp2507
sg8
(lp2508
(I10
I188
tp2509
a(I0
I194
tp2510
a(I27
I178
tp2511
a(I0
I200
tp2512
a(I36
I192
tp2513
a(I0
I200
tp2514
a(I24
I148
tp2515
a(I56
I177
tp2516
a(I0
I143
tp2517
a(I0
I180
tp2518
a(I0
I200
tp2519
a(I32
I200
tp2520
a(I0
I200
tp2521
asg26
I200
sba(imain2
Polygon
p2522
(dp2523
g3
(I177
I12
tp2524
sg5
I200
sg6
(I0
I126
I137
I0
tp2525
sg8
(lp2526
(I179
I47
tp2527
a(I173
I36
tp2528
a(I131
I0
tp2529
a(I173
I62
tp2530
a(I134
I42
tp2531
a(I200
I50
tp2532
a(I200
I50
tp2533
a(I172
I22
tp2534
a(I132
I54
tp2535
asg26
I200
sba(imain2
Polygon
p2536
(dp2537
g3
(I98
I60
tp2538
sg5
I200
sg6
(I142
I36
I47
I1
tp2539
sg8
(lp2540
(I138
I25
tp2541
a(I98
I26
tp2542
a(I104
I32
tp2543
a(I147
I11
tp2544
a(I125
I68
tp2545
a(I77
I21
tp2546
asg26
I200
sba(imain2
Polygon
p2547
(dp2548
g3
(I26
I121
tp2549
sg5
I200
sg6
(I19
I111
I2
I83
tp2550
sg8
(lp2551
(I5
I167
tp2552
a(I39
I85
tp2553
a(I0
I101
tp2554
a(I0
I166
tp2555
a(I30
I111
tp2556
a(I14
I135
tp2557
a(I45
I83
tp2558
a(I52
I113
tp2559
a(I0
I157
tp2560
a(I37
I137
tp2561
asg26
I200
sba(imain2
Polygon
p2562
(dp2563
g3
(I59
I10
tp2564
sg5
I200
sg6
(I179
I55
I106
I127
tp2565
sg8
(lp2566
(I13
I0
tp2567
a(I70
I0
tp2568
a(I73
I6
tp2569
a(I69
I0
tp2570
a(I109
I0
tp2571
a(I101
I15
tp2572
a(I10
I0
tp2573
a(I17
I23
tp2574
asg26
I200
sba(imain2
Polygon
p2575
(dp2576
g3
(I171
I141
tp2577
sg5
I200
sg6
(I36
I196
I138
I1
tp2578
sg8
(lp2579
(I200
I170
tp2580
a(I145
I150
tp2581
a(I175
I116
tp2582
a(I198
I129
tp2583
a(I200
I145
tp2584
a(I190
I148
tp2585
a(I187
I97
tp2586
a(I200
I94
tp2587
asg26
I200
sba(imain2
Polygon
p2588
(dp2589
g3
(I80
I143
tp2590
sg5
I200
sg6
(I72
I75
I10
I114
tp2591
sg8
(lp2592
(I66
I140
tp2593
a(I70
I145
tp2594
a(I93
I192
tp2595
a(I130
I187
tp2596
a(I120
I141
tp2597
a(I69
I128
tp2598
a(I62
I133
tp2599
a(I71
I170
tp2600
a(I111
I114
tp2601
a(I86
I147
tp2602
asg26
I200
sba(imain2
Polygon
p2603
(dp2604
g3
(I191
I199
tp2605
sg5
I200
sg6
(I0
I223
I23
I1
tp2606
sg8
(lp2607
(I169
I200
tp2608
a(I177
I200
tp2609
a(I150
I150
tp2610
a(I193
I156
tp2611
a(I200
I200
tp2612
a(I200
I200
tp2613
a(I196
I200
tp2614
a(I141
I160
tp2615
asg26
I200
sba(imain2
Polygon
p2616
(dp2617
g3
(I6
I112
tp2618
sg5
I200
sg6
(I132
I70
I127
I61
tp2619
sg8
(lp2620
(I0
I137
tp2621
a(I0
I140
tp2622
a(I25
I84
tp2623
a(I0
I100
tp2624
a(I0
I158
tp2625
a(I0
I109
tp2626
asg26
I200
sba(imain2
Polygon
p2627
(dp2628
g3
(I189
I37
tp2629
sg5
I200
sg6
(I31
I237
I163
I51
tp2630
sg8
(lp2631
(I200
I41
tp2632
a(I191
I37
tp2633
a(I188
I0
tp2634
a(I199
I1
tp2635
asg26
I200
sba(imain2
Polygon
p2636
(dp2637
g3
(I121
I50
tp2638
sg5
I200
sg6
(I4
I72
I0
I0
tp2639
sg8
(lp2640
(I136
I45
tp2641
a(I142
I7
tp2642
a(I90
I40
tp2643
asg26
I200
sba(imain2
Polygon
p2644
(dp2645
g3
(I58
I165
tp2646
sg5
I200
sg6
(I142
I99
I2
I1
tp2647
sg8
(lp2648
(I22
I161
tp2649
a(I59
I187
tp2650
a(I9
I168
tp2651
a(I97
I177
tp2652
a(I20
I139
tp2653
a(I35
I200
tp2654
a(I99
I183
tp2655
a(I107
I152
tp2656
a(I56
I151
tp2657
a(I33
I161
tp2658
a(I83
I175
tp2659
asg26
I200
sba(imain2
Polygon
p2660
(dp2661
g3
(I155
I38
tp2662
sg5
I200
sg6
(I100
I107
I236
I90
tp2663
sg8
(lp2664
(I160
I2
tp2665
a(I162
I13
tp2666
a(I165
I27
tp2667
asg26
I200
sba(imain2
Polygon
p2668
(dp2669
g3
(I80
I130
tp2670
sg5
I200
sg6
(I223
I90
I0
I115
tp2671
sg8
(lp2672
(I90
I107
tp2673
a(I38
I91
tp2674
a(I127
I91
tp2675
a(I86
I180
tp2676
a(I90
I97
tp2677
a(I42
I107
tp2678
a(I57
I140
tp2679
a(I81
I161
tp2680
a(I95
I173
tp2681
a(I77
I124
tp2682
a(I91
I85
tp2683
a(I88
I146
tp2684
asg26
I200
sba(imain2
Polygon
p2685
(dp2686
g3
(I182
I31
tp2687
sg5
I200
sg6
(I111
I85
I112
I0
tp2688
sg8
(lp2689
(I200
I65
tp2690
a(I198
I51
tp2691
a(I135
I9
tp2692
a(I186
I37
tp2693
a(I164
I0
tp2694
a(I175
I40
tp2695
a(I151
I81
tp2696
a(I200
I11
tp2697
a(I200
I57
tp2698
a(I152
I25
tp2699
a(I188
I0
tp2700
a(I162
I2
tp2701
a(I154
I80
tp2702
a(I174
I47
tp2703
a(I195
I67
tp2704
a(I188
I45
tp2705
a(I182
I80
tp2706
a(I157
I72
tp2707
a(I145
I0
tp2708
a(I190
I38
tp2709
a(I200
I28
tp2710
a(I146
I24
tp2711
a(I133
I0
tp2712
asg26
I200
sba(imain2
Polygon
p2713
(dp2714
g3
(I164
I132
tp2715
sg5
I200
sg6
(I50
I68
I0
I1
tp2716
sg8
(lp2717
(I160
I87
tp2718
a(I136
I113
tp2719
a(I152
I112
tp2720
a(I158
I139
tp2721
a(I168
I173
tp2722
a(I180
I136
tp2723
a(I190
I82
tp2724
a(I138
I162
tp2725
a(I122
I127
tp2726
a(I186
I136
tp2727
a(I199
I84
tp2728
a(I175
I98
tp2729
a(I157
I141
tp2730
a(I185
I112
tp2731
asg26
I200
sba(imain2
Polygon
p2732
(dp2733
g3
(I67
I123
tp2734
sg5
I200
sg6
(I203
I168
I127
I71
tp2735
sg8
(lp2736
(I114
I101
tp2737
a(I112
I148
tp2738
a(I65
I154
tp2739
a(I43
I93
tp2740
a(I96
I92
tp2741
a(I107
I100
tp2742
a(I49
I107
tp2743
a(I115
I104
tp2744
a(I46
I107
tp2745
a(I101
I102
tp2746
a(I87
I99
tp2747
asg26
I200
sba(imain2
Polygon
p2748
(dp2749
g3
(I139
I46
tp2750
sg5
I200
sg6
(I2
I111
I83
I74
tp2751
sg8
(lp2752
(I185
I84
tp2753
a(I137
I74
tp2754
a(I164
I79
tp2755
asg26
I200
sba(imain2
Polygon
p2756
(dp2757
g3
(I137
I13
tp2758
sg5
I200
sg6
(I203
I131
I220
I5
tp2759
sg8
(lp2760
(I146
I0
tp2761
a(I180
I37
tp2762
a(I165
I55
tp2763
a(I139
I19
tp2764
a(I157
I0
tp2765
a(I100
I0
tp2766
a(I88
I17
tp2767
a(I160
I57
tp2768
a(I126
I14
tp2769
asg26
I200
sba(imain2
Polygon
p2770
(dp2771
g3
(I72
I81
tp2772
sg5
I200
sg6
(I239
I108
I82
I0
tp2773
sg8
(lp2774
(I113
I53
tp2775
a(I60
I76
tp2776
a(I26
I64
tp2777
a(I41
I126
tp2778
a(I57
I104
tp2779
a(I81
I126
tp2780
a(I65
I56
tp2781
a(I63
I131
tp2782
asg26
I200
sba(imain2
Polygon
p2783
(dp2784
g3
(I24
I70
tp2785
sg5
I200
sg6
(I6
I224
I8
I12
tp2786
sg8
(lp2787
(I37
I25
tp2788
a(I72
I32
tp2789
a(I2
I21
tp2790
a(I0
I105
tp2791
a(I15
I106
tp2792
a(I45
I114
tp2793
a(I46
I40
tp2794
asg26
I200
sba(imain2
Polygon
p2795
(dp2796
g3
(I144
I200
tp2797
sg5
I200
sg6
(I123
I88
I11
I0
tp2798
sg8
(lp2799
(I164
I200
tp2800
a(I121
I196
tp2801
a(I107
I168
tp2802
a(I185
I200
tp2803
a(I177
I200
tp2804
a(I105
I200
tp2805
a(I147
I151
tp2806
a(I181
I194
tp2807
a(I119
I181
tp2808
a(I98
I181
tp2809
a(I168
I183
tp2810
a(I103
I200
tp2811
a(I174
I196
tp2812
a(I175
I183
tp2813
a(I128
I200
tp2814
a(I162
I183
tp2815
a(I146
I200
tp2816
a(I145
I200
tp2817
a(I142
I200
tp2818
asg26
I200
sba(imain2
Polygon
p2819
(dp2820
g3
(I63
I64
tp2821
sg5
I200
sg6
(I192
I193
I44
I4
tp2822
sg8
(lp2823
(I103
I55
tp2824
a(I18
I106
tp2825
a(I18
I45
tp2826
a(I97
I38
tp2827
a(I97
I107
tp2828
a(I48
I88
tp2829
a(I43
I112
tp2830
asg26
I200
sba(imain2
Polygon
p2831
(dp2832
g3
(I87
I65
tp2833
sg5
I200
sg6
(I216
I55
I98
I0
tp2834
sg8
(lp2835
(I136
I80
tp2836
a(I52
I99
tp2837
a(I86
I83
tp2838
a(I52
I59
tp2839
a(I60
I111
tp2840
a(I137
I35
tp2841
a(I46
I88
tp2842
a(I47
I39
tp2843
a(I103
I111
tp2844
a(I96
I80
tp2845
a(I124
I65
tp2846
asg26
I200
sba(imain2
Polygon
p2847
(dp2848
g3
(I110
I191
tp2849
sg5
I200
sg6
(I160
I197
I225
I1
tp2850
sg8
(lp2851
(I132
I182
tp2852
a(I98
I178
tp2853
a(I157
I152
tp2854
a(I83
I180
tp2855
a(I122
I150
tp2856
a(I111
I200
tp2857
a(I151
I182
tp2858
a(I118
I200
tp2859
a(I78
I200
tp2860
a(I146
I200
tp2861
asg26
I200
sba(imain2
Polygon
p2862
(dp2863
g3
(I108
I110
tp2864
sg5
I200
sg6
(I98
I178
I164
I0
tp2865
sg8
(lp2866
(I101
I127
tp2867
a(I117
I114
tp2868
a(I112
I93
tp2869
a(I76
I126
tp2870
a(I100
I157
tp2871
a(I158
I88
tp2872
asg26
I200
sba(imain2
Polygon
p2873
(dp2874
g3
(I112
I52
tp2875
sg5
I200
sg6
(I81
I201
I79
I98
tp2876
sg8
(lp2877
(I158
I54
tp2878
a(I152
I56
tp2879
a(I149
I58
tp2880
asg26
I200
sba.