(lp0
(imain2
Polygon
p1
(dp2
S'origin'
p3
(I39
I29
tp4
sS'h'
p5
I200
sS'color'
p6
(I199
I24
I141
I100
tp7
sS'corner_list'
p8
(lp9
(I53
I25
tp10
a(I62
I29
tp11
a(I71
I41
tp12
a(I23
I77
tp13
a(I53
I0
tp14
a(I50
I57
tp15
a(I0
I33
tp16
a(I24
I0
tp17
a(I8
I0
tp18
a(I83
I19
tp19
a(I13
I38
tp20
a(I48
I22
tp21
a(I26
I65
tp22
a(I23
I51
tp23
a(I44
I3
tp24
a(I13
I77
tp25
a(I64
I0
tp26
asS'w'
p27
I200
sba(imain2
Polygon
p28
(dp29
g3
(I66
I177
tp30
sg5
I200
sg6
(I138
I58
I49
I46
tp31
sg8
(lp32
(I88
I192
tp33
a(I110
I179
tp34
a(I89
I186
tp35
a(I29
I176
tp36
a(I34
I200
tp37
a(I63
I167
tp38
a(I102
I200
tp39
asg27
I200
sba(imain2
Polygon
p40
(dp41
g3
(I59
I53
tp42
sg5
I200
sg6
(I110
I45
I109
I159
tp43
sg8
(lp44
(I106
I10
tp45
a(I26
I102
tp46
a(I10
I62
tp47
a(I32
I13
tp48
a(I66
I66
tp49
a(I63
I3
tp50
a(I15
I3
tp51
a(I40
I72
tp52
a(I30
I51
tp53
a(I38
I88
tp54
a(I94
I64
tp55
a(I106
I58
tp56
a(I91
I22
tp57
a(I92
I46
tp58
a(I76
I61
tp59
a(I104
I79
tp60
a(I89
I9
tp61
a(I31
I98
tp62
asg27
I200
sba(imain2
Polygon
p63
(dp64
g3
(I79
I99
tp65
sg5
I200
sg6
(I72
I89
I72
I109
tp66
sg8
(lp67
(I119
I65
tp68
a(I79
I132
tp69
a(I82
I84
tp70
a(I34
I68
tp71
a(I41
I82
tp72
a(I35
I63
tp73
a(I95
I66
tp74
a(I108
I103
tp75
a(I123
I57
tp76
a(I114
I125
tp77
a(I30
I114
tp78
asg27
I200
sba(imain2
Polygon
p79
(dp80
g3
(I200
I83
tp81
sg5
I200
sg6
(I168
I231
I66
I18
tp82
sg8
(lp83
(I200
I104
tp84
a(I168
I87
tp85
a(I153
I33
tp86
a(I200
I83
tp87
a(I200
I53
tp88
a(I177
I38
tp89
a(I167
I122
tp90
asg27
I200
sba(imain2
Polygon
p91
(dp92
g3
(I48
I136
tp93
sg5
I200
sg6
(I105
I110
I148
I83
tp94
sg8
(lp95
(I81
I141
tp96
a(I91
I112
tp97
a(I94
I141
tp98
a(I85
I153
tp99
a(I43
I102
tp100
a(I5
I168
tp101
a(I82
I166
tp102
a(I93
I184
tp103
a(I88
I108
tp104
a(I28
I107
tp105
a(I87
I101
tp106
a(I86
I178
tp107
a(I46
I130
tp108
a(I46
I109
tp109
a(I2
I151
tp110
a(I64
I175
tp111
a(I20
I153
tp112
a(I45
I165
tp113
a(I77
I105
tp114
a(I46
I90
tp115
a(I62
I176
tp116
asg27
I200
sba(imain2
Polygon
p117
(dp118
g3
(I118
I72
tp119
sg5
I200
sg6
(I135
I138
I61
I66
tp120
sg8
(lp121
(I106
I56
tp122
a(I105
I74
tp123
a(I99
I82
tp124
a(I89
I65
tp125
a(I118
I115
tp126
a(I126
I57
tp127
a(I103
I38
tp128
a(I68
I93
tp129
a(I104
I108
tp130
asg27
I200
sba(imain2
Polygon
p131
(dp132
g3
(I75
I194
tp133
sg5
I200
sg6
(I212
I87
I107
I26
tp134
sg8
(lp135
(I118
I184
tp136
a(I118
I200
tp137
a(I86
I177
tp138
a(I100
I167
tp139
a(I63
I200
tp140
asg27
I200
sba(imain2
Polygon
p141
(dp142
g3
(I7
I180
tp143
sg5
I200
sg6
(I234
I36
I0
I0
tp144
sg8
(lp145
(I15
I138
tp146
a(I0
I197
tp147
a(I52
I161
tp148
a(I0
I162
tp149
a(I16
I200
tp150
a(I13
I200
tp151
a(I0
I157
tp152
a(I50
I137
tp153
a(I0
I200
tp154
a(I0
I163
tp155
a(I36
I194
tp156
asg27
I200
sba(imain2
Polygon
p157
(dp158
g3
(I200
I5
tp159
sg5
I200
sg6
(I172
I76
I112
I41
tp160
sg8
(lp161
(I200
I29
tp162
a(I200
I0
tp163
a(I200
I0
tp164
a(I200
I49
tp165
a(I191
I0
tp166
a(I200
I40
tp167
a(I162
I46
tp168
a(I150
I1
tp169
a(I200
I0
tp170
a(I200
I45
tp171
a(I155
I15
tp172
a(I177
I47
tp173
asg27
I200
sba(imain2
Polygon
p174
(dp175
g3
(I180
I27
tp176
sg5
I200
sg6
(I107
I113
I155
I1
tp177
sg8
(lp178
(I189
I73
tp179
a(I149
I1
tp180
a(I161
I15
tp181
a(I151
I63
tp182
a(I200
I54
tp183
a(I174
I1
tp184
a(I163
I0
tp185
a(I130
I26
tp186
a(I158
I0
tp187
a(I160
I34
tp188
a(I155
I0
tp189
a(I169
I65
tp190
asg27
I200
sba(imain2
Polygon
p191
(dp192
g3
(I59
I197
tp193
sg5
I200
sg6
(I83
I208
I137
I148
tp194
sg8
(lp195
(I98
I200
tp196
a(I93
I157
tp197
a(I71
I197
tp198
asg27
I200
sba(imain2
Polygon
p199
(dp200
g3
(I129
I124
tp201
sg5
I200
sg6
(I171
I188
I98
I75
tp202
sg8
(lp203
(I100
I125
tp204
a(I122
I123
tp205
a(I82
I139
tp206
a(I130
I89
tp207
a(I111
I89
tp208
a(I90
I106
tp209
a(I88
I150
tp210
a(I133
I128
tp211
asg27
I200
sba(imain2
Polygon
p212
(dp213
g3
(I107
I2
tp214
sg5
I200
sg6
(I50
I0
I160
I124
tp215
sg8
(lp216
(I138
I0
tp217
a(I94
I20
tp218
a(I94
I0
tp219
a(I122
I0
tp220
a(I153
I0
tp221
a(I65
I17
tp222
a(I127
I0
tp223
a(I150
I0
tp224
a(I106
I7
tp225
a(I147
I0
tp226
asg27
I200
sba(imain2
Polygon
p227
(dp228
g3
(I25
I107
tp229
sg5
I200
sg6
(I103
I28
I172
I1
tp230
sg8
(lp231
(I49
I141
tp232
a(I48
I150
tp233
a(I26
I137
tp234
a(I0
I99
tp235
a(I4
I144
tp236
a(I58
I62
tp237
a(I42
I112
tp238
a(I20
I66
tp239
a(I72
I89
tp240
a(I47
I135
tp241
a(I22
I124
tp242
a(I71
I127
tp243
a(I3
I58
tp244
a(I27
I112
tp245
a(I0
I98
tp246
a(I0
I66
tp247
a(I56
I67
tp248
a(I0
I139
tp249
asg27
I200
sba(imain2
Polygon
p250
(dp251
g3
(I194
I197
tp252
sg5
I200
sg6
(I10
I200
I63
I102
tp253
sg8
(lp254
(I200
I187
tp255
a(I161
I170
tp256
a(I200
I172
tp257
a(I200
I164
tp258
a(I200
I166
tp259
asg27
I200
sba(imain2
Polygon
p260
(dp261
g3
(I8
I2
tp262
sg5
I200
sg6
(I204
I197
I218
I1
tp263
sg8
(lp264
(I30
I0
tp265
a(I54
I18
tp266
a(I0
I41
tp267
a(I0
I46
tp268
a(I40
I9
tp269
a(I0
I11
tp270
a(I51
I0
tp271
a(I19
I6
tp272
a(I31
I0
tp273
a(I0
I0
tp274
a(I54
I0
tp275
a(I34
I31
tp276
a(I42
I25
tp277
asg27
I200
sba(imain2
Polygon
p278
(dp279
g3
(I171
I144
tp280
sg5
I200
sg6
(I111
I157
I187
I0
tp281
sg8
(lp282
(I200
I105
tp283
a(I159
I135
tp284
a(I193
I132
tp285
a(I178
I143
tp286
a(I165
I123
tp287
a(I192
I106
tp288
a(I146
I161
tp289
asg27
I200
sba(imain2
Polygon
p290
(dp291
g3
(I44
I42
tp292
sg5
I200
sg6
(I80
I131
I76
I3
tp293
sg8
(lp294
(I72
I86
tp295
a(I29
I80
tp296
a(I27
I40
tp297
a(I71
I1
tp298
a(I76
I41
tp299
a(I55
I78
tp300
a(I3
I8
tp301
a(I25
I24
tp302
asg27
I200
sba(imain2
Polygon
p303
(dp304
g3
(I26
I99
tp305
sg5
I200
sg6
(I169
I98
I170
I84
tp306
sg8
(lp307
(I71
I87
tp308
a(I58
I122
tp309
a(I71
I79
tp310
a(I75
I72
tp311
a(I34
I147
tp312
asg27
I200
sba(imain2
Polygon
p313
(dp314
g3
(I114
I46
tp315
sg5
I200
sg6
(I96
I193
I193
I0
tp316
sg8
(lp317
(I117
I22
tp318
a(I107
I35
tp319
a(I78
I89
tp320
a(I90
I39
tp321
asg27
I200
sba(imain2
Polygon
p322
(dp323
g3
(I68
I194
tp324
sg5
I200
sg6
(I87
I196
I149
I0
tp325
sg8
(lp326
(I73
I200
tp327
a(I63
I182
tp328
a(I24
I200
tp329
a(I80
I187
tp330
a(I37
I200
tp331
a(I65
I200
tp332
a(I118
I168
tp333
asg27
I200
sba(imain2
Polygon
p334
(dp335
g3
(I200
I53
tp336
sg5
I200
sg6
(I179
I183
I163
I1
tp337
sg8
(lp338
(I181
I9
tp339
a(I200
I53
tp340
a(I200
I101
tp341
asg27
I200
sba(imain2
Polygon
p342
(dp343
g3
(I172
I155
tp344
sg5
I200
sg6
(I198
I79
I243
I1
tp345
sg8
(lp346
(I198
I200
tp347
a(I155
I156
tp348
a(I135
I150
tp349
a(I187
I116
tp350
a(I128
I145
tp351
a(I158
I120
tp352
a(I198
I191
tp353
a(I163
I186
tp354
a(I200
I107
tp355
a(I183
I117
tp356
a(I193
I200
tp357
a(I168
I116
tp358
a(I200
I141
tp359
a(I190
I187
tp360
asg27
I200
sba(imain2
Polygon
p361
(dp362
g3
(I154
I159
tp363
sg5
I200
sg6
(I54
I205
I33
I0
tp364
sg8
(lp365
(I104
I155
tp366
a(I116
I138
tp367
a(I167
I196
tp368
a(I167
I183
tp369
a(I162
I132
tp370
a(I108
I163
tp371
a(I200
I148
tp372
a(I129
I170
tp373
a(I117
I184
tp374
a(I195
I188
tp375
a(I105
I200
tp376
asg27
I200
sba(imain2
Polygon
p377
(dp378
g3
(I55
I59
tp379
sg5
I200
sg6
(I73
I196
I204
I0
tp380
sg8
(lp381
(I36
I9
tp382
a(I83
I49
tp383
a(I34
I76
tp384
a(I77
I97
tp385
a(I16
I96
tp386
a(I57
I36
tp387
a(I68
I83
tp388
a(I47
I28
tp389
a(I81
I9
tp390
a(I7
I48
tp391
a(I52
I62
tp392
a(I46
I53
tp393
a(I95
I74
tp394
a(I104
I40
tp395
asg27
I200
sba(imain2
Polygon
p396
(dp397
g3
(I127
I147
tp398
sg5
I200
sg6
(I46
I69
I116
I111
tp399
sg8
(lp400
(I109
I194
tp401
a(I78
I97
tp402
a(I91
I113
tp403
a(I114
I145
tp404
a(I97
I160
tp405
a(I161
I191
tp406
asg27
I200
sba(imain2
Polygon
p407
(dp408
g3
(I123
I114
tp409
sg5
I200
sg6
(I116
I1
I9
I1
tp410
sg8
(lp411
(I106
I132
tp412
a(I80
I136
tp413
a(I87
I109
tp414
a(I113
I76
tp415
a(I80
I67
tp416
a(I113
I116
tp417
a(I81
I102
tp418
a(I159
I73
tp419
a(I100
I148
tp420
asg27
I200
sba(imain2
Polygon
p421
(dp422
g3
(I2
I51
tp423
sg5
I200
sg6
(I124
I143
I222
I1
tp424
sg8
(lp425
(I0
I93
tp426
a(I0
I62
tp427
a(I0
I40
tp428
a(I0
I89
tp429
a(I40
I7
tp430
a(I50
I39
tp431
a(I0
I16
tp432
a(I0
I3
tp433
a(I1
I85
tp434
a(I45
I76
tp435
asg27
I200
sba(imain2
Polygon
p436
(dp437
g3
(I166
I21
tp438
sg5
I200
sg6
(I211
I245
I214
I87
tp439
sg8
(lp440
(I200
I0
tp441
a(I200
I59
tp442
a(I169
I70
tp443
a(I131
I0
tp444
a(I121
I10
tp445
a(I153
I0
tp446
a(I116
I5
tp447
a(I118
I13
tp448
a(I135
I0
tp449
a(I200
I0
tp450
a(I141
I29
tp451
asg27
I200
sba(imain2
Polygon
p452
(dp453
g3
(I110
I91
tp454
sg5
I200
sg6
(I127
I33
I30
I0
tp455
sg8
(lp456
(I122
I93
tp457
a(I90
I64
tp458
a(I158
I127
tp459
a(I118
I129
tp460
a(I102
I80
tp461
a(I111
I63
tp462
a(I73
I59
tp463
a(I119
I112
tp464
a(I68
I86
tp465
a(I147
I105
tp466
a(I129
I93
tp467
a(I140
I82
tp468
a(I94
I93
tp469
a(I91
I90
tp470
a(I94
I89
tp471
a(I76
I91
tp472
asg27
I200
sba(imain2
Polygon
p473
(dp474
g3
(I148
I41
tp475
sg5
I200
sg6
(I156
I1
I207
I0
tp476
sg8
(lp477
(I141
I0
tp478
a(I129
I14
tp479
a(I159
I68
tp480
a(I191
I63
tp481
a(I135
I86
tp482
a(I141
I76
tp483
a(I113
I73
tp484
a(I162
I51
tp485
a(I190
I0
tp486
a(I159
I33
tp487
a(I191
I57
tp488
a(I117
I86
tp489
a(I139
I8
tp490
asg27
I200
sba(imain2
Polygon
p491
(dp492
g3
(I188
I159
tp493
sg5
I200
sg6
(I161
I69
I67
I1
tp494
sg8
(lp495
(I200
I176
tp496
a(I166
I141
tp497
a(I184
I148
tp498
a(I187
I152
tp499
a(I200
I137
tp500
a(I183
I175
tp501
a(I197
I200
tp502
asg27
I200
sba(imain2
Polygon
p503
(dp504
g3
(I55
I106
tp505
sg5
I200
sg6
(I55
I90
I44
I4
tp506
sg8
(lp507
(I89
I98
tp508
a(I30
I90
tp509
a(I22
I90
tp510
a(I85
I102
tp511
a(I47
I155
tp512
a(I105
I88
tp513
a(I13
I106
tp514
a(I21
I156
tp515
a(I42
I127
tp516
a(I15
I152
tp517
a(I43
I133
tp518
asg27
I200
sba(imain2
Polygon
p519
(dp520
g3
(I118
I64
tp521
sg5
I200
sg6
(I130
I38
I4
I26
tp522
sg8
(lp523
(I151
I76
tp524
a(I82
I55
tp525
a(I146
I65
tp526
a(I79
I99
tp527
a(I152
I68
tp528
a(I125
I37
tp529
a(I68
I76
tp530
a(I130
I114
tp531
a(I122
I15
tp532
a(I98
I91
tp533
a(I84
I26
tp534
a(I88
I20
tp535
a(I156
I101
tp536
a(I160
I71
tp537
a(I114
I105
tp538
a(I147
I109
tp539
a(I90
I113
tp540
asg27
I200
sba(imain2
Polygon
p541
(dp542
g3
(I101
I127
tp543
sg5
I200
sg6
(I83
I173
I95
I86
tp544
sg8
(lp545
(I82
I132
tp546
a(I125
I83
tp547
a(I64
I85
tp548
a(I53
I122
tp549
a(I68
I116
tp550
asg27
I200
sba(imain2
Polygon
p551
(dp552
g3
(I42
I89
tp553
sg5
I200
sg6
(I18
I91
I179
I0
tp554
sg8
(lp555
(I54
I139
tp556
a(I60
I68
tp557
a(I84
I95
tp558
a(I17
I71
tp559
a(I74
I60
tp560
a(I48
I44
tp561
a(I90
I73
tp562
a(I7
I119
tp563
a(I60
I124
tp564
asg27
I200
sba(imain2
Polygon
p565
(dp566
g3
(I71
I151
tp567
sg5
I200
sg6
(I152
I169
I220
I141
tp568
sg8
(lp569
(I59
I125
tp570
a(I74
I126
tp571
a(I115
I198
tp572
a(I68
I200
tp573
a(I94
I176
tp574
a(I77
I200
tp575
a(I91
I177
tp576
a(I89
I164
tp577
asg27
I200
sba(imain2
Polygon
p578
(dp579
g3
(I13
I141
tp580
sg5
I200
sg6
(I246
I0
I197
I8
tp581
sg8
(lp582
(I0
I162
tp583
a(I0
I99
tp584
a(I0
I148
tp585
a(I0
I130
tp586
a(I0
I156
tp587
a(I0
I190
tp588
a(I53
I153
tp589
a(I0
I125
tp590
a(I3
I159
tp591
a(I11
I93
tp592
a(I38
I142
tp593
a(I0
I132
tp594
asg27
I200
sba(imain2
Polygon
p595
(dp596
g3
(I37
I11
tp597
sg5
I200
sg6
(I114
I18
I11
I105
tp598
sg8
(lp599
(I49
I0
tp600
a(I1
I0
tp601
a(I5
I26
tp602
a(I36
I37
tp603
a(I46
I0
tp604
a(I29
I11
tp605
asg27
I200
sba(imain2
Polygon
p606
(dp607
g3
(I97
I114
tp608
sg5
I200
sg6
(I147
I9
I202
I92
tp609
sg8
(lp610
(I62
I140
tp611
a(I96
I75
tp612
a(I62
I147
tp613
a(I78
I156
tp614
a(I126
I66
tp615
a(I62
I77
tp616
a(I102
I68
tp617
a(I111
I107
tp618
a(I103
I104
tp619
a(I63
I148
tp620
a(I89
I108
tp621
a(I116
I80
tp622
a(I82
I112
tp623
a(I72
I112
tp624
a(I76
I71
tp625
a(I109
I84
tp626
a(I80
I151
tp627
a(I73
I123
tp628
asg27
I200
sba(imain2
Polygon
p629
(dp630
g3
(I77
I12
tp631
sg5
I200
sg6
(I106
I1
I198
I0
tp632
sg8
(lp633
(I75
I13
tp634
a(I54
I19
tp635
a(I85
I0
tp636
a(I117
I47
tp637
a(I67
I54
tp638
a(I81
I49
tp639
a(I65
I53
tp640
a(I86
I30
tp641
a(I71
I18
tp642
a(I33
I5
tp643
asg27
I200
sba(imain2
Polygon
p644
(dp645
g3
(I114
I16
tp646
sg5
I200
sg6
(I1
I101
I178
I153
tp647
sg8
(lp648
(I157
I39
tp649
a(I125
I3
tp650
a(I64
I35
tp651
a(I70
I0
tp652
a(I160
I13
tp653
a(I109
I0
tp654
asg27
I200
sba(imain2
Polygon
p655
(dp656
g3
(I150
I10
tp657
sg5
I200
sg6
(I109
I59
I225
I166
tp658
sg8
(lp659
(I172
I0
tp660
a(I175
I1
tp661
a(I163
I8
tp662
a(I119
I0
tp663
a(I126
I0
tp664
a(I119
I18
tp665
a(I101
I0
tp666
a(I137
I0
tp667
a(I176
I52
tp668
a(I125
I0
tp669
asg27
I200
sba(imain2
Polygon
p670
(dp671
g3
(I41
I10
tp672
sg5
I200
sg6
(I114
I206
I84
I1
tp673
sg8
(lp674
(I57
I0
tp675
a(I85
I47
tp676
a(I8
I21
tp677
a(I9
I54
tp678
a(I27
I0
tp679
asg27
I200
sba(imain2
Polygon
p680
(dp681
g3
(I174
I159
tp682
sg5
I200
sg6
(I169
I108
I86
I109
tp683
sg8
(lp684
(I200
I125
tp685
a(I200
I200
tp686
a(I197
I200
tp687
a(I184
I191
tp688
a(I168
I116
tp689
asg27
I200
sba(imain2
Polygon
p690
(dp691
g3
(I61
I97
tp692
sg5
I200
sg6
(I123
I36
I107
I104
tp693
sg8
(lp694
(I45
I82
tp695
a(I76
I70
tp696
a(I56
I96
tp697
a(I26
I85
tp698
a(I64
I94
tp699
a(I31
I112
tp700
a(I94
I115
tp701
a(I96
I125
tp702
a(I91
I109
tp703
asg27
I200
sba(imain2
Polygon
p704
(dp705
g3
(I180
I97
tp706
sg5
I200
sg6
(I162
I155
I201
I4
tp707
sg8
(lp708
(I200
I88
tp709
a(I173
I145
tp710
a(I194
I78
tp711
a(I196
I47
tp712
a(I148
I47
tp713
a(I196
I113
tp714
a(I167
I53
tp715
a(I200
I142
tp716
asg27
I200
sba(imain2
Polygon
p717
(dp718
g3
(I101
I122
tp719
sg5
I200
sg6
(I165
I85
I0
I84
tp720
sg8
(lp721
(I79
I79
tp722
a(I63
I113
tp723
a(I81
I147
tp724
a(I106
I130
tp725
a(I90
I160
tp726
a(I118
I155
tp727
a(I135
I76
tp728
a(I61
I152
tp729
a(I83
I142
tp730
a(I98
I169
tp731
a(I123
I74
tp732
asg27
I200
sba(imain2
Polygon
p733
(dp734
g3
(I131
I15
tp735
sg5
I200
sg6
(I58
I128
I129
I1
tp736
sg8
(lp737
(I127
I30
tp738
a(I168
I0
tp739
a(I84
I0
tp740
a(I175
I0
tp741
a(I98
I0
tp742
a(I87
I0
tp743
a(I112
I10
tp744
a(I100
I0
tp745
a(I103
I9
tp746
a(I93
I0
tp747
a(I111
I0
tp748
a(I87
I2
tp749
asg27
I200
sba(imain2
Polygon
p750
(dp751
g3
(I113
I24
tp752
sg5
I200
sg6
(I157
I239
I0
I1
tp753
sg8
(lp754
(I144
I60
tp755
a(I142
I0
tp756
a(I114
I69
tp757
a(I143
I0
tp758
a(I125
I3
tp759
a(I115
I38
tp760
a(I92
I0
tp761
a(I84
I10
tp762
a(I84
I32
tp763
a(I118
I44
tp764
a(I79
I29
tp765
asg27
I200
sba(imain2
Polygon
p766
(dp767
g3
(I15
I21
tp768
sg5
I200
sg6
(I45
I43
I25
I1
tp769
sg8
(lp770
(I0
I55
tp771
a(I50
I40
tp772
a(I7
I0
tp773
a(I0
I0
tp774
a(I40
I33
tp775
a(I2
I17
tp776
a(I21
I0
tp777
asg27
I200
sba(imain2
Polygon
p778
(dp779
g3
(I75
I18
tp780
sg5
I200
sg6
(I119
I125
I39
I150
tp781
sg8
(lp782
(I80
I34
tp783
a(I30
I0
tp784
a(I115
I0
tp785
a(I90
I0
tp786
a(I110
I40
tp787
a(I29
I0
tp788
a(I86
I51
tp789
a(I46
I0
tp790
a(I40
I0
tp791
a(I82
I42
tp792
a(I65
I0
tp793
a(I41
I26
tp794
a(I118
I0
tp795
a(I74
I16
tp796
a(I25
I19
tp797
a(I53
I67
tp798
a(I111
I64
tp799
a(I97
I0
tp800
a(I33
I11
tp801
a(I72
I12
tp802
asg27
I200
sba(imain2
Polygon
p803
(dp804
g3
(I147
I31
tp805
sg5
I200
sg6
(I240
I1
I226
I157
tp806
sg8
(lp807
(I189
I0
tp808
a(I196
I42
tp809
a(I164
I35
tp810
a(I146
I28
tp811
a(I166
I48
tp812
a(I193
I77
tp813
a(I183
I0
tp814
a(I187
I24
tp815
a(I161
I29
tp816
a(I126
I17
tp817
a(I116
I7
tp818
a(I129
I0
tp819
asg27
I200
sba(imain2
Polygon
p820
(dp821
g3
(I43
I128
tp822
sg5
I200
sg6
(I89
I24
I106
I134
tp823
sg8
(lp824
(I7
I89
tp825
a(I0
I99
tp826
a(I12
I114
tp827
a(I12
I141
tp828
a(I15
I103
tp829
a(I39
I111
tp830
a(I19
I96
tp831
a(I82
I136
tp832
a(I25
I102
tp833
asg27
I200
sba(imain2
Polygon
p834
(dp835
g3
(I191
I52
tp836
sg5
I200
sg6
(I140
I143
I102
I1
tp837
sg8
(lp838
(I200
I4
tp839
a(I184
I3
tp840
a(I200
I9
tp841
a(I162
I10
tp842
a(I192
I71
tp843
a(I144
I44
tp844
a(I200
I28
tp845
a(I179
I86
tp846
a(I171
I88
tp847
asg27
I200
sba(imain2
Polygon
p848
(dp849
g3
(I124
I96
tp850
sg5
I200
sg6
(I222
I89
I122
I0
tp851
sg8
(lp852
(I79
I115
tp853
a(I139
I83
tp854
a(I142
I78
tp855
a(I156
I121
tp856
a(I88
I55
tp857
a(I97
I52
tp858
a(I112
I116
tp859
a(I172
I131
tp860
asg27
I200
sba(imain2
Polygon
p861
(dp862
g3
(I14
I107
tp863
sg5
I200
sg6
(I57
I0
I219
I140
tp864
sg8
(lp865
(I17
I104
tp866
a(I36
I114
tp867
a(I0
I102
tp868
a(I0
I111
tp869
a(I2
I119
tp870
a(I0
I104
tp871
a(I59
I117
tp872
asg27
I200
sba(imain2
Polygon
p873
(dp874
g3
(I84
I159
tp875
sg5
I200
sg6
(I51
I13
I193
I0
tp876
sg8
(lp877
(I83
I180
tp878
a(I86
I200
tp879
a(I62
I159
tp880
a(I98
I180
tp881
a(I113
I185
tp882
a(I132
I188
tp883
a(I119
I197
tp884
a(I44
I151
tp885
a(I117
I124
tp886
a(I109
I163
tp887
a(I59
I129
tp888
asg27
I200
sba(imain2
Polygon
p889
(dp890
g3
(I141
I115
tp891
sg5
I200
sg6
(I238
I171
I171
I0
tp892
sg8
(lp893
(I111
I163
tp894
a(I124
I94
tp895
a(I188
I72
tp896
asg27
I200
sba(imain2
Polygon
p897
(dp898
g3
(I199
I78
tp899
sg5
I200
sg6
(I205
I202
I85
I136
tp900
sg8
(lp901
(I151
I34
tp902
a(I200
I32
tp903
a(I200
I32
tp904
a(I200
I125
tp905
a(I164
I113
tp906
a(I192
I115
tp907
a(I189
I127
tp908
asg27
I200
sba(imain2
Polygon
p909
(dp910
g3
(I167
I90
tp911
sg5
I200
sg6
(I36
I189
I29
I66
tp912
sg8
(lp913
(I200
I94
tp914
a(I149
I78
tp915
a(I182
I102
tp916
a(I200
I135
tp917
a(I169
I91
tp918
a(I164
I106
tp919
a(I191
I117
tp920
asg27
I200
sba(imain2
Polygon
p921
(dp922
g3
(I17
I14
tp923
sg5
I200
sg6
(I0
I12
I92
I36
tp924
sg8
(lp925
(I34
I7
tp926
a(I0
I0
tp927
a(I13
I36
tp928
a(I50
I15
tp929
a(I0
I50
tp930
a(I28
I11
tp931
a(I60
I21
tp932
a(I48
I0
tp933
a(I0
I0
tp934
a(I67
I48
tp935
a(I37
I21
tp936
a(I22
I0
tp937
asg27
I200
sba(imain2
Polygon
p938
(dp939
g3
(I190
I180
tp940
sg5
I200
sg6
(I227
I106
I47
I1
tp941
sg8
(lp942
(I197
I149
tp943
a(I200
I142
tp944
a(I142
I196
tp945
asg27
I200
sba(imain2
Polygon
p946
(dp947
g3
(I70
I166
tp948
sg5
I200
sg6
(I107
I178
I3
I5
tp949
sg8
(lp950
(I76
I134
tp951
a(I117
I200
tp952
a(I73
I192
tp953
a(I82
I133
tp954
a(I27
I138
tp955
a(I109
I124
tp956
a(I48
I123
tp957
a(I90
I197
tp958
a(I52
I199
tp959
asg27
I200
sba(imain2
Polygon
p960
(dp961
g3
(I196
I185
tp962
sg5
I200
sg6
(I18
I159
I129
I0
tp963
sg8
(lp964
(I194
I183
tp965
a(I200
I191
tp966
a(I153
I136
tp967
a(I192
I153
tp968
a(I200
I197
tp969
a(I200
I176
tp970
a(I186
I148
tp971
a(I200
I157
tp972
asg27
I200
sba(imain2
Polygon
p973
(dp974
g3
(I48
I123
tp975
sg5
I200
sg6
(I165
I47
I20
I111
tp976
sg8
(lp977
(I8
I113
tp978
a(I59
I133
tp979
a(I18
I117
tp980
a(I0
I97
tp981
a(I72
I126
tp982
a(I75
I168
tp983
a(I58
I146
tp984
a(I93
I153
tp985
a(I82
I103
tp986
a(I9
I121
tp987
a(I23
I166
tp988
a(I11
I146
tp989
asg27
I200
sba(imain2
Polygon
p990
(dp991
g3
(I59
I97
tp992
sg5
I200
sg6
(I203
I50
I128
I35
tp993
sg8
(lp994
(I35
I56
tp995
a(I40
I77
tp996
a(I89
I86
tp997
a(I64
I66
tp998
a(I70
I64
tp999
a(I53
I127
tp1000
a(I58
I52
tp1001
a(I74
I82
tp1002
a(I93
I57
tp1003
a(I65
I136
tp1004
a(I56
I68
tp1005
asg27
I200
sba(imain2
Polygon
p1006
(dp1007
g3
(I17
I149
tp1008
sg5
I200
sg6
(I1
I36
I156
I1
tp1009
sg8
(lp1010
(I20
I122
tp1011
a(I0
I144
tp1012
a(I0
I181
tp1013
a(I28
I189
tp1014
a(I5
I196
tp1015
a(I27
I172
tp1016
a(I0
I101
tp1017
a(I58
I171
tp1018
asg27
I200
sba(imain2
Polygon
p1019
(dp1020
g3
(I88
I2
tp1021
sg5
I200
sg6
(I3
I102
I62
I65
tp1022
sg8
(lp1023
(I50
I0
tp1024
a(I95
I7
tp1025
a(I115
I0
tp1026
a(I53
I0
tp1027
a(I49
I0
tp1028
a(I126
I0
tp1029
a(I85
I17
tp1030
a(I105
I20
tp1031
a(I117
I0
tp1032
a(I82
I0
tp1033
a(I73
I49
tp1034
a(I78
I0
tp1035
a(I88
I28
tp1036
asg27
I200
sba(imain2
Polygon
p1037
(dp1038
g3
(I3
I161
tp1039
sg5
I200
sg6
(I177
I18
I191
I22
tp1040
sg8
(lp1041
(I24
I146
tp1042
a(I28
I185
tp1043
a(I30
I152
tp1044
a(I9
I149
tp1045
a(I9
I162
tp1046
a(I3
I146
tp1047
a(I10
I173
tp1048
a(I0
I164
tp1049
a(I0
I170
tp1050
a(I0
I145
tp1051
a(I0
I138
tp1052
a(I0
I121
tp1053
asg27
I200
sba(imain2
Polygon
p1054
(dp1055
g3
(I98
I58
tp1056
sg5
I200
sg6
(I38
I65
I170
I0
tp1057
sg8
(lp1058
(I92
I81
tp1059
a(I98
I84
tp1060
a(I85
I107
tp1061
a(I64
I12
tp1062
asg27
I200
sba(imain2
Polygon
p1063
(dp1064
g3
(I109
I111
tp1065
sg5
I200
sg6
(I228
I37
I100
I13
tp1066
sg8
(lp1067
(I148
I132
tp1068
a(I65
I139
tp1069
a(I62
I83
tp1070
a(I117
I140
tp1071
a(I63
I108
tp1072
a(I124
I120
tp1073
a(I102
I78
tp1074
a(I109
I142
tp1075
asg27
I200
sba(imain2
Polygon
p1076
(dp1077
g3
(I83
I155
tp1078
sg5
I200
sg6
(I203
I44
I183
I36
tp1079
sg8
(lp1080
(I92
I163
tp1081
a(I42
I116
tp1082
a(I102
I200
tp1083
a(I132
I200
tp1084
a(I73
I148
tp1085
a(I112
I160
tp1086
a(I106
I115
tp1087
a(I103
I118
tp1088
a(I77
I161
tp1089
a(I62
I200
tp1090
a(I131
I190
tp1091
a(I120
I173
tp1092
a(I51
I184
tp1093
a(I64
I176
tp1094
a(I66
I129
tp1095
a(I72
I130
tp1096
a(I99
I200
tp1097
asg27
I200
sba(imain2
Polygon
p1098
(dp1099
g3
(I81
I21
tp1100
sg5
I200
sg6
(I137
I0
I27
I129
tp1101
sg8
(lp1102
(I69
I0
tp1103
a(I78
I20
tp1104
a(I43
I48
tp1105
a(I79
I5
tp1106
a(I122
I60
tp1107
a(I88
I45
tp1108
a(I63
I3
tp1109
asg27
I200
sba(imain2
Polygon
p1110
(dp1111
g3
(I77
I115
tp1112
sg5
I200
sg6
(I94
I242
I219
I0
tp1113
sg8
(lp1114
(I70
I164
tp1115
a(I55
I91
tp1116
a(I35
I77
tp1117
a(I95
I85
tp1118
a(I62
I79
tp1119
a(I85
I78
tp1120
asg27
I200
sba(imain2
Polygon
p1121
(dp1122
g3
(I108
I110
tp1123
sg5
I200
sg6
(I144
I115
I144
I1
tp1124
sg8
(lp1125
(I109
I74
tp1126
a(I132
I95
tp1127
a(I129
I91
tp1128
a(I152
I114
tp1129
a(I115
I134
tp1130
a(I75
I81
tp1131
a(I88
I60
tp1132
a(I84
I78
tp1133
a(I128
I134
tp1134
a(I110
I143
tp1135
a(I129
I139
tp1136
asg27
I200
sba(imain2
Polygon
p1137
(dp1138
g3
(I7
I122
tp1139
sg5
I200
sg6
(I153
I3
I158
I1
tp1140
sg8
(lp1141
(I53
I94
tp1142
a(I42
I98
tp1143
a(I54
I156
tp1144
a(I0
I168
tp1145
a(I0
I167
tp1146
a(I28
I84
tp1147
a(I25
I137
tp1148
a(I37
I144
tp1149
a(I18
I77
tp1150
a(I0
I77
tp1151
a(I0
I149
tp1152
a(I0
I161
tp1153
a(I0
I165
tp1154
a(I36
I133
tp1155
a(I0
I164
tp1156
a(I35
I151
tp1157
a(I0
I96
tp1158
asg27
I200
sba(imain2
Polygon
p1159
(dp1160
g3
(I105
I20
tp1161
sg5
I200
sg6
(I212
I28
I228
I0
tp1162
sg8
(lp1163
(I93
I47
tp1164
a(I99
I0
tp1165
a(I129
I65
tp1166
a(I129
I0
tp1167
a(I148
I4
tp1168
a(I70
I44
tp1169
a(I96
I0
tp1170
a(I143
I0
tp1171
asg27
I200
sba(imain2
Polygon
p1172
(dp1173
g3
(I47
I80
tp1174
sg5
I200
sg6
(I109
I48
I114
I36
tp1175
sg8
(lp1176
(I88
I110
tp1177
a(I68
I48
tp1178
a(I60
I119
tp1179
a(I5
I121
tp1180
a(I45
I74
tp1181
a(I61
I51
tp1182
a(I94
I123
tp1183
a(I78
I96
tp1184
a(I87
I51
tp1185
a(I28
I59
tp1186
a(I13
I128
tp1187
a(I58
I108
tp1188
a(I46
I78
tp1189
a(I37
I61
tp1190
a(I19
I101
tp1191
a(I14
I102
tp1192
a(I66
I52
tp1193
a(I20
I93
tp1194
a(I68
I74
tp1195
asg27
I200
sba(imain2
Polygon
p1196
(dp1197
g3
(I131
I30
tp1198
sg5
I200
sg6
(I205
I124
I171
I4
tp1199
sg8
(lp1200
(I172
I55
tp1201
a(I152
I65
tp1202
a(I104
I47
tp1203
a(I153
I41
tp1204
asg27
I200
sba(imain2
Polygon
p1205
(dp1206
g3
(I199
I39
tp1207
sg5
I200
sg6
(I94
I190
I107
I63
tp1208
sg8
(lp1209
(I178
I52
tp1210
a(I187
I1
tp1211
a(I150
I0
tp1212
a(I200
I89
tp1213
a(I200
I6
tp1214
a(I189
I0
tp1215
asg27
I200
sba(imain2
Polygon
p1216
(dp1217
g3
(I110
I156
tp1218
sg5
I200
sg6
(I190
I91
I127
I0
tp1219
sg8
(lp1220
(I63
I144
tp1221
a(I136
I197
tp1222
a(I87
I176
tp1223
a(I106
I160
tp1224
a(I103
I145
tp1225
a(I142
I107
tp1226
a(I144
I124
tp1227
a(I104
I157
tp1228
a(I75
I182
tp1229
a(I96
I148
tp1230
a(I131
I113
tp1231
a(I85
I187
tp1232
a(I147
I189
tp1233
a(I76
I164
tp1234
asg27
I200
sba(imain2
Polygon
p1235
(dp1236
g3
(I14
I89
tp1237
sg5
I200
sg6
(I201
I21
I25
I90
tp1238
sg8
(lp1239
(I0
I70
tp1240
a(I49
I72
tp1241
a(I53
I72
tp1242
a(I55
I44
tp1243
a(I17
I118
tp1244
asg27
I200
sba(imain2
Polygon
p1245
(dp1246
g3
(I124
I127
tp1247
sg5
I200
sg6
(I173
I218
I173
I1
tp1248
sg8
(lp1249
(I134
I100
tp1250
a(I78
I136
tp1251
a(I98
I106
tp1252
a(I111
I115
tp1253
a(I147
I96
tp1254
a(I130
I168
tp1255
a(I104
I119
tp1256
a(I171
I139
tp1257
a(I157
I125
tp1258
a(I153
I94
tp1259
a(I123
I89
tp1260
a(I92
I110
tp1261
asg27
I200
sba(imain2
Polygon
p1262
(dp1263
g3
(I97
I78
tp1264
sg5
I200
sg6
(I147
I202
I158
I0
tp1265
sg8
(lp1266
(I113
I61
tp1267
a(I62
I103
tp1268
a(I83
I75
tp1269
a(I87
I100
tp1270
a(I107
I104
tp1271
a(I53
I80
tp1272
a(I90
I44
tp1273
a(I98
I57
tp1274
a(I69
I107
tp1275
a(I115
I117
tp1276
a(I137
I65
tp1277
asg27
I200
sba(imain2
Polygon
p1278
(dp1279
g3
(I71
I43
tp1280
sg5
I200
sg6
(I219
I214
I119
I1
tp1281
sg8
(lp1282
(I107
I87
tp1283
a(I95
I41
tp1284
a(I77
I56
tp1285
a(I86
I48
tp1286
a(I114
I0
tp1287
a(I119
I14
tp1288
a(I48
I51
tp1289
a(I47
I52
tp1290
asg27
I200
sba(imain2
Polygon
p1291
(dp1292
g3
(I109
I75
tp1293
sg5
I200
sg6
(I110
I165
I69
I135
tp1294
sg8
(lp1295
(I63
I26
tp1296
a(I62
I79
tp1297
a(I120
I76
tp1298
a(I87
I26
tp1299
asg27
I200
sba(imain2
Polygon
p1300
(dp1301
g3
(I149
I45
tp1302
sg5
I200
sg6
(I207
I141
I127
I86
tp1303
sg8
(lp1304
(I199
I90
tp1305
a(I193
I78
tp1306
a(I161
I69
tp1307
a(I183
I12
tp1308
a(I143
I12
tp1309
a(I175
I87
tp1310
a(I158
I84
tp1311
a(I187
I0
tp1312
a(I185
I0
tp1313
a(I187
I0
tp1314
a(I130
I0
tp1315
a(I187
I18
tp1316
a(I198
I21
tp1317
asg27
I200
sba(imain2
Polygon
p1318
(dp1319
g3
(I29
I98
tp1320
sg5
I200
sg6
(I6
I135
I170
I50
tp1321
sg8
(lp1322
(I28
I112
tp1323
a(I62
I70
tp1324
a(I0
I92
tp1325
a(I46
I51
tp1326
a(I40
I138
tp1327
a(I19
I62
tp1328
a(I40
I82
tp1329
a(I7
I82
tp1330
a(I39
I54
tp1331
a(I60
I84
tp1332
a(I49
I70
tp1333
a(I28
I90
tp1334
asg27
I200
sba(imain2
Polygon
p1335
(dp1336
g3
(I90
I62
tp1337
sg5
I200
sg6
(I177
I118
I131
I0
tp1338
sg8
(lp1339
(I44
I112
tp1340
a(I109
I49
tp1341
a(I129
I98
tp1342
a(I109
I81
tp1343
a(I116
I81
tp1344
a(I136
I94
tp1345
a(I100
I106
tp1346
a(I94
I104
tp1347
a(I46
I96
tp1348
a(I79
I34
tp1349
asg27
I200
sba(imain2
Polygon
p1350
(dp1351
g3
(I63
I49
tp1352
sg5
I200
sg6
(I220
I251
I137
I1
tp1353
sg8
(lp1354
(I51
I74
tp1355
a(I98
I72
tp1356
a(I53
I1
tp1357
a(I93
I34
tp1358
a(I82
I92
tp1359
a(I66
I88
tp1360
a(I81
I55
tp1361
a(I94
I27
tp1362
a(I104
I97
tp1363
a(I100
I13
tp1364
asg27
I200
sba(imain2
Polygon
p1365
(dp1366
g3
(I31
I132
tp1367
sg5
I200
sg6
(I74
I118
I196
I37
tp1368
sg8
(lp1369
(I0
I123
tp1370
a(I35
I167
tp1371
a(I3
I115
tp1372
a(I0
I167
tp1373
a(I30
I175
tp1374
a(I10
I143
tp1375
a(I34
I118
tp1376
a(I55
I103
tp1377
a(I5
I173
tp1378
a(I35
I163
tp1379
a(I0
I111
tp1380
a(I49
I139
tp1381
a(I49
I135
tp1382
asg27
I200
sba(imain2
Polygon
p1383
(dp1384
g3
(I80
I158
tp1385
sg5
I200
sg6
(I24
I44
I61
I0
tp1386
sg8
(lp1387
(I43
I138
tp1388
a(I119
I172
tp1389
a(I104
I142
tp1390
a(I116
I150
tp1391
a(I30
I162
tp1392
a(I97
I118
tp1393
a(I111
I110
tp1394
a(I95
I171
tp1395
a(I74
I194
tp1396
a(I30
I174
tp1397
a(I50
I171
tp1398
a(I72
I163
tp1399
a(I55
I200
tp1400
a(I112
I146
tp1401
a(I78
I187
tp1402
a(I37
I162
tp1403
a(I58
I122
tp1404
a(I126
I161
tp1405
a(I73
I124
tp1406
a(I120
I184
tp1407
asg27
I200
sba(imain2
Polygon
p1408
(dp1409
g3
(I168
I51
tp1410
sg5
I200
sg6
(I101
I205
I209
I1
tp1411
sg8
(lp1412
(I123
I53
tp1413
a(I121
I66
tp1414
a(I200
I23
tp1415
a(I153
I39
tp1416
a(I124
I80
tp1417
a(I173
I84
tp1418
a(I200
I12
tp1419
a(I146
I34
tp1420
a(I135
I101
tp1421
a(I200
I49
tp1422
asg27
I200
sba(imain2
Polygon
p1423
(dp1424
g3
(I110
I14
tp1425
sg5
I200
sg6
(I157
I137
I49
I156
tp1426
sg8
(lp1427
(I118
I49
tp1428
a(I93
I61
tp1429
a(I101
I0
tp1430
a(I156
I0
tp1431
a(I158
I0
tp1432
a(I153
I19
tp1433
a(I144
I28
tp1434
a(I65
I3
tp1435
a(I67
I58
tp1436
a(I105
I0
tp1437
a(I70
I0
tp1438
a(I61
I0
tp1439
asg27
I200
sba(imain2
Polygon
p1440
(dp1441
g3
(I85
I94
tp1442
sg5
I200
sg6
(I204
I234
I85
I66
tp1443
sg8
(lp1444
(I62
I116
tp1445
a(I110
I104
tp1446
a(I73
I58
tp1447
a(I105
I45
tp1448
a(I125
I73
tp1449
a(I129
I68
tp1450
a(I68
I108
tp1451
a(I109
I144
tp1452
a(I124
I111
tp1453
a(I62
I45
tp1454
a(I45
I66
tp1455
a(I55
I129
tp1456
a(I74
I60
tp1457
asg27
I200
sba(imain2
Polygon
p1458
(dp1459
g3
(I153
I81
tp1460
sg5
I200
sg6
(I122
I87
I190
I2
tp1461
sg8
(lp1462
(I190
I116
tp1463
a(I172
I36
tp1464
a(I138
I80
tp1465
a(I163
I84
tp1466
a(I162
I85
tp1467
a(I127
I120
tp1468
a(I182
I97
tp1469
a(I106
I123
tp1470
asg27
I200
sba(imain2
Polygon
p1471
(dp1472
g3
(I146
I37
tp1473
sg5
I200
sg6
(I227
I85
I158
I0
tp1474
sg8
(lp1475
(I104
I12
tp1476
a(I109
I72
tp1477
a(I129
I6
tp1478
a(I111
I12
tp1479
a(I117
I80
tp1480
a(I190
I51
tp1481
a(I157
I74
tp1482
a(I164
I41
tp1483
a(I150
I65
tp1484
asg27
I200
sba(imain2
Polygon
p1485
(dp1486
g3
(I36
I71
tp1487
sg5
I200
sg6
(I178
I121
I136
I1
tp1488
sg8
(lp1489
(I58
I121
tp1490
a(I82
I65
tp1491
a(I60
I30
tp1492
a(I14
I70
tp1493
a(I42
I113
tp1494
a(I48
I38
tp1495
a(I3
I70
tp1496
a(I52
I28
tp1497
a(I75
I42
tp1498
a(I46
I58
tp1499
a(I35
I104
tp1500
a(I74
I119
tp1501
asg27
I200
sba(imain2
Polygon
p1502
(dp1503
g3
(I36
I181
tp1504
sg5
I200
sg6
(I143
I213
I97
I95
tp1505
sg8
(lp1506
(I78
I149
tp1507
a(I60
I152
tp1508
a(I21
I155
tp1509
a(I0
I170
tp1510
a(I52
I149
tp1511
a(I50
I141
tp1512
a(I71
I200
tp1513
a(I13
I140
tp1514
a(I43
I172
tp1515
a(I80
I200
tp1516
a(I55
I200
tp1517
a(I66
I188
tp1518
a(I86
I136
tp1519
a(I60
I200
tp1520
asg27
I200
sba(imain2
Polygon
p1521
(dp1522
g3
(I94
I181
tp1523
sg5
I200
sg6
(I112
I50
I36
I1
tp1524
sg8
(lp1525
(I61
I200
tp1526
a(I136
I200
tp1527
a(I74
I200
tp1528
a(I72
I156
tp1529
a(I117
I185
tp1530
a(I56
I136
tp1531
a(I88
I185
tp1532
a(I130
I199
tp1533
a(I115
I200
tp1534
asg27
I200
sba(imain2
Polygon
p1535
(dp1536
g3
(I4
I26
tp1537
sg5
I200
sg6
(I29
I105
I61
I65
tp1538
sg8
(lp1539
(I43
I0
tp1540
a(I49
I74
tp1541
a(I26
I19
tp1542
a(I21
I31
tp1543
a(I0
I38
tp1544
a(I9
I3
tp1545
a(I54
I51
tp1546
a(I7
I69
tp1547
a(I0
I66
tp1548
a(I0
I27
tp1549
a(I0
I27
tp1550
a(I10
I24
tp1551
a(I0
I0
tp1552
a(I21
I16
tp1553
a(I0
I0
tp1554
a(I0
I52
tp1555
a(I0
I38
tp1556
asg27
I200
sba(imain2
Polygon
p1557
(dp1558
g3
(I14
I45
tp1559
sg5
I200
sg6
(I149
I108
I1
I1
tp1560
sg8
(lp1561
(I32
I34
tp1562
a(I21
I22
tp1563
a(I0
I36
tp1564
a(I42
I1
tp1565
a(I0
I24
tp1566
a(I0
I84
tp1567
a(I60
I29
tp1568
a(I0
I82
tp1569
a(I52
I8
tp1570
a(I0
I68
tp1571
a(I8
I23
tp1572
a(I31
I80
tp1573
asg27
I200
sba(imain2
Polygon
p1574
(dp1575
g3
(I103
I69
tp1576
sg5
I200
sg6
(I233
I219
I1
I45
tp1577
sg8
(lp1578
(I87
I21
tp1579
a(I53
I51
tp1580
a(I57
I81
tp1581
a(I127
I84
tp1582
a(I135
I89
tp1583
a(I101
I49
tp1584
asg27
I200
sba(imain2
Polygon
p1585
(dp1586
g3
(I61
I77
tp1587
sg5
I200
sg6
(I62
I123
I192
I145
tp1588
sg8
(lp1589
(I90
I104
tp1590
a(I88
I94
tp1591
a(I101
I92
tp1592
a(I87
I88
tp1593
asg27
I200
sba(imain2
Polygon
p1594
(dp1595
g3
(I36
I98
tp1596
sg5
I200
sg6
(I0
I201
I75
I60
tp1597
sg8
(lp1598
(I15
I55
tp1599
a(I4
I90
tp1600
a(I0
I121
tp1601
a(I0
I53
tp1602
a(I32
I115
tp1603
a(I30
I53
tp1604
a(I0
I53
tp1605
a(I78
I124
tp1606
asg27
I200
sba(imain2
Polygon
p1607
(dp1608
g3
(I20
I133
tp1609
sg5
I200
sg6
(I201
I239
I135
I99
tp1610
sg8
(lp1611
(I30
I179
tp1612
a(I0
I181
tp1613
a(I0
I175
tp1614
a(I2
I152
tp1615
asg27
I200
sba(imain2
Polygon
p1616
(dp1617
g3
(I178
I74
tp1618
sg5
I200
sg6
(I32
I122
I33
I1
tp1619
sg8
(lp1620
(I170
I49
tp1621
a(I128
I75
tp1622
a(I163
I121
tp1623
a(I143
I41
tp1624
a(I200
I95
tp1625
a(I200
I59
tp1626
a(I176
I80
tp1627
a(I164
I74
tp1628
asg27
I200
sba(imain2
Polygon
p1629
(dp1630
g3
(I191
I151
tp1631
sg5
I200
sg6
(I241
I45
I77
I75
tp1632
sg8
(lp1633
(I190
I106
tp1634
a(I189
I120
tp1635
a(I175
I104
tp1636
asg27
I200
sba(imain2
Polygon
p1637
(dp1638
g3
(I81
I200
tp1639
sg5
I200
sg6
(I43
I59
I161
I53
tp1640
sg8
(lp1641
(I63
I200
tp1642
a(I33
I187
tp1643
a(I129
I174
tp1644
a(I85
I184
tp1645
a(I101
I156
tp1646
a(I51
I198
tp1647
a(I101
I200
tp1648
a(I94
I200
tp1649
a(I46
I200
tp1650
a(I62
I200
tp1651
a(I31
I200
tp1652
a(I87
I164
tp1653
asg27
I200
sba(imain2
Polygon
p1654
(dp1655
g3
(I8
I200
tp1656
sg5
I200
sg6
(I237
I15
I68
I158
tp1657
sg8
(lp1658
(I0
I200
tp1659
a(I0
I200
tp1660
a(I0
I200
tp1661
a(I2
I200
tp1662
a(I0
I196
tp1663
a(I0
I200
tp1664
a(I0
I199
tp1665
a(I31
I155
tp1666
a(I0
I200
tp1667
a(I0
I195
tp1668
asg27
I200
sba(imain2
Polygon
p1669
(dp1670
g3
(I12
I187
tp1671
sg5
I200
sg6
(I224
I1
I180
I0
tp1672
sg8
(lp1673
(I0
I140
tp1674
a(I0
I200
tp1675
a(I54
I200
tp1676
a(I0
I174
tp1677
a(I0
I200
tp1678
a(I59
I200
tp1679
a(I0
I191
tp1680
a(I36
I168
tp1681
a(I51
I153
tp1682
a(I13
I200
tp1683
asg27
I200
sba(imain2
Polygon
p1684
(dp1685
g3
(I142
I43
tp1686
sg5
I200
sg6
(I51
I78
I166
I34
tp1687
sg8
(lp1688
(I132
I26
tp1689
a(I147
I48
tp1690
a(I162
I61
tp1691
a(I131
I41
tp1692
a(I187
I91
tp1693
a(I136
I29
tp1694
a(I138
I14
tp1695
a(I123
I43
tp1696
a(I157
I33
tp1697
a(I122
I35
tp1698
a(I153
I44
tp1699
a(I138
I19
tp1700
a(I158
I17
tp1701
a(I122
I27
tp1702
a(I177
I2
tp1703
asg27
I200
sba(imain2
Polygon
p1704
(dp1705
g3
(I89
I37
tp1706
sg5
I200
sg6
(I0
I104
I198
I99
tp1707
sg8
(lp1708
(I104
I35
tp1709
a(I54
I51
tp1710
a(I55
I50
tp1711
asg27
I200
sba(imain2
Polygon
p1712
(dp1713
g3
(I43
I51
tp1714
sg5
I200
sg6
(I38
I142
I123
I0
tp1715
sg8
(lp1716
(I37
I89
tp1717
a(I71
I76
tp1718
a(I91
I92
tp1719
a(I85
I2
tp1720
a(I30
I90
tp1721
a(I47
I38
tp1722
a(I39
I44
tp1723
a(I65
I24
tp1724
a(I89
I46
tp1725
a(I60
I23
tp1726
a(I1
I100
tp1727
a(I89
I89
tp1728
a(I39
I83
tp1729
a(I76
I55
tp1730
a(I42
I4
tp1731
a(I14
I58
tp1732
a(I22
I62
tp1733
a(I59
I9
tp1734
asg27
I200
sba(imain2
Polygon
p1735
(dp1736
g3
(I23
I143
tp1737
sg5
I200
sg6
(I76
I248
I174
I72
tp1738
sg8
(lp1739
(I6
I147
tp1740
a(I23
I157
tp1741
a(I4
I149
tp1742
a(I0
I188
tp1743
a(I29
I191
tp1744
a(I25
I165
tp1745
a(I57
I187
tp1746
asg27
I200
sba(imain2
Polygon
p1747
(dp1748
g3
(I32
I143
tp1749
sg5
I200
sg6
(I53
I74
I163
I3
tp1750
sg8
(lp1751
(I61
I156
tp1752
a(I79
I188
tp1753
a(I5
I104
tp1754
a(I0
I107
tp1755
a(I50
I122
tp1756
a(I44
I162
tp1757
a(I76
I146
tp1758
a(I70
I178
tp1759
a(I55
I127
tp1760
a(I28
I176
tp1761
a(I62
I174
tp1762
a(I0
I114
tp1763
a(I39
I147
tp1764
a(I66
I157
tp1765
asg27
I200
sba(imain2
Polygon
p1766
(dp1767
g3
(I69
I107
tp1768
sg5
I200
sg6
(I162
I229
I1
I26
tp1769
sg8
(lp1770
(I92
I73
tp1771
a(I40
I61
tp1772
a(I104
I157
tp1773
a(I58
I92
tp1774
a(I103
I75
tp1775
a(I70
I101
tp1776
a(I72
I136
tp1777
a(I52
I64
tp1778
a(I93
I154
tp1779
a(I52
I77
tp1780
a(I69
I96
tp1781
a(I113
I129
tp1782
asg27
I200
sba(imain2
Polygon
p1783
(dp1784
g3
(I172
I111
tp1785
sg5
I200
sg6
(I238
I216
I87
I141
tp1786
sg8
(lp1787
(I162
I84
tp1788
a(I200
I88
tp1789
a(I177
I85
tp1790
asg27
I200
sba(imain2
Polygon
p1791
(dp1792
g3
(I150
I91
tp1793
sg5
I200
sg6
(I10
I244
I88
I57
tp1794
sg8
(lp1795
(I191
I127
tp1796
a(I169
I84
tp1797
a(I165
I85
tp1798
a(I174
I90
tp1799
a(I191
I123
tp1800
asg27
I200
sba(imain2
Polygon
p1801
(dp1802
g3
(I135
I188
tp1803
sg5
I200
sg6
(I79
I231
I8
I0
tp1804
sg8
(lp1805
(I155
I145
tp1806
a(I174
I200
tp1807
a(I90
I186
tp1808
a(I97
I156
tp1809
a(I142
I179
tp1810
a(I177
I190
tp1811
a(I121
I200
tp1812
asg27
I200
sba(imain2
Polygon
p1813
(dp1814
g3
(I127
I113
tp1815
sg5
I200
sg6
(I134
I216
I151
I30
tp1816
sg8
(lp1817
(I109
I131
tp1818
a(I101
I135
tp1819
a(I148
I82
tp1820
a(I81
I98
tp1821
a(I82
I125
tp1822
asg27
I200
sba(imain2
Polygon
p1823
(dp1824
g3
(I173
I20
tp1825
sg5
I200
sg6
(I231
I1
I219
I1
tp1826
sg8
(lp1827
(I147
I47
tp1828
a(I145
I56
tp1829
a(I182
I3
tp1830
a(I200
I0
tp1831
a(I180
I2
tp1832
a(I200
I18
tp1833
a(I136
I19
tp1834
a(I148
I37
tp1835
a(I189
I36
tp1836
a(I185
I0
tp1837
a(I186
I0
tp1838
a(I200
I12
tp1839
a(I149
I40
tp1840
asg27
I200
sba(imain2
Polygon
p1841
(dp1842
g3
(I100
I197
tp1843
sg5
I200
sg6
(I38
I103
I179
I84
tp1844
sg8
(lp1845
(I70
I200
tp1846
a(I118
I200
tp1847
a(I147
I200
tp1848
a(I104
I151
tp1849
a(I135
I187
tp1850
a(I106
I200
tp1851
a(I137
I200
tp1852
a(I71
I200
tp1853
a(I135
I200
tp1854
a(I72
I198
tp1855
a(I133
I200
tp1856
a(I127
I200
tp1857
a(I51
I200
tp1858
a(I55
I200
tp1859
asg27
I200
sba(imain2
Polygon
p1860
(dp1861
g3
(I70
I0
tp1862
sg5
I200
sg6
(I136
I0
I198
I0
tp1863
sg8
(lp1864
(I62
I0
tp1865
a(I80
I22
tp1866
a(I111
I25
tp1867
a(I90
I0
tp1868
a(I115
I27
tp1869
a(I52
I0
tp1870
a(I76
I34
tp1871
a(I96
I14
tp1872
asg27
I200
sba(imain2
Polygon
p1873
(dp1874
g3
(I106
I152
tp1875
sg5
I200
sg6
(I99
I163
I63
I74
tp1876
sg8
(lp1877
(I133
I114
tp1878
a(I111
I190
tp1879
a(I119
I166
tp1880
a(I57
I193
tp1881
a(I140
I199
tp1882
a(I115
I114
tp1883
a(I56
I163
tp1884
a(I124
I140
tp1885
a(I138
I185
tp1886
a(I122
I150
tp1887
a(I85
I159
tp1888
asg27
I200
sba(imain2
Polygon
p1889
(dp1890
g3
(I11
I38
tp1891
sg5
I200
sg6
(I111
I1
I126
I26
tp1892
sg8
(lp1893
(I10
I21
tp1894
a(I13
I59
tp1895
a(I35
I52
tp1896
a(I0
I5
tp1897
a(I54
I81
tp1898
a(I34
I54
tp1899
a(I60
I54
tp1900
a(I0
I15
tp1901
asg27
I200
sba(imain2
Polygon
p1902
(dp1903
g3
(I23
I68
tp1904
sg5
I200
sg6
(I217
I112
I190
I136
tp1905
sg8
(lp1906
(I35
I109
tp1907
a(I24
I85
tp1908
a(I54
I19
tp1909
a(I25
I33
tp1910
a(I35
I32
tp1911
a(I36
I40
tp1912
a(I0
I19
tp1913
a(I0
I111
tp1914
a(I7
I98
tp1915
a(I38
I112
tp1916
a(I11
I80
tp1917
asg27
I200
sba(imain2
Polygon
p1918
(dp1919
g3
(I73
I8
tp1920
sg5
I200
sg6
(I107
I163
I21
I142
tp1921
sg8
(lp1922
(I33
I0
tp1923
a(I31
I0
tp1924
a(I113
I0
tp1925
a(I27
I56
tp1926
a(I23
I45
tp1927
a(I24
I0
tp1928
a(I84
I33
tp1929
a(I39
I6
tp1930
a(I49
I29
tp1931
asg27
I200
sba(imain2
Polygon
p1932
(dp1933
g3
(I175
I187
tp1934
sg5
I200
sg6
(I124
I194
I200
I69
tp1935
sg8
(lp1936
(I200
I200
tp1937
a(I200
I164
tp1938
a(I200
I200
tp1939
a(I170
I200
tp1940
a(I146
I200
tp1941
asg27
I200
sba(imain2
Polygon
p1942
(dp1943
g3
(I153
I195
tp1944
sg5
I200
sg6
(I55
I168
I30
I0
tp1945
sg8
(lp1946
(I155
I174
tp1947
a(I138
I200
tp1948
a(I186
I200
tp1949
a(I144
I196
tp1950
a(I169
I200
tp1951
a(I168
I147
tp1952
a(I192
I165
tp1953
a(I136
I184
tp1954
a(I133
I168
tp1955
asg27
I200
sba(imain2
Polygon
p1956
(dp1957
g3
(I199
I6
tp1958
sg5
I200
sg6
(I147
I41
I88
I0
tp1959
sg8
(lp1960
(I200
I0
tp1961
a(I197
I0
tp1962
a(I200
I0
tp1963
a(I149
I0
tp1964
a(I200
I0
tp1965
a(I200
I18
tp1966
a(I200
I0
tp1967
a(I200
I0
tp1968
asg27
I200
sba(imain2
Polygon
p1969
(dp1970
g3
(I46
I191
tp1971
sg5
I200
sg6
(I93
I18
I9
I135
tp1972
sg8
(lp1973
(I69
I200
tp1974
a(I73
I200
tp1975
a(I94
I165
tp1976
a(I0
I200
tp1977
a(I0
I146
tp1978
a(I27
I155
tp1979
a(I88
I189
tp1980
a(I77
I145
tp1981
a(I35
I167
tp1982
asg27
I200
sba(imain2
Polygon
p1983
(dp1984
g3
(I144
I179
tp1985
sg5
I200
sg6
(I126
I32
I192
I65
tp1986
sg8
(lp1987
(I165
I180
tp1988
a(I161
I152
tp1989
a(I185
I152
tp1990
a(I140
I155
tp1991
a(I173
I170
tp1992
a(I133
I187
tp1993
a(I191
I200
tp1994
a(I106
I200
tp1995
a(I113
I200
tp1996
a(I159
I164
tp1997
a(I159
I200
tp1998
a(I151
I144
tp1999
a(I168
I137
tp2000
a(I148
I158
tp2001
a(I154
I153
tp2002
a(I155
I129
tp2003
asg27
I200
sba(imain2
Polygon
p2004
(dp2005
g3
(I120
I46
tp2006
sg5
I200
sg6
(I88
I84
I106
I70
tp2007
sg8
(lp2008
(I118
I65
tp2009
a(I95
I18
tp2010
a(I89
I13
tp2011
a(I116
I13
tp2012
a(I97
I17
tp2013
a(I112
I27
tp2014
a(I122
I89
tp2015
a(I125
I46
tp2016
asg27
I200
sba(imain2
Polygon
p2017
(dp2018
g3
(I100
I144
tp2019
sg5
I200
sg6
(I124
I185
I168
I135
tp2020
sg8
(lp2021
(I112
I95
tp2022
a(I104
I138
tp2023
a(I98
I126
tp2024
a(I74
I100
tp2025
a(I78
I118
tp2026
a(I83
I152
tp2027
a(I65
I170
tp2028
a(I68
I158
tp2029
a(I56
I110
tp2030
asg27
I200
sba(imain2
Polygon
p2031
(dp2032
g3
(I151
I184
tp2033
sg5
I200
sg6
(I139
I4
I175
I15
tp2034
sg8
(lp2035
(I132
I183
tp2036
a(I190
I200
tp2037
a(I138
I149
tp2038
a(I200
I200
tp2039
a(I169
I169
tp2040
asg27
I200
sba(imain2
Polygon
p2041
(dp2042
g3
(I124
I187
tp2043
sg5
I200
sg6
(I32
I29
I211
I0
tp2044
sg8
(lp2045
(I128
I191
tp2046
a(I124
I194
tp2047
a(I97
I200
tp2048
a(I145
I160
tp2049
a(I90
I200
tp2050
a(I171
I153
tp2051
a(I77
I147
tp2052
a(I80
I200
tp2053
asg27
I200
sba(imain2
Polygon
p2054
(dp2055
g3
(I48
I52
tp2056
sg5
I200
sg6
(I247
I132
I165
I141
tp2057
sg8
(lp2058
(I59
I92
tp2059
a(I58
I94
tp2060
a(I79
I94
tp2061
a(I97
I60
tp2062
a(I65
I16
tp2063
a(I36
I66
tp2064
a(I31
I93
tp2065
a(I88
I8
tp2066
a(I0
I10
tp2067
a(I0
I82
tp2068
a(I2
I102
tp2069
a(I26
I82
tp2070
a(I18
I85
tp2071
a(I0
I89
tp2072
a(I75
I83
tp2073
asg27
I200
sba(imain2
Polygon
p2074
(dp2075
g3
(I139
I74
tp2076
sg5
I200
sg6
(I153
I193
I239
I110
tp2077
sg8
(lp2078
(I132
I24
tp2079
a(I189
I47
tp2080
a(I185
I26
tp2081
a(I157
I30
tp2082
a(I171
I52
tp2083
a(I187
I48
tp2084
asg27
I200
sba(imain2
Polygon
p2085
(dp2086
g3
(I161
I83
tp2087
sg5
I200
sg6
(I205
I150
I105
I43
tp2088
sg8
(lp2089
(I147
I55
tp2090
a(I134
I56
tp2091
a(I114
I49
tp2092
a(I158
I64
tp2093
a(I187
I60
tp2094
a(I155
I98
tp2095
a(I177
I113
tp2096
a(I199
I106
tp2097
a(I200
I62
tp2098
a(I200
I106
tp2099
a(I200
I49
tp2100
a(I140
I35
tp2101
a(I197
I72
tp2102
a(I172
I66
tp2103
a(I149
I64
tp2104
a(I145
I53
tp2105
asg27
I200
sba(imain2
Polygon
p2106
(dp2107
g3
(I88
I36
tp2108
sg5
I200
sg6
(I1
I31
I74
I129
tp2109
sg8
(lp2110
(I67
I7
tp2111
a(I82
I0
tp2112
a(I49
I39
tp2113
a(I102
I37
tp2114
a(I120
I27
tp2115
a(I125
I14
tp2116
a(I135
I16
tp2117
a(I71
I9
tp2118
a(I42
I13
tp2119
a(I58
I13
tp2120
asg27
I200
sba(imain2
Polygon
p2121
(dp2122
g3
(I12
I36
tp2123
sg5
I200
sg6
(I170
I103
I216
I0
tp2124
sg8
(lp2125
(I7
I40
tp2126
a(I62
I64
tp2127
a(I30
I24
tp2128
a(I0
I37
tp2129
a(I0
I41
tp2130
a(I38
I80
tp2131
a(I0
I38
tp2132
asg27
I200
sba(imain2
Polygon
p2133
(dp2134
g3
(I79
I176
tp2135
sg5
I200
sg6
(I201
I85
I178
I116
tp2136
sg8
(lp2137
(I126
I200
tp2138
a(I119
I162
tp2139
a(I87
I199
tp2140
asg27
I200
sba(imain2
Polygon
p2141
(dp2142
g3
(I159
I193
tp2143
sg5
I200
sg6
(I189
I175
I62
I3
tp2144
sg8
(lp2145
(I151
I200
tp2146
a(I158
I200
tp2147
a(I156
I151
tp2148
a(I179
I191
tp2149
a(I175
I200
tp2150
a(I200
I200
tp2151
a(I200
I196
tp2152
a(I192
I188
tp2153
a(I119
I153
tp2154
a(I109
I200
tp2155
a(I170
I200
tp2156
a(I173
I194
tp2157
a(I167
I193
tp2158
asg27
I200
sba(imain2
Polygon
p2159
(dp2160
g3
(I52
I197
tp2161
sg5
I200
sg6
(I164
I149
I232
I1
tp2162
sg8
(lp2163
(I3
I200
tp2164
a(I39
I200
tp2165
a(I62
I165
tp2166
a(I29
I200
tp2167
a(I66
I200
tp2168
a(I16
I155
tp2169
a(I60
I185
tp2170
asg27
I200
sba(imain2
Polygon
p2171
(dp2172
g3
(I96
I168
tp2173
sg5
I200
sg6
(I85
I158
I169
I0
tp2174
sg8
(lp2175
(I137
I200
tp2176
a(I64
I200
tp2177
a(I76
I200
tp2178
a(I55
I137
tp2179
a(I54
I189
tp2180
a(I102
I200
tp2181
a(I139
I200
tp2182
a(I108
I133
tp2183
a(I135
I147
tp2184
a(I143
I143
tp2185
asg27
I200
sba(imain2
Polygon
p2186
(dp2187
g3
(I148
I67
tp2188
sg5
I200
sg6
(I212
I30
I23
I0
tp2189
sg8
(lp2190
(I103
I86
tp2191
a(I110
I44
tp2192
a(I120
I55
tp2193
a(I113
I19
tp2194
a(I169
I61
tp2195
a(I125
I52
tp2196
a(I108
I94
tp2197
a(I178
I39
tp2198
a(I109
I71
tp2199
a(I142
I17
tp2200
a(I104
I104
tp2201
asg27
I200
sba(imain2
Polygon
p2202
(dp2203
g3
(I185
I29
tp2204
sg5
I200
sg6
(I143
I164
I77
I88
tp2205
sg8
(lp2206
(I136
I0
tp2207
a(I199
I0
tp2208
a(I194
I26
tp2209
a(I160
I50
tp2210
a(I160
I2
tp2211
a(I152
I60
tp2212
asg27
I200
sba(imain2
Polygon
p2213
(dp2214
g3
(I77
I185
tp2215
sg5
I200
sg6
(I29
I27
I101
I126
tp2216
sg8
(lp2217
(I61
I200
tp2218
a(I63
I154
tp2219
a(I39
I143
tp2220
a(I124
I169
tp2221
a(I40
I180
tp2222
a(I53
I200
tp2223
a(I35
I180
tp2224
a(I61
I183
tp2225
a(I64
I192
tp2226
a(I115
I138
tp2227
asg27
I200
sba(imain2
Polygon
p2228
(dp2229
g3
(I183
I173
tp2230
sg5
I200
sg6
(I108
I218
I89
I63
tp2231
sg8
(lp2232
(I151
I151
tp2233
a(I148
I145
tp2234
a(I173
I200
tp2235
a(I173
I194
tp2236
asg27
I200
sba(imain2
Polygon
p2237
(dp2238
g3
(I141
I78
tp2239
sg5
I200
sg6
(I233
I88
I167
I1
tp2240
sg8
(lp2241
(I99
I101
tp2242
a(I177
I39
tp2243
a(I117
I90
tp2244
a(I182
I69
tp2245
a(I185
I61
tp2246
a(I136
I126
tp2247
a(I142
I74
tp2248
a(I124
I124
tp2249
a(I190
I65
tp2250
a(I127
I64
tp2251
a(I106
I72
tp2252
asg27
I200
sba(imain2
Polygon
p2253
(dp2254
g3
(I8
I10
tp2255
sg5
I200
sg6
(I64
I44
I74
I132
tp2256
sg8
(lp2257
(I25
I14
tp2258
a(I0
I0
tp2259
a(I30
I6
tp2260
a(I32
I6
tp2261
a(I0
I0
tp2262
a(I0
I21
tp2263
a(I14
I0
tp2264
a(I0
I0
tp2265
asg27
I200
sba(imain2
Polygon
p2266
(dp2267
g3
(I37
I13
tp2268
sg5
I200
sg6
(I1
I116
I23
I139
tp2269
sg8
(lp2270
(I36
I0
tp2271
a(I16
I0
tp2272
a(I17
I0
tp2273
a(I19
I8
tp2274
a(I47
I5
tp2275
a(I25
I0
tp2276
a(I47
I12
tp2277
a(I0
I0
tp2278
a(I2
I12
tp2279
a(I61
I0
tp2280
a(I7
I0
tp2281
asg27
I200
sba(imain2
Polygon
p2282
(dp2283
g3
(I168
I175
tp2284
sg5
I200
sg6
(I97
I58
I27
I17
tp2285
sg8
(lp2286
(I152
I200
tp2287
a(I120
I181
tp2288
a(I121
I129
tp2289
a(I142
I200
tp2290
a(I177
I200
tp2291
a(I200
I200
tp2292
a(I193
I200
tp2293
a(I192
I161
tp2294
a(I200
I152
tp2295
a(I187
I128
tp2296
a(I125
I175
tp2297
asg27
I200
sba(imain2
Polygon
p2298
(dp2299
g3
(I75
I83
tp2300
sg5
I200
sg6
(I27
I33
I20
I1
tp2301
sg8
(lp2302
(I114
I59
tp2303
a(I119
I42
tp2304
a(I120
I50
tp2305
a(I37
I102
tp2306
a(I38
I79
tp2307
a(I116
I74
tp2308
a(I81
I59
tp2309
a(I116
I81
tp2310
a(I106
I101
tp2311
a(I68
I99
tp2312
a(I89
I59
tp2313
a(I45
I71
tp2314
asg27
I200
sba(imain2
Polygon
p2315
(dp2316
g3
(I18
I79
tp2317
sg5
I200
sg6
(I82
I0
I176
I130
tp2318
sg8
(lp2319
(I49
I108
tp2320
a(I51
I115
tp2321
a(I44
I52
tp2322
a(I54
I29
tp2323
a(I25
I110
tp2324
a(I0
I111
tp2325
a(I0
I103
tp2326
a(I0
I117
tp2327
a(I0
I119
tp2328
a(I39
I119
tp2329
asg27
I200
sba(imain2
Polygon
p2330
(dp2331
g3
(I27
I28
tp2332
sg5
I200
sg6
(I224
I147
I43
I1
tp2333
sg8
(lp2334
(I0
I39
tp2335
a(I58
I68
tp2336
a(I51
I66
tp2337
a(I24
I26
tp2338
a(I69
I0
tp2339
a(I32
I0
tp2340
a(I0
I0
tp2341
a(I0
I50
tp2342
a(I29
I10
tp2343
a(I72
I42
tp2344
a(I0
I42
tp2345
a(I53
I0
tp2346
a(I26
I69
tp2347
asg27
I200
sba(imain2
Polygon
p2348
(dp2349
g3
(I85
I60
tp2350
sg5
I200
sg6
(I87
I116
I15
I119
tp2351
sg8
(lp2352
(I115
I60
tp2353
a(I134
I87
tp2354
a(I50
I105
tp2355
a(I36
I62
tp2356
a(I72
I90
tp2357
a(I131
I73
tp2358
a(I117
I52
tp2359
a(I123
I32
tp2360
asg27
I200
sba(imain2
Polygon
p2361
(dp2362
g3
(I45
I110
tp2363
sg5
I200
sg6
(I44
I243
I181
I64
tp2364
sg8
(lp2365
(I68
I158
tp2366
a(I45
I112
tp2367
a(I89
I87
tp2368
a(I72
I109
tp2369
asg27
I200
sba(imain2
Polygon
p2370
(dp2371
g3
(I54
I138
tp2372
sg5
I200
sg6
(I121
I64
I187
I0
tp2373
sg8
(lp2374
(I35
I88
tp2375
a(I95
I92
tp2376
a(I82
I156
tp2377
a(I63
I128
tp2378
a(I101
I131
tp2379
a(I30
I92
tp2380
a(I91
I188
tp2381
a(I14
I186
tp2382
a(I11
I174
tp2383
a(I101
I147
tp2384
asg27
I200
sba(imain2
Polygon
p2385
(dp2386
g3
(I162
I123
tp2387
sg5
I200
sg6
(I48
I61
I73
I27
tp2388
sg8
(lp2389
(I119
I79
tp2390
a(I153
I85
tp2391
a(I195
I143
tp2392
a(I200
I144
tp2393
a(I125
I137
tp2394
a(I200
I89
tp2395
a(I180
I124
tp2396
a(I168
I135
tp2397
a(I124
I106
tp2398
a(I158
I73
tp2399
a(I184
I95
tp2400
a(I173
I159
tp2401
a(I156
I91
tp2402
a(I131
I98
tp2403
a(I125
I131
tp2404
a(I161
I109
tp2405
a(I200
I163
tp2406
a(I200
I142
tp2407
a(I170
I171
tp2408
asg27
I200
sba(imain2
Polygon
p2409
(dp2410
g3
(I144
I70
tp2411
sg5
I200
sg6
(I194
I43
I118
I51
tp2412
sg8
(lp2413
(I149
I30
tp2414
a(I169
I95
tp2415
a(I155
I49
tp2416
asg27
I200
sba(imain2
Polygon
p2417
(dp2418
g3
(I11
I36
tp2419
sg5
I200
sg6
(I147
I33
I81
I57
tp2420
sg8
(lp2421
(I0
I29
tp2422
a(I37
I36
tp2423
a(I0
I40
tp2424
a(I35
I7
tp2425
a(I0
I0
tp2426
a(I0
I29
tp2427
a(I0
I17
tp2428
a(I29
I0
tp2429
a(I0
I50
tp2430
asg27
I200
sba(imain2
Polygon
p2431
(dp2432
g3
(I85
I175
tp2433
sg5
I200
sg6
(I242
I55
I46
I8
tp2434
sg8
(lp2435
(I130
I159
tp2436
a(I36
I144
tp2437
a(I112
I137
tp2438
a(I61
I130
tp2439
a(I130
I133
tp2440
a(I122
I198
tp2441
a(I41
I200
tp2442
a(I66
I189
tp2443
a(I114
I192
tp2444
a(I100
I188
tp2445
a(I55
I141
tp2446
a(I56
I166
tp2447
a(I92
I187
tp2448
a(I67
I187
tp2449
a(I89
I176
tp2450
asg27
I200
sba(imain2
Polygon
p2451
(dp2452
g3
(I78
I22
tp2453
sg5
I200
sg6
(I0
I240
I67
I1
tp2454
sg8
(lp2455
(I64
I19
tp2456
a(I31
I33
tp2457
a(I75
I42
tp2458
a(I126
I29
tp2459
a(I112
I68
tp2460
a(I38
I8
tp2461
a(I51
I15
tp2462
a(I64
I6
tp2463
a(I80
I0
tp2464
a(I50
I0
tp2465
a(I90
I3
tp2466
a(I84
I0
tp2467
a(I37
I57
tp2468
asg27
I200
sba(imain2
Polygon
p2469
(dp2470
g3
(I58
I165
tp2471
sg5
I200
sg6
(I75
I0
I138
I110
tp2472
sg8
(lp2473
(I39
I165
tp2474
a(I48
I165
tp2475
a(I46
I164
tp2476
asg27
I200
sba(imain2
Polygon
p2477
(dp2478
g3
(I98
I69
tp2479
sg5
I200
sg6
(I76
I218
I129
I56
tp2480
sg8
(lp2481
(I81
I82
tp2482
a(I132
I119
tp2483
a(I65
I110
tp2484
a(I86
I76
tp2485
asg27
I200
sba(imain2
Polygon
p2486
(dp2487
g3
(I184
I193
tp2488
sg5
I200
sg6
(I19
I65
I70
I0
tp2489
sg8
(lp2490
(I150
I200
tp2491
a(I195
I194
tp2492
a(I200
I188
tp2493
a(I200
I163
tp2494
a(I200
I200
tp2495
a(I163
I200
tp2496
a(I145
I200
tp2497
a(I200
I200
tp2498
a(I200
I200
tp2499
asg27
I200
sba(imain2
Polygon
p2500
(dp2501
g3
(I136
I181
tp2502
sg5
I200
sg6
(I121
I127
I191
I1
tp2503
sg8
(lp2504
(I182
I131
tp2505
a(I146
I181
tp2506
a(I172
I167
tp2507
a(I175
I181
tp2508
a(I97
I200
tp2509
a(I180
I136
tp2510
a(I118
I199
tp2511
a(I174
I170
tp2512
a(I104
I154
tp2513
a(I144
I200
tp2514
a(I127
I139
tp2515
a(I154
I193
tp2516
asg27
I200
sba(imain2
Polygon
p2517
(dp2518
g3
(I65
I69
tp2519
sg5
I200
sg6
(I101
I96
I155
I28
tp2520
sg8
(lp2521
(I20
I36
tp2522
a(I40
I84
tp2523
a(I70
I71
tp2524
a(I28
I82
tp2525
a(I51
I60
tp2526
a(I63
I93
tp2527
a(I48
I64
tp2528
a(I42
I61
tp2529
a(I37
I81
tp2530
asg27
I200
sba(imain2
Polygon
p2531
(dp2532
g3
(I146
I60
tp2533
sg5
I200
sg6
(I1
I5
I200
I17
tp2534
sg8
(lp2535
(I150
I96
tp2536
a(I161
I106
tp2537
a(I109
I37
tp2538
a(I131
I64
tp2539
a(I145
I69
tp2540
a(I164
I56
tp2541
a(I111
I50
tp2542
asg27
I200
sba(imain2
Polygon
p2543
(dp2544
g3
(I7
I191
tp2545
sg5
I200
sg6
(I1
I169
I64
I0
tp2546
sg8
(lp2547
(I0
I151
tp2548
a(I53
I198
tp2549
a(I0
I187
tp2550
a(I34
I158
tp2551
a(I39
I200
tp2552
a(I0
I200
tp2553
a(I0
I199
tp2554
a(I0
I200
tp2555
asg27
I200
sba(imain2
Polygon
p2556
(dp2557
g3
(I177
I12
tp2558
sg5
I200
sg6
(I0
I130
I138
I1
tp2559
sg8
(lp2560
(I179
I47
tp2561
a(I200
I31
tp2562
a(I131
I0
tp2563
a(I173
I62
tp2564
a(I200
I45
tp2565
a(I200
I22
tp2566
a(I150
I52
tp2567
a(I148
I56
tp2568
a(I175
I22
tp2569
asg27
I200
sba(imain2
Polygon
p2570
(dp2571
g3
(I98
I60
tp2572
sg5
I200
sg6
(I144
I39
I48
I11
tp2573
sg8
(lp2574
(I87
I83
tp2575
a(I145
I79
tp2576
a(I98
I75
tp2577
a(I89
I21
tp2578
a(I138
I25
tp2579
a(I80
I91
tp2580
a(I119
I63
tp2581
a(I126
I103
tp2582
a(I147
I11
tp2583
a(I125
I68
tp2584
asg27
I200
sba(imain2
Polygon
p2585
(dp2586
g3
(I26
I121
tp2587
sg5
I200
sg6
(I19
I115
I5
I112
tp2588
sg8
(lp2589
(I5
I167
tp2590
a(I39
I85
tp2591
a(I0
I101
tp2592
a(I0
I166
tp2593
a(I51
I153
tp2594
a(I14
I135
tp2595
a(I45
I83
tp2596
a(I52
I113
tp2597
a(I0
I157
tp2598
a(I0
I125
tp2599
asg27
I200
sba(imain2
Polygon
p2600
(dp2601
g3
(I59
I10
tp2602
sg5
I200
sg6
(I180
I56
I106
I147
tp2603
sg8
(lp2604
(I25
I0
tp2605
a(I57
I0
tp2606
a(I73
I6
tp2607
a(I55
I0
tp2608
a(I109
I0
tp2609
a(I63
I23
tp2610
a(I10
I0
tp2611
a(I17
I23
tp2612
asg27
I200
sba(imain2
Polygon
p2613
(dp2614
g3
(I171
I141
tp2615
sg5
I200
sg6
(I38
I202
I138
I11
tp2616
sg8
(lp2617
(I200
I170
tp2618
a(I195
I129
tp2619
a(I193
I121
tp2620
a(I179
I181
tp2621
a(I200
I98
tp2622
a(I200
I183
tp2623
a(I183
I143
tp2624
a(I187
I97
tp2625
asg27
I200
sba(imain2
Polygon
p2626
(dp2627
g3
(I80
I143
tp2628
sg5
I200
sg6
(I75
I77
I12
I134
tp2629
sg8
(lp2630
(I50
I130
tp2631
a(I70
I145
tp2632
a(I93
I192
tp2633
a(I130
I187
tp2634
a(I107
I140
tp2635
a(I32
I121
tp2636
a(I39
I93
tp2637
a(I65
I188
tp2638
a(I118
I114
tp2639
a(I36
I110
tp2640
a(I111
I114
tp2641
asg27
I200
sba(imain2
Polygon
p2642
(dp2643
g3
(I191
I199
tp2644
sg5
I200
sg6
(I0
I225
I26
I1
tp2645
sg8
(lp2646
(I200
I200
tp2647
a(I158
I167
tp2648
a(I200
I152
tp2649
a(I200
I200
tp2650
a(I143
I191
tp2651
a(I162
I200
tp2652
a(I200
I200
tp2653
a(I148
I149
tp2654
a(I156
I169
tp2655
asg27
I200
sba(imain2
Polygon
p2656
(dp2657
g3
(I6
I112
tp2658
sg5
I200
sg6
(I133
I72
I131
I81
tp2659
sg8
(lp2660
(I0
I137
tp2661
a(I0
I140
tp2662
a(I25
I84
tp2663
a(I0
I135
tp2664
a(I0
I129
tp2665
a(I0
I98
tp2666
a(I0
I95
tp2667
a(I0
I153
tp2668
asg27
I200
sba(imain2
Polygon
p2669
(dp2670
g3
(I189
I37
tp2671
sg5
I200
sg6
(I31
I238
I167
I75
tp2672
sg8
(lp2673
(I200
I41
tp2674
a(I177
I46
tp2675
a(I200
I40
tp2676
a(I200
I17
tp2677
asg27
I200
sba(imain2
Polygon
p2678
(dp2679
g3
(I121
I50
tp2680
sg5
I200
sg6
(I6
I72
I1
I0
tp2681
sg8
(lp2682
(I151
I62
tp2683
a(I132
I76
tp2684
a(I164
I48
tp2685
a(I118
I53
tp2686
asg27
I200
sba(imain2
Polygon
p2687
(dp2688
g3
(I58
I165
tp2689
sg5
I200
sg6
(I146
I100
I4
I1
tp2690
sg8
(lp2691
(I88
I126
tp2692
a(I39
I171
tp2693
a(I32
I150
tp2694
a(I38
I200
tp2695
a(I91
I154
tp2696
a(I97
I137
tp2697
a(I22
I169
tp2698
a(I68
I185
tp2699
a(I69
I116
tp2700
a(I56
I151
tp2701
asg27
I200
sba(imain2
Polygon
p2702
(dp2703
g3
(I155
I38
tp2704
sg5
I200
sg6
(I104
I110
I238
I122
tp2705
sg8
(lp2706
(I160
I2
tp2707
a(I162
I13
tp2708
a(I165
I27
tp2709
asg27
I200
sba(imain2
Polygon
p2710
(dp2711
g3
(I80
I130
tp2712
sg5
I200
sg6
(I224
I90
I1
I128
tp2713
sg8
(lp2714
(I90
I107
tp2715
a(I38
I91
tp2716
a(I127
I91
tp2717
a(I86
I180
tp2718
a(I90
I97
tp2719
a(I42
I107
tp2720
a(I57
I140
tp2721
a(I81
I161
tp2722
a(I95
I173
tp2723
a(I77
I124
tp2724
a(I91
I85
tp2725
a(I88
I146
tp2726
asg27
I200
sba(imain2
Polygon
p2727
(dp2728
g3
(I182
I31
tp2729
sg5
I200
sg6
(I113
I86
I113
I0
tp2730
sg8
(lp2731
(I200
I3
tp2732
a(I140
I52
tp2733
a(I146
I14
tp2734
a(I186
I15
tp2735
a(I164
I0
tp2736
a(I139
I9
tp2737
a(I200
I0
tp2738
a(I160
I52
tp2739
a(I173
I19
tp2740
a(I200
I0
tp2741
a(I188
I55
tp2742
a(I168
I44
tp2743
a(I200
I0
tp2744
a(I191
I40
tp2745
a(I168
I0
tp2746
a(I185
I80
tp2747
a(I192
I0
tp2748
a(I200
I36
tp2749
a(I198
I23
tp2750
asg27
I200
sba(imain2
Polygon
p2751
(dp2752
g3
(I164
I132
tp2753
sg5
I200
sg6
(I50
I70
I1
I0
tp2754
sg8
(lp2755
(I191
I131
tp2756
a(I129
I182
tp2757
a(I181
I83
tp2758
a(I149
I82
tp2759
a(I125
I177
tp2760
a(I190
I92
tp2761
a(I146
I102
tp2762
a(I200
I123
tp2763
a(I192
I85
tp2764
a(I144
I129
tp2765
a(I181
I85
tp2766
a(I127
I166
tp2767
a(I122
I127
tp2768
a(I148
I144
tp2769
asg27
I200
sba(imain2
Polygon
p2770
(dp2771
g3
(I67
I123
tp2772
sg5
I200
sg6
(I204
I170
I128
I81
tp2773
sg8
(lp2774
(I114
I101
tp2775
a(I112
I148
tp2776
a(I65
I154
tp2777
a(I43
I93
tp2778
a(I96
I92
tp2779
a(I107
I100
tp2780
a(I49
I107
tp2781
a(I115
I104
tp2782
a(I46
I107
tp2783
a(I101
I102
tp2784
asg27
I200
sba(imain2
Polygon
p2785
(dp2786
g3
(I139
I46
tp2787
sg5
I200
sg6
(I2
I111
I84
I96
tp2788
sg8
(lp2789
(I185
I84
tp2790
a(I98
I73
tp2791
a(I164
I79
tp2792
asg27
I200
sba(imain2
Polygon
p2793
(dp2794
g3
(I137
I13
tp2795
sg5
I200
sg6
(I204
I132
I222
I5
tp2796
sg8
(lp2797
(I153
I45
tp2798
a(I179
I43
tp2799
a(I165
I55
tp2800
a(I90
I14
tp2801
a(I123
I32
tp2802
a(I157
I0
tp2803
a(I92
I0
tp2804
a(I160
I51
tp2805
a(I100
I0
tp2806
a(I88
I17
tp2807
a(I171
I26
tp2808
asg27
I200
sba(imain2
Polygon
p2809
(dp2810
g3
(I72
I81
tp2811
sg5
I200
sg6
(I239
I109
I83
I0
tp2812
sg8
(lp2813
(I116
I92
tp2814
a(I45
I70
tp2815
a(I99
I128
tp2816
a(I119
I81
tp2817
a(I43
I78
tp2818
a(I75
I114
tp2819
a(I45
I124
tp2820
a(I72
I104
tp2821
a(I63
I131
tp2822
a(I72
I123
tp2823
asg27
I200
sba(imain2
Polygon
p2824
(dp2825
g3
(I24
I70
tp2826
sg5
I200
sg6
(I7
I225
I12
I18
tp2827
sg8
(lp2828
(I37
I25
tp2829
a(I72
I32
tp2830
a(I2
I21
tp2831
a(I0
I105
tp2832
a(I0
I120
tp2833
a(I68
I95
tp2834
a(I0
I104
tp2835
a(I52
I117
tp2836
a(I46
I40
tp2837
a(I22
I27
tp2838
asg27
I200
sba(imain2
Polygon
p2839
(dp2840
g3
(I144
I200
tp2841
sg5
I200
sg6
(I124
I88
I13
I0
tp2842
sg8
(lp2843
(I157
I186
tp2844
a(I108
I200
tp2845
a(I184
I154
tp2846
a(I175
I171
tp2847
a(I183
I167
tp2848
a(I142
I200
tp2849
a(I193
I200
tp2850
a(I124
I158
tp2851
a(I156
I200
tp2852
a(I186
I200
tp2853
a(I120
I200
tp2854
a(I147
I190
tp2855
a(I123
I200
tp2856
a(I163
I199
tp2857
a(I175
I179
tp2858
a(I148
I200
tp2859
a(I110
I183
tp2860
a(I103
I160
tp2861
asg27
I200
sba(imain2
Polygon
p2862
(dp2863
g3
(I63
I64
tp2864
sg5
I200
sg6
(I194
I194
I46
I8
tp2865
sg8
(lp2866
(I103
I50
tp2867
a(I18
I106
tp2868
a(I18
I45
tp2869
a(I97
I38
tp2870
a(I97
I107
tp2871
a(I37
I106
tp2872
a(I22
I101
tp2873
asg27
I200
sba(imain2
Polygon
p2874
(dp2875
g3
(I87
I65
tp2876
sg5
I200
sg6
(I217
I59
I100
I0
tp2877
sg8
(lp2878
(I54
I64
tp2879
a(I115
I17
tp2880
a(I100
I35
tp2881
a(I119
I39
tp2882
a(I101
I99
tp2883
a(I41
I94
tp2884
a(I102
I70
tp2885
a(I123
I103
tp2886
a(I137
I102
tp2887
asg27
I200
sba(imain2
Polygon
p2888
(dp2889
g3
(I110
I191
tp2890
sg5
I200
sg6
(I163
I198
I225
I1
tp2891
sg8
(lp2892
(I150
I191
tp2893
a(I157
I200
tp2894
a(I157
I152
tp2895
a(I117
I192
tp2896
a(I122
I162
tp2897
a(I60
I161
tp2898
a(I115
I169
tp2899
a(I74
I179
tp2900
a(I122
I200
tp2901
asg27
I200
sba(imain2
Polygon
p2902
(dp2903
g3
(I108
I110
tp2904
sg5
I200
sg6
(I100
I179
I168
I0
tp2905
sg8
(lp2906
(I101
I127
tp2907
a(I104
I82
tp2908
a(I91
I148
tp2909
a(I75
I84
tp2910
a(I70
I134
tp2911
a(I116
I124
tp2912
asg27
I200
sba(imain2
Polygon
p2913
(dp2914
g3
(I112
I52
tp2915
sg5
I200
sg6
(I81
I201
I83
I119
tp2916
sg8
(lp2917
(I124
I75
tp2918
a(I152
I55
tp2919
a(I149
I58
tp2920
asg27
I200
sba.