(lp0
(imain2
Polygon
p1
(dp2
S'origin'
p3
(I39
I29
tp4
sS'h'
p5
I200
sS'color'
p6
(I200
I24
I141
I101
tp7
sS'corner_list'
p8
(lp9
(I53
I25
tp10
a(I62
I29
tp11
a(I71
I41
tp12
a(I23
I77
tp13
a(I68
I0
tp14
a(I50
I57
tp15
a(I0
I33
tp16
a(I46
I20
tp17
a(I8
I0
tp18
a(I2
I64
tp19
a(I13
I38
tp20
a(I48
I22
tp21
a(I26
I65
tp22
a(I23
I51
tp23
a(I44
I3
tp24
a(I13
I77
tp25
a(I64
I0
tp26
asS'w'
p27
I200
sba(imain2
Polygon
p28
(dp29
g3
(I66
I177
tp30
sg5
I200
sg6
(I138
I58
I49
I48
tp31
sg8
(lp32
(I88
I192
tp33
a(I110
I179
tp34
a(I89
I186
tp35
a(I29
I176
tp36
a(I34
I200
tp37
a(I63
I167
tp38
a(I102
I200
tp39
asg27
I200
sba(imain2
Polygon
p40
(dp41
g3
(I59
I53
tp42
sg5
I200
sg6
(I110
I46
I109
I160
tp43
sg8
(lp44
(I106
I10
tp45
a(I26
I102
tp46
a(I10
I62
tp47
a(I32
I13
tp48
a(I66
I66
tp49
a(I63
I3
tp50
a(I15
I3
tp51
a(I40
I72
tp52
a(I30
I51
tp53
a(I38
I88
tp54
a(I94
I64
tp55
a(I106
I58
tp56
a(I26
I92
tp57
a(I92
I46
tp58
a(I76
I61
tp59
a(I104
I79
tp60
a(I89
I9
tp61
a(I31
I98
tp62
asg27
I200
sba(imain2
Polygon
p63
(dp64
g3
(I79
I99
tp65
sg5
I200
sg6
(I72
I89
I72
I111
tp66
sg8
(lp67
(I119
I65
tp68
a(I79
I132
tp69
a(I82
I84
tp70
a(I34
I68
tp71
a(I41
I82
tp72
a(I35
I63
tp73
a(I95
I66
tp74
a(I108
I103
tp75
a(I123
I57
tp76
a(I114
I125
tp77
a(I30
I114
tp78
asg27
I200
sba(imain2
Polygon
p79
(dp80
g3
(I200
I83
tp81
sg5
I200
sg6
(I168
I231
I66
I19
tp82
sg8
(lp83
(I200
I104
tp84
a(I200
I104
tp85
a(I153
I33
tp86
a(I200
I83
tp87
a(I200
I53
tp88
a(I177
I38
tp89
a(I167
I122
tp90
asg27
I200
sba(imain2
Polygon
p91
(dp92
g3
(I48
I136
tp93
sg5
I200
sg6
(I105
I110
I148
I90
tp94
sg8
(lp95
(I81
I141
tp96
a(I91
I112
tp97
a(I94
I141
tp98
a(I85
I153
tp99
a(I43
I102
tp100
a(I5
I168
tp101
a(I82
I166
tp102
a(I93
I184
tp103
a(I88
I108
tp104
a(I28
I107
tp105
a(I12
I90
tp106
a(I86
I178
tp107
a(I46
I130
tp108
a(I46
I109
tp109
a(I2
I151
tp110
a(I64
I175
tp111
a(I20
I153
tp112
a(I45
I165
tp113
a(I77
I105
tp114
a(I46
I90
tp115
a(I74
I186
tp116
asg27
I200
sba(imain2
Polygon
p117
(dp118
g3
(I118
I72
tp119
sg5
I200
sg6
(I136
I138
I61
I69
tp120
sg8
(lp121
(I101
I90
tp122
a(I105
I74
tp123
a(I99
I82
tp124
a(I77
I53
tp125
a(I118
I115
tp126
a(I126
I57
tp127
a(I103
I38
tp128
a(I68
I93
tp129
a(I104
I108
tp130
asg27
I200
sba(imain2
Polygon
p131
(dp132
g3
(I75
I194
tp133
sg5
I200
sg6
(I212
I87
I107
I26
tp134
sg8
(lp135
(I118
I184
tp136
a(I118
I200
tp137
a(I86
I177
tp138
a(I110
I199
tp139
a(I100
I167
tp140
asg27
I200
sba(imain2
Polygon
p141
(dp142
g3
(I7
I180
tp143
sg5
I200
sg6
(I234
I36
I0
I0
tp144
sg8
(lp145
(I15
I138
tp146
a(I0
I197
tp147
a(I40
I147
tp148
a(I46
I177
tp149
a(I16
I200
tp150
a(I13
I200
tp151
a(I0
I157
tp152
a(I50
I137
tp153
a(I0
I200
tp154
a(I0
I163
tp155
a(I36
I194
tp156
asg27
I200
sba(imain2
Polygon
p157
(dp158
g3
(I200
I5
tp159
sg5
I200
sg6
(I172
I76
I112
I42
tp160
sg8
(lp161
(I200
I29
tp162
a(I200
I0
tp163
a(I200
I0
tp164
a(I200
I49
tp165
a(I191
I0
tp166
a(I200
I40
tp167
a(I162
I46
tp168
a(I181
I0
tp169
a(I200
I0
tp170
a(I200
I54
tp171
a(I155
I15
tp172
a(I177
I47
tp173
asg27
I200
sba(imain2
Polygon
p174
(dp175
g3
(I180
I27
tp176
sg5
I200
sg6
(I107
I114
I155
I1
tp177
sg8
(lp178
(I189
I73
tp179
a(I190
I75
tp180
a(I161
I15
tp181
a(I151
I63
tp182
a(I200
I54
tp183
a(I174
I1
tp184
a(I200
I0
tp185
a(I130
I26
tp186
a(I158
I0
tp187
a(I160
I34
tp188
a(I155
I0
tp189
a(I174
I62
tp190
asg27
I200
sba(imain2
Polygon
p191
(dp192
g3
(I59
I197
tp193
sg5
I200
sg6
(I84
I209
I137
I150
tp194
sg8
(lp195
(I98
I200
tp196
a(I93
I157
tp197
a(I71
I197
tp198
asg27
I200
sba(imain2
Polygon
p199
(dp200
g3
(I129
I124
tp201
sg5
I200
sg6
(I171
I189
I98
I76
tp202
sg8
(lp203
(I100
I125
tp204
a(I141
I112
tp205
a(I82
I139
tp206
a(I130
I89
tp207
a(I113
I126
tp208
a(I90
I106
tp209
a(I88
I150
tp210
a(I133
I128
tp211
asg27
I200
sba(imain2
Polygon
p212
(dp213
g3
(I107
I2
tp214
sg5
I200
sg6
(I50
I0
I160
I124
tp215
sg8
(lp216
(I138
I0
tp217
a(I94
I20
tp218
a(I94
I0
tp219
a(I122
I0
tp220
a(I153
I0
tp221
a(I65
I17
tp222
a(I127
I0
tp223
a(I124
I0
tp224
a(I106
I7
tp225
a(I147
I0
tp226
asg27
I200
sba(imain2
Polygon
p227
(dp228
g3
(I25
I107
tp229
sg5
I200
sg6
(I103
I28
I173
I0
tp230
sg8
(lp231
(I0
I85
tp232
a(I48
I150
tp233
a(I55
I137
tp234
a(I0
I99
tp235
a(I4
I144
tp236
a(I58
I62
tp237
a(I42
I112
tp238
a(I20
I66
tp239
a(I72
I89
tp240
a(I47
I135
tp241
a(I60
I138
tp242
a(I71
I127
tp243
a(I3
I58
tp244
a(I27
I112
tp245
a(I0
I98
tp246
a(I0
I66
tp247
a(I56
I67
tp248
a(I0
I139
tp249
asg27
I200
sba(imain2
Polygon
p250
(dp251
g3
(I194
I197
tp252
sg5
I200
sg6
(I10
I200
I63
I103
tp253
sg8
(lp254
(I200
I187
tp255
a(I161
I170
tp256
a(I200
I172
tp257
a(I200
I164
tp258
a(I200
I166
tp259
asg27
I200
sba(imain2
Polygon
p260
(dp261
g3
(I8
I2
tp262
sg5
I200
sg6
(I204
I198
I219
I0
tp263
sg8
(lp264
(I30
I0
tp265
a(I54
I18
tp266
a(I52
I0
tp267
a(I0
I46
tp268
a(I40
I9
tp269
a(I0
I11
tp270
a(I51
I0
tp271
a(I19
I0
tp272
a(I3
I0
tp273
a(I31
I0
tp274
a(I0
I0
tp275
a(I54
I0
tp276
a(I34
I31
tp277
a(I0
I43
tp278
asg27
I200
sba(imain2
Polygon
p279
(dp280
g3
(I171
I144
tp281
sg5
I200
sg6
(I111
I157
I187
I1
tp282
sg8
(lp283
(I200
I105
tp284
a(I159
I135
tp285
a(I193
I132
tp286
a(I143
I159
tp287
a(I134
I97
tp288
a(I192
I106
tp289
a(I200
I189
tp290
a(I146
I161
tp291
asg27
I200
sba(imain2
Polygon
p292
(dp293
g3
(I44
I42
tp294
sg5
I200
sg6
(I80
I131
I76
I5
tp295
sg8
(lp296
(I5
I77
tp297
a(I29
I80
tp298
a(I27
I40
tp299
a(I71
I1
tp300
a(I76
I41
tp301
a(I55
I78
tp302
a(I28
I4
tp303
a(I25
I24
tp304
asg27
I200
sba(imain2
Polygon
p305
(dp306
g3
(I26
I99
tp307
sg5
I200
sg6
(I169
I99
I170
I87
tp308
sg8
(lp309
(I71
I87
tp310
a(I58
I122
tp311
a(I71
I79
tp312
a(I75
I72
tp313
a(I34
I147
tp314
asg27
I200
sba(imain2
Polygon
p315
(dp316
g3
(I114
I46
tp317
sg5
I200
sg6
(I96
I193
I193
I1
tp318
sg8
(lp319
(I117
I22
tp320
a(I107
I35
tp321
a(I78
I89
tp322
a(I90
I39
tp323
asg27
I200
sba(imain2
Polygon
p324
(dp325
g3
(I68
I194
tp326
sg5
I200
sg6
(I88
I196
I149
I0
tp327
sg8
(lp328
(I73
I200
tp329
a(I63
I182
tp330
a(I24
I200
tp331
a(I83
I200
tp332
a(I80
I187
tp333
a(I37
I200
tp334
a(I65
I200
tp335
a(I118
I168
tp336
asg27
I200
sba(imain2
Polygon
p337
(dp338
g3
(I200
I53
tp339
sg5
I200
sg6
(I179
I183
I163
I1
tp340
sg8
(lp341
(I181
I9
tp342
a(I200
I53
tp343
a(I200
I101
tp344
asg27
I200
sba(imain2
Polygon
p345
(dp346
g3
(I172
I155
tp347
sg5
I200
sg6
(I198
I79
I243
I0
tp348
sg8
(lp349
(I198
I200
tp350
a(I155
I156
tp351
a(I135
I150
tp352
a(I187
I116
tp353
a(I128
I145
tp354
a(I158
I120
tp355
a(I198
I191
tp356
a(I163
I186
tp357
a(I200
I107
tp358
a(I183
I117
tp359
a(I193
I200
tp360
a(I168
I116
tp361
a(I200
I141
tp362
a(I190
I187
tp363
asg27
I200
sba(imain2
Polygon
p364
(dp365
g3
(I154
I159
tp366
sg5
I200
sg6
(I55
I205
I33
I1
tp367
sg8
(lp368
(I104
I155
tp369
a(I116
I138
tp370
a(I167
I196
tp371
a(I167
I183
tp372
a(I162
I132
tp373
a(I108
I163
tp374
a(I200
I148
tp375
a(I129
I170
tp376
a(I117
I184
tp377
a(I195
I188
tp378
a(I105
I200
tp379
asg27
I200
sba(imain2
Polygon
p380
(dp381
g3
(I55
I59
tp382
sg5
I200
sg6
(I73
I196
I204
I1
tp383
sg8
(lp384
(I88
I47
tp385
a(I83
I49
tp386
a(I34
I76
tp387
a(I77
I97
tp388
a(I16
I96
tp389
a(I57
I36
tp390
a(I68
I83
tp391
a(I47
I28
tp392
a(I81
I9
tp393
a(I32
I97
tp394
a(I52
I62
tp395
a(I46
I53
tp396
a(I95
I74
tp397
a(I104
I40
tp398
asg27
I200
sba(imain2
Polygon
p399
(dp400
g3
(I127
I147
tp401
sg5
I200
sg6
(I46
I70
I116
I113
tp402
sg8
(lp403
(I109
I194
tp404
a(I78
I97
tp405
a(I91
I113
tp406
a(I114
I145
tp407
a(I97
I160
tp408
a(I161
I191
tp409
asg27
I200
sba(imain2
Polygon
p410
(dp411
g3
(I123
I114
tp412
sg5
I200
sg6
(I116
I1
I10
I1
tp413
sg8
(lp414
(I106
I132
tp415
a(I92
I71
tp416
a(I87
I109
tp417
a(I98
I69
tp418
a(I153
I154
tp419
a(I80
I67
tp420
a(I113
I116
tp421
a(I81
I102
tp422
a(I77
I116
tp423
a(I100
I148
tp424
asg27
I200
sba(imain2
Polygon
p425
(dp426
g3
(I2
I51
tp427
sg5
I200
sg6
(I124
I143
I222
I0
tp428
sg8
(lp429
(I0
I93
tp430
a(I0
I62
tp431
a(I0
I40
tp432
a(I0
I89
tp433
a(I40
I7
tp434
a(I50
I39
tp435
a(I0
I16
tp436
a(I0
I3
tp437
a(I1
I85
tp438
a(I45
I76
tp439
asg27
I200
sba(imain2
Polygon
p440
(dp441
g3
(I166
I21
tp442
sg5
I200
sg6
(I211
I245
I214
I88
tp443
sg8
(lp444
(I200
I0
tp445
a(I200
I59
tp446
a(I169
I70
tp447
a(I131
I0
tp448
a(I121
I10
tp449
a(I193
I0
tp450
a(I116
I5
tp451
a(I118
I13
tp452
a(I135
I0
tp453
a(I200
I0
tp454
a(I141
I29
tp455
asg27
I200
sba(imain2
Polygon
p456
(dp457
g3
(I110
I91
tp458
sg5
I200
sg6
(I127
I33
I30
I1
tp459
sg8
(lp460
(I122
I93
tp461
a(I90
I64
tp462
a(I158
I127
tp463
a(I118
I129
tp464
a(I102
I80
tp465
a(I111
I63
tp466
a(I73
I59
tp467
a(I119
I112
tp468
a(I68
I86
tp469
a(I147
I105
tp470
a(I129
I93
tp471
a(I140
I82
tp472
a(I94
I93
tp473
a(I91
I90
tp474
a(I94
I89
tp475
a(I76
I91
tp476
asg27
I200
sba(imain2
Polygon
p477
(dp478
g3
(I148
I41
tp479
sg5
I200
sg6
(I156
I1
I207
I0
tp480
sg8
(lp481
(I150
I16
tp482
a(I129
I14
tp483
a(I193
I80
tp484
a(I160
I77
tp485
a(I135
I86
tp486
a(I141
I76
tp487
a(I113
I73
tp488
a(I162
I51
tp489
a(I190
I0
tp490
a(I159
I33
tp491
a(I162
I0
tp492
a(I165
I2
tp493
a(I139
I8
tp494
asg27
I200
sba(imain2
Polygon
p495
(dp496
g3
(I188
I159
tp497
sg5
I200
sg6
(I161
I69
I67
I1
tp498
sg8
(lp499
(I200
I176
tp500
a(I166
I141
tp501
a(I184
I148
tp502
a(I200
I131
tp503
a(I200
I137
tp504
a(I183
I175
tp505
a(I200
I156
tp506
asg27
I200
sba(imain2
Polygon
p507
(dp508
g3
(I55
I106
tp509
sg5
I200
sg6
(I55
I90
I44
I7
tp510
sg8
(lp511
(I66
I123
tp512
a(I30
I90
tp513
a(I22
I90
tp514
a(I85
I102
tp515
a(I47
I155
tp516
a(I105
I88
tp517
a(I13
I106
tp518
a(I21
I156
tp519
a(I42
I127
tp520
a(I93
I141
tp521
asg27
I200
sba(imain2
Polygon
p522
(dp523
g3
(I118
I64
tp524
sg5
I200
sg6
(I130
I38
I4
I27
tp525
sg8
(lp526
(I151
I76
tp527
a(I82
I55
tp528
a(I139
I108
tp529
a(I79
I99
tp530
a(I152
I68
tp531
a(I104
I83
tp532
a(I68
I76
tp533
a(I130
I114
tp534
a(I122
I15
tp535
a(I115
I20
tp536
a(I84
I26
tp537
a(I88
I20
tp538
a(I156
I101
tp539
a(I160
I71
tp540
a(I125
I87
tp541
a(I147
I109
tp542
a(I164
I23
tp543
asg27
I200
sba(imain2
Polygon
p544
(dp545
g3
(I101
I127
tp546
sg5
I200
sg6
(I83
I173
I95
I86
tp547
sg8
(lp548
(I82
I132
tp549
a(I64
I143
tp550
a(I133
I135
tp551
a(I53
I122
tp552
a(I68
I116
tp553
asg27
I200
sba(imain2
Polygon
p554
(dp555
g3
(I42
I89
tp556
sg5
I200
sg6
(I18
I91
I179
I1
tp557
sg8
(lp558
(I54
I139
tp559
a(I32
I107
tp560
a(I60
I68
tp561
a(I84
I95
tp562
a(I17
I71
tp563
a(I74
I60
tp564
a(I11
I134
tp565
a(I90
I73
tp566
a(I7
I119
tp567
a(I60
I124
tp568
asg27
I200
sba(imain2
Polygon
p569
(dp570
g3
(I71
I151
tp571
sg5
I200
sg6
(I152
I170
I220
I142
tp572
sg8
(lp573
(I59
I125
tp574
a(I74
I126
tp575
a(I115
I198
tp576
a(I68
I200
tp577
a(I94
I176
tp578
a(I77
I200
tp579
a(I91
I177
tp580
a(I89
I164
tp581
asg27
I200
sba(imain2
Polygon
p582
(dp583
g3
(I13
I141
tp584
sg5
I200
sg6
(I246
I0
I197
I11
tp585
sg8
(lp586
(I0
I162
tp587
a(I0
I99
tp588
a(I0
I148
tp589
a(I27
I155
tp590
a(I0
I156
tp591
a(I0
I190
tp592
a(I53
I153
tp593
a(I0
I125
tp594
a(I3
I159
tp595
a(I11
I93
tp596
a(I38
I142
tp597
a(I0
I132
tp598
asg27
I200
sba(imain2
Polygon
p599
(dp600
g3
(I37
I11
tp601
sg5
I200
sg6
(I114
I19
I11
I105
tp602
sg8
(lp603
(I49
I0
tp604
a(I1
I0
tp605
a(I5
I26
tp606
a(I36
I37
tp607
a(I46
I0
tp608
a(I29
I11
tp609
asg27
I200
sba(imain2
Polygon
p610
(dp611
g3
(I97
I114
tp612
sg5
I200
sg6
(I147
I9
I202
I92
tp613
sg8
(lp614
(I62
I140
tp615
a(I96
I75
tp616
a(I62
I147
tp617
a(I78
I156
tp618
a(I49
I65
tp619
a(I62
I77
tp620
a(I102
I68
tp621
a(I111
I107
tp622
a(I103
I104
tp623
a(I63
I148
tp624
a(I89
I108
tp625
a(I116
I80
tp626
a(I47
I112
tp627
a(I72
I112
tp628
a(I76
I71
tp629
a(I109
I84
tp630
a(I80
I151
tp631
a(I73
I123
tp632
asg27
I200
sba(imain2
Polygon
p633
(dp634
g3
(I77
I12
tp635
sg5
I200
sg6
(I106
I1
I198
I0
tp636
sg8
(lp637
(I75
I13
tp638
a(I54
I19
tp639
a(I85
I0
tp640
a(I117
I47
tp641
a(I67
I54
tp642
a(I56
I0
tp643
a(I65
I53
tp644
a(I86
I30
tp645
a(I71
I18
tp646
asg27
I200
sba(imain2
Polygon
p647
(dp648
g3
(I114
I16
tp649
sg5
I200
sg6
(I1
I101
I178
I155
tp650
sg8
(lp651
(I157
I39
tp652
a(I125
I3
tp653
a(I64
I35
tp654
a(I91
I0
tp655
a(I160
I13
tp656
a(I109
I0
tp657
asg27
I200
sba(imain2
Polygon
p658
(dp659
g3
(I150
I10
tp660
sg5
I200
sg6
(I109
I60
I225
I166
tp661
sg8
(lp662
(I172
I0
tp663
a(I175
I1
tp664
a(I163
I8
tp665
a(I119
I0
tp666
a(I126
I0
tp667
a(I119
I18
tp668
a(I101
I0
tp669
a(I137
I0
tp670
a(I171
I55
tp671
a(I125
I0
tp672
asg27
I200
sba(imain2
Polygon
p673
(dp674
g3
(I41
I10
tp675
sg5
I200
sg6
(I115
I207
I84
I1
tp676
sg8
(lp677
(I57
I0
tp678
a(I85
I47
tp679
a(I8
I21
tp680
a(I9
I54
tp681
a(I27
I0
tp682
asg27
I200
sba(imain2
Polygon
p683
(dp684
g3
(I174
I159
tp685
sg5
I200
sg6
(I169
I108
I86
I110
tp686
sg8
(lp687
(I200
I125
tp688
a(I200
I200
tp689
a(I197
I200
tp690
a(I184
I191
tp691
a(I168
I116
tp692
asg27
I200
sba(imain2
Polygon
p693
(dp694
g3
(I61
I97
tp695
sg5
I200
sg6
(I124
I36
I108
I104
tp696
sg8
(lp697
(I45
I82
tp698
a(I45
I75
tp699
a(I76
I70
tp700
a(I56
I96
tp701
a(I26
I85
tp702
a(I64
I94
tp703
a(I41
I127
tp704
a(I94
I115
tp705
a(I96
I125
tp706
a(I91
I109
tp707
a(I49
I64
tp708
asg27
I200
sba(imain2
Polygon
p709
(dp710
g3
(I180
I97
tp711
sg5
I200
sg6
(I162
I156
I201
I6
tp712
sg8
(lp713
(I200
I88
tp714
a(I173
I145
tp715
a(I194
I78
tp716
a(I196
I47
tp717
a(I148
I47
tp718
a(I196
I113
tp719
a(I200
I104
tp720
a(I200
I54
tp721
asg27
I200
sba(imain2
Polygon
p722
(dp723
g3
(I101
I122
tp724
sg5
I200
sg6
(I165
I85
I0
I86
tp725
sg8
(lp726
(I79
I79
tp727
a(I54
I93
tp728
a(I81
I147
tp729
a(I106
I130
tp730
a(I90
I160
tp731
a(I118
I155
tp732
a(I135
I76
tp733
a(I77
I159
tp734
a(I83
I142
tp735
a(I98
I169
tp736
a(I123
I74
tp737
asg27
I200
sba(imain2
Polygon
p738
(dp739
g3
(I131
I15
tp740
sg5
I200
sg6
(I59
I128
I129
I0
tp741
sg8
(lp742
(I127
I30
tp743
a(I168
I0
tp744
a(I84
I0
tp745
a(I83
I17
tp746
a(I98
I0
tp747
a(I87
I0
tp748
a(I98
I27
tp749
a(I100
I0
tp750
a(I103
I9
tp751
a(I93
I0
tp752
a(I111
I0
tp753
asg27
I200
sba(imain2
Polygon
p754
(dp755
g3
(I113
I24
tp756
sg5
I200
sg6
(I157
I239
I0
I1
tp757
sg8
(lp758
(I144
I60
tp759
a(I142
I0
tp760
a(I114
I69
tp761
a(I143
I0
tp762
a(I125
I3
tp763
a(I115
I38
tp764
a(I92
I0
tp765
a(I84
I10
tp766
a(I84
I32
tp767
a(I118
I44
tp768
a(I79
I29
tp769
asg27
I200
sba(imain2
Polygon
p770
(dp771
g3
(I15
I21
tp772
sg5
I200
sg6
(I45
I43
I25
I0
tp773
sg8
(lp774
(I0
I55
tp775
a(I50
I40
tp776
a(I0
I45
tp777
a(I0
I0
tp778
a(I40
I33
tp779
a(I47
I0
tp780
asg27
I200
sba(imain2
Polygon
p781
(dp782
g3
(I75
I18
tp783
sg5
I200
sg6
(I119
I125
I39
I151
tp784
sg8
(lp785
(I80
I34
tp786
a(I30
I0
tp787
a(I115
I0
tp788
a(I90
I0
tp789
a(I110
I40
tp790
a(I29
I0
tp791
a(I86
I51
tp792
a(I46
I0
tp793
a(I40
I0
tp794
a(I82
I42
tp795
a(I65
I0
tp796
a(I41
I26
tp797
a(I118
I0
tp798
a(I74
I16
tp799
a(I25
I19
tp800
a(I27
I51
tp801
a(I111
I64
tp802
a(I97
I0
tp803
a(I33
I11
tp804
asg27
I200
sba(imain2
Polygon
p805
(dp806
g3
(I147
I31
tp807
sg5
I200
sg6
(I240
I1
I226
I157
tp808
sg8
(lp809
(I189
I0
tp810
a(I196
I42
tp811
a(I164
I35
tp812
a(I146
I28
tp813
a(I148
I10
tp814
a(I193
I77
tp815
a(I183
I0
tp816
a(I187
I24
tp817
a(I161
I29
tp818
a(I126
I17
tp819
a(I116
I7
tp820
a(I129
I0
tp821
asg27
I200
sba(imain2
Polygon
p822
(dp823
g3
(I43
I128
tp824
sg5
I200
sg6
(I89
I24
I107
I136
tp825
sg8
(lp826
(I7
I89
tp827
a(I0
I99
tp828
a(I12
I114
tp829
a(I12
I141
tp830
a(I15
I103
tp831
a(I39
I111
tp832
a(I19
I96
tp833
a(I82
I136
tp834
a(I25
I102
tp835
asg27
I200
sba(imain2
Polygon
p836
(dp837
g3
(I191
I52
tp838
sg5
I200
sg6
(I140
I143
I102
I0
tp839
sg8
(lp840
(I155
I76
tp841
a(I184
I3
tp842
a(I151
I48
tp843
a(I156
I95
tp844
a(I192
I71
tp845
a(I144
I44
tp846
a(I200
I28
tp847
a(I179
I86
tp848
a(I171
I88
tp849
asg27
I200
sba(imain2
Polygon
p850
(dp851
g3
(I124
I96
tp852
sg5
I200
sg6
(I223
I89
I122
I0
tp853
sg8
(lp854
(I79
I115
tp855
a(I139
I83
tp856
a(I171
I111
tp857
a(I134
I66
tp858
a(I86
I126
tp859
a(I97
I52
tp860
a(I100
I143
tp861
a(I172
I131
tp862
asg27
I200
sba(imain2
Polygon
p863
(dp864
g3
(I14
I107
tp865
sg5
I200
sg6
(I57
I0
I219
I141
tp866
sg8
(lp867
(I17
I104
tp868
a(I36
I114
tp869
a(I0
I102
tp870
a(I0
I111
tp871
a(I2
I119
tp872
a(I0
I104
tp873
a(I59
I117
tp874
asg27
I200
sba(imain2
Polygon
p875
(dp876
g3
(I84
I159
tp877
sg5
I200
sg6
(I51
I13
I195
I1
tp878
sg8
(lp879
(I83
I180
tp880
a(I86
I200
tp881
a(I79
I150
tp882
a(I98
I180
tp883
a(I113
I185
tp884
a(I95
I188
tp885
a(I132
I188
tp886
a(I119
I197
tp887
a(I44
I151
tp888
a(I117
I124
tp889
a(I77
I154
tp890
a(I46
I128
tp891
a(I55
I169
tp892
asg27
I200
sba(imain2
Polygon
p893
(dp894
g3
(I141
I115
tp895
sg5
I200
sg6
(I239
I171
I171
I1
tp896
sg8
(lp897
(I104
I75
tp898
a(I168
I147
tp899
a(I188
I72
tp900
asg27
I200
sba(imain2
Polygon
p901
(dp902
g3
(I199
I78
tp903
sg5
I200
sg6
(I205
I202
I85
I137
tp904
sg8
(lp905
(I151
I34
tp906
a(I200
I32
tp907
a(I200
I32
tp908
a(I200
I125
tp909
a(I164
I113
tp910
a(I192
I115
tp911
a(I189
I127
tp912
asg27
I200
sba(imain2
Polygon
p913
(dp914
g3
(I167
I90
tp915
sg5
I200
sg6
(I36
I189
I30
I66
tp916
sg8
(lp917
(I200
I94
tp918
a(I149
I78
tp919
a(I182
I102
tp920
a(I200
I135
tp921
a(I169
I91
tp922
a(I164
I106
tp923
a(I191
I117
tp924
asg27
I200
sba(imain2
Polygon
p925
(dp926
g3
(I17
I14
tp927
sg5
I200
sg6
(I0
I12
I92
I36
tp928
sg8
(lp929
(I34
I7
tp930
a(I0
I0
tp931
a(I50
I55
tp932
a(I50
I15
tp933
a(I0
I50
tp934
a(I34
I16
tp935
a(I60
I21
tp936
a(I48
I0
tp937
a(I0
I0
tp938
a(I67
I48
tp939
a(I37
I21
tp940
a(I22
I0
tp941
asg27
I200
sba(imain2
Polygon
p942
(dp943
g3
(I190
I180
tp944
sg5
I200
sg6
(I227
I106
I47
I0
tp945
sg8
(lp946
(I197
I149
tp947
a(I200
I142
tp948
a(I142
I196
tp949
asg27
I200
sba(imain2
Polygon
p950
(dp951
g3
(I70
I166
tp952
sg5
I200
sg6
(I107
I178
I3
I6
tp953
sg8
(lp954
(I76
I134
tp955
a(I117
I200
tp956
a(I73
I192
tp957
a(I109
I134
tp958
a(I111
I132
tp959
a(I27
I138
tp960
a(I109
I124
tp961
a(I48
I123
tp962
a(I77
I200
tp963
a(I110
I177
tp964
a(I52
I199
tp965
asg27
I200
sba(imain2
Polygon
p966
(dp967
g3
(I196
I185
tp968
sg5
I200
sg6
(I18
I159
I130
I1
tp969
sg8
(lp970
(I194
I183
tp971
a(I200
I159
tp972
a(I153
I136
tp973
a(I192
I153
tp974
a(I200
I197
tp975
a(I171
I200
tp976
a(I186
I148
tp977
asg27
I200
sba(imain2
Polygon
p978
(dp979
g3
(I48
I123
tp980
sg5
I200
sg6
(I166
I47
I20
I114
tp981
sg8
(lp982
(I8
I113
tp983
a(I59
I133
tp984
a(I64
I146
tp985
a(I0
I97
tp986
a(I72
I126
tp987
a(I68
I78
tp988
a(I58
I146
tp989
a(I93
I153
tp990
a(I82
I103
tp991
a(I9
I121
tp992
a(I23
I166
tp993
a(I11
I146
tp994
asg27
I200
sba(imain2
Polygon
p995
(dp996
g3
(I59
I97
tp997
sg5
I200
sg6
(I203
I50
I128
I38
tp998
sg8
(lp999
(I63
I120
tp1000
a(I40
I77
tp1001
a(I89
I86
tp1002
a(I64
I66
tp1003
a(I70
I64
tp1004
a(I53
I127
tp1005
a(I58
I52
tp1006
a(I74
I82
tp1007
a(I27
I109
tp1008
a(I65
I136
tp1009
a(I56
I68
tp1010
asg27
I200
sba(imain2
Polygon
p1011
(dp1012
g3
(I17
I149
tp1013
sg5
I200
sg6
(I1
I36
I156
I1
tp1014
sg8
(lp1015
(I9
I177
tp1016
a(I0
I144
tp1017
a(I0
I181
tp1018
a(I28
I189
tp1019
a(I5
I196
tp1020
a(I10
I136
tp1021
a(I0
I101
tp1022
a(I58
I171
tp1023
asg27
I200
sba(imain2
Polygon
p1024
(dp1025
g3
(I88
I2
tp1026
sg5
I200
sg6
(I3
I102
I62
I65
tp1027
sg8
(lp1028
(I50
I0
tp1029
a(I93
I0
tp1030
a(I115
I0
tp1031
a(I53
I0
tp1032
a(I49
I0
tp1033
a(I126
I0
tp1034
a(I85
I17
tp1035
a(I105
I20
tp1036
a(I39
I0
tp1037
a(I82
I0
tp1038
a(I73
I49
tp1039
a(I78
I0
tp1040
asg27
I200
sba(imain2
Polygon
p1041
(dp1042
g3
(I3
I161
tp1043
sg5
I200
sg6
(I177
I18
I191
I23
tp1044
sg8
(lp1045
(I9
I133
tp1046
a(I24
I146
tp1047
a(I2
I191
tp1048
a(I28
I185
tp1049
a(I30
I152
tp1050
a(I9
I149
tp1051
a(I9
I162
tp1052
a(I3
I146
tp1053
a(I10
I173
tp1054
a(I0
I164
tp1055
a(I15
I180
tp1056
a(I0
I145
tp1057
a(I0
I138
tp1058
a(I0
I121
tp1059
asg27
I200
sba(imain2
Polygon
p1060
(dp1061
g3
(I98
I58
tp1062
sg5
I200
sg6
(I38
I65
I170
I1
tp1063
sg8
(lp1064
(I92
I81
tp1065
a(I98
I84
tp1066
a(I85
I107
tp1067
a(I64
I12
tp1068
asg27
I200
sba(imain2
Polygon
p1069
(dp1070
g3
(I109
I111
tp1071
sg5
I200
sg6
(I228
I37
I100
I15
tp1072
sg8
(lp1073
(I148
I132
tp1074
a(I84
I98
tp1075
a(I62
I83
tp1076
a(I117
I140
tp1077
a(I63
I108
tp1078
a(I124
I120
tp1079
a(I102
I78
tp1080
a(I109
I142
tp1081
asg27
I200
sba(imain2
Polygon
p1082
(dp1083
g3
(I83
I155
tp1084
sg5
I200
sg6
(I203
I44
I184
I38
tp1085
sg8
(lp1086
(I92
I163
tp1087
a(I42
I116
tp1088
a(I102
I200
tp1089
a(I132
I200
tp1090
a(I73
I148
tp1091
a(I112
I160
tp1092
a(I106
I115
tp1093
a(I108
I125
tp1094
a(I77
I161
tp1095
a(I62
I200
tp1096
a(I131
I190
tp1097
a(I120
I173
tp1098
a(I51
I184
tp1099
a(I64
I176
tp1100
a(I66
I129
tp1101
a(I72
I130
tp1102
a(I99
I200
tp1103
asg27
I200
sba(imain2
Polygon
p1104
(dp1105
g3
(I81
I21
tp1106
sg5
I200
sg6
(I137
I1
I27
I130
tp1107
sg8
(lp1108
(I69
I0
tp1109
a(I78
I20
tp1110
a(I43
I48
tp1111
a(I79
I5
tp1112
a(I122
I60
tp1113
a(I88
I45
tp1114
a(I63
I3
tp1115
asg27
I200
sba(imain2
Polygon
p1116
(dp1117
g3
(I77
I115
tp1118
sg5
I200
sg6
(I95
I242
I219
I1
tp1119
sg8
(lp1120
(I54
I77
tp1121
a(I55
I91
tp1122
a(I104
I129
tp1123
a(I95
I85
tp1124
a(I62
I79
tp1125
a(I85
I78
tp1126
asg27
I200
sba(imain2
Polygon
p1127
(dp1128
g3
(I108
I110
tp1129
sg5
I200
sg6
(I144
I115
I145
I0
tp1130
sg8
(lp1131
(I109
I74
tp1132
a(I75
I96
tp1133
a(I129
I91
tp1134
a(I152
I114
tp1135
a(I115
I134
tp1136
a(I75
I81
tp1137
a(I88
I60
tp1138
a(I84
I78
tp1139
a(I128
I134
tp1140
a(I110
I143
tp1141
asg27
I200
sba(imain2
Polygon
p1142
(dp1143
g3
(I7
I122
tp1144
sg5
I200
sg6
(I153
I3
I159
I1
tp1145
sg8
(lp1146
(I53
I94
tp1147
a(I0
I150
tp1148
a(I54
I156
tp1149
a(I20
I114
tp1150
a(I0
I167
tp1151
a(I28
I84
tp1152
a(I25
I137
tp1153
a(I37
I144
tp1154
a(I18
I77
tp1155
a(I0
I77
tp1156
a(I0
I149
tp1157
a(I0
I161
tp1158
a(I0
I165
tp1159
a(I18
I168
tp1160
a(I36
I133
tp1161
a(I0
I164
tp1162
a(I35
I151
tp1163
a(I0
I96
tp1164
asg27
I200
sba(imain2
Polygon
p1165
(dp1166
g3
(I105
I20
tp1167
sg5
I200
sg6
(I212
I28
I228
I0
tp1168
sg8
(lp1169
(I93
I47
tp1170
a(I99
I0
tp1171
a(I129
I65
tp1172
a(I129
I0
tp1173
a(I148
I4
tp1174
a(I70
I44
tp1175
asg27
I200
sba(imain2
Polygon
p1176
(dp1177
g3
(I47
I80
tp1178
sg5
I200
sg6
(I109
I49
I114
I36
tp1179
sg8
(lp1180
(I90
I52
tp1181
a(I68
I48
tp1182
a(I60
I119
tp1183
a(I5
I121
tp1184
a(I45
I74
tp1185
a(I61
I51
tp1186
a(I22
I77
tp1187
a(I78
I96
tp1188
a(I87
I51
tp1189
a(I28
I59
tp1190
a(I13
I128
tp1191
a(I58
I108
tp1192
a(I46
I78
tp1193
a(I37
I61
tp1194
a(I19
I101
tp1195
a(I14
I102
tp1196
a(I66
I52
tp1197
a(I20
I93
tp1198
a(I68
I74
tp1199
asg27
I200
sba(imain2
Polygon
p1200
(dp1201
g3
(I131
I30
tp1202
sg5
I200
sg6
(I205
I124
I171
I4
tp1203
sg8
(lp1204
(I172
I55
tp1205
a(I152
I65
tp1206
a(I104
I47
tp1207
a(I153
I41
tp1208
asg27
I200
sba(imain2
Polygon
p1209
(dp1210
g3
(I199
I39
tp1211
sg5
I200
sg6
(I94
I190
I107
I63
tp1212
sg8
(lp1213
(I178
I52
tp1214
a(I183
I31
tp1215
a(I187
I1
tp1216
a(I150
I0
tp1217
a(I200
I89
tp1218
a(I200
I6
tp1219
a(I189
I0
tp1220
asg27
I200
sba(imain2
Polygon
p1221
(dp1222
g3
(I110
I156
tp1223
sg5
I200
sg6
(I190
I91
I127
I1
tp1224
sg8
(lp1225
(I63
I144
tp1226
a(I142
I141
tp1227
a(I87
I176
tp1228
a(I106
I160
tp1229
a(I103
I145
tp1230
a(I142
I107
tp1231
a(I144
I124
tp1232
a(I104
I157
tp1233
a(I75
I182
tp1234
a(I96
I148
tp1235
a(I131
I113
tp1236
a(I85
I187
tp1237
a(I147
I189
tp1238
a(I76
I164
tp1239
asg27
I200
sba(imain2
Polygon
p1240
(dp1241
g3
(I14
I89
tp1242
sg5
I200
sg6
(I201
I21
I25
I92
tp1243
sg8
(lp1244
(I0
I74
tp1245
a(I49
I72
tp1246
a(I53
I72
tp1247
a(I55
I44
tp1248
a(I17
I118
tp1249
asg27
I200
sba(imain2
Polygon
p1250
(dp1251
g3
(I124
I127
tp1252
sg5
I200
sg6
(I174
I218
I173
I0
tp1253
sg8
(lp1254
(I134
I100
tp1255
a(I78
I136
tp1256
a(I98
I106
tp1257
a(I111
I115
tp1258
a(I147
I96
tp1259
a(I130
I168
tp1260
a(I120
I108
tp1261
a(I171
I139
tp1262
a(I157
I125
tp1263
a(I153
I94
tp1264
a(I123
I89
tp1265
a(I92
I110
tp1266
asg27
I200
sba(imain2
Polygon
p1267
(dp1268
g3
(I97
I78
tp1269
sg5
I200
sg6
(I147
I202
I158
I1
tp1270
sg8
(lp1271
(I113
I61
tp1272
a(I62
I103
tp1273
a(I83
I75
tp1274
a(I87
I100
tp1275
a(I107
I104
tp1276
a(I53
I80
tp1277
a(I93
I28
tp1278
a(I98
I57
tp1279
a(I69
I107
tp1280
a(I115
I117
tp1281
a(I137
I65
tp1282
asg27
I200
sba(imain2
Polygon
p1283
(dp1284
g3
(I71
I43
tp1285
sg5
I200
sg6
(I219
I214
I119
I1
tp1286
sg8
(lp1287
(I107
I87
tp1288
a(I95
I41
tp1289
a(I77
I56
tp1290
a(I86
I48
tp1291
a(I114
I0
tp1292
a(I119
I14
tp1293
a(I48
I51
tp1294
a(I47
I52
tp1295
asg27
I200
sba(imain2
Polygon
p1296
(dp1297
g3
(I109
I75
tp1298
sg5
I200
sg6
(I110
I165
I69
I136
tp1299
sg8
(lp1300
(I63
I26
tp1301
a(I62
I79
tp1302
a(I120
I76
tp1303
a(I87
I26
tp1304
asg27
I200
sba(imain2
Polygon
p1305
(dp1306
g3
(I149
I45
tp1307
sg5
I200
sg6
(I207
I141
I127
I86
tp1308
sg8
(lp1309
(I199
I90
tp1310
a(I193
I78
tp1311
a(I161
I69
tp1312
a(I183
I12
tp1313
a(I143
I12
tp1314
a(I175
I87
tp1315
a(I158
I84
tp1316
a(I187
I0
tp1317
a(I185
I0
tp1318
a(I187
I0
tp1319
a(I130
I0
tp1320
a(I187
I18
tp1321
a(I198
I21
tp1322
asg27
I200
sba(imain2
Polygon
p1323
(dp1324
g3
(I29
I98
tp1325
sg5
I200
sg6
(I7
I135
I170
I51
tp1326
sg8
(lp1327
(I28
I112
tp1328
a(I62
I70
tp1329
a(I0
I92
tp1330
a(I46
I51
tp1331
a(I40
I138
tp1332
a(I19
I62
tp1333
a(I40
I82
tp1334
a(I7
I82
tp1335
a(I39
I54
tp1336
a(I60
I84
tp1337
a(I49
I70
tp1338
a(I28
I90
tp1339
asg27
I200
sba(imain2
Polygon
p1340
(dp1341
g3
(I90
I62
tp1342
sg5
I200
sg6
(I177
I118
I131
I1
tp1343
sg8
(lp1344
(I44
I112
tp1345
a(I109
I49
tp1346
a(I129
I98
tp1347
a(I72
I31
tp1348
a(I116
I81
tp1349
a(I136
I94
tp1350
a(I100
I106
tp1351
a(I94
I104
tp1352
a(I46
I96
tp1353
a(I140
I108
tp1354
asg27
I200
sba(imain2
Polygon
p1355
(dp1356
g3
(I63
I49
tp1357
sg5
I200
sg6
(I221
I251
I137
I1
tp1358
sg8
(lp1359
(I51
I74
tp1360
a(I98
I72
tp1361
a(I22
I10
tp1362
a(I93
I34
tp1363
a(I82
I92
tp1364
a(I74
I89
tp1365
a(I81
I55
tp1366
a(I94
I27
tp1367
a(I104
I97
tp1368
a(I100
I13
tp1369
asg27
I200
sba(imain2
Polygon
p1370
(dp1371
g3
(I31
I132
tp1372
sg5
I200
sg6
(I74
I118
I196
I38
tp1373
sg8
(lp1374
(I0
I123
tp1375
a(I35
I167
tp1376
a(I3
I115
tp1377
a(I0
I167
tp1378
a(I30
I175
tp1379
a(I10
I143
tp1380
a(I34
I118
tp1381
a(I73
I133
tp1382
a(I5
I99
tp1383
a(I35
I163
tp1384
a(I0
I111
tp1385
a(I49
I139
tp1386
a(I49
I135
tp1387
asg27
I200
sba(imain2
Polygon
p1388
(dp1389
g3
(I80
I158
tp1390
sg5
I200
sg6
(I24
I44
I61
I0
tp1391
sg8
(lp1392
(I43
I138
tp1393
a(I101
I190
tp1394
a(I104
I142
tp1395
a(I116
I150
tp1396
a(I30
I162
tp1397
a(I97
I118
tp1398
a(I111
I110
tp1399
a(I95
I171
tp1400
a(I74
I194
tp1401
a(I30
I174
tp1402
a(I50
I171
tp1403
a(I72
I163
tp1404
a(I71
I181
tp1405
a(I112
I146
tp1406
a(I78
I187
tp1407
a(I60
I154
tp1408
a(I58
I122
tp1409
a(I126
I161
tp1410
a(I51
I200
tp1411
a(I120
I184
tp1412
asg27
I200
sba(imain2
Polygon
p1413
(dp1414
g3
(I168
I51
tp1415
sg5
I200
sg6
(I101
I205
I209
I0
tp1416
sg8
(lp1417
(I123
I53
tp1418
a(I121
I29
tp1419
a(I200
I23
tp1420
a(I153
I39
tp1421
a(I124
I80
tp1422
a(I173
I84
tp1423
a(I200
I12
tp1424
a(I146
I34
tp1425
a(I135
I101
tp1426
a(I200
I49
tp1427
asg27
I200
sba(imain2
Polygon
p1428
(dp1429
g3
(I110
I14
tp1430
sg5
I200
sg6
(I157
I137
I49
I157
tp1431
sg8
(lp1432
(I118
I49
tp1433
a(I93
I61
tp1434
a(I101
I0
tp1435
a(I156
I0
tp1436
a(I158
I0
tp1437
a(I153
I19
tp1438
a(I144
I28
tp1439
a(I65
I3
tp1440
a(I67
I58
tp1441
a(I105
I0
tp1442
a(I70
I0
tp1443
a(I64
I52
tp1444
asg27
I200
sba(imain2
Polygon
p1445
(dp1446
g3
(I85
I94
tp1447
sg5
I200
sg6
(I204
I234
I85
I66
tp1448
sg8
(lp1449
(I62
I116
tp1450
a(I110
I104
tp1451
a(I73
I58
tp1452
a(I105
I45
tp1453
a(I125
I73
tp1454
a(I129
I68
tp1455
a(I68
I108
tp1456
a(I126
I77
tp1457
a(I124
I111
tp1458
a(I62
I45
tp1459
a(I45
I66
tp1460
a(I55
I129
tp1461
a(I74
I60
tp1462
asg27
I200
sba(imain2
Polygon
p1463
(dp1464
g3
(I153
I81
tp1465
sg5
I200
sg6
(I122
I87
I190
I4
tp1466
sg8
(lp1467
(I190
I116
tp1468
a(I172
I36
tp1469
a(I138
I80
tp1470
a(I163
I84
tp1471
a(I162
I85
tp1472
a(I127
I120
tp1473
a(I180
I94
tp1474
a(I106
I123
tp1475
asg27
I200
sba(imain2
Polygon
p1476
(dp1477
g3
(I146
I37
tp1478
sg5
I200
sg6
(I227
I85
I158
I0
tp1479
sg8
(lp1480
(I104
I12
tp1481
a(I109
I72
tp1482
a(I129
I6
tp1483
a(I111
I12
tp1484
a(I117
I80
tp1485
a(I190
I51
tp1486
a(I157
I74
tp1487
a(I164
I41
tp1488
a(I151
I39
tp1489
asg27
I200
sba(imain2
Polygon
p1490
(dp1491
g3
(I36
I71
tp1492
sg5
I200
sg6
(I179
I121
I136
I0
tp1493
sg8
(lp1494
(I58
I121
tp1495
a(I82
I65
tp1496
a(I60
I30
tp1497
a(I14
I70
tp1498
a(I42
I113
tp1499
a(I36
I78
tp1500
a(I82
I115
tp1501
a(I52
I28
tp1502
a(I75
I42
tp1503
a(I46
I58
tp1504
a(I35
I104
tp1505
asg27
I200
sba(imain2
Polygon
p1506
(dp1507
g3
(I36
I181
tp1508
sg5
I200
sg6
(I143
I213
I97
I97
tp1509
sg8
(lp1510
(I78
I149
tp1511
a(I60
I152
tp1512
a(I21
I155
tp1513
a(I0
I170
tp1514
a(I52
I149
tp1515
a(I50
I141
tp1516
a(I71
I200
tp1517
a(I13
I140
tp1518
a(I43
I172
tp1519
a(I80
I200
tp1520
a(I55
I200
tp1521
a(I66
I188
tp1522
a(I86
I136
tp1523
a(I60
I200
tp1524
asg27
I200
sba(imain2
Polygon
p1525
(dp1526
g3
(I94
I181
tp1527
sg5
I200
sg6
(I112
I50
I36
I1
tp1528
sg8
(lp1529
(I84
I135
tp1530
a(I136
I200
tp1531
a(I74
I200
tp1532
a(I72
I156
tp1533
a(I117
I185
tp1534
a(I56
I136
tp1535
a(I88
I185
tp1536
a(I130
I199
tp1537
a(I115
I200
tp1538
asg27
I200
sba(imain2
Polygon
p1539
(dp1540
g3
(I4
I26
tp1541
sg5
I200
sg6
(I29
I105
I61
I65
tp1542
sg8
(lp1543
(I43
I0
tp1544
a(I49
I74
tp1545
a(I26
I19
tp1546
a(I21
I31
tp1547
a(I0
I38
tp1548
a(I9
I3
tp1549
a(I54
I51
tp1550
a(I7
I69
tp1551
a(I0
I66
tp1552
a(I0
I27
tp1553
a(I0
I27
tp1554
a(I30
I0
tp1555
a(I0
I0
tp1556
a(I21
I16
tp1557
a(I0
I0
tp1558
a(I0
I52
tp1559
a(I0
I38
tp1560
asg27
I200
sba(imain2
Polygon
p1561
(dp1562
g3
(I14
I45
tp1563
sg5
I200
sg6
(I149
I108
I1
I1
tp1564
sg8
(lp1565
(I16
I35
tp1566
a(I21
I22
tp1567
a(I0
I36
tp1568
a(I42
I1
tp1569
a(I0
I24
tp1570
a(I0
I84
tp1571
a(I60
I29
tp1572
a(I48
I22
tp1573
a(I52
I8
tp1574
a(I0
I68
tp1575
a(I8
I23
tp1576
a(I31
I80
tp1577
asg27
I200
sba(imain2
Polygon
p1578
(dp1579
g3
(I103
I69
tp1580
sg5
I200
sg6
(I233
I219
I1
I48
tp1581
sg8
(lp1582
(I87
I21
tp1583
a(I53
I51
tp1584
a(I57
I81
tp1585
a(I127
I84
tp1586
a(I106
I109
tp1587
a(I135
I89
tp1588
a(I101
I49
tp1589
asg27
I200
sba(imain2
Polygon
p1590
(dp1591
g3
(I61
I77
tp1592
sg5
I200
sg6
(I62
I123
I192
I147
tp1593
sg8
(lp1594
(I90
I104
tp1595
a(I88
I94
tp1596
a(I101
I92
tp1597
a(I87
I88
tp1598
asg27
I200
sba(imain2
Polygon
p1599
(dp1600
g3
(I36
I98
tp1601
sg5
I200
sg6
(I0
I201
I75
I60
tp1602
sg8
(lp1603
(I15
I55
tp1604
a(I4
I90
tp1605
a(I0
I121
tp1606
a(I0
I53
tp1607
a(I32
I115
tp1608
a(I30
I53
tp1609
a(I0
I53
tp1610
a(I78
I124
tp1611
asg27
I200
sba(imain2
Polygon
p1612
(dp1613
g3
(I20
I133
tp1614
sg5
I200
sg6
(I201
I239
I136
I99
tp1615
sg8
(lp1616
(I30
I179
tp1617
a(I9
I179
tp1618
a(I0
I175
tp1619
a(I2
I152
tp1620
asg27
I200
sba(imain2
Polygon
p1621
(dp1622
g3
(I178
I74
tp1623
sg5
I200
sg6
(I33
I122
I33
I0
tp1624
sg8
(lp1625
(I156
I88
tp1626
a(I128
I75
tp1627
a(I163
I121
tp1628
a(I143
I41
tp1629
a(I200
I95
tp1630
a(I200
I59
tp1631
a(I176
I80
tp1632
a(I164
I74
tp1633
asg27
I200
sba(imain2
Polygon
p1634
(dp1635
g3
(I191
I151
tp1636
sg5
I200
sg6
(I241
I45
I77
I76
tp1637
sg8
(lp1638
(I190
I106
tp1639
a(I178
I166
tp1640
a(I189
I120
tp1641
a(I175
I104
tp1642
asg27
I200
sba(imain2
Polygon
p1643
(dp1644
g3
(I81
I200
tp1645
sg5
I200
sg6
(I43
I60
I161
I55
tp1646
sg8
(lp1647
(I63
I200
tp1648
a(I33
I187
tp1649
a(I129
I174
tp1650
a(I85
I184
tp1651
a(I101
I156
tp1652
a(I51
I198
tp1653
a(I101
I200
tp1654
a(I94
I200
tp1655
a(I46
I200
tp1656
a(I62
I200
tp1657
a(I31
I200
tp1658
a(I87
I164
tp1659
asg27
I200
sba(imain2
Polygon
p1660
(dp1661
g3
(I8
I200
tp1662
sg5
I200
sg6
(I237
I15
I68
I162
tp1663
sg8
(lp1664
(I0
I200
tp1665
a(I0
I200
tp1666
a(I30
I200
tp1667
a(I0
I200
tp1668
a(I0
I200
tp1669
a(I0
I196
tp1670
a(I0
I200
tp1671
a(I0
I199
tp1672
a(I31
I155
tp1673
a(I0
I200
tp1674
a(I0
I195
tp1675
asg27
I200
sba(imain2
Polygon
p1676
(dp1677
g3
(I12
I187
tp1678
sg5
I200
sg6
(I225
I2
I180
I1
tp1679
sg8
(lp1680
(I0
I152
tp1681
a(I0
I200
tp1682
a(I54
I200
tp1683
a(I0
I174
tp1684
a(I0
I200
tp1685
a(I59
I200
tp1686
a(I0
I191
tp1687
a(I36
I168
tp1688
a(I51
I153
tp1689
a(I13
I200
tp1690
asg27
I200
sba(imain2
Polygon
p1691
(dp1692
g3
(I142
I43
tp1693
sg5
I200
sg6
(I51
I78
I166
I39
tp1694
sg8
(lp1695
(I132
I26
tp1696
a(I147
I48
tp1697
a(I162
I61
tp1698
a(I131
I41
tp1699
a(I187
I91
tp1700
a(I136
I29
tp1701
a(I138
I14
tp1702
a(I123
I43
tp1703
a(I102
I88
tp1704
a(I122
I35
tp1705
a(I153
I44
tp1706
a(I138
I26
tp1707
a(I158
I17
tp1708
a(I122
I27
tp1709
a(I177
I2
tp1710
asg27
I200
sba(imain2
Polygon
p1711
(dp1712
g3
(I89
I37
tp1713
sg5
I200
sg6
(I0
I104
I198
I100
tp1714
sg8
(lp1715
(I104
I35
tp1716
a(I54
I51
tp1717
a(I55
I50
tp1718
asg27
I200
sba(imain2
Polygon
p1719
(dp1720
g3
(I43
I51
tp1721
sg5
I200
sg6
(I38
I143
I123
I1
tp1722
sg8
(lp1723
(I37
I89
tp1724
a(I71
I76
tp1725
a(I91
I92
tp1726
a(I85
I2
tp1727
a(I30
I90
tp1728
a(I47
I38
tp1729
a(I65
I32
tp1730
a(I65
I24
tp1731
a(I89
I46
tp1732
a(I60
I23
tp1733
a(I43
I46
tp1734
a(I89
I89
tp1735
a(I39
I83
tp1736
a(I0
I43
tp1737
a(I42
I4
tp1738
a(I14
I58
tp1739
a(I22
I62
tp1740
a(I37
I35
tp1741
asg27
I200
sba(imain2
Polygon
p1742
(dp1743
g3
(I23
I143
tp1744
sg5
I200
sg6
(I76
I248
I175
I74
tp1745
sg8
(lp1746
(I6
I147
tp1747
a(I23
I157
tp1748
a(I4
I149
tp1749
a(I0
I188
tp1750
a(I29
I191
tp1751
a(I25
I165
tp1752
a(I57
I187
tp1753
asg27
I200
sba(imain2
Polygon
p1754
(dp1755
g3
(I32
I143
tp1756
sg5
I200
sg6
(I53
I74
I163
I6
tp1757
sg8
(lp1758
(I61
I156
tp1759
a(I79
I188
tp1760
a(I5
I104
tp1761
a(I0
I107
tp1762
a(I1
I143
tp1763
a(I44
I162
tp1764
a(I3
I117
tp1765
a(I70
I178
tp1766
a(I55
I127
tp1767
a(I28
I176
tp1768
a(I62
I174
tp1769
a(I0
I114
tp1770
a(I39
I147
tp1771
a(I66
I157
tp1772
asg27
I200
sba(imain2
Polygon
p1773
(dp1774
g3
(I69
I107
tp1775
sg5
I200
sg6
(I162
I229
I0
I29
tp1776
sg8
(lp1777
(I92
I73
tp1778
a(I40
I61
tp1779
a(I104
I157
tp1780
a(I58
I92
tp1781
a(I103
I75
tp1782
a(I70
I101
tp1783
a(I72
I136
tp1784
a(I111
I103
tp1785
a(I26
I103
tp1786
a(I52
I77
tp1787
a(I69
I96
tp1788
a(I113
I129
tp1789
asg27
I200
sba(imain2
Polygon
p1790
(dp1791
g3
(I172
I111
tp1792
sg5
I200
sg6
(I239
I216
I87
I142
tp1793
sg8
(lp1794
(I162
I84
tp1795
a(I200
I88
tp1796
a(I177
I85
tp1797
asg27
I200
sba(imain2
Polygon
p1798
(dp1799
g3
(I150
I91
tp1800
sg5
I200
sg6
(I10
I244
I88
I58
tp1801
sg8
(lp1802
(I191
I127
tp1803
a(I169
I84
tp1804
a(I165
I85
tp1805
a(I174
I90
tp1806
a(I191
I123
tp1807
asg27
I200
sba(imain2
Polygon
p1808
(dp1809
g3
(I135
I188
tp1810
sg5
I200
sg6
(I80
I231
I8
I0
tp1811
sg8
(lp1812
(I155
I145
tp1813
a(I174
I200
tp1814
a(I90
I186
tp1815
a(I103
I154
tp1816
a(I97
I156
tp1817
a(I142
I179
tp1818
a(I177
I190
tp1819
a(I121
I200
tp1820
asg27
I200
sba(imain2
Polygon
p1821
(dp1822
g3
(I127
I113
tp1823
sg5
I200
sg6
(I134
I216
I151
I31
tp1824
sg8
(lp1825
(I109
I131
tp1826
a(I101
I135
tp1827
a(I148
I82
tp1828
a(I81
I98
tp1829
a(I82
I125
tp1830
asg27
I200
sba(imain2
Polygon
p1831
(dp1832
g3
(I173
I20
tp1833
sg5
I200
sg6
(I231
I1
I219
I1
tp1834
sg8
(lp1835
(I161
I56
tp1836
a(I145
I56
tp1837
a(I182
I3
tp1838
a(I200
I0
tp1839
a(I180
I2
tp1840
a(I200
I18
tp1841
a(I128
I54
tp1842
a(I148
I37
tp1843
a(I189
I36
tp1844
a(I185
I0
tp1845
a(I186
I0
tp1846
a(I200
I12
tp1847
a(I149
I40
tp1848
asg27
I200
sba(imain2
Polygon
p1849
(dp1850
g3
(I100
I197
tp1851
sg5
I200
sg6
(I38
I103
I179
I84
tp1852
sg8
(lp1853
(I113
I200
tp1854
a(I118
I200
tp1855
a(I147
I200
tp1856
a(I104
I151
tp1857
a(I135
I187
tp1858
a(I106
I200
tp1859
a(I137
I200
tp1860
a(I71
I200
tp1861
a(I135
I200
tp1862
a(I72
I198
tp1863
a(I133
I200
tp1864
a(I127
I200
tp1865
a(I51
I200
tp1866
a(I55
I200
tp1867
asg27
I200
sba(imain2
Polygon
p1868
(dp1869
g3
(I70
I0
tp1870
sg5
I200
sg6
(I136
I0
I198
I0
tp1871
sg8
(lp1872
(I62
I0
tp1873
a(I80
I22
tp1874
a(I111
I25
tp1875
a(I90
I0
tp1876
a(I115
I27
tp1877
a(I52
I0
tp1878
a(I76
I34
tp1879
a(I31
I13
tp1880
asg27
I200
sba(imain2
Polygon
p1881
(dp1882
g3
(I106
I152
tp1883
sg5
I200
sg6
(I99
I164
I63
I76
tp1884
sg8
(lp1885
(I133
I114
tp1886
a(I111
I190
tp1887
a(I119
I166
tp1888
a(I57
I193
tp1889
a(I140
I199
tp1890
a(I115
I114
tp1891
a(I56
I163
tp1892
a(I124
I140
tp1893
a(I138
I185
tp1894
a(I122
I150
tp1895
a(I85
I159
tp1896
asg27
I200
sba(imain2
Polygon
p1897
(dp1898
g3
(I11
I38
tp1899
sg5
I200
sg6
(I111
I1
I127
I27
tp1900
sg8
(lp1901
(I10
I21
tp1902
a(I13
I59
tp1903
a(I32
I79
tp1904
a(I0
I5
tp1905
a(I6
I34
tp1906
a(I34
I54
tp1907
a(I60
I54
tp1908
a(I0
I15
tp1909
asg27
I200
sba(imain2
Polygon
p1910
(dp1911
g3
(I23
I68
tp1912
sg5
I200
sg6
(I217
I112
I190
I136
tp1913
sg8
(lp1914
(I35
I109
tp1915
a(I24
I85
tp1916
a(I54
I19
tp1917
a(I25
I33
tp1918
a(I35
I32
tp1919
a(I36
I40
tp1920
a(I0
I19
tp1921
a(I0
I111
tp1922
a(I7
I98
tp1923
a(I38
I112
tp1924
a(I11
I80
tp1925
asg27
I200
sba(imain2
Polygon
p1926
(dp1927
g3
(I73
I8
tp1928
sg5
I200
sg6
(I107
I163
I21
I142
tp1929
sg8
(lp1930
(I33
I0
tp1931
a(I31
I0
tp1932
a(I113
I0
tp1933
a(I27
I56
tp1934
a(I23
I45
tp1935
a(I24
I0
tp1936
a(I84
I33
tp1937
a(I39
I6
tp1938
a(I49
I29
tp1939
asg27
I200
sba(imain2
Polygon
p1940
(dp1941
g3
(I175
I187
tp1942
sg5
I200
sg6
(I124
I194
I200
I73
tp1943
sg8
(lp1944
(I200
I200
tp1945
a(I200
I164
tp1946
a(I200
I200
tp1947
a(I170
I200
tp1948
a(I146
I200
tp1949
asg27
I200
sba(imain2
Polygon
p1950
(dp1951
g3
(I153
I195
tp1952
sg5
I200
sg6
(I55
I168
I30
I1
tp1953
sg8
(lp1954
(I142
I200
tp1955
a(I138
I200
tp1956
a(I186
I200
tp1957
a(I144
I196
tp1958
a(I169
I200
tp1959
a(I168
I147
tp1960
a(I192
I165
tp1961
a(I136
I184
tp1962
a(I133
I168
tp1963
asg27
I200
sba(imain2
Polygon
p1964
(dp1965
g3
(I199
I6
tp1966
sg5
I200
sg6
(I147
I42
I88
I1
tp1967
sg8
(lp1968
(I200
I0
tp1969
a(I197
I0
tp1970
a(I200
I0
tp1971
a(I149
I0
tp1972
a(I200
I0
tp1973
a(I200
I18
tp1974
a(I200
I0
tp1975
a(I200
I0
tp1976
asg27
I200
sba(imain2
Polygon
p1977
(dp1978
g3
(I46
I191
tp1979
sg5
I200
sg6
(I93
I18
I9
I135
tp1980
sg8
(lp1981
(I75
I189
tp1982
a(I73
I200
tp1983
a(I0
I200
tp1984
a(I94
I165
tp1985
a(I0
I200
tp1986
a(I0
I146
tp1987
a(I27
I155
tp1988
a(I88
I189
tp1989
a(I77
I145
tp1990
a(I35
I167
tp1991
asg27
I200
sba(imain2
Polygon
p1992
(dp1993
g3
(I144
I179
tp1994
sg5
I200
sg6
(I126
I34
I192
I66
tp1995
sg8
(lp1996
(I165
I180
tp1997
a(I161
I152
tp1998
a(I185
I152
tp1999
a(I140
I155
tp2000
a(I173
I170
tp2001
a(I133
I187
tp2002
a(I191
I200
tp2003
a(I106
I200
tp2004
a(I113
I200
tp2005
a(I159
I164
tp2006
a(I159
I200
tp2007
a(I151
I144
tp2008
a(I168
I137
tp2009
a(I148
I158
tp2010
a(I154
I153
tp2011
a(I155
I129
tp2012
asg27
I200
sba(imain2
Polygon
p2013
(dp2014
g3
(I120
I46
tp2015
sg5
I200
sg6
(I88
I84
I106
I74
tp2016
sg8
(lp2017
(I118
I65
tp2018
a(I95
I18
tp2019
a(I89
I13
tp2020
a(I116
I13
tp2021
a(I97
I17
tp2022
a(I112
I27
tp2023
a(I122
I89
tp2024
a(I125
I46
tp2025
asg27
I200
sba(imain2
Polygon
p2026
(dp2027
g3
(I100
I144
tp2028
sg5
I200
sg6
(I125
I185
I168
I135
tp2029
sg8
(lp2030
(I112
I95
tp2031
a(I104
I138
tp2032
a(I98
I126
tp2033
a(I74
I100
tp2034
a(I78
I118
tp2035
a(I83
I152
tp2036
a(I65
I170
tp2037
a(I68
I158
tp2038
a(I56
I110
tp2039
asg27
I200
sba(imain2
Polygon
p2040
(dp2041
g3
(I151
I184
tp2042
sg5
I200
sg6
(I139
I4
I175
I15
tp2043
sg8
(lp2044
(I132
I183
tp2045
a(I190
I200
tp2046
a(I182
I152
tp2047
a(I200
I200
tp2048
a(I169
I169
tp2049
asg27
I200
sba(imain2
Polygon
p2050
(dp2051
g3
(I124
I187
tp2052
sg5
I200
sg6
(I32
I29
I211
I1
tp2053
sg8
(lp2054
(I128
I191
tp2055
a(I124
I194
tp2056
a(I97
I200
tp2057
a(I145
I160
tp2058
a(I90
I200
tp2059
a(I145
I168
tp2060
a(I77
I147
tp2061
a(I80
I200
tp2062
asg27
I200
sba(imain2
Polygon
p2063
(dp2064
g3
(I48
I52
tp2065
sg5
I200
sg6
(I248
I132
I165
I141
tp2066
sg8
(lp2067
(I59
I92
tp2068
a(I10
I100
tp2069
a(I79
I94
tp2070
a(I97
I60
tp2071
a(I65
I16
tp2072
a(I36
I66
tp2073
a(I31
I93
tp2074
a(I88
I8
tp2075
a(I0
I10
tp2076
a(I0
I82
tp2077
a(I2
I102
tp2078
a(I26
I82
tp2079
a(I18
I85
tp2080
a(I0
I89
tp2081
a(I75
I83
tp2082
asg27
I200
sba(imain2
Polygon
p2083
(dp2084
g3
(I139
I74
tp2085
sg5
I200
sg6
(I153
I193
I239
I112
tp2086
sg8
(lp2087
(I99
I51
tp2088
a(I189
I47
tp2089
a(I185
I26
tp2090
a(I157
I30
tp2091
a(I171
I52
tp2092
a(I187
I48
tp2093
asg27
I200
sba(imain2
Polygon
p2094
(dp2095
g3
(I161
I83
tp2096
sg5
I200
sg6
(I205
I150
I106
I45
tp2097
sg8
(lp2098
(I147
I55
tp2099
a(I134
I56
tp2100
a(I114
I49
tp2101
a(I158
I64
tp2102
a(I187
I60
tp2103
a(I155
I98
tp2104
a(I177
I113
tp2105
a(I199
I106
tp2106
a(I200
I62
tp2107
a(I200
I106
tp2108
a(I200
I49
tp2109
a(I140
I35
tp2110
a(I197
I72
tp2111
a(I172
I66
tp2112
a(I149
I64
tp2113
asg27
I200
sba(imain2
Polygon
p2114
(dp2115
g3
(I88
I36
tp2116
sg5
I200
sg6
(I1
I31
I74
I132
tp2117
sg8
(lp2118
(I67
I7
tp2119
a(I82
I0
tp2120
a(I49
I39
tp2121
a(I102
I37
tp2122
a(I134
I70
tp2123
a(I125
I14
tp2124
a(I135
I16
tp2125
a(I71
I9
tp2126
a(I42
I13
tp2127
a(I58
I13
tp2128
asg27
I200
sba(imain2
Polygon
p2129
(dp2130
g3
(I12
I36
tp2131
sg5
I200
sg6
(I171
I104
I216
I1
tp2132
sg8
(lp2133
(I49
I14
tp2134
a(I62
I64
tp2135
a(I30
I24
tp2136
a(I0
I37
tp2137
a(I0
I41
tp2138
a(I38
I80
tp2139
a(I0
I38
tp2140
asg27
I200
sba(imain2
Polygon
p2141
(dp2142
g3
(I79
I176
tp2143
sg5
I200
sg6
(I202
I85
I178
I118
tp2144
sg8
(lp2145
(I126
I200
tp2146
a(I119
I162
tp2147
a(I87
I199
tp2148
asg27
I200
sba(imain2
Polygon
p2149
(dp2150
g3
(I159
I193
tp2151
sg5
I200
sg6
(I190
I175
I62
I6
tp2152
sg8
(lp2153
(I151
I200
tp2154
a(I158
I200
tp2155
a(I141
I200
tp2156
a(I179
I191
tp2157
a(I200
I146
tp2158
a(I200
I200
tp2159
a(I200
I196
tp2160
a(I144
I173
tp2161
a(I119
I153
tp2162
a(I109
I200
tp2163
a(I170
I200
tp2164
a(I173
I194
tp2165
asg27
I200
sba(imain2
Polygon
p2166
(dp2167
g3
(I52
I197
tp2168
sg5
I200
sg6
(I164
I149
I232
I0
tp2169
sg8
(lp2170
(I3
I200
tp2171
a(I39
I200
tp2172
a(I62
I165
tp2173
a(I29
I200
tp2174
a(I66
I200
tp2175
a(I16
I155
tp2176
asg27
I200
sba(imain2
Polygon
p2177
(dp2178
g3
(I96
I168
tp2179
sg5
I200
sg6
(I85
I160
I169
I0
tp2180
sg8
(lp2181
(I81
I200
tp2182
a(I135
I200
tp2183
a(I76
I167
tp2184
a(I63
I125
tp2185
a(I54
I189
tp2186
a(I102
I200
tp2187
a(I139
I200
tp2188
a(I108
I133
tp2189
a(I135
I147
tp2190
a(I143
I143
tp2191
asg27
I200
sba(imain2
Polygon
p2192
(dp2193
g3
(I148
I67
tp2194
sg5
I200
sg6
(I212
I30
I23
I0
tp2195
sg8
(lp2196
(I103
I86
tp2197
a(I110
I44
tp2198
a(I105
I47
tp2199
a(I152
I70
tp2200
a(I169
I61
tp2201
a(I125
I52
tp2202
a(I108
I94
tp2203
a(I178
I39
tp2204
a(I109
I71
tp2205
a(I142
I17
tp2206
asg27
I200
sba(imain2
Polygon
p2207
(dp2208
g3
(I185
I29
tp2209
sg5
I200
sg6
(I143
I164
I77
I90
tp2210
sg8
(lp2211
(I136
I0
tp2212
a(I199
I0
tp2213
a(I194
I26
tp2214
a(I160
I50
tp2215
a(I160
I2
tp2216
a(I152
I60
tp2217
asg27
I200
sba(imain2
Polygon
p2218
(dp2219
g3
(I77
I185
tp2220
sg5
I200
sg6
(I29
I27
I101
I130
tp2221
sg8
(lp2222
(I61
I200
tp2223
a(I63
I154
tp2224
a(I39
I143
tp2225
a(I124
I169
tp2226
a(I52
I190
tp2227
a(I40
I180
tp2228
a(I53
I200
tp2229
a(I35
I180
tp2230
a(I61
I183
tp2231
a(I64
I192
tp2232
a(I59
I155
tp2233
asg27
I200
sba(imain2
Polygon
p2234
(dp2235
g3
(I183
I173
tp2236
sg5
I200
sg6
(I108
I218
I89
I65
tp2237
sg8
(lp2238
(I148
I141
tp2239
a(I151
I151
tp2240
a(I148
I145
tp2241
a(I173
I200
tp2242
a(I173
I194
tp2243
asg27
I200
sba(imain2
Polygon
p2244
(dp2245
g3
(I141
I78
tp2246
sg5
I200
sg6
(I233
I88
I167
I0
tp2247
sg8
(lp2248
(I117
I35
tp2249
a(I177
I39
tp2250
a(I117
I90
tp2251
a(I182
I69
tp2252
a(I185
I61
tp2253
a(I136
I126
tp2254
a(I142
I74
tp2255
a(I117
I52
tp2256
a(I133
I56
tp2257
a(I127
I64
tp2258
a(I106
I72
tp2259
asg27
I200
sba(imain2
Polygon
p2260
(dp2261
g3
(I8
I10
tp2262
sg5
I200
sg6
(I64
I44
I74
I133
tp2263
sg8
(lp2264
(I25
I14
tp2265
a(I0
I0
tp2266
a(I30
I6
tp2267
a(I32
I6
tp2268
a(I0
I0
tp2269
a(I0
I21
tp2270
a(I14
I0
tp2271
a(I0
I0
tp2272
asg27
I200
sba(imain2
Polygon
p2273
(dp2274
g3
(I37
I13
tp2275
sg5
I200
sg6
(I1
I116
I23
I143
tp2276
sg8
(lp2277
(I36
I0
tp2278
a(I16
I0
tp2279
a(I17
I0
tp2280
a(I19
I8
tp2281
a(I47
I5
tp2282
a(I25
I0
tp2283
a(I47
I12
tp2284
a(I0
I0
tp2285
a(I2
I12
tp2286
a(I61
I0
tp2287
asg27
I200
sba(imain2
Polygon
p2288
(dp2289
g3
(I168
I175
tp2290
sg5
I200
sg6
(I98
I58
I27
I17
tp2291
sg8
(lp2292
(I152
I200
tp2293
a(I120
I181
tp2294
a(I121
I129
tp2295
a(I142
I200
tp2296
a(I177
I200
tp2297
a(I187
I160
tp2298
a(I200
I200
tp2299
a(I193
I200
tp2300
a(I192
I161
tp2301
a(I200
I152
tp2302
a(I187
I128
tp2303
a(I125
I175
tp2304
asg27
I200
sba(imain2
Polygon
p2305
(dp2306
g3
(I75
I83
tp2307
sg5
I200
sg6
(I27
I33
I20
I0
tp2308
sg8
(lp2309
(I47
I106
tp2310
a(I114
I59
tp2311
a(I119
I42
tp2312
a(I120
I50
tp2313
a(I37
I102
tp2314
a(I38
I79
tp2315
a(I27
I130
tp2316
a(I81
I59
tp2317
a(I73
I116
tp2318
a(I106
I101
tp2319
a(I68
I99
tp2320
a(I89
I59
tp2321
a(I45
I71
tp2322
asg27
I200
sba(imain2
Polygon
p2323
(dp2324
g3
(I18
I79
tp2325
sg5
I200
sg6
(I82
I0
I176
I131
tp2326
sg8
(lp2327
(I49
I108
tp2328
a(I51
I115
tp2329
a(I44
I52
tp2330
a(I54
I29
tp2331
a(I25
I110
tp2332
a(I0
I111
tp2333
a(I64
I115
tp2334
a(I0
I117
tp2335
a(I0
I119
tp2336
a(I45
I118
tp2337
asg27
I200
sba(imain2
Polygon
p2338
(dp2339
g3
(I27
I28
tp2340
sg5
I200
sg6
(I224
I147
I43
I1
tp2341
sg8
(lp2342
(I0
I39
tp2343
a(I58
I68
tp2344
a(I51
I66
tp2345
a(I24
I26
tp2346
a(I69
I0
tp2347
a(I32
I0
tp2348
a(I0
I0
tp2349
a(I0
I50
tp2350
a(I29
I10
tp2351
a(I72
I42
tp2352
a(I0
I42
tp2353
a(I53
I0
tp2354
asg27
I200
sba(imain2
Polygon
p2355
(dp2356
g3
(I85
I60
tp2357
sg5
I200
sg6
(I87
I116
I15
I121
tp2358
sg8
(lp2359
(I115
I60
tp2360
a(I134
I87
tp2361
a(I50
I105
tp2362
a(I36
I62
tp2363
a(I72
I90
tp2364
a(I131
I73
tp2365
a(I117
I52
tp2366
a(I123
I32
tp2367
asg27
I200
sba(imain2
Polygon
p2368
(dp2369
g3
(I45
I110
tp2370
sg5
I200
sg6
(I44
I243
I181
I68
tp2371
sg8
(lp2372
(I68
I158
tp2373
a(I45
I112
tp2374
a(I89
I87
tp2375
a(I72
I109
tp2376
asg27
I200
sba(imain2
Polygon
p2377
(dp2378
g3
(I54
I138
tp2379
sg5
I200
sg6
(I121
I64
I187
I0
tp2380
sg8
(lp2381
(I35
I88
tp2382
a(I95
I92
tp2383
a(I82
I156
tp2384
a(I42
I145
tp2385
a(I63
I128
tp2386
a(I101
I131
tp2387
a(I33
I160
tp2388
a(I91
I188
tp2389
a(I14
I186
tp2390
a(I11
I174
tp2391
asg27
I200
sba(imain2
Polygon
p2392
(dp2393
g3
(I162
I123
tp2394
sg5
I200
sg6
(I48
I61
I73
I30
tp2395
sg8
(lp2396
(I119
I79
tp2397
a(I153
I85
tp2398
a(I195
I143
tp2399
a(I200
I144
tp2400
a(I125
I137
tp2401
a(I200
I89
tp2402
a(I180
I124
tp2403
a(I168
I135
tp2404
a(I124
I106
tp2405
a(I158
I73
tp2406
a(I184
I95
tp2407
a(I173
I159
tp2408
a(I156
I91
tp2409
a(I131
I98
tp2410
a(I125
I131
tp2411
a(I161
I109
tp2412
a(I200
I163
tp2413
a(I200
I142
tp2414
a(I170
I171
tp2415
asg27
I200
sba(imain2
Polygon
p2416
(dp2417
g3
(I144
I70
tp2418
sg5
I200
sg6
(I194
I43
I118
I54
tp2419
sg8
(lp2420
(I149
I30
tp2421
a(I169
I95
tp2422
a(I155
I49
tp2423
asg27
I200
sba(imain2
Polygon
p2424
(dp2425
g3
(I11
I36
tp2426
sg5
I200
sg6
(I147
I33
I81
I58
tp2427
sg8
(lp2428
(I0
I29
tp2429
a(I37
I36
tp2430
a(I0
I40
tp2431
a(I35
I7
tp2432
a(I0
I0
tp2433
a(I0
I29
tp2434
a(I0
I17
tp2435
a(I29
I0
tp2436
a(I0
I50
tp2437
asg27
I200
sba(imain2
Polygon
p2438
(dp2439
g3
(I85
I175
tp2440
sg5
I200
sg6
(I242
I56
I46
I11
tp2441
sg8
(lp2442
(I130
I159
tp2443
a(I36
I144
tp2444
a(I97
I177
tp2445
a(I61
I130
tp2446
a(I130
I133
tp2447
a(I122
I198
tp2448
a(I41
I200
tp2449
a(I66
I189
tp2450
a(I45
I200
tp2451
a(I100
I188
tp2452
a(I55
I141
tp2453
a(I56
I166
tp2454
a(I92
I187
tp2455
a(I67
I187
tp2456
a(I89
I176
tp2457
asg27
I200
sba(imain2
Polygon
p2458
(dp2459
g3
(I78
I22
tp2460
sg5
I200
sg6
(I1
I240
I67
I0
tp2461
sg8
(lp2462
(I64
I19
tp2463
a(I31
I33
tp2464
a(I89
I34
tp2465
a(I126
I29
tp2466
a(I112
I68
tp2467
a(I38
I8
tp2468
a(I51
I15
tp2469
a(I64
I6
tp2470
a(I80
I0
tp2471
a(I37
I64
tp2472
a(I90
I3
tp2473
a(I84
I0
tp2474
a(I37
I57
tp2475
asg27
I200
sba(imain2
Polygon
p2476
(dp2477
g3
(I58
I165
tp2478
sg5
I200
sg6
(I75
I0
I138
I114
tp2479
sg8
(lp2480
(I39
I165
tp2481
a(I48
I165
tp2482
a(I105
I167
tp2483
asg27
I200
sba(imain2
Polygon
p2484
(dp2485
g3
(I98
I69
tp2486
sg5
I200
sg6
(I76
I218
I129
I58
tp2487
sg8
(lp2488
(I81
I82
tp2489
a(I87
I87
tp2490
a(I65
I110
tp2491
a(I86
I76
tp2492
asg27
I200
sba(imain2
Polygon
p2493
(dp2494
g3
(I184
I193
tp2495
sg5
I200
sg6
(I20
I65
I70
I0
tp2496
sg8
(lp2497
(I150
I200
tp2498
a(I195
I194
tp2499
a(I200
I188
tp2500
a(I200
I163
tp2501
a(I140
I147
tp2502
a(I163
I200
tp2503
a(I145
I200
tp2504
a(I200
I200
tp2505
a(I200
I200
tp2506
asg27
I200
sba(imain2
Polygon
p2507
(dp2508
g3
(I136
I181
tp2509
sg5
I200
sg6
(I121
I127
I191
I0
tp2510
sg8
(lp2511
(I182
I131
tp2512
a(I146
I181
tp2513
a(I172
I167
tp2514
a(I175
I181
tp2515
a(I97
I200
tp2516
a(I180
I136
tp2517
a(I135
I131
tp2518
a(I174
I170
tp2519
a(I104
I154
tp2520
a(I144
I200
tp2521
a(I127
I139
tp2522
a(I154
I193
tp2523
asg27
I200
sba(imain2
Polygon
p2524
(dp2525
g3
(I65
I69
tp2526
sg5
I200
sg6
(I102
I96
I156
I28
tp2527
sg8
(lp2528
(I20
I36
tp2529
a(I40
I84
tp2530
a(I70
I71
tp2531
a(I28
I82
tp2532
a(I51
I60
tp2533
a(I63
I93
tp2534
a(I48
I64
tp2535
a(I42
I61
tp2536
a(I37
I81
tp2537
asg27
I200
sba(imain2
Polygon
p2538
(dp2539
g3
(I146
I60
tp2540
sg5
I200
sg6
(I1
I5
I200
I19
tp2541
sg8
(lp2542
(I150
I96
tp2543
a(I161
I106
tp2544
a(I109
I37
tp2545
a(I131
I64
tp2546
a(I145
I69
tp2547
a(I164
I56
tp2548
a(I167
I47
tp2549
asg27
I200
sba(imain2
Polygon
p2550
(dp2551
g3
(I7
I191
tp2552
sg5
I200
sg6
(I0
I171
I64
I1
tp2553
sg8
(lp2554
(I0
I151
tp2555
a(I53
I198
tp2556
a(I35
I181
tp2557
a(I34
I158
tp2558
a(I2
I200
tp2559
a(I0
I200
tp2560
a(I0
I199
tp2561
a(I0
I200
tp2562
asg27
I200
sba(imain2
Polygon
p2563
(dp2564
g3
(I177
I12
tp2565
sg5
I200
sg6
(I0
I130
I138
I1
tp2566
sg8
(lp2567
(I179
I47
tp2568
a(I200
I31
tp2569
a(I200
I0
tp2570
a(I173
I62
tp2571
a(I200
I45
tp2572
a(I200
I22
tp2573
a(I150
I52
tp2574
a(I148
I56
tp2575
a(I175
I22
tp2576
asg27
I200
sba(imain2
Polygon
p2577
(dp2578
g3
(I98
I60
tp2579
sg5
I200
sg6
(I144
I39
I48
I11
tp2580
sg8
(lp2581
(I87
I83
tp2582
a(I145
I79
tp2583
a(I116
I100
tp2584
a(I123
I12
tp2585
a(I89
I21
tp2586
a(I138
I25
tp2587
a(I80
I91
tp2588
a(I119
I63
tp2589
a(I126
I103
tp2590
a(I147
I11
tp2591
a(I125
I68
tp2592
asg27
I200
sba(imain2
Polygon
p2593
(dp2594
g3
(I26
I121
tp2595
sg5
I200
sg6
(I19
I115
I5
I115
tp2596
sg8
(lp2597
(I5
I167
tp2598
a(I39
I85
tp2599
a(I0
I101
tp2600
a(I0
I166
tp2601
a(I51
I153
tp2602
a(I14
I135
tp2603
a(I45
I83
tp2604
a(I52
I113
tp2605
a(I0
I157
tp2606
a(I0
I125
tp2607
asg27
I200
sba(imain2
Polygon
p2608
(dp2609
g3
(I59
I10
tp2610
sg5
I200
sg6
(I180
I56
I106
I148
tp2611
sg8
(lp2612
(I25
I0
tp2613
a(I57
I0
tp2614
a(I72
I17
tp2615
a(I55
I0
tp2616
a(I109
I0
tp2617
a(I63
I23
tp2618
a(I10
I0
tp2619
a(I17
I23
tp2620
asg27
I200
sba(imain2
Polygon
p2621
(dp2622
g3
(I171
I141
tp2623
sg5
I200
sg6
(I40
I202
I138
I11
tp2624
sg8
(lp2625
(I200
I170
tp2626
a(I195
I129
tp2627
a(I193
I121
tp2628
a(I179
I181
tp2629
a(I200
I98
tp2630
a(I200
I183
tp2631
a(I156
I161
tp2632
a(I187
I97
tp2633
asg27
I200
sba(imain2
Polygon
p2634
(dp2635
g3
(I80
I143
tp2636
sg5
I200
sg6
(I76
I78
I13
I134
tp2637
sg8
(lp2638
(I50
I130
tp2639
a(I70
I145
tp2640
a(I93
I192
tp2641
a(I130
I187
tp2642
a(I107
I140
tp2643
a(I32
I121
tp2644
a(I39
I93
tp2645
a(I65
I188
tp2646
a(I118
I114
tp2647
a(I36
I110
tp2648
a(I111
I114
tp2649
asg27
I200
sba(imain2
Polygon
p2650
(dp2651
g3
(I191
I199
tp2652
sg5
I200
sg6
(I0
I225
I26
I1
tp2653
sg8
(lp2654
(I200
I200
tp2655
a(I158
I167
tp2656
a(I200
I152
tp2657
a(I200
I200
tp2658
a(I143
I191
tp2659
a(I162
I200
tp2660
a(I200
I200
tp2661
a(I148
I149
tp2662
a(I156
I169
tp2663
asg27
I200
sba(imain2
Polygon
p2664
(dp2665
g3
(I6
I112
tp2666
sg5
I200
sg6
(I133
I72
I133
I82
tp2667
sg8
(lp2668
(I0
I137
tp2669
a(I0
I140
tp2670
a(I25
I84
tp2671
a(I0
I135
tp2672
a(I0
I129
tp2673
a(I0
I98
tp2674
a(I0
I95
tp2675
a(I0
I153
tp2676
asg27
I200
sba(imain2
Polygon
p2677
(dp2678
g3
(I189
I37
tp2679
sg5
I200
sg6
(I31
I238
I167
I75
tp2680
sg8
(lp2681
(I200
I41
tp2682
a(I177
I46
tp2683
a(I200
I40
tp2684
a(I147
I55
tp2685
asg27
I200
sba(imain2
Polygon
p2686
(dp2687
g3
(I121
I50
tp2688
sg5
I200
sg6
(I6
I74
I1
I1
tp2689
sg8
(lp2690
(I151
I62
tp2691
a(I132
I76
tp2692
a(I164
I48
tp2693
a(I118
I53
tp2694
asg27
I200
sba(imain2
Polygon
p2695
(dp2696
g3
(I58
I165
tp2697
sg5
I200
sg6
(I146
I100
I4
I0
tp2698
sg8
(lp2699
(I88
I126
tp2700
a(I39
I171
tp2701
a(I32
I150
tp2702
a(I30
I136
tp2703
a(I91
I154
tp2704
a(I97
I137
tp2705
a(I22
I169
tp2706
a(I68
I185
tp2707
a(I69
I116
tp2708
a(I56
I151
tp2709
asg27
I200
sba(imain2
Polygon
p2710
(dp2711
g3
(I155
I38
tp2712
sg5
I200
sg6
(I104
I110
I240
I122
tp2713
sg8
(lp2714
(I160
I2
tp2715
a(I162
I13
tp2716
a(I165
I27
tp2717
asg27
I200
sba(imain2
Polygon
p2718
(dp2719
g3
(I80
I130
tp2720
sg5
I200
sg6
(I224
I91
I1
I129
tp2721
sg8
(lp2722
(I90
I107
tp2723
a(I38
I91
tp2724
a(I127
I91
tp2725
a(I86
I180
tp2726
a(I90
I97
tp2727
a(I42
I107
tp2728
a(I57
I140
tp2729
a(I81
I161
tp2730
a(I95
I173
tp2731
a(I77
I124
tp2732
a(I91
I85
tp2733
a(I88
I146
tp2734
asg27
I200
sba(imain2
Polygon
p2735
(dp2736
g3
(I182
I31
tp2737
sg5
I200
sg6
(I114
I87
I113
I1
tp2738
sg8
(lp2739
(I149
I70
tp2740
a(I140
I52
tp2741
a(I146
I14
tp2742
a(I186
I15
tp2743
a(I164
I0
tp2744
a(I139
I9
tp2745
a(I200
I0
tp2746
a(I160
I52
tp2747
a(I173
I19
tp2748
a(I200
I0
tp2749
a(I188
I55
tp2750
a(I168
I44
tp2751
a(I200
I6
tp2752
a(I191
I40
tp2753
a(I140
I70
tp2754
a(I188
I20
tp2755
a(I192
I0
tp2756
a(I200
I36
tp2757
a(I198
I23
tp2758
asg27
I200
sba(imain2
Polygon
p2759
(dp2760
g3
(I164
I132
tp2761
sg5
I200
sg6
(I50
I70
I1
I0
tp2762
sg8
(lp2763
(I191
I131
tp2764
a(I129
I182
tp2765
a(I181
I83
tp2766
a(I149
I82
tp2767
a(I125
I177
tp2768
a(I190
I92
tp2769
a(I146
I102
tp2770
a(I134
I159
tp2771
a(I192
I85
tp2772
a(I144
I129
tp2773
a(I181
I85
tp2774
a(I127
I166
tp2775
a(I122
I127
tp2776
asg27
I200
sba(imain2
Polygon
p2777
(dp2778
g3
(I67
I123
tp2779
sg5
I200
sg6
(I204
I170
I129
I84
tp2780
sg8
(lp2781
(I114
I101
tp2782
a(I112
I148
tp2783
a(I65
I154
tp2784
a(I43
I93
tp2785
a(I96
I92
tp2786
a(I112
I102
tp2787
a(I49
I107
tp2788
a(I115
I104
tp2789
a(I46
I107
tp2790
a(I101
I102
tp2791
asg27
I200
sba(imain2
Polygon
p2792
(dp2793
g3
(I139
I46
tp2794
sg5
I200
sg6
(I2
I111
I85
I96
tp2795
sg8
(lp2796
(I185
I84
tp2797
a(I98
I73
tp2798
a(I164
I79
tp2799
asg27
I200
sba(imain2
Polygon
p2800
(dp2801
g3
(I137
I13
tp2802
sg5
I200
sg6
(I204
I132
I222
I7
tp2803
sg8
(lp2804
(I153
I45
tp2805
a(I179
I43
tp2806
a(I125
I0
tp2807
a(I90
I14
tp2808
a(I123
I32
tp2809
a(I157
I0
tp2810
a(I92
I0
tp2811
a(I118
I0
tp2812
a(I100
I0
tp2813
a(I88
I17
tp2814
a(I171
I26
tp2815
asg27
I200
sba(imain2
Polygon
p2816
(dp2817
g3
(I72
I81
tp2818
sg5
I200
sg6
(I239
I109
I83
I0
tp2819
sg8
(lp2820
(I58
I51
tp2821
a(I48
I113
tp2822
a(I99
I128
tp2823
a(I119
I81
tp2824
a(I43
I78
tp2825
a(I67
I125
tp2826
a(I101
I102
tp2827
a(I72
I104
tp2828
a(I63
I131
tp2829
a(I72
I123
tp2830
asg27
I200
sba(imain2
Polygon
p2831
(dp2832
g3
(I24
I70
tp2833
sg5
I200
sg6
(I7
I225
I12
I18
tp2834
sg8
(lp2835
(I37
I25
tp2836
a(I72
I32
tp2837
a(I2
I21
tp2838
a(I0
I105
tp2839
a(I0
I120
tp2840
a(I68
I95
tp2841
a(I67
I93
tp2842
a(I0
I104
tp2843
a(I52
I117
tp2844
asg27
I200
sba(imain2
Polygon
p2845
(dp2846
g3
(I144
I200
tp2847
sg5
I200
sg6
(I124
I88
I13
I1
tp2848
sg8
(lp2849
(I157
I186
tp2850
a(I108
I200
tp2851
a(I184
I154
tp2852
a(I175
I171
tp2853
a(I183
I167
tp2854
a(I142
I200
tp2855
a(I193
I200
tp2856
a(I124
I158
tp2857
a(I156
I200
tp2858
a(I155
I200
tp2859
a(I120
I200
tp2860
a(I190
I200
tp2861
a(I165
I159
tp2862
a(I163
I199
tp2863
a(I175
I179
tp2864
a(I148
I200
tp2865
a(I117
I189
tp2866
a(I103
I160
tp2867
asg27
I200
sba(imain2
Polygon
p2868
(dp2869
g3
(I63
I64
tp2870
sg5
I200
sg6
(I194
I194
I46
I8
tp2871
sg8
(lp2872
(I103
I50
tp2873
a(I18
I106
tp2874
a(I18
I45
tp2875
a(I97
I38
tp2876
a(I97
I107
tp2877
a(I37
I106
tp2878
a(I33
I101
tp2879
asg27
I200
sba(imain2
Polygon
p2880
(dp2881
g3
(I87
I65
tp2882
sg5
I200
sg6
(I217
I60
I100
I1
tp2883
sg8
(lp2884
(I108
I39
tp2885
a(I115
I17
tp2886
a(I100
I35
tp2887
a(I77
I65
tp2888
a(I101
I99
tp2889
a(I41
I94
tp2890
a(I102
I70
tp2891
a(I123
I103
tp2892
a(I122
I47
tp2893
asg27
I200
sba(imain2
Polygon
p2894
(dp2895
g3
(I110
I191
tp2896
sg5
I200
sg6
(I164
I198
I225
I1
tp2897
sg8
(lp2898
(I150
I191
tp2899
a(I157
I200
tp2900
a(I157
I152
tp2901
a(I120
I143
tp2902
a(I122
I162
tp2903
a(I60
I161
tp2904
a(I115
I169
tp2905
a(I74
I179
tp2906
a(I122
I200
tp2907
asg27
I200
sba(imain2
Polygon
p2908
(dp2909
g3
(I108
I110
tp2910
sg5
I200
sg6
(I100
I181
I168
I0
tp2911
sg8
(lp2912
(I101
I127
tp2913
a(I104
I82
tp2914
a(I91
I148
tp2915
a(I75
I84
tp2916
a(I70
I134
tp2917
a(I116
I124
tp2918
asg27
I200
sba(imain2
Polygon
p2919
(dp2920
g3
(I112
I52
tp2921
sg5
I200
sg6
(I81
I201
I84
I120
tp2922
sg8
(lp2923
(I124
I75
tp2924
a(I152
I55
tp2925
a(I149
I58
tp2926
asg27
I200
sba.