(lp0
(imain2
Polygon
p1
(dp2
S'origin'
p3
(I39
I29
tp4
sS'h'
p5
I200
sS'color'
p6
(I192
I22
I137
I64
tp7
sS'corner_list'
p8
(lp9
(I0
I0
tp10
a(I33
I71
tp11
a(I71
I41
tp12
a(I83
I36
tp13
a(I71
I0
tp14
a(I11
I74
tp15
a(I0
I33
tp16
a(I70
I7
tp17
a(I72
I59
tp18
a(I83
I19
tp19
a(I17
I62
tp20
a(I4
I54
tp21
a(I0
I33
tp22
a(I60
I37
tp23
a(I77
I15
tp24
a(I64
I0
tp25
a(I0
I0
tp26
asS'w'
p27
I200
sba(imain2
Polygon
p28
(dp29
g3
(I66
I177
tp30
sg5
I200
sg6
(I137
I52
I47
I21
tp31
sg8
(lp32
(I63
I136
tp33
a(I77
I165
tp34
a(I111
I200
tp35
a(I34
I200
tp36
a(I112
I200
tp37
a(I20
I192
tp38
a(I44
I200
tp39
a(I77
I200
tp40
a(I100
I127
tp41
asg27
I200
sba(imain2
Polygon
p42
(dp43
g3
(I59
I53
tp44
sg5
I200
sg6
(I109
I42
I106
I130
tp45
sg8
(lp46
(I106
I10
tp47
a(I26
I102
tp48
a(I9
I53
tp49
a(I89
I14
tp50
a(I41
I9
tp51
a(I45
I35
tp52
a(I40
I72
tp53
a(I32
I51
tp54
a(I38
I88
tp55
a(I97
I87
tp56
a(I109
I84
tp57
a(I91
I22
tp58
a(I80
I19
tp59
a(I76
I61
tp60
a(I103
I97
tp61
a(I50
I59
tp62
a(I53
I45
tp63
a(I58
I40
tp64
asg27
I200
sba(imain2
Polygon
p65
(dp66
g3
(I79
I99
tp67
sg5
I200
sg6
(I71
I89
I67
I82
tp68
sg8
(lp69
(I122
I134
tp70
a(I76
I117
tp71
a(I76
I74
tp72
a(I35
I63
tp73
a(I123
I57
tp74
a(I114
I125
tp75
a(I63
I146
tp76
a(I86
I147
tp77
asg27
I200
sba(imain2
Polygon
p78
(dp79
g3
(I200
I83
tp80
sg5
I200
sg6
(I165
I227
I62
I3
tp81
sg8
(lp82
(I200
I58
tp83
a(I164
I41
tp84
a(I200
I37
tp85
a(I178
I101
tp86
a(I200
I130
tp87
asg27
I200
sba(imain2
Polygon
p88
(dp89
g3
(I48
I136
tp90
sg5
I200
sg6
(I101
I109
I142
I47
tp91
sg8
(lp92
(I78
I127
tp93
a(I87
I127
tp94
a(I82
I171
tp95
a(I43
I102
tp96
a(I5
I168
tp97
a(I60
I171
tp98
a(I89
I93
tp99
a(I16
I112
tp100
a(I78
I105
tp101
a(I86
I178
tp102
a(I47
I126
tp103
a(I46
I109
tp104
a(I2
I151
tp105
a(I64
I175
tp106
a(I58
I161
tp107
a(I45
I165
tp108
a(I87
I144
tp109
a(I52
I97
tp110
a(I97
I86
tp111
a(I45
I125
tp112
asg27
I200
sba(imain2
Polygon
p113
(dp114
g3
(I118
I72
tp115
sg5
I200
sg6
(I132
I136
I59
I42
tp116
sg8
(lp117
(I99
I82
tp118
a(I118
I81
tp119
a(I118
I115
tp120
a(I126
I57
tp121
a(I89
I36
tp122
a(I68
I93
tp123
a(I104
I108
tp124
a(I97
I43
tp125
asg27
I200
sba(imain2
Polygon
p126
(dp127
g3
(I75
I194
tp128
sg5
I200
sg6
(I210
I85
I103
I0
tp129
sg8
(lp130
(I114
I169
tp131
a(I81
I145
tp132
a(I100
I167
tp133
a(I64
I200
tp134
a(I92
I188
tp135
a(I72
I157
tp136
asg27
I200
sba(imain2
Polygon
p137
(dp138
g3
(I7
I180
tp139
sg5
I200
sg6
(I231
I31
I1
I1
tp140
sg8
(lp141
(I0
I159
tp142
a(I0
I173
tp143
a(I0
I200
tp144
a(I0
I200
tp145
a(I0
I142
tp146
a(I41
I140
tp147
a(I15
I200
tp148
a(I26
I166
tp149
a(I0
I188
tp150
a(I0
I161
tp151
a(I15
I137
tp152
asg27
I200
sba(imain2
Polygon
p153
(dp154
g3
(I200
I5
tp155
sg5
I200
sg6
(I172
I74
I111
I26
tp156
sg8
(lp157
(I200
I0
tp158
a(I172
I0
tp159
a(I179
I0
tp160
a(I191
I5
tp161
a(I185
I7
tp162
a(I200
I7
tp163
a(I200
I45
tp164
a(I155
I15
tp165
a(I199
I0
tp166
a(I196
I52
tp167
asg27
I200
sba(imain2
Polygon
p168
(dp169
g3
(I180
I27
tp170
sg5
I200
sg6
(I103
I110
I153
I0
tp171
sg8
(lp172
(I200
I66
tp173
a(I156
I65
tp174
a(I200
I4
tp175
a(I162
I29
tp176
a(I147
I16
tp177
a(I200
I4
tp178
a(I138
I4
tp179
a(I178
I36
tp180
a(I160
I38
tp181
a(I195
I10
tp182
a(I160
I0
tp183
a(I200
I67
tp184
a(I161
I58
tp185
asg27
I200
sba(imain2
Polygon
p186
(dp187
g3
(I59
I197
tp188
sg5
I200
sg6
(I78
I205
I135
I122
tp189
sg8
(lp190
(I98
I200
tp191
a(I93
I157
tp192
a(I71
I197
tp193
a(I54
I200
tp194
a(I33
I200
tp195
asg27
I200
sba(imain2
Polygon
p196
(dp197
g3
(I129
I124
tp198
sg5
I200
sg6
(I169
I187
I95
I53
tp199
sg8
(lp200
(I122
I123
tp201
a(I92
I168
tp202
a(I130
I89
tp203
a(I111
I89
tp204
a(I104
I118
tp205
a(I88
I150
tp206
a(I119
I138
tp207
a(I93
I100
tp208
a(I85
I118
tp209
asg27
I200
sba(imain2
Polygon
p210
(dp211
g3
(I107
I2
tp212
sg5
I200
sg6
(I46
I0
I159
I95
tp213
sg8
(lp214
(I83
I0
tp215
a(I107
I0
tp216
a(I97
I0
tp217
a(I62
I0
tp218
a(I90
I0
tp219
a(I142
I27
tp220
a(I156
I2
tp221
a(I151
I0
tp222
a(I132
I0
tp223
asg27
I200
sba(imain2
Polygon
p224
(dp225
g3
(I25
I107
tp226
sg5
I200
sg6
(I100
I25
I168
I1
tp227
sg8
(lp228
(I30
I146
tp229
a(I41
I66
tp230
a(I72
I82
tp231
a(I0
I68
tp232
a(I47
I76
tp233
a(I61
I150
tp234
a(I56
I122
tp235
a(I56
I62
tp236
a(I0
I59
tp237
a(I3
I58
tp238
a(I9
I75
tp239
a(I69
I74
tp240
a(I7
I57
tp241
a(I52
I137
tp242
asg27
I200
sba(imain2
Polygon
p243
(dp244
g3
(I194
I197
tp245
sg5
I200
sg6
(I5
I193
I62
I78
tp246
sg8
(lp247
(I193
I168
tp248
a(I200
I200
tp249
a(I200
I180
tp250
a(I199
I156
tp251
asg27
I200
sba(imain2
Polygon
p252
(dp253
g3
(I8
I2
tp254
sg5
I200
sg6
(I203
I192
I217
I1
tp255
sg8
(lp256
(I6
I8
tp257
a(I0
I5
tp258
a(I16
I0
tp259
a(I5
I25
tp260
a(I0
I0
tp261
a(I57
I0
tp262
a(I9
I17
tp263
a(I52
I0
tp264
a(I0
I45
tp265
a(I45
I0
tp266
a(I55
I0
tp267
a(I45
I50
tp268
a(I0
I16
tp269
asg27
I200
sba(imain2
Polygon
p270
(dp271
g3
(I171
I144
tp272
sg5
I200
sg6
(I108
I155
I183
I1
tp273
sg8
(lp274
(I126
I186
tp275
a(I199
I179
tp276
a(I200
I110
tp277
a(I153
I190
tp278
a(I148
I190
tp279
a(I178
I125
tp280
a(I126
I121
tp281
a(I145
I130
tp282
asg27
I200
sba(imain2
Polygon
p283
(dp284
g3
(I44
I42
tp285
sg5
I200
sg6
(I76
I126
I71
I1
tp286
sg8
(lp287
(I29
I80
tp288
a(I41
I39
tp289
a(I91
I0
tp290
a(I69
I42
tp291
a(I86
I82
tp292
a(I88
I72
tp293
a(I46
I66
tp294
asg27
I200
sba(imain2
Polygon
p295
(dp296
g3
(I26
I99
tp297
sg5
I200
sg6
(I165
I96
I165
I59
tp298
sg8
(lp299
(I56
I57
tp300
a(I54
I125
tp301
a(I69
I134
tp302
a(I72
I53
tp303
asg27
I200
sba(imain2
Polygon
p304
(dp305
g3
(I114
I46
tp306
sg5
I200
sg6
(I94
I191
I193
I0
tp307
sg8
(lp308
(I138
I5
tp309
a(I126
I34
tp310
a(I145
I56
tp311
a(I90
I66
tp312
a(I111
I68
tp313
a(I81
I83
tp314
asg27
I200
sba(imain2
Polygon
p315
(dp316
g3
(I68
I194
tp317
sg5
I200
sg6
(I85
I190
I147
I1
tp318
sg8
(lp319
(I60
I200
tp320
a(I52
I200
tp321
a(I37
I184
tp322
a(I65
I200
tp323
a(I57
I192
tp324
a(I73
I172
tp325
asg27
I200
sba(imain2
Polygon
p326
(dp327
g3
(I200
I53
tp328
sg5
I200
sg6
(I176
I181
I163
I0
tp329
sg8
(lp330
(I183
I79
tp331
a(I152
I41
tp332
a(I200
I31
tp333
asg27
I200
sba(imain2
Polygon
p334
(dp335
g3
(I172
I155
tp336
sg5
I200
sg6
(I196
I75
I239
I1
tp337
sg8
(lp338
(I156
I193
tp339
a(I186
I170
tp340
a(I200
I124
tp341
a(I125
I176
tp342
a(I143
I179
tp343
a(I184
I136
tp344
a(I146
I128
tp345
a(I184
I193
tp346
a(I166
I121
tp347
a(I154
I196
tp348
a(I127
I165
tp349
a(I148
I197
tp350
asg27
I200
sba(imain2
Polygon
p351
(dp352
g3
(I154
I159
tp353
sg5
I200
sg6
(I52
I205
I31
I0
tp354
sg8
(lp355
(I200
I117
tp356
a(I122
I109
tp357
a(I164
I130
tp358
a(I127
I131
tp359
a(I176
I190
tp360
a(I178
I195
tp361
a(I141
I167
tp362
a(I153
I178
tp363
a(I160
I110
tp364
a(I159
I171
tp365
a(I147
I168
tp366
a(I175
I171
tp367
asg27
I200
sba(imain2
Polygon
p368
(dp369
g3
(I55
I59
tp370
sg5
I200
sg6
(I71
I191
I200
I1
tp371
sg8
(lp372
(I35
I56
tp373
a(I83
I49
tp374
a(I85
I40
tp375
a(I36
I16
tp376
a(I71
I52
tp377
a(I22
I16
tp378
a(I82
I44
tp379
a(I47
I28
tp380
a(I66
I10
tp381
a(I103
I76
tp382
a(I25
I105
tp383
a(I102
I65
tp384
a(I36
I25
tp385
a(I103
I88
tp386
a(I47
I104
tp387
a(I89
I41
tp388
a(I21
I16
tp389
a(I52
I45
tp390
a(I17
I70
tp391
a(I12
I21
tp392
a(I46
I100
tp393
asg27
I200
sba(imain2
Polygon
p394
(dp395
g3
(I127
I147
tp396
sg5
I200
sg6
(I44
I64
I111
I84
tp397
sg8
(lp398
(I109
I194
tp399
a(I79
I101
tp400
a(I97
I160
tp401
a(I161
I191
tp402
asg27
I200
sba(imain2
Polygon
p403
(dp404
g3
(I123
I114
tp405
sg5
I200
sg6
(I115
I1
I5
I1
tp406
sg8
(lp407
(I118
I78
tp408
a(I162
I88
tp409
a(I144
I84
tp410
a(I81
I71
tp411
a(I118
I115
tp412
a(I161
I129
tp413
asg27
I200
sba(imain2
Polygon
p414
(dp415
g3
(I2
I51
tp416
sg5
I200
sg6
(I121
I136
I221
I0
tp417
sg8
(lp418
(I0
I85
tp419
a(I0
I10
tp420
a(I0
I4
tp421
a(I0
I44
tp422
a(I0
I20
tp423
a(I0
I61
tp424
a(I0
I75
tp425
a(I22
I88
tp426
a(I22
I98
tp427
a(I0
I7
tp428
a(I0
I75
tp429
a(I0
I87
tp430
asg27
I200
sba(imain2
Polygon
p431
(dp432
g3
(I166
I21
tp433
sg5
I200
sg6
(I210
I244
I213
I75
tp434
sg8
(lp435
(I200
I0
tp436
a(I200
I59
tp437
a(I169
I70
tp438
a(I131
I0
tp439
a(I144
I3
tp440
a(I131
I6
tp441
a(I135
I0
tp442
a(I200
I0
tp443
a(I190
I0
tp444
asg27
I200
sba(imain2
Polygon
p445
(dp446
g3
(I110
I91
tp447
sg5
I200
sg6
(I125
I30
I28
I1
tp448
sg8
(lp449
(I78
I111
tp450
a(I70
I70
tp451
a(I80
I118
tp452
a(I69
I141
tp453
a(I81
I95
tp454
a(I68
I96
tp455
a(I100
I114
tp456
a(I109
I100
tp457
a(I67
I66
tp458
a(I132
I127
tp459
a(I75
I65
tp460
a(I150
I136
tp461
a(I130
I41
tp462
a(I104
I65
tp463
a(I92
I48
tp464
a(I114
I65
tp465
a(I132
I91
tp466
a(I134
I101
tp467
asg27
I200
sba(imain2
Polygon
p468
(dp469
g3
(I148
I41
tp470
sg5
I200
sg6
(I155
I1
I204
I1
tp471
sg8
(lp472
(I153
I39
tp473
a(I130
I10
tp474
a(I192
I6
tp475
a(I102
I17
tp476
a(I155
I13
tp477
a(I138
I62
tp478
a(I160
I9
tp479
a(I110
I80
tp480
a(I103
I84
tp481
a(I183
I24
tp482
a(I153
I30
tp483
a(I135
I21
tp484
a(I144
I23
tp485
a(I121
I0
tp486
asg27
I200
sba(imain2
Polygon
p487
(dp488
g3
(I188
I159
tp489
sg5
I200
sg6
(I157
I68
I63
I1
tp490
sg8
(lp491
(I153
I158
tp492
a(I164
I115
tp493
a(I200
I197
tp494
a(I200
I137
tp495
a(I158
I121
tp496
a(I200
I111
tp497
a(I156
I170
tp498
asg27
I200
sba(imain2
Polygon
p499
(dp500
g3
(I55
I106
tp501
sg5
I200
sg6
(I54
I89
I39
I0
tp502
sg8
(lp503
(I69
I94
tp504
a(I70
I97
tp505
a(I74
I146
tp506
a(I54
I93
tp507
a(I46
I114
tp508
a(I99
I105
tp509
a(I75
I126
tp510
a(I31
I130
tp511
a(I92
I93
tp512
asg27
I200
sba(imain2
Polygon
p513
(dp514
g3
(I118
I64
tp515
sg5
I200
sg6
(I126
I36
I2
I0
tp516
sg8
(lp517
(I131
I17
tp518
a(I88
I65
tp519
a(I149
I49
tp520
a(I137
I15
tp521
a(I95
I23
tp522
a(I100
I81
tp523
a(I146
I72
tp524
a(I160
I97
tp525
a(I88
I20
tp526
a(I123
I23
tp527
a(I105
I36
tp528
a(I98
I55
tp529
asg27
I200
sba(imain2
Polygon
p530
(dp531
g3
(I101
I127
tp532
sg5
I200
sg6
(I82
I171
I93
I58
tp533
sg8
(lp534
(I82
I132
tp535
a(I60
I130
tp536
a(I118
I127
tp537
a(I132
I81
tp538
a(I63
I110
tp539
a(I134
I145
tp540
asg27
I200
sba(imain2
Polygon
p541
(dp542
g3
(I42
I89
tp543
sg5
I200
sg6
(I15
I90
I174
I0
tp544
sg8
(lp545
(I82
I88
tp546
a(I34
I55
tp547
a(I20
I128
tp548
a(I45
I55
tp549
a(I15
I128
tp550
a(I61
I62
tp551
a(I0
I99
tp552
a(I39
I127
tp553
a(I56
I89
tp554
a(I36
I80
tp555
a(I0
I54
tp556
asg27
I200
sba(imain2
Polygon
p557
(dp558
g3
(I71
I151
tp559
sg5
I200
sg6
(I150
I166
I218
I114
tp560
sg8
(lp561
(I59
I125
tp562
a(I74
I126
tp563
a(I115
I198
tp564
a(I68
I200
tp565
a(I91
I177
tp566
a(I121
I195
tp567
asg27
I200
sba(imain2
Polygon
p568
(dp569
g3
(I13
I141
tp570
sg5
I200
sg6
(I241
I1
I193
I1
tp571
sg8
(lp572
(I0
I134
tp573
a(I0
I168
tp574
a(I0
I162
tp575
a(I7
I102
tp576
a(I53
I153
tp577
a(I7
I133
tp578
a(I23
I129
tp579
a(I31
I95
tp580
a(I38
I142
tp581
a(I47
I102
tp582
a(I39
I147
tp583
a(I63
I126
tp584
asg27
I200
sba(imain2
Polygon
p585
(dp586
g3
(I37
I11
tp587
sg5
I200
sg6
(I112
I18
I9
I84
tp588
sg8
(lp589
(I77
I0
tp590
a(I0
I56
tp591
a(I15
I11
tp592
a(I20
I28
tp593
a(I3
I0
tp594
a(I70
I6
tp595
a(I36
I38
tp596
asg27
I200
sba(imain2
Polygon
p597
(dp598
g3
(I97
I114
tp599
sg5
I200
sg6
(I144
I8
I201
I63
tp600
sg8
(lp601
(I126
I160
tp602
a(I86
I149
tp603
a(I121
I97
tp604
a(I126
I64
tp605
a(I62
I77
tp606
a(I84
I101
tp607
a(I48
I82
tp608
a(I75
I158
tp609
a(I100
I154
tp610
a(I115
I101
tp611
a(I51
I65
tp612
a(I84
I72
tp613
a(I110
I85
tp614
a(I80
I151
tp615
a(I113
I101
tp616
a(I64
I125
tp617
a(I75
I78
tp618
a(I57
I142
tp619
asg27
I200
sba(imain2
Polygon
p620
(dp621
g3
(I77
I12
tp622
sg5
I200
sg6
(I99
I0
I194
I0
tp623
sg8
(lp624
(I97
I0
tp625
a(I85
I0
tp626
a(I31
I43
tp627
a(I77
I0
tp628
a(I50
I51
tp629
a(I116
I55
tp630
a(I69
I0
tp631
a(I96
I0
tp632
a(I51
I42
tp633
asg27
I200
sba(imain2
Polygon
p634
(dp635
g3
(I114
I16
tp636
sg5
I200
sg6
(I1
I99
I175
I133
tp637
sg8
(lp638
(I119
I24
tp639
a(I151
I0
tp640
a(I71
I2
tp641
a(I142
I23
tp642
a(I160
I13
tp643
a(I130
I13
tp644
asg27
I200
sba(imain2
Polygon
p645
(dp646
g3
(I150
I10
tp647
sg5
I200
sg6
(I109
I56
I223
I146
tp648
sg8
(lp649
(I119
I0
tp650
a(I175
I1
tp651
a(I133
I0
tp652
a(I174
I56
tp653
a(I163
I0
tp654
a(I119
I18
tp655
a(I101
I0
tp656
a(I137
I0
tp657
a(I174
I0
tp658
a(I170
I0
tp659
a(I150
I0
tp660
asg27
I200
sba(imain2
Polygon
p661
(dp662
g3
(I41
I10
tp663
sg5
I200
sg6
(I112
I202
I81
I1
tp664
sg8
(lp665
(I28
I17
tp666
a(I62
I0
tp667
a(I36
I33
tp668
a(I0
I0
tp669
a(I60
I0
tp670
asg27
I200
sba(imain2
Polygon
p671
(dp672
g3
(I174
I159
tp673
sg5
I200
sg6
(I168
I106
I82
I86
tp674
sg8
(lp675
(I200
I125
tp676
a(I200
I200
tp677
a(I184
I191
tp678
a(I168
I116
tp679
a(I200
I121
tp680
a(I200
I173
tp681
a(I200
I119
tp682
asg27
I200
sba(imain2
Polygon
p683
(dp684
g3
(I61
I97
tp685
sg5
I200
sg6
(I121
I29
I105
I77
tp686
sg8
(lp687
(I66
I87
tp688
a(I94
I137
tp689
a(I64
I49
tp690
a(I103
I82
tp691
a(I64
I94
tp692
a(I102
I53
tp693
a(I108
I74
tp694
a(I96
I125
tp695
a(I52
I115
tp696
a(I50
I59
tp697
asg27
I200
sba(imain2
Polygon
p698
(dp699
g3
(I180
I97
tp700
sg5
I200
sg6
(I157
I153
I196
I1
tp701
sg8
(lp702
(I180
I99
tp703
a(I200
I54
tp704
a(I200
I62
tp705
a(I149
I93
tp706
a(I200
I145
tp707
a(I196
I133
tp708
a(I179
I133
tp709
a(I200
I63
tp710
a(I153
I117
tp711
asg27
I200
sba(imain2
Polygon
p712
(dp713
g3
(I101
I122
tp714
sg5
I200
sg6
(I162
I82
I1
I56
tp715
sg8
(lp716
(I87
I91
tp717
a(I111
I157
tp718
a(I98
I108
tp719
a(I93
I147
tp720
a(I122
I142
tp721
a(I125
I80
tp722
a(I61
I152
tp723
a(I62
I88
tp724
a(I147
I140
tp725
a(I58
I84
tp726
a(I77
I77
tp727
a(I124
I77
tp728
asg27
I200
sba(imain2
Polygon
p729
(dp730
g3
(I131
I15
tp731
sg5
I200
sg6
(I56
I126
I125
I0
tp732
sg8
(lp733
(I154
I0
tp734
a(I140
I8
tp735
a(I179
I62
tp736
a(I91
I0
tp737
a(I82
I0
tp738
a(I95
I0
tp739
a(I81
I62
tp740
a(I90
I0
tp741
a(I91
I0
tp742
a(I178
I32
tp743
asg27
I200
sba(imain2
Polygon
p744
(dp745
g3
(I113
I24
tp746
sg5
I200
sg6
(I146
I238
I0
I1
tp747
sg8
(lp748
(I106
I14
tp749
a(I88
I27
tp750
a(I85
I60
tp751
a(I123
I70
tp752
a(I126
I0
tp753
a(I117
I66
tp754
a(I110
I46
tp755
a(I138
I18
tp756
a(I122
I0
tp757
a(I77
I58
tp758
a(I110
I0
tp759
a(I163
I41
tp760
a(I139
I44
tp761
asg27
I200
sba(imain2
Polygon
p762
(dp763
g3
(I15
I21
tp764
sg5
I200
sg6
(I41
I40
I23
I1
tp765
sg8
(lp766
(I8
I18
tp767
a(I2
I12
tp768
a(I59
I59
tp769
a(I51
I26
tp770
a(I28
I35
tp771
a(I38
I50
tp772
a(I2
I0
tp773
a(I15
I36
tp774
a(I0
I44
tp775
a(I39
I0
tp776
asg27
I200
sba(imain2
Polygon
p777
(dp778
g3
(I75
I18
tp779
sg5
I200
sg6
(I118
I124
I38
I132
tp780
sg8
(lp781
(I98
I0
tp782
a(I82
I30
tp783
a(I74
I50
tp784
a(I90
I0
tp785
a(I32
I0
tp786
a(I29
I0
tp787
a(I70
I49
tp788
a(I31
I0
tp789
a(I64
I30
tp790
a(I77
I0
tp791
a(I26
I62
tp792
a(I118
I0
tp793
a(I123
I13
tp794
a(I25
I19
tp795
a(I53
I67
tp796
a(I111
I64
tp797
a(I124
I63
tp798
a(I72
I12
tp799
a(I104
I7
tp800
a(I73
I11
tp801
asg27
I200
sba(imain2
Polygon
p802
(dp803
g3
(I147
I31
tp804
sg5
I200
sg6
(I240
I1
I220
I129
tp805
sg8
(lp806
(I197
I0
tp807
a(I196
I42
tp808
a(I180
I38
tp809
a(I168
I65
tp810
a(I153
I34
tp811
a(I193
I77
tp812
a(I187
I24
tp813
a(I176
I51
tp814
a(I126
I17
tp815
a(I97
I10
tp816
a(I130
I0
tp817
asg27
I200
sba(imain2
Polygon
p818
(dp819
g3
(I43
I128
tp820
sg5
I200
sg6
(I89
I21
I103
I108
tp821
sg8
(lp822
(I6
I108
tp823
a(I15
I103
tp824
a(I5
I162
tp825
a(I3
I155
tp826
asg27
I200
sba(imain2
Polygon
p827
(dp828
g3
(I191
I52
tp829
sg5
I200
sg6
(I138
I139
I97
I1
tp830
sg8
(lp831
(I200
I4
tp832
a(I200
I26
tp833
a(I179
I57
tp834
a(I160
I85
tp835
a(I151
I21
tp836
a(I151
I37
tp837
a(I150
I21
tp838
a(I175
I65
tp839
a(I162
I13
tp840
asg27
I200
sba(imain2
Polygon
p841
(dp842
g3
(I124
I96
tp843
sg5
I200
sg6
(I220
I84
I119
I0
tp844
sg8
(lp845
(I86
I139
tp846
a(I142
I107
tp847
a(I106
I89
tp848
a(I142
I104
tp849
a(I100
I144
tp850
a(I91
I110
tp851
a(I113
I48
tp852
a(I102
I110
tp853
a(I81
I129
tp854
a(I157
I142
tp855
a(I167
I108
tp856
a(I164
I73
tp857
asg27
I200
sba(imain2
Polygon
p858
(dp859
g3
(I14
I107
tp860
sg5
I200
sg6
(I54
I1
I216
I112
tp861
sg8
(lp862
(I0
I128
tp863
a(I0
I102
tp864
a(I11
I71
tp865
a(I0
I109
tp866
asg27
I200
sba(imain2
Polygon
p867
(dp868
g3
(I84
I159
tp869
sg5
I200
sg6
(I49
I9
I190
I0
tp870
sg8
(lp871
(I88
I152
tp872
a(I90
I134
tp873
a(I70
I146
tp874
a(I74
I165
tp875
a(I134
I189
tp876
a(I73
I171
tp877
a(I101
I138
tp878
a(I64
I172
tp879
a(I99
I119
tp880
asg27
I200
sba(imain2
Polygon
p881
(dp882
g3
(I141
I115
tp883
sg5
I200
sg6
(I236
I169
I168
I1
tp884
sg8
(lp885
(I180
I117
tp886
a(I151
I144
tp887
a(I126
I104
tp888
asg27
I200
sba(imain2
Polygon
p889
(dp890
g3
(I199
I78
tp891
sg5
I200
sg6
(I204
I198
I82
I116
tp892
sg8
(lp893
(I151
I34
tp894
a(I153
I30
tp895
a(I200
I28
tp896
a(I200
I125
tp897
a(I164
I113
tp898
a(I171
I79
tp899
asg27
I200
sba(imain2
Polygon
p900
(dp901
g3
(I167
I90
tp902
sg5
I200
sg6
(I31
I185
I28
I32
tp903
sg8
(lp904
(I193
I65
tp905
a(I137
I128
tp906
a(I182
I102
tp907
a(I200
I85
tp908
a(I155
I50
tp909
asg27
I200
sba(imain2
Polygon
p910
(dp911
g3
(I17
I14
tp912
sg5
I200
sg6
(I1
I6
I90
I15
tp913
sg8
(lp914
(I37
I26
tp915
a(I0
I12
tp916
a(I30
I27
tp917
a(I0
I0
tp918
a(I21
I0
tp919
a(I0
I0
tp920
a(I0
I17
tp921
a(I0
I29
tp922
a(I0
I0
tp923
a(I23
I18
tp924
a(I0
I50
tp925
a(I44
I1
tp926
a(I0
I2
tp927
a(I8
I0
tp928
a(I17
I0
tp929
asg27
I200
sba(imain2
Polygon
p930
(dp931
g3
(I190
I180
tp932
sg5
I200
sg6
(I224
I100
I46
I0
tp933
sg8
(lp934
(I197
I149
tp935
a(I156
I200
tp936
a(I200
I200
tp937
a(I200
I200
tp938
asg27
I200
sba(imain2
Polygon
p939
(dp940
g3
(I70
I166
tp941
sg5
I200
sg6
(I104
I177
I0
I1
tp942
sg8
(lp943
(I87
I154
tp944
a(I77
I197
tp945
a(I84
I188
tp946
a(I77
I128
tp947
a(I36
I127
tp948
a(I110
I188
tp949
a(I48
I131
tp950
a(I58
I200
tp951
a(I72
I186
tp952
asg27
I200
sba(imain2
Polygon
p953
(dp954
g3
(I196
I185
tp955
sg5
I200
sg6
(I17
I153
I128
I1
tp956
sg8
(lp957
(I153
I200
tp958
a(I200
I163
tp959
a(I200
I200
tp960
a(I171
I140
tp961
a(I150
I137
tp962
a(I200
I200
tp963
a(I174
I168
tp964
asg27
I200
sba(imain2
Polygon
p965
(dp966
g3
(I48
I123
tp967
sg5
I200
sg6
(I164
I42
I15
I81
tp968
sg8
(lp969
(I8
I113
tp970
a(I8
I127
tp971
a(I0
I97
tp972
a(I22
I76
tp973
a(I46
I104
tp974
a(I58
I146
tp975
a(I89
I76
tp976
a(I9
I121
tp977
a(I27
I162
tp978
a(I11
I146
tp979
a(I15
I82
tp980
asg27
I200
sba(imain2
Polygon
p981
(dp982
g3
(I59
I97
tp983
sg5
I200
sg6
(I202
I47
I122
I11
tp984
sg8
(lp985
(I70
I135
tp986
a(I85
I54
tp987
a(I45
I47
tp988
a(I104
I120
tp989
a(I44
I80
tp990
a(I63
I132
tp991
a(I18
I115
tp992
a(I107
I141
tp993
a(I83
I125
tp994
a(I74
I134
tp995
asg27
I200
sba(imain2
Polygon
p996
(dp997
g3
(I17
I149
tp998
sg5
I200
sg6
(I0
I34
I154
I1
tp999
sg8
(lp1000
(I0
I124
tp1001
a(I0
I184
tp1002
a(I0
I172
tp1003
a(I5
I196
tp1004
a(I15
I142
tp1005
a(I0
I171
tp1006
a(I55
I198
tp1007
a(I22
I101
tp1008
a(I63
I164
tp1009
a(I63
I128
tp1010
asg27
I200
sba(imain2
Polygon
p1011
(dp1012
g3
(I88
I2
tp1013
sg5
I200
sg6
(I2
I101
I59
I33
tp1014
sg8
(lp1015
(I46
I0
tp1016
a(I122
I0
tp1017
a(I48
I0
tp1018
a(I105
I20
tp1019
a(I82
I0
tp1020
a(I78
I0
tp1021
a(I113
I12
tp1022
asg27
I200
sba(imain2
Polygon
p1023
(dp1024
g3
(I3
I161
tp1025
sg5
I200
sg6
(I172
I17
I188
I0
tp1026
sg8
(lp1027
(I21
I162
tp1028
a(I0
I169
tp1029
a(I0
I141
tp1030
a(I41
I178
tp1031
a(I0
I124
tp1032
a(I0
I163
tp1033
a(I0
I168
tp1034
a(I11
I145
tp1035
a(I0
I121
tp1036
a(I45
I146
tp1037
asg27
I200
sba(imain2
Polygon
p1038
(dp1039
g3
(I98
I58
tp1040
sg5
I200
sg6
(I36
I61
I167
I0
tp1041
sg8
(lp1042
(I68
I69
tp1043
a(I71
I81
tp1044
a(I74
I104
tp1045
a(I52
I73
tp1046
a(I125
I37
tp1047
a(I102
I11
tp1048
asg27
I200
sba(imain2
Polygon
p1049
(dp1050
g3
(I109
I111
tp1051
sg5
I200
sg6
(I225
I35
I97
I1
tp1052
sg8
(lp1053
(I91
I100
tp1054
a(I96
I159
tp1055
a(I64
I113
tp1056
a(I109
I97
tp1057
a(I135
I157
tp1058
a(I147
I83
tp1059
a(I140
I71
tp1060
a(I61
I72
tp1061
a(I126
I115
tp1062
a(I121
I150
tp1063
asg27
I200
sba(imain2
Polygon
p1064
(dp1065
g3
(I83
I155
tp1066
sg5
I200
sg6
(I201
I40
I178
I6
tp1067
sg8
(lp1068
(I67
I145
tp1069
a(I129
I115
tp1070
a(I132
I200
tp1071
a(I58
I195
tp1072
a(I116
I182
tp1073
a(I60
I111
tp1074
a(I110
I188
tp1075
a(I51
I131
tp1076
a(I87
I167
tp1077
a(I102
I130
tp1078
a(I90
I159
tp1079
a(I106
I115
tp1080
a(I76
I160
tp1081
a(I41
I151
tp1082
a(I33
I118
tp1083
a(I81
I114
tp1084
a(I76
I115
tp1085
a(I43
I119
tp1086
asg27
I200
sba(imain2
Polygon
p1087
(dp1088
g3
(I81
I21
tp1089
sg5
I200
sg6
(I135
I0
I24
I95
tp1090
sg8
(lp1091
(I94
I1
tp1092
a(I110
I0
tp1093
a(I90
I0
tp1094
a(I122
I60
tp1095
a(I103
I58
tp1096
a(I38
I0
tp1097
a(I64
I20
tp1098
a(I80
I0
tp1099
a(I31
I7
tp1100
asg27
I200
sba(imain2
Polygon
p1101
(dp1102
g3
(I77
I115
tp1103
sg5
I200
sg6
(I90
I234
I215
I0
tp1104
sg8
(lp1105
(I39
I74
tp1106
a(I45
I102
tp1107
a(I59
I149
tp1108
a(I81
I144
tp1109
a(I83
I96
tp1110
a(I123
I131
tp1111
a(I126
I153
tp1112
a(I34
I138
tp1113
a(I60
I98
tp1114
asg27
I200
sba(imain2
Polygon
p1115
(dp1116
g3
(I108
I110
tp1117
sg5
I200
sg6
(I141
I114
I142
I0
tp1118
sg8
(lp1119
(I128
I152
tp1120
a(I143
I78
tp1121
a(I76
I135
tp1122
a(I129
I123
tp1123
a(I153
I68
tp1124
a(I129
I106
tp1125
a(I101
I139
tp1126
a(I149
I82
tp1127
a(I109
I107
tp1128
a(I137
I94
tp1129
a(I104
I133
tp1130
a(I141
I157
tp1131
asg27
I200
sba(imain2
Polygon
p1132
(dp1133
g3
(I7
I122
tp1134
sg5
I200
sg6
(I150
I0
I155
I1
tp1135
sg8
(lp1136
(I1
I75
tp1137
a(I26
I136
tp1138
a(I40
I82
tp1139
a(I0
I168
tp1140
a(I15
I147
tp1141
a(I47
I133
tp1142
a(I0
I158
tp1143
a(I41
I128
tp1144
a(I46
I97
tp1145
a(I42
I170
tp1146
a(I18
I87
tp1147
a(I6
I142
tp1148
a(I38
I157
tp1149
a(I23
I87
tp1150
asg27
I200
sba(imain2
Polygon
p1151
(dp1152
g3
(I105
I20
tp1153
sg5
I200
sg6
(I211
I24
I227
I0
tp1154
sg8
(lp1155
(I146
I32
tp1156
a(I73
I0
tp1157
a(I85
I12
tp1158
a(I100
I0
tp1159
a(I138
I42
tp1160
a(I57
I22
tp1161
a(I142
I57
tp1162
asg27
I200
sba(imain2
Polygon
p1163
(dp1164
g3
(I47
I80
tp1165
sg5
I200
sg6
(I104
I45
I113
I4
tp1166
sg8
(lp1167
(I55
I102
tp1168
a(I79
I102
tp1169
a(I62
I30
tp1170
a(I0
I130
tp1171
a(I96
I67
tp1172
a(I97
I99
tp1173
a(I75
I53
tp1174
a(I87
I117
tp1175
a(I11
I37
tp1176
a(I13
I128
tp1177
a(I64
I108
tp1178
a(I23
I50
tp1179
a(I71
I123
tp1180
a(I68
I94
tp1181
a(I82
I49
tp1182
a(I8
I102
tp1183
a(I84
I126
tp1184
a(I53
I127
tp1185
a(I77
I84
tp1186
a(I25
I60
tp1187
asg27
I200
sba(imain2
Polygon
p1188
(dp1189
g3
(I131
I30
tp1190
sg5
I200
sg6
(I202
I121
I166
I0
tp1191
sg8
(lp1192
(I110
I79
tp1193
a(I102
I0
tp1194
a(I162
I8
tp1195
a(I116
I42
tp1196
asg27
I200
sba(imain2
Polygon
p1197
(dp1198
g3
(I199
I39
tp1199
sg5
I200
sg6
(I90
I187
I104
I50
tp1200
sg8
(lp1201
(I200
I0
tp1202
a(I150
I0
tp1203
a(I200
I89
tp1204
a(I200
I14
tp1205
a(I200
I75
tp1206
asg27
I200
sba(imain2
Polygon
p1207
(dp1208
g3
(I110
I156
tp1209
sg5
I200
sg6
(I186
I89
I123
I1
tp1210
sg8
(lp1211
(I106
I166
tp1212
a(I116
I155
tp1213
a(I91
I200
tp1214
a(I160
I151
tp1215
a(I133
I138
tp1216
a(I142
I110
tp1217
a(I103
I170
tp1218
a(I76
I200
tp1219
a(I138
I148
tp1220
a(I121
I145
tp1221
a(I144
I153
tp1222
a(I127
I174
tp1223
a(I108
I146
tp1224
asg27
I200
sba(imain2
Polygon
p1225
(dp1226
g3
(I14
I89
tp1227
sg5
I200
sg6
(I198
I19
I23
I62
tp1228
sg8
(lp1229
(I0
I61
tp1230
a(I53
I72
tp1231
a(I55
I44
tp1232
a(I17
I118
tp1233
a(I0
I99
tp1234
a(I5
I50
tp1235
a(I11
I80
tp1236
a(I30
I102
tp1237
asg27
I200
sba(imain2
Polygon
p1238
(dp1239
g3
(I124
I127
tp1240
sg5
I200
sg6
(I171
I215
I170
I0
tp1241
sg8
(lp1242
(I119
I158
tp1243
a(I99
I92
tp1244
a(I81
I155
tp1245
a(I111
I115
tp1246
a(I114
I144
tp1247
a(I97
I169
tp1248
a(I118
I147
tp1249
a(I135
I124
tp1250
a(I92
I110
tp1251
a(I100
I124
tp1252
a(I101
I170
tp1253
a(I82
I117
tp1254
a(I85
I154
tp1255
asg27
I200
sba(imain2
Polygon
p1256
(dp1257
g3
(I97
I78
tp1258
sg5
I200
sg6
(I144
I200
I157
I1
tp1259
sg8
(lp1260
(I62
I103
tp1261
a(I66
I110
tp1262
a(I135
I109
tp1263
a(I78
I58
tp1264
a(I55
I84
tp1265
a(I108
I101
tp1266
a(I55
I62
tp1267
a(I72
I48
tp1268
a(I74
I122
tp1269
asg27
I200
sba(imain2
Polygon
p1270
(dp1271
g3
(I71
I43
tp1272
sg5
I200
sg6
(I218
I209
I116
I0
tp1273
sg8
(lp1274
(I116
I31
tp1275
a(I38
I0
tp1276
a(I53
I38
tp1277
a(I49
I45
tp1278
a(I50
I41
tp1279
a(I24
I31
tp1280
a(I75
I14
tp1281
a(I39
I86
tp1282
asg27
I200
sba(imain2
Polygon
p1283
(dp1284
g3
(I109
I75
tp1285
sg5
I200
sg6
(I108
I159
I66
I115
tp1286
sg8
(lp1287
(I63
I26
tp1288
a(I61
I87
tp1289
a(I120
I76
tp1290
a(I87
I26
tp1291
a(I64
I35
tp1292
a(I71
I69
tp1293
a(I62
I35
tp1294
a(I91
I63
tp1295
asg27
I200
sba(imain2
Polygon
p1296
(dp1297
g3
(I149
I45
tp1298
sg5
I200
sg6
(I205
I139
I126
I84
tp1299
sg8
(lp1300
(I199
I90
tp1301
a(I165
I70
tp1302
a(I183
I12
tp1303
a(I128
I0
tp1304
a(I175
I87
tp1305
a(I158
I84
tp1306
a(I187
I0
tp1307
a(I194
I33
tp1308
a(I189
I0
tp1309
a(I130
I0
tp1310
a(I195
I19
tp1311
a(I199
I27
tp1312
asg27
I200
sba(imain2
Polygon
p1313
(dp1314
g3
(I29
I98
tp1315
sg5
I200
sg6
(I6
I134
I168
I31
tp1316
sg8
(lp1317
(I0
I145
tp1318
a(I75
I70
tp1319
a(I0
I73
tp1320
a(I0
I142
tp1321
a(I32
I77
tp1322
a(I67
I79
tp1323
a(I60
I84
tp1324
a(I47
I113
tp1325
a(I28
I90
tp1326
a(I56
I50
tp1327
a(I0
I116
tp1328
a(I19
I137
tp1329
a(I0
I105
tp1330
asg27
I200
sba(imain2
Polygon
p1331
(dp1332
g3
(I90
I62
tp1333
sg5
I200
sg6
(I176
I116
I129
I1
tp1334
sg8
(lp1335
(I71
I20
tp1336
a(I61
I49
tp1337
a(I54
I78
tp1338
a(I125
I83
tp1339
a(I117
I52
tp1340
a(I63
I51
tp1341
a(I74
I67
tp1342
asg27
I200
sba(imain2
Polygon
p1343
(dp1344
g3
(I63
I49
tp1345
sg5
I200
sg6
(I216
I249
I133
I1
tp1346
sg8
(lp1347
(I83
I99
tp1348
a(I33
I69
tp1349
a(I89
I60
tp1350
a(I14
I3
tp1351
a(I16
I27
tp1352
a(I35
I15
tp1353
a(I36
I61
tp1354
a(I99
I65
tp1355
a(I112
I39
tp1356
a(I80
I12
tp1357
a(I72
I39
tp1358
asg27
I200
sba(imain2
Polygon
p1359
(dp1360
g3
(I31
I132
tp1361
sg5
I200
sg6
(I73
I116
I195
I3
tp1362
sg8
(lp1363
(I0
I103
tp1364
a(I35
I167
tp1365
a(I5
I107
tp1366
a(I70
I131
tp1367
a(I53
I134
tp1368
a(I10
I143
tp1369
a(I0
I113
tp1370
a(I42
I100
tp1371
a(I0
I125
tp1372
a(I0
I146
tp1373
a(I14
I172
tp1374
a(I51
I169
tp1375
a(I28
I154
tp1376
a(I12
I140
tp1377
a(I69
I141
tp1378
a(I5
I164
tp1379
asg27
I200
sba(imain2
Polygon
p1380
(dp1381
g3
(I80
I158
tp1382
sg5
I200
sg6
(I24
I41
I57
I1
tp1383
sg8
(lp1384
(I60
I161
tp1385
a(I114
I200
tp1386
a(I54
I185
tp1387
a(I94
I151
tp1388
a(I69
I136
tp1389
a(I105
I129
tp1390
a(I74
I194
tp1391
a(I65
I200
tp1392
a(I111
I109
tp1393
a(I35
I139
tp1394
a(I124
I119
tp1395
a(I58
I172
tp1396
a(I126
I180
tp1397
a(I39
I119
tp1398
a(I37
I191
tp1399
a(I82
I200
tp1400
a(I109
I149
tp1401
a(I30
I146
tp1402
a(I48
I115
tp1403
asg27
I200
sba(imain2
Polygon
p1404
(dp1405
g3
(I168
I51
tp1406
sg5
I200
sg6
(I97
I202
I209
I1
tp1407
sg8
(lp1408
(I120
I98
tp1409
a(I200
I20
tp1410
a(I200
I37
tp1411
a(I200
I31
tp1412
a(I196
I9
tp1413
a(I141
I16
tp1414
asg27
I200
sba(imain2
Polygon
p1415
(dp1416
g3
(I110
I14
tp1417
sg5
I200
sg6
(I155
I137
I48
I137
tp1418
sg8
(lp1419
(I118
I49
tp1420
a(I72
I59
tp1421
a(I101
I0
tp1422
a(I152
I0
tp1423
a(I158
I0
tp1424
a(I157
I28
tp1425
a(I70
I14
tp1426
a(I61
I0
tp1427
a(I67
I58
tp1428
a(I105
I0
tp1429
a(I135
I0
tp1430
a(I61
I0
tp1431
a(I77
I25
tp1432
asg27
I200
sba(imain2
Polygon
p1433
(dp1434
g3
(I85
I94
tp1435
sg5
I200
sg6
(I202
I232
I83
I62
tp1436
sg8
(lp1437
(I43
I56
tp1438
a(I110
I104
tp1439
a(I64
I45
tp1440
a(I105
I45
tp1441
a(I125
I73
tp1442
a(I92
I95
tp1443
a(I79
I138
tp1444
a(I109
I144
tp1445
a(I124
I111
tp1446
a(I62
I45
tp1447
a(I45
I66
tp1448
a(I55
I140
tp1449
a(I103
I103
tp1450
asg27
I200
sba(imain2
Polygon
p1451
(dp1452
g3
(I153
I81
tp1453
sg5
I200
sg6
(I120
I86
I189
I0
tp1454
sg8
(lp1455
(I125
I112
tp1456
a(I121
I118
tp1457
a(I150
I46
tp1458
a(I188
I103
tp1459
a(I163
I70
tp1460
a(I120
I129
tp1461
a(I194
I60
tp1462
a(I150
I42
tp1463
asg27
I200
sba(imain2
Polygon
p1464
(dp1465
g3
(I146
I37
tp1466
sg5
I200
sg6
(I227
I81
I153
I1
tp1467
sg8
(lp1468
(I191
I0
tp1469
a(I105
I34
tp1470
a(I105
I42
tp1471
a(I170
I57
tp1472
a(I168
I0
tp1473
a(I178
I36
tp1474
a(I176
I68
tp1475
asg27
I200
sba(imain2
Polygon
p1476
(dp1477
g3
(I36
I71
tp1478
sg5
I200
sg6
(I177
I118
I133
I1
tp1479
sg8
(lp1480
(I67
I92
tp1481
a(I30
I41
tp1482
a(I71
I32
tp1483
a(I57
I71
tp1484
a(I48
I38
tp1485
a(I0
I51
tp1486
a(I42
I81
tp1487
a(I50
I114
tp1488
a(I58
I42
tp1489
a(I45
I110
tp1490
a(I2
I109
tp1491
asg27
I200
sba(imain2
Polygon
p1492
(dp1493
g3
(I36
I181
tp1494
sg5
I200
sg6
(I143
I211
I95
I65
tp1495
sg8
(lp1496
(I78
I149
tp1497
a(I57
I137
tp1498
a(I81
I147
tp1499
a(I71
I200
tp1500
a(I43
I172
tp1501
a(I0
I200
tp1502
a(I0
I149
tp1503
a(I84
I200
tp1504
a(I71
I200
tp1505
asg27
I200
sba(imain2
Polygon
p1506
(dp1507
g3
(I94
I181
tp1508
sg5
I200
sg6
(I112
I48
I35
I0
tp1509
sg8
(lp1510
(I112
I152
tp1511
a(I73
I197
tp1512
a(I100
I142
tp1513
a(I119
I171
tp1514
a(I133
I167
tp1515
a(I107
I200
tp1516
a(I112
I200
tp1517
a(I73
I176
tp1518
a(I98
I144
tp1519
a(I97
I200
tp1520
asg27
I200
sba(imain2
Polygon
p1521
(dp1522
g3
(I4
I26
tp1523
sg5
I200
sg6
(I27
I103
I59
I39
tp1524
sg8
(lp1525
(I25
I0
tp1526
a(I1
I19
tp1527
a(I0
I38
tp1528
a(I0
I29
tp1529
a(I9
I3
tp1530
a(I54
I51
tp1531
a(I32
I59
tp1532
a(I21
I18
tp1533
a(I33
I48
tp1534
a(I0
I76
tp1535
a(I0
I0
tp1536
a(I48
I7
tp1537
a(I0
I38
tp1538
a(I0
I69
tp1539
a(I20
I0
tp1540
asg27
I200
sba(imain2
Polygon
p1541
(dp1542
g3
(I14
I45
tp1543
sg5
I200
sg6
(I145
I107
I1
I0
tp1544
sg8
(lp1545
(I0
I56
tp1546
a(I12
I26
tp1547
a(I26
I76
tp1548
a(I0
I32
tp1549
a(I25
I22
tp1550
a(I8
I81
tp1551
a(I0
I86
tp1552
a(I0
I11
tp1553
a(I37
I75
tp1554
a(I31
I14
tp1555
a(I6
I53
tp1556
asg27
I200
sba(imain2
Polygon
p1557
(dp1558
g3
(I103
I69
tp1559
sg5
I200
sg6
(I231
I218
I1
I36
tp1560
sg8
(lp1561
(I55
I36
tp1562
a(I53
I116
tp1563
a(I125
I109
tp1564
a(I135
I89
tp1565
a(I85
I19
tp1566
a(I102
I36
tp1567
asg27
I200
sba(imain2
Polygon
p1568
(dp1569
g3
(I61
I77
tp1570
sg5
I200
sg6
(I60
I120
I190
I118
tp1571
sg8
(lp1572
(I45
I115
tp1573
a(I88
I94
tp1574
a(I89
I87
tp1575
asg27
I200
sba(imain2
Polygon
p1576
(dp1577
g3
(I36
I98
tp1578
sg5
I200
sg6
(I0
I197
I72
I37
tp1579
sg8
(lp1580
(I28
I97
tp1581
a(I4
I90
tp1582
a(I0
I121
tp1583
a(I0
I53
tp1584
a(I80
I75
tp1585
a(I30
I53
tp1586
a(I0
I59
tp1587
a(I36
I48
tp1588
a(I42
I52
tp1589
a(I19
I124
tp1590
asg27
I200
sba(imain2
Polygon
p1591
(dp1592
g3
(I20
I133
tp1593
sg5
I200
sg6
(I196
I236
I132
I69
tp1594
sg8
(lp1595
(I25
I183
tp1596
a(I0
I181
tp1597
a(I0
I175
tp1598
a(I21
I139
tp1599
a(I28
I170
tp1600
asg27
I200
sba(imain2
Polygon
p1601
(dp1602
g3
(I178
I74
tp1603
sg5
I200
sg6
(I28
I118
I23
I0
tp1604
sg8
(lp1605
(I193
I110
tp1606
a(I138
I55
tp1607
a(I200
I57
tp1608
a(I200
I29
tp1609
a(I200
I85
tp1610
a(I173
I107
tp1611
a(I172
I86
tp1612
asg27
I200
sba(imain2
Polygon
p1613
(dp1614
g3
(I191
I151
tp1615
sg5
I200
sg6
(I237
I38
I74
I51
tp1616
sg8
(lp1617
(I168
I135
tp1618
a(I200
I123
tp1619
a(I200
I189
tp1620
asg27
I200
sba(imain2
Polygon
p1621
(dp1622
g3
(I81
I200
tp1623
sg5
I200
sg6
(I39
I56
I159
I23
tp1624
sg8
(lp1625
(I63
I200
tp1626
a(I38
I191
tp1627
a(I46
I200
tp1628
a(I78
I172
tp1629
a(I46
I200
tp1630
a(I103
I198
tp1631
a(I103
I200
tp1632
a(I114
I200
tp1633
a(I99
I200
tp1634
asg27
I200
sba(imain2
Polygon
p1635
(dp1636
g3
(I8
I200
tp1637
sg5
I200
sg6
(I234
I14
I64
I126
tp1638
sg8
(lp1639
(I0
I200
tp1640
a(I0
I200
tp1641
a(I41
I200
tp1642
a(I0
I200
tp1643
a(I0
I200
tp1644
a(I35
I200
tp1645
a(I45
I200
tp1646
a(I23
I200
tp1647
asg27
I200
sba(imain2
Polygon
p1648
(dp1649
g3
(I12
I187
tp1650
sg5
I200
sg6
(I221
I0
I177
I0
tp1651
sg8
(lp1652
(I20
I200
tp1653
a(I22
I200
tp1654
a(I34
I164
tp1655
a(I0
I174
tp1656
a(I3
I143
tp1657
a(I3
I200
tp1658
a(I42
I172
tp1659
a(I54
I200
tp1660
a(I0
I173
tp1661
a(I20
I145
tp1662
a(I16
I198
tp1663
a(I0
I200
tp1664
a(I17
I200
tp1665
asg27
I200
sba(imain2
Polygon
p1666
(dp1667
g3
(I142
I43
tp1668
sg5
I200
sg6
(I49
I75
I163
I0
tp1669
sg8
(lp1670
(I129
I23
tp1671
a(I149
I90
tp1672
a(I150
I53
tp1673
a(I92
I48
tp1674
a(I131
I6
tp1675
a(I136
I59
tp1676
a(I125
I49
tp1677
a(I123
I43
tp1678
a(I95
I15
tp1679
a(I122
I35
tp1680
a(I170
I34
tp1681
a(I138
I19
tp1682
a(I152
I6
tp1683
a(I103
I43
tp1684
a(I146
I16
tp1685
a(I189
I16
tp1686
asg27
I200
sba(imain2
Polygon
p1687
(dp1688
g3
(I89
I37
tp1689
sg5
I200
sg6
(I0
I101
I197
I69
tp1690
sg8
(lp1691
(I104
I35
tp1692
a(I54
I51
tp1693
a(I55
I50
tp1694
asg27
I200
sba(imain2
Polygon
p1695
(dp1696
g3
(I43
I51
tp1697
sg5
I200
sg6
(I34
I140
I121
I1
tp1698
sg8
(lp1699
(I15
I67
tp1700
a(I5
I6
tp1701
a(I76
I90
tp1702
a(I20
I81
tp1703
a(I29
I5
tp1704
a(I66
I97
tp1705
a(I62
I59
tp1706
a(I37
I59
tp1707
a(I76
I99
tp1708
a(I47
I50
tp1709
a(I2
I88
tp1710
a(I41
I3
tp1711
a(I88
I11
tp1712
a(I51
I32
tp1713
a(I75
I8
tp1714
a(I15
I62
tp1715
asg27
I200
sba(imain2
Polygon
p1716
(dp1717
g3
(I23
I143
tp1718
sg5
I200
sg6
(I72
I245
I170
I38
tp1719
sg8
(lp1720
(I0
I94
tp1721
a(I0
I130
tp1722
a(I0
I188
tp1723
a(I29
I191
tp1724
a(I34
I148
tp1725
a(I0
I157
tp1726
a(I0
I133
tp1727
asg27
I200
sba(imain2
Polygon
p1728
(dp1729
g3
(I32
I143
tp1730
sg5
I200
sg6
(I51
I69
I159
I1
tp1731
sg8
(lp1732
(I82
I177
tp1733
a(I49
I177
tp1734
a(I63
I174
tp1735
a(I15
I156
tp1736
a(I45
I154
tp1737
a(I1
I141
tp1738
a(I27
I131
tp1739
a(I17
I146
tp1740
a(I70
I117
tp1741
a(I41
I99
tp1742
a(I58
I115
tp1743
a(I32
I170
tp1744
a(I0
I152
tp1745
a(I53
I187
tp1746
a(I22
I122
tp1747
a(I64
I151
tp1748
a(I37
I155
tp1749
asg27
I200
sba(imain2
Polygon
p1750
(dp1751
g3
(I69
I107
tp1752
sg5
I200
sg6
(I156
I227
I1
I4
tp1753
sg8
(lp1754
(I95
I66
tp1755
a(I48
I101
tp1756
a(I45
I119
tp1757
a(I109
I101
tp1758
a(I94
I134
tp1759
a(I49
I120
tp1760
a(I34
I151
tp1761
a(I93
I154
tp1762
a(I108
I69
tp1763
a(I51
I66
tp1764
a(I105
I141
tp1765
a(I73
I153
tp1766
a(I34
I125
tp1767
asg27
I200
sba(imain2
Polygon
p1768
(dp1769
g3
(I172
I111
tp1770
sg5
I200
sg6
(I236
I212
I83
I120
tp1771
sg8
(lp1772
(I200
I62
tp1773
a(I200
I94
tp1774
a(I166
I66
tp1775
asg27
I200
sba(imain2
Polygon
p1776
(dp1777
g3
(I150
I91
tp1778
sg5
I200
sg6
(I8
I238
I84
I35
tp1779
sg8
(lp1780
(I174
I136
tp1781
a(I165
I69
tp1782
a(I181
I124
tp1783
a(I199
I68
tp1784
a(I197
I130
tp1785
asg27
I200
sba(imain2
Polygon
p1786
(dp1787
g3
(I135
I188
tp1788
sg5
I200
sg6
(I76
I226
I4
I0
tp1789
sg8
(lp1790
(I184
I181
tp1791
a(I127
I200
tp1792
a(I133
I200
tp1793
a(I161
I166
tp1794
a(I166
I162
tp1795
a(I85
I183
tp1796
a(I164
I200
tp1797
asg27
I200
sba(imain2
Polygon
p1798
(dp1799
g3
(I127
I113
tp1800
sg5
I200
sg6
(I133
I210
I151
I1
tp1801
sg8
(lp1802
(I116
I100
tp1803
a(I174
I63
tp1804
a(I140
I80
tp1805
a(I158
I139
tp1806
a(I124
I133
tp1807
asg27
I200
sba(imain2
Polygon
p1808
(dp1809
g3
(I173
I20
tp1810
sg5
I200
sg6
(I230
I1
I218
I1
tp1811
sg8
(lp1812
(I166
I0
tp1813
a(I187
I8
tp1814
a(I183
I69
tp1815
a(I200
I0
tp1816
a(I145
I26
tp1817
a(I173
I62
tp1818
a(I152
I0
tp1819
a(I143
I58
tp1820
a(I186
I67
tp1821
a(I200
I0
tp1822
a(I166
I0
tp1823
a(I163
I0
tp1824
a(I173
I0
tp1825
a(I144
I0
tp1826
a(I200
I35
tp1827
asg27
I200
sba(imain2
Polygon
p1828
(dp1829
g3
(I100
I197
tp1830
sg5
I200
sg6
(I33
I102
I175
I59
tp1831
sg8
(lp1832
(I99
I200
tp1833
a(I118
I200
tp1834
a(I147
I200
tp1835
a(I104
I151
tp1836
a(I129
I173
tp1837
a(I105
I200
tp1838
a(I92
I200
tp1839
a(I140
I200
tp1840
a(I133
I200
tp1841
a(I139
I200
tp1842
a(I92
I200
tp1843
a(I121
I200
tp1844
a(I100
I199
tp1845
asg27
I200
sba(imain2
Polygon
p1846
(dp1847
g3
(I70
I0
tp1848
sg5
I200
sg6
(I135
I0
I193
I1
tp1849
sg8
(lp1850
(I62
I0
tp1851
a(I56
I0
tp1852
a(I112
I0
tp1853
a(I46
I17
tp1854
a(I109
I36
tp1855
a(I64
I0
tp1856
a(I30
I0
tp1857
asg27
I200
sba(imain2
Polygon
p1858
(dp1859
g3
(I106
I152
tp1860
sg5
I200
sg6
(I98
I161
I60
I65
tp1861
sg8
(lp1862
(I133
I114
tp1863
a(I119
I166
tp1864
a(I59
I200
tp1865
a(I140
I199
tp1866
a(I115
I114
tp1867
a(I85
I153
tp1868
a(I124
I140
tp1869
a(I142
I198
tp1870
a(I122
I150
tp1871
a(I68
I141
tp1872
a(I79
I165
tp1873
a(I99
I123
tp1874
a(I98
I156
tp1875
asg27
I200
sba(imain2
Polygon
p1876
(dp1877
g3
(I11
I38
tp1878
sg5
I200
sg6
(I108
I1
I123
I1
tp1879
sg8
(lp1880
(I11
I45
tp1881
a(I0
I65
tp1882
a(I35
I52
tp1883
a(I0
I12
tp1884
a(I8
I17
tp1885
a(I0
I79
tp1886
a(I52
I31
tp1887
a(I3
I4
tp1888
a(I46
I62
tp1889
a(I3
I0
tp1890
asg27
I200
sba(imain2
Polygon
p1891
(dp1892
g3
(I23
I68
tp1893
sg5
I200
sg6
(I215
I111
I188
I119
tp1894
sg8
(lp1895
(I35
I109
tp1896
a(I24
I85
tp1897
a(I54
I19
tp1898
a(I0
I66
tp1899
a(I35
I32
tp1900
a(I64
I43
tp1901
a(I0
I19
tp1902
a(I0
I111
tp1903
a(I7
I98
tp1904
a(I38
I112
tp1905
a(I10
I74
tp1906
asg27
I200
sba(imain2
Polygon
p1907
(dp1908
g3
(I73
I8
tp1909
sg5
I200
sg6
(I104
I162
I20
I128
tp1910
sg8
(lp1911
(I33
I0
tp1912
a(I113
I0
tp1913
a(I27
I56
tp1914
a(I23
I45
tp1915
a(I27
I13
tp1916
a(I32
I0
tp1917
a(I39
I9
tp1918
a(I28
I0
tp1919
a(I119
I40
tp1920
asg27
I200
sba(imain2
Polygon
p1921
(dp1922
g3
(I175
I187
tp1923
sg5
I200
sg6
(I117
I192
I196
I49
tp1924
sg8
(lp1925
(I159
I200
tp1926
a(I170
I200
tp1927
a(I146
I200
tp1928
a(I200
I200
tp1929
asg27
I200
sba(imain2
Polygon
p1930
(dp1931
g3
(I153
I195
tp1932
sg5
I200
sg6
(I54
I165
I29
I1
tp1933
sg8
(lp1934
(I179
I189
tp1935
a(I123
I200
tp1936
a(I135
I200
tp1937
a(I197
I200
tp1938
a(I192
I184
tp1939
a(I196
I200
tp1940
a(I125
I147
tp1941
a(I103
I169
tp1942
a(I103
I196
tp1943
asg27
I200
sba(imain2
Polygon
p1944
(dp1945
g3
(I199
I6
tp1946
sg5
I200
sg6
(I143
I39
I86
I0
tp1947
sg8
(lp1948
(I200
I20
tp1949
a(I200
I2
tp1950
a(I156
I0
tp1951
a(I165
I20
tp1952
a(I200
I20
tp1953
a(I200
I0
tp1954
a(I191
I0
tp1955
a(I164
I0
tp1956
a(I200
I38
tp1957
asg27
I200
sba(imain2
Polygon
p1958
(dp1959
g3
(I46
I191
tp1960
sg5
I200
sg6
(I89
I15
I8
I102
tp1961
sg8
(lp1962
(I69
I200
tp1963
a(I84
I189
tp1964
a(I89
I167
tp1965
a(I0
I200
tp1966
a(I0
I146
tp1967
a(I27
I155
tp1968
a(I54
I200
tp1969
a(I34
I181
tp1970
a(I84
I178
tp1971
a(I60
I200
tp1972
asg27
I200
sba(imain2
Polygon
p1973
(dp1974
g3
(I144
I179
tp1975
sg5
I200
sg6
(I124
I32
I189
I29
tp1976
sg8
(lp1977
(I123
I130
tp1978
a(I153
I186
tp1979
a(I136
I182
tp1980
a(I130
I191
tp1981
a(I102
I180
tp1982
a(I191
I200
tp1983
a(I105
I200
tp1984
a(I133
I183
tp1985
a(I108
I200
tp1986
a(I164
I155
tp1987
a(I152
I132
tp1988
a(I175
I200
tp1989
a(I147
I191
tp1990
a(I168
I199
tp1991
a(I168
I200
tp1992
a(I181
I200
tp1993
asg27
I200
sba(imain2
Polygon
p1994
(dp1995
g3
(I120
I46
tp1996
sg5
I200
sg6
(I81
I82
I101
I48
tp1997
sg8
(lp1998
(I133
I48
tp1999
a(I126
I24
tp2000
a(I138
I46
tp2001
a(I132
I30
tp2002
a(I113
I91
tp2003
a(I132
I24
tp2004
a(I98
I13
tp2005
asg27
I200
sba(imain2
Polygon
p2006
(dp2007
g3
(I100
I144
tp2008
sg5
I200
sg6
(I122
I183
I165
I106
tp2009
sg8
(lp2010
(I112
I95
tp2011
a(I98
I152
tp2012
a(I98
I126
tp2013
a(I74
I100
tp2014
a(I73
I147
tp2015
a(I83
I152
tp2016
a(I125
I151
tp2017
a(I68
I158
tp2018
a(I57
I102
tp2019
a(I80
I97
tp2020
asg27
I200
sba(imain2
Polygon
p2021
(dp2022
g3
(I151
I184
tp2023
sg5
I200
sg6
(I138
I1
I175
I1
tp2024
sg8
(lp2025
(I141
I163
tp2026
a(I192
I160
tp2027
a(I162
I159
tp2028
asg27
I200
sba(imain2
Polygon
p2029
(dp2030
g3
(I124
I187
tp2031
sg5
I200
sg6
(I25
I27
I210
I0
tp2032
sg8
(lp2033
(I90
I200
tp2034
a(I138
I200
tp2035
a(I131
I200
tp2036
a(I140
I200
tp2037
a(I119
I200
tp2038
a(I147
I147
tp2039
a(I113
I200
tp2040
a(I117
I187
tp2041
a(I128
I165
tp2042
a(I118
I147
tp2043
asg27
I200
sba(imain2
Polygon
p2044
(dp2045
g3
(I48
I52
tp2046
sg5
I200
sg6
(I247
I132
I158
I141
tp2047
sg8
(lp2048
(I58
I94
tp2049
a(I79
I94
tp2050
a(I97
I60
tp2051
a(I67
I7
tp2052
a(I35
I65
tp2053
a(I31
I93
tp2054
a(I90
I3
tp2055
a(I0
I3
tp2056
a(I0
I82
tp2057
a(I2
I102
tp2058
a(I65
I76
tp2059
a(I18
I85
tp2060
a(I75
I83
tp2061
a(I67
I95
tp2062
asg27
I200
sba(imain2
Polygon
p2063
(dp2064
g3
(I139
I74
tp2065
sg5
I200
sg6
(I150
I190
I236
I80
tp2066
sg8
(lp2067
(I189
I47
tp2068
a(I185
I26
tp2069
a(I157
I30
tp2070
a(I169
I88
tp2071
a(I187
I48
tp2072
asg27
I200
sba(imain2
Polygon
p2073
(dp2074
g3
(I161
I83
tp2075
sg5
I200
sg6
(I202
I147
I102
I29
tp2076
sg8
(lp2077
(I114
I113
tp2078
a(I114
I49
tp2079
a(I178
I77
tp2080
a(I155
I98
tp2081
a(I177
I113
tp2082
a(I199
I106
tp2083
a(I200
I49
tp2084
a(I140
I35
tp2085
a(I180
I50
tp2086
a(I147
I60
tp2087
a(I145
I53
tp2088
a(I124
I126
tp2089
asg27
I200
sba(imain2
Polygon
p2090
(dp2091
g3
(I88
I36
tp2092
sg5
I200
sg6
(I1
I30
I70
I102
tp2093
sg8
(lp2094
(I80
I10
tp2095
a(I49
I39
tp2096
a(I102
I37
tp2097
a(I120
I27
tp2098
a(I125
I14
tp2099
a(I135
I16
tp2100
a(I71
I9
tp2101
a(I89
I8
tp2102
a(I58
I13
tp2103
asg27
I200
sba(imain2
Polygon
p2104
(dp2105
g3
(I12
I36
tp2106
sg5
I200
sg6
(I162
I102
I213
I1
tp2107
sg8
(lp2108
(I11
I65
tp2109
a(I0
I52
tp2110
a(I0
I69
tp2111
a(I31
I6
tp2112
a(I0
I79
tp2113
a(I0
I62
tp2114
a(I45
I0
tp2115
a(I6
I61
tp2116
asg27
I200
sba(imain2
Polygon
p2117
(dp2118
g3
(I79
I176
tp2119
sg5
I200
sg6
(I198
I83
I166
I98
tp2120
sg8
(lp2121
(I129
I200
tp2122
a(I127
I162
tp2123
a(I69
I200
tp2124
a(I91
I200
tp2125
a(I96
I200
tp2126
asg27
I200
sba(imain2
Polygon
p2127
(dp2128
g3
(I159
I193
tp2129
sg5
I200
sg6
(I188
I172
I60
I1
tp2130
sg8
(lp2131
(I115
I192
tp2132
a(I136
I181
tp2133
a(I185
I200
tp2134
a(I173
I200
tp2135
a(I180
I200
tp2136
a(I200
I196
tp2137
a(I192
I188
tp2138
a(I134
I143
tp2139
a(I129
I200
tp2140
a(I197
I200
tp2141
a(I157
I195
tp2142
a(I160
I187
tp2143
asg27
I200
sba(imain2
Polygon
p2144
(dp2145
g3
(I52
I197
tp2146
sg5
I200
sg6
(I164
I145
I228
I1
tp2147
sg8
(lp2148
(I87
I182
tp2149
a(I50
I179
tp2150
a(I29
I200
tp2151
a(I9
I200
tp2152
a(I10
I147
tp2153
a(I22
I181
tp2154
a(I16
I153
tp2155
a(I95
I187
tp2156
asg27
I200
sba(imain2
Polygon
p2157
(dp2158
g3
(I96
I168
tp2159
sg5
I200
sg6
(I80
I155
I161
I1
tp2160
sg8
(lp2161
(I105
I151
tp2162
a(I128
I200
tp2163
a(I97
I200
tp2164
a(I68
I178
tp2165
a(I144
I177
tp2166
a(I76
I196
tp2167
a(I75
I200
tp2168
a(I125
I166
tp2169
a(I139
I177
tp2170
a(I108
I170
tp2171
a(I123
I192
tp2172
asg27
I200
sba(imain2
Polygon
p2173
(dp2174
g3
(I148
I67
tp2175
sg5
I200
sg6
(I210
I28
I21
I1
tp2176
sg8
(lp2177
(I106
I20
tp2178
a(I165
I81
tp2179
a(I149
I107
tp2180
a(I143
I32
tp2181
a(I165
I109
tp2182
a(I110
I18
tp2183
a(I152
I25
tp2184
a(I123
I20
tp2185
a(I100
I97
tp2186
a(I115
I73
tp2187
a(I118
I56
tp2188
a(I159
I41
tp2189
a(I198
I101
tp2190
a(I117
I89
tp2191
asg27
I200
sba(imain2
Polygon
p2192
(dp2193
g3
(I185
I29
tp2194
sg5
I200
sg6
(I139
I164
I76
I74
tp2195
sg8
(lp2196
(I136
I0
tp2197
a(I199
I0
tp2198
a(I200
I25
tp2199
a(I174
I43
tp2200
a(I138
I31
tp2201
asg27
I200
sba(imain2
Polygon
p2202
(dp2203
g3
(I77
I185
tp2204
sg5
I200
sg6
(I27
I23
I96
I93
tp2205
sg8
(lp2206
(I122
I163
tp2207
a(I63
I154
tp2208
a(I110
I156
tp2209
a(I124
I169
tp2210
a(I40
I180
tp2211
a(I31
I177
tp2212
a(I35
I180
tp2213
a(I104
I149
tp2214
a(I64
I192
tp2215
a(I42
I162
tp2216
a(I74
I164
tp2217
a(I77
I170
tp2218
a(I75
I169
tp2219
asg27
I200
sba(imain2
Polygon
p2220
(dp2221
g3
(I183
I173
tp2222
sg5
I200
sg6
(I108
I214
I86
I39
tp2223
sg8
(lp2224
(I200
I200
tp2225
a(I200
I160
tp2226
a(I200
I200
tp2227
a(I200
I125
tp2228
a(I137
I200
tp2229
a(I165
I200
tp2230
a(I184
I179
tp2231
asg27
I200
sba(imain2
Polygon
p2232
(dp2233
g3
(I141
I78
tp2234
sg5
I200
sg6
(I230
I87
I164
I1
tp2235
sg8
(lp2236
(I99
I101
tp2237
a(I182
I64
tp2238
a(I176
I100
tp2239
a(I162
I119
tp2240
a(I134
I123
tp2241
a(I153
I109
tp2242
asg27
I200
sba(imain2
Polygon
p2243
(dp2244
g3
(I8
I10
tp2245
sg5
I200
sg6
(I61
I42
I71
I96
tp2246
sg8
(lp2247
(I33
I4
tp2248
a(I0
I0
tp2249
a(I30
I6
tp2250
a(I0
I0
tp2251
a(I30
I0
tp2252
asg27
I200
sba(imain2
Polygon
p2253
(dp2254
g3
(I37
I13
tp2255
sg5
I200
sg6
(I0
I114
I18
I105
tp2256
sg8
(lp2257
(I36
I0
tp2258
a(I16
I0
tp2259
a(I2
I0
tp2260
a(I0
I6
tp2261
a(I47
I4
tp2262
a(I33
I0
tp2263
a(I37
I0
tp2264
a(I53
I0
tp2265
a(I27
I0
tp2266
a(I38
I0
tp2267
a(I54
I0
tp2268
a(I41
I0
tp2269
asg27
I200
sba(imain2
Polygon
p2270
(dp2271
g3
(I168
I175
tp2272
sg5
I200
sg6
(I94
I52
I24
I1
tp2273
sg8
(lp2274
(I153
I168
tp2275
a(I179
I200
tp2276
a(I195
I166
tp2277
a(I185
I200
tp2278
a(I200
I200
tp2279
a(I200
I169
tp2280
a(I118
I182
tp2281
a(I200
I171
tp2282
a(I200
I200
tp2283
a(I122
I174
tp2284
a(I171
I200
tp2285
asg27
I200
sba(imain2
Polygon
p2286
(dp2287
g3
(I75
I83
tp2288
sg5
I200
sg6
(I26
I32
I18
I0
tp2289
sg8
(lp2290
(I91
I55
tp2291
a(I50
I113
tp2292
a(I118
I51
tp2293
a(I36
I133
tp2294
a(I36
I53
tp2295
a(I51
I69
tp2296
a(I28
I131
tp2297
a(I28
I89
tp2298
a(I87
I115
tp2299
a(I88
I88
tp2300
a(I101
I82
tp2301
a(I43
I89
tp2302
a(I101
I66
tp2303
a(I89
I66
tp2304
a(I111
I101
tp2305
a(I99
I102
tp2306
asg27
I200
sba(imain2
Polygon
p2307
(dp2308
g3
(I18
I79
tp2309
sg5
I200
sg6
(I80
I0
I174
I97
tp2310
sg8
(lp2311
(I36
I125
tp2312
a(I43
I109
tp2313
a(I18
I107
tp2314
a(I40
I111
tp2315
a(I12
I123
tp2316
a(I0
I103
tp2317
a(I0
I117
tp2318
a(I39
I119
tp2319
asg27
I200
sba(imain2
Polygon
p2320
(dp2321
g3
(I27
I28
tp2322
sg5
I200
sg6
(I220
I145
I39
I1
tp2323
sg8
(lp2324
(I26
I20
tp2325
a(I28
I70
tp2326
a(I19
I0
tp2327
a(I75
I77
tp2328
a(I71
I0
tp2329
a(I65
I38
tp2330
a(I69
I72
tp2331
a(I7
I78
tp2332
a(I0
I0
tp2333
a(I0
I0
tp2334
a(I63
I0
tp2335
a(I16
I59
tp2336
a(I64
I6
tp2337
a(I59
I6
tp2338
asg27
I200
sba(imain2
Polygon
p2339
(dp2340
g3
(I85
I60
tp2341
sg5
I200
sg6
(I83
I112
I11
I99
tp2342
sg8
(lp2343
(I115
I60
tp2344
a(I134
I87
tp2345
a(I55
I103
tp2346
a(I36
I62
tp2347
a(I72
I90
tp2348
a(I131
I73
tp2349
a(I117
I52
tp2350
a(I123
I32
tp2351
a(I108
I57
tp2352
asg27
I200
sba(imain2
Polygon
p2353
(dp2354
g3
(I45
I110
tp2355
sg5
I200
sg6
(I40
I239
I179
I38
tp2356
sg8
(lp2357
(I68
I158
tp2358
a(I45
I112
tp2359
a(I72
I109
tp2360
asg27
I200
sba(imain2
Polygon
p2361
(dp2362
g3
(I54
I138
tp2363
sg5
I200
sg6
(I117
I64
I185
I1
tp2364
sg8
(lp2365
(I18
I163
tp2366
a(I27
I154
tp2367
a(I45
I131
tp2368
a(I12
I130
tp2369
a(I95
I108
tp2370
a(I60
I176
tp2371
a(I103
I157
tp2372
a(I84
I118
tp2373
a(I4
I97
tp2374
asg27
I200
sba(imain2
Polygon
p2375
(dp2376
g3
(I162
I123
tp2377
sg5
I200
sg6
(I41
I58
I71
I6
tp2378
sg8
(lp2379
(I121
I78
tp2380
a(I200
I173
tp2381
a(I200
I137
tp2382
a(I119
I112
tp2383
a(I180
I78
tp2384
a(I180
I124
tp2385
a(I188
I77
tp2386
a(I192
I98
tp2387
a(I169
I105
tp2388
a(I139
I167
tp2389
a(I120
I79
tp2390
a(I147
I147
tp2391
a(I156
I80
tp2392
a(I137
I130
tp2393
a(I196
I165
tp2394
a(I137
I78
tp2395
a(I194
I166
tp2396
a(I122
I121
tp2397
asg27
I200
sba(imain2
Polygon
p2398
(dp2399
g3
(I144
I70
tp2400
sg5
I200
sg6
(I191
I38
I117
I23
tp2401
sg8
(lp2402
(I170
I95
tp2403
a(I139
I84
tp2404
a(I142
I70
tp2405
asg27
I200
sba(imain2
Polygon
p2406
(dp2407
g3
(I11
I36
tp2408
sg5
I200
sg6
(I144
I30
I76
I22
tp2409
sg8
(lp2410
(I0
I42
tp2411
a(I0
I45
tp2412
a(I0
I0
tp2413
a(I0
I78
tp2414
a(I0
I56
tp2415
a(I0
I30
tp2416
a(I0
I35
tp2417
a(I0
I25
tp2418
asg27
I200
sba(imain2
Polygon
p2419
(dp2420
g3
(I85
I175
tp2421
sg5
I200
sg6
(I240
I52
I42
I1
tp2422
sg8
(lp2423
(I42
I130
tp2424
a(I112
I137
tp2425
a(I108
I186
tp2426
a(I118
I133
tp2427
a(I111
I200
tp2428
a(I114
I192
tp2429
a(I45
I126
tp2430
a(I38
I152
tp2431
a(I116
I138
tp2432
a(I61
I131
tp2433
a(I69
I177
tp2434
a(I80
I162
tp2435
a(I116
I200
tp2436
a(I105
I180
tp2437
asg27
I200
sba(imain2
Polygon
p2438
(dp2439
g3
(I78
I22
tp2440
sg5
I200
sg6
(I0
I239
I64
I1
tp2441
sg8
(lp2442
(I38
I0
tp2443
a(I64
I0
tp2444
a(I112
I7
tp2445
a(I106
I8
tp2446
a(I80
I0
tp2447
a(I127
I21
tp2448
a(I88
I0
tp2449
asg27
I200
sba(imain2
Polygon
p2450
(dp2451
g3
(I58
I165
tp2452
sg5
I200
sg6
(I72
I1
I134
I81
tp2453
sg8
(lp2454
(I40
I160
tp2455
a(I37
I152
tp2456
a(I46
I164
tp2457
asg27
I200
sba(imain2
Polygon
p2458
(dp2459
g3
(I98
I69
tp2460
sg5
I200
sg6
(I71
I212
I124
I22
tp2461
sg8
(lp2462
(I111
I113
tp2463
a(I126
I99
tp2464
a(I102
I89
tp2465
asg27
I200
sba(imain2
Polygon
p2466
(dp2467
g3
(I184
I193
tp2468
sg5
I200
sg6
(I17
I62
I68
I1
tp2469
sg8
(lp2470
(I194
I200
tp2471
a(I200
I163
tp2472
a(I171
I193
tp2473
a(I200
I155
tp2474
asg27
I200
sba(imain2
Polygon
p2475
(dp2476
g3
(I136
I181
tp2477
sg5
I200
sg6
(I117
I127
I188
I1
tp2478
sg8
(lp2479
(I107
I195
tp2480
a(I166
I184
tp2481
a(I132
I200
tp2482
a(I138
I200
tp2483
a(I127
I139
tp2484
a(I144
I147
tp2485
a(I99
I200
tp2486
asg27
I200
sba(imain2
Polygon
p2487
(dp2488
g3
(I65
I69
tp2489
sg5
I200
sg6
(I101
I90
I153
I0
tp2490
sg8
(lp2491
(I24
I101
tp2492
a(I37
I51
tp2493
a(I113
I49
tp2494
a(I65
I53
tp2495
a(I69
I46
tp2496
a(I87
I23
tp2497
a(I26
I115
tp2498
a(I73
I48
tp2499
a(I38
I37
tp2500
a(I17
I99
tp2501
a(I88
I83
tp2502
asg27
I200
sba(imain2
Polygon
p2503
(dp2504
g3
(I146
I60
tp2505
sg5
I200
sg6
(I1
I0
I199
I1
tp2506
sg8
(lp2507
(I143
I66
tp2508
a(I149
I28
tp2509
a(I120
I67
tp2510
a(I145
I56
tp2511
a(I133
I38
tp2512
asg27
I200
sba(imain2
Polygon
p2513
(dp2514
g3
(I7
I191
tp2515
sg5
I200
sg6
(I1
I165
I63
I1
tp2516
sg8
(lp2517
(I9
I200
tp2518
a(I0
I194
tp2519
a(I57
I200
tp2520
a(I0
I198
tp2521
a(I0
I162
tp2522
a(I24
I148
tp2523
a(I51
I182
tp2524
a(I46
I173
tp2525
a(I32
I200
tp2526
a(I12
I200
tp2527
a(I0
I143
tp2528
a(I54
I200
tp2529
asg27
I200
sba(imain2
Polygon
p2530
(dp2531
g3
(I177
I12
tp2532
sg5
I200
sg6
(I0
I126
I136
I0
tp2533
sg8
(lp2534
(I179
I47
tp2535
a(I180
I42
tp2536
a(I131
I0
tp2537
a(I192
I0
tp2538
a(I143
I37
tp2539
a(I200
I50
tp2540
a(I172
I22
tp2541
a(I200
I0
tp2542
asg27
I200
sba(imain2
Polygon
p2543
(dp2544
g3
(I98
I60
tp2545
sg5
I200
sg6
(I140
I35
I46
I0
tp2546
sg8
(lp2547
(I138
I25
tp2548
a(I70
I57
tp2549
a(I104
I32
tp2550
a(I147
I11
tp2551
a(I125
I68
tp2552
a(I77
I21
tp2553
a(I108
I102
tp2554
a(I52
I33
tp2555
asg27
I200
sba(imain2
Polygon
p2556
(dp2557
g3
(I26
I121
tp2558
sg5
I200
sg6
(I19
I110
I2
I73
tp2559
sg8
(lp2560
(I5
I167
tp2561
a(I39
I85
tp2562
a(I0
I101
tp2563
a(I0
I166
tp2564
a(I30
I111
tp2565
a(I14
I135
tp2566
a(I45
I83
tp2567
a(I42
I128
tp2568
a(I26
I128
tp2569
a(I47
I156
tp2570
asg27
I200
sba(imain2
Polygon
p2571
(dp2572
g3
(I59
I10
tp2573
sg5
I200
sg6
(I178
I55
I106
I122
tp2574
sg8
(lp2575
(I13
I0
tp2576
a(I71
I0
tp2577
a(I73
I6
tp2578
a(I69
I0
tp2579
a(I109
I0
tp2580
a(I101
I15
tp2581
a(I10
I0
tp2582
a(I17
I23
tp2583
asg27
I200
sba(imain2
Polygon
p2584
(dp2585
g3
(I171
I141
tp2586
sg5
I200
sg6
(I35
I196
I137
I1
tp2587
sg8
(lp2588
(I125
I189
tp2589
a(I145
I150
tp2590
a(I153
I146
tp2591
a(I177
I154
tp2592
a(I200
I145
tp2593
a(I157
I111
tp2594
a(I200
I94
tp2595
a(I135
I99
tp2596
a(I170
I107
tp2597
asg27
I200
sba(imain2
Polygon
p2598
(dp2599
g3
(I80
I143
tp2600
sg5
I200
sg6
(I72
I74
I9
I109
tp2601
sg8
(lp2602
(I66
I140
tp2603
a(I70
I145
tp2604
a(I93
I192
tp2605
a(I130
I187
tp2606
a(I120
I141
tp2607
a(I69
I128
tp2608
a(I62
I133
tp2609
a(I71
I170
tp2610
a(I62
I180
tp2611
a(I86
I147
tp2612
asg27
I200
sba(imain2
Polygon
p2613
(dp2614
g3
(I191
I199
tp2615
sg5
I200
sg6
(I0
I223
I23
I1
tp2616
sg8
(lp2617
(I169
I200
tp2618
a(I190
I200
tp2619
a(I200
I200
tp2620
a(I193
I156
tp2621
a(I146
I150
tp2622
a(I200
I200
tp2623
a(I200
I200
tp2624
a(I186
I196
tp2625
a(I200
I200
tp2626
asg27
I200
sba(imain2
Polygon
p2627
(dp2628
g3
(I6
I112
tp2629
sg5
I200
sg6
(I131
I70
I127
I50
tp2630
sg8
(lp2631
(I0
I137
tp2632
a(I0
I140
tp2633
a(I25
I84
tp2634
a(I0
I100
tp2635
a(I28
I147
tp2636
a(I0
I109
tp2637
a(I0
I159
tp2638
a(I0
I63
tp2639
asg27
I200
sba(imain2
Polygon
p2640
(dp2641
g3
(I189
I37
tp2642
sg5
I200
sg6
(I31
I237
I163
I39
tp2643
sg8
(lp2644
(I200
I46
tp2645
a(I191
I37
tp2646
a(I188
I0
tp2647
a(I199
I1
tp2648
asg27
I200
sba(imain2
Polygon
p2649
(dp2650
g3
(I121
I50
tp2651
sg5
I200
sg6
(I3
I72
I1
I0
tp2652
sg8
(lp2653
(I136
I45
tp2654
a(I104
I15
tp2655
a(I148
I69
tp2656
asg27
I200
sba(imain2
Polygon
p2657
(dp2658
g3
(I58
I165
tp2659
sg5
I200
sg6
(I141
I99
I1
I1
tp2660
sg8
(lp2661
(I30
I120
tp2662
a(I68
I175
tp2663
a(I37
I128
tp2664
a(I27
I192
tp2665
a(I37
I149
tp2666
a(I66
I130
tp2667
a(I99
I183
tp2668
a(I107
I152
tp2669
a(I87
I182
tp2670
a(I27
I137
tp2671
a(I65
I160
tp2672
a(I36
I200
tp2673
a(I56
I182
tp2674
asg27
I200
sba(imain2
Polygon
p2675
(dp2676
g3
(I155
I38
tp2677
sg5
I200
sg6
(I99
I107
I235
I79
tp2678
sg8
(lp2679
(I160
I2
tp2680
a(I162
I13
tp2681
a(I165
I27
tp2682
asg27
I200
sba(imain2
Polygon
p2683
(dp2684
g3
(I80
I130
tp2685
sg5
I200
sg6
(I223
I90
I1
I112
tp2686
sg8
(lp2687
(I90
I107
tp2688
a(I38
I91
tp2689
a(I127
I91
tp2690
a(I86
I180
tp2691
a(I90
I97
tp2692
a(I42
I107
tp2693
a(I57
I140
tp2694
a(I81
I161
tp2695
a(I95
I173
tp2696
a(I77
I124
tp2697
a(I91
I85
tp2698
a(I88
I146
tp2699
asg27
I200
sba(imain2
Polygon
p2700
(dp2701
g3
(I182
I31
tp2702
sg5
I200
sg6
(I109
I84
I111
I0
tp2703
sg8
(lp2704
(I200
I18
tp2705
a(I195
I0
tp2706
a(I132
I44
tp2707
a(I186
I37
tp2708
a(I164
I0
tp2709
a(I174
I46
tp2710
a(I151
I81
tp2711
a(I193
I4
tp2712
a(I200
I57
tp2713
a(I152
I25
tp2714
a(I188
I0
tp2715
a(I162
I2
tp2716
a(I200
I46
tp2717
a(I174
I47
tp2718
a(I195
I67
tp2719
a(I188
I45
tp2720
a(I157
I0
tp2721
a(I165
I65
tp2722
a(I200
I30
tp2723
a(I186
I59
tp2724
a(I170
I0
tp2725
a(I169
I11
tp2726
a(I195
I0
tp2727
a(I174
I23
tp2728
asg27
I200
sba(imain2
Polygon
p2729
(dp2730
g3
(I164
I132
tp2731
sg5
I200
sg6
(I50
I67
I1
I0
tp2732
sg8
(lp2733
(I152
I112
tp2734
a(I140
I175
tp2735
a(I168
I173
tp2736
a(I180
I136
tp2737
a(I190
I82
tp2738
a(I132
I128
tp2739
a(I125
I176
tp2740
a(I199
I84
tp2741
a(I200
I115
tp2742
a(I157
I141
tp2743
a(I185
I112
tp2744
asg27
I200
sba(imain2
Polygon
p2745
(dp2746
g3
(I67
I123
tp2747
sg5
I200
sg6
(I203
I168
I125
I71
tp2748
sg8
(lp2749
(I114
I101
tp2750
a(I112
I148
tp2751
a(I67
I158
tp2752
a(I43
I93
tp2753
a(I96
I92
tp2754
a(I107
I100
tp2755
a(I49
I107
tp2756
a(I55
I111
tp2757
a(I46
I107
tp2758
a(I101
I102
tp2759
a(I87
I99
tp2760
asg27
I200
sba(imain2
Polygon
p2761
(dp2762
g3
(I139
I46
tp2763
sg5
I200
sg6
(I1
I111
I82
I67
tp2764
sg8
(lp2765
(I185
I84
tp2766
a(I137
I74
tp2767
a(I164
I79
tp2768
asg27
I200
sba(imain2
Polygon
p2769
(dp2770
g3
(I137
I13
tp2771
sg5
I200
sg6
(I201
I131
I218
I3
tp2772
sg8
(lp2773
(I146
I0
tp2774
a(I87
I13
tp2775
a(I89
I20
tp2776
a(I121
I0
tp2777
a(I157
I0
tp2778
a(I152
I49
tp2779
a(I112
I17
tp2780
a(I160
I57
tp2781
a(I117
I1
tp2782
asg27
I200
sba(imain2
Polygon
p2783
(dp2784
g3
(I72
I81
tp2785
sg5
I200
sg6
(I239
I108
I79
I0
tp2786
sg8
(lp2787
(I95
I99
tp2788
a(I83
I109
tp2789
a(I26
I64
tp2790
a(I57
I104
tp2791
a(I59
I58
tp2792
a(I120
I57
tp2793
a(I53
I62
tp2794
a(I116
I85
tp2795
asg27
I200
sba(imain2
Polygon
p2796
(dp2797
g3
(I24
I70
tp2798
sg5
I200
sg6
(I5
I224
I8
I12
tp2799
sg8
(lp2800
(I37
I25
tp2801
a(I72
I32
tp2802
a(I2
I21
tp2803
a(I0
I105
tp2804
a(I15
I106
tp2805
a(I47
I88
tp2806
asg27
I200
sba(imain2
Polygon
p2807
(dp2808
g3
(I144
I200
tp2809
sg5
I200
sg6
(I123
I88
I10
I1
tp2810
sg8
(lp2811
(I164
I200
tp2812
a(I121
I196
tp2813
a(I142
I154
tp2814
a(I154
I187
tp2815
a(I106
I200
tp2816
a(I111
I200
tp2817
a(I130
I200
tp2818
a(I181
I194
tp2819
a(I160
I170
tp2820
a(I98
I181
tp2821
a(I107
I153
tp2822
a(I189
I150
tp2823
a(I127
I153
tp2824
a(I175
I183
tp2825
a(I128
I200
tp2826
a(I98
I186
tp2827
a(I146
I200
tp2828
a(I145
I200
tp2829
a(I122
I150
tp2830
asg27
I200
sba(imain2
Polygon
p2831
(dp2832
g3
(I63
I64
tp2833
sg5
I200
sg6
(I192
I193
I44
I4
tp2834
sg8
(lp2835
(I90
I67
tp2836
a(I18
I106
tp2837
a(I18
I45
tp2838
a(I97
I38
tp2839
a(I97
I107
tp2840
a(I48
I88
tp2841
a(I43
I112
tp2842
a(I106
I109
tp2843
a(I52
I111
tp2844
asg27
I200
sba(imain2
Polygon
p2845
(dp2846
g3
(I87
I65
tp2847
sg5
I200
sg6
(I216
I55
I97
I0
tp2848
sg8
(lp2849
(I136
I80
tp2850
a(I53
I115
tp2851
a(I86
I83
tp2852
a(I40
I93
tp2853
a(I60
I111
tp2854
a(I53
I95
tp2855
a(I128
I62
tp2856
a(I47
I39
tp2857
a(I124
I17
tp2858
a(I96
I80
tp2859
a(I124
I65
tp2860
asg27
I200
sba(imain2
Polygon
p2861
(dp2862
g3
(I110
I191
tp2863
sg5
I200
sg6
(I160
I195
I225
I1
tp2864
sg8
(lp2865
(I91
I200
tp2866
a(I153
I200
tp2867
a(I74
I143
tp2868
a(I77
I167
tp2869
a(I150
I169
tp2870
a(I60
I163
tp2871
a(I66
I185
tp2872
a(I118
I200
tp2873
a(I78
I200
tp2874
a(I141
I200
tp2875
asg27
I200
sba(imain2
Polygon
p2876
(dp2877
g3
(I108
I110
tp2878
sg5
I200
sg6
(I97
I178
I164
I1
tp2879
sg8
(lp2880
(I101
I127
tp2881
a(I117
I114
tp2882
a(I87
I125
tp2883
a(I76
I126
tp2884
a(I79
I109
tp2885
a(I96
I141
tp2886
asg27
I200
sba(imain2
Polygon
p2887
(dp2888
g3
(I112
I52
tp2889
sg5
I200
sg6
(I80
I200
I79
I88
tp2890
sg8
(lp2891
(I158
I54
tp2892
a(I152
I56
tp2893
a(I149
I58
tp2894
asg27
I200
sba.