(lp0
(imain2
Polygon
p1
(dp2
S'origin'
p3
(I39
I29
tp4
sS'h'
p5
I200
sS'color'
p6
(I196
I23
I139
I81
tp7
sS'corner_list'
p8
(lp9
(I0
I0
tp10
a(I33
I71
tp11
a(I71
I41
tp12
a(I83
I36
tp13
a(I53
I0
tp14
a(I18
I34
tp15
a(I0
I33
tp16
a(I18
I16
tp17
a(I0
I37
tp18
a(I83
I19
tp19
a(I58
I39
tp20
a(I4
I54
tp21
a(I21
I30
tp22
a(I13
I20
tp23
a(I39
I30
tp24
a(I64
I0
tp25
asS'w'
p26
I200
sba(imain2
Polygon
p27
(dp28
g3
(I66
I177
tp29
sg5
I200
sg6
(I138
I56
I47
I33
tp30
sg8
(lp31
(I77
I143
tp32
a(I82
I135
tp33
a(I89
I186
tp34
a(I34
I200
tp35
a(I71
I200
tp36
a(I102
I200
tp37
a(I95
I156
tp38
a(I77
I200
tp39
asg26
I200
sba(imain2
Polygon
p40
(dp41
g3
(I59
I53
tp42
sg5
I200
sg6
(I110
I43
I107
I145
tp43
sg8
(lp44
(I106
I10
tp45
a(I26
I102
tp46
a(I9
I53
tp47
a(I59
I26
tp48
a(I63
I3
tp49
a(I15
I3
tp50
a(I40
I72
tp51
a(I32
I51
tp52
a(I38
I88
tp53
a(I97
I87
tp54
a(I109
I84
tp55
a(I91
I22
tp56
a(I92
I46
tp57
a(I76
I61
tp58
a(I97
I29
tp59
a(I79
I46
tp60
a(I53
I45
tp61
a(I57
I67
tp62
asg26
I200
sba(imain2
Polygon
p63
(dp64
g3
(I79
I99
tp65
sg5
I200
sg6
(I72
I89
I69
I94
tp66
sg8
(lp67
(I88
I64
tp68
a(I98
I98
tp69
a(I76
I117
tp70
a(I76
I74
tp71
a(I35
I63
tp72
a(I72
I80
tp73
a(I123
I57
tp74
a(I114
I125
tp75
a(I30
I114
tp76
asg26
I200
sba(imain2
Polygon
p77
(dp78
g3
(I200
I83
tp79
sg5
I200
sg6
(I166
I229
I64
I9
tp80
sg8
(lp81
(I200
I58
tp82
a(I172
I56
tp83
a(I191
I129
tp84
a(I200
I100
tp85
a(I200
I53
tp86
a(I170
I131
tp87
asg26
I200
sba(imain2
Polygon
p88
(dp89
g3
(I48
I136
tp90
sg5
I200
sg6
(I104
I110
I146
I60
tp91
sg8
(lp92
(I74
I106
tp93
a(I87
I127
tp94
a(I94
I141
tp95
a(I43
I102
tp96
a(I5
I168
tp97
a(I82
I166
tp98
a(I89
I93
tp99
a(I7
I140
tp100
a(I68
I100
tp101
a(I87
I101
tp102
a(I86
I178
tp103
a(I47
I126
tp104
a(I46
I109
tp105
a(I2
I151
tp106
a(I64
I175
tp107
a(I58
I161
tp108
a(I45
I165
tp109
a(I87
I144
tp110
a(I84
I92
tp111
a(I79
I93
tp112
a(I56
I161
tp113
asg26
I200
sba(imain2
Polygon
p114
(dp115
g3
(I118
I72
tp116
sg5
I200
sg6
(I133
I138
I60
I54
tp117
sg8
(lp118
(I105
I74
tp119
a(I99
I82
tp120
a(I118
I81
tp121
a(I118
I115
tp122
a(I126
I57
tp123
a(I89
I36
tp124
a(I68
I93
tp125
a(I104
I108
tp126
a(I97
I43
tp127
asg26
I200
sba(imain2
Polygon
p128
(dp129
g3
(I75
I194
tp130
sg5
I200
sg6
(I212
I85
I105
I11
tp131
sg8
(lp132
(I118
I184
tp133
a(I107
I200
tp134
a(I100
I167
tp135
a(I71
I200
tp136
a(I96
I159
tp137
asg26
I200
sba(imain2
Polygon
p138
(dp139
g3
(I7
I180
tp140
sg5
I200
sg6
(I233
I34
I1
I0
tp141
sg8
(lp142
(I10
I200
tp143
a(I0
I197
tp144
a(I0
I200
tp145
a(I0
I158
tp146
a(I0
I168
tp147
a(I0
I173
tp148
a(I39
I200
tp149
a(I38
I151
tp150
a(I0
I200
tp151
a(I0
I138
tp152
a(I5
I200
tp153
asg26
I200
sba(imain2
Polygon
p154
(dp155
g3
(I200
I5
tp156
sg5
I200
sg6
(I172
I75
I111
I32
tp157
sg8
(lp158
(I200
I28
tp159
a(I200
I0
tp160
a(I200
I0
tp161
a(I174
I38
tp162
a(I154
I0
tp163
a(I180
I0
tp164
a(I175
I34
tp165
a(I200
I0
tp166
a(I200
I45
tp167
a(I155
I15
tp168
a(I200
I0
tp169
asg26
I200
sba(imain2
Polygon
p170
(dp171
g3
(I180
I27
tp172
sg5
I200
sg6
(I104
I111
I153
I0
tp173
sg8
(lp174
(I200
I66
tp175
a(I200
I76
tp176
a(I189
I19
tp177
a(I200
I0
tp178
a(I186
I32
tp179
a(I174
I1
tp180
a(I163
I0
tp181
a(I184
I25
tp182
a(I172
I54
tp183
a(I160
I34
tp184
a(I150
I0
tp185
a(I169
I65
tp186
asg26
I200
sba(imain2
Polygon
p187
(dp188
g3
(I59
I197
tp189
sg5
I200
sg6
(I81
I206
I135
I133
tp190
sg8
(lp191
(I98
I200
tp192
a(I93
I157
tp193
a(I71
I197
tp194
a(I54
I200
tp195
asg26
I200
sba(imain2
Polygon
p196
(dp197
g3
(I129
I124
tp198
sg5
I200
sg6
(I169
I187
I96
I65
tp199
sg8
(lp200
(I122
I123
tp201
a(I92
I168
tp202
a(I130
I89
tp203
a(I111
I89
tp204
a(I90
I106
tp205
a(I88
I150
tp206
a(I133
I128
tp207
asg26
I200
sba(imain2
Polygon
p208
(dp209
g3
(I107
I2
tp210
sg5
I200
sg6
(I47
I0
I159
I111
tp211
sg8
(lp212
(I83
I0
tp213
a(I65
I3
tp214
a(I94
I0
tp215
a(I134
I0
tp216
a(I86
I0
tp217
a(I106
I7
tp218
a(I142
I27
tp219
a(I156
I2
tp220
asg26
I200
sba(imain2
Polygon
p221
(dp222
g3
(I25
I107
tp223
sg5
I200
sg6
(I102
I25
I170
I0
tp224
sg8
(lp225
(I30
I146
tp226
a(I12
I69
tp227
a(I0
I123
tp228
a(I0
I68
tp229
a(I47
I130
tp230
a(I58
I62
tp231
a(I4
I147
tp232
a(I47
I83
tp233
a(I47
I135
tp234
a(I22
I124
tp235
a(I0
I59
tp236
a(I3
I58
tp237
a(I0
I103
tp238
a(I0
I98
tp239
a(I9
I75
tp240
a(I13
I133
tp241
a(I58
I86
tp242
asg26
I200
sba(imain2
Polygon
p243
(dp244
g3
(I194
I197
tp245
sg5
I200
sg6
(I7
I196
I62
I92
tp246
sg8
(lp247
(I200
I153
tp248
a(I200
I176
tp249
a(I200
I180
tp250
asg26
I200
sba(imain2
Polygon
p251
(dp252
g3
(I8
I2
tp253
sg5
I200
sg6
(I204
I194
I218
I1
tp254
sg8
(lp255
(I30
I0
tp256
a(I33
I37
tp257
a(I0
I46
tp258
a(I40
I9
tp259
a(I17
I28
tp260
a(I0
I0
tp261
a(I19
I6
tp262
a(I16
I0
tp263
a(I0
I0
tp264
a(I0
I3
tp265
a(I24
I41
tp266
a(I0
I43
tp267
a(I55
I0
tp268
asg26
I200
sba(imain2
Polygon
p269
(dp270
g3
(I171
I144
tp271
sg5
I200
sg6
(I110
I156
I185
I0
tp272
sg8
(lp273
(I187
I123
tp274
a(I126
I156
tp275
a(I165
I102
tp276
a(I199
I117
tp277
a(I132
I120
tp278
a(I145
I154
tp279
a(I123
I111
tp280
a(I198
I129
tp281
asg26
I200
sba(imain2
Polygon
p282
(dp283
g3
(I44
I42
tp284
sg5
I200
sg6
(I78
I128
I74
I0
tp285
sg8
(lp286
(I29
I80
tp287
a(I41
I39
tp288
a(I91
I0
tp289
a(I87
I51
tp290
a(I28
I58
tp291
a(I18
I19
tp292
a(I17
I57
tp293
asg26
I200
sba(imain2
Polygon
p294
(dp295
g3
(I26
I99
tp296
sg5
I200
sg6
(I167
I96
I167
I69
tp297
sg8
(lp298
(I71
I87
tp299
a(I54
I125
tp300
a(I75
I72
tp301
asg26
I200
sba(imain2
Polygon
p302
(dp303
g3
(I114
I46
tp304
sg5
I200
sg6
(I95
I192
I193
I0
tp305
sg8
(lp306
(I79
I0
tp307
a(I126
I34
tp308
a(I145
I56
tp309
a(I90
I66
tp310
asg26
I200
sba(imain2
Polygon
p311
(dp312
g3
(I68
I194
tp313
sg5
I200
sg6
(I85
I192
I149
I0
tp314
sg8
(lp315
(I73
I200
tp316
a(I63
I182
tp317
a(I30
I194
tp318
a(I25
I200
tp319
a(I65
I200
tp320
a(I57
I192
tp321
a(I52
I194
tp322
asg26
I200
sba(imain2
Polygon
p323
(dp324
g3
(I200
I53
tp325
sg5
I200
sg6
(I179
I181
I163
I1
tp326
sg8
(lp327
(I183
I79
tp328
a(I152
I41
tp329
a(I200
I16
tp330
asg26
I200
sba(imain2
Polygon
p331
(dp332
g3
(I172
I155
tp333
sg5
I200
sg6
(I197
I77
I242
I1
tp334
sg8
(lp335
(I200
I118
tp336
a(I186
I112
tp337
a(I135
I150
tp338
a(I167
I200
tp339
a(I139
I119
tp340
a(I158
I120
tp341
a(I200
I179
tp342
a(I177
I185
tp343
a(I166
I121
tp344
a(I200
I139
tp345
a(I200
I135
tp346
a(I197
I144
tp347
a(I200
I163
tp348
asg26
I200
sba(imain2
Polygon
p349
(dp350
g3
(I154
I159
tp351
sg5
I200
sg6
(I53
I205
I33
I1
tp352
sg8
(lp353
(I150
I131
tp354
a(I122
I109
tp355
a(I107
I147
tp356
a(I127
I131
tp357
a(I190
I169
tp358
a(I108
I117
tp359
a(I137
I190
tp360
a(I129
I170
tp361
a(I158
I198
tp362
a(I128
I200
tp363
a(I107
I136
tp364
a(I159
I171
tp365
a(I113
I158
tp366
a(I175
I113
tp367
asg26
I200
sba(imain2
Polygon
p368
(dp369
g3
(I55
I59
tp370
sg5
I200
sg6
(I73
I195
I202
I0
tp371
sg8
(lp372
(I35
I56
tp373
a(I83
I49
tp374
a(I28
I19
tp375
a(I70
I68
tp376
a(I33
I69
tp377
a(I44
I80
tp378
a(I93
I9
tp379
a(I47
I28
tp380
a(I81
I9
tp381
a(I78
I21
tp382
a(I60
I9
tp383
a(I31
I25
tp384
a(I102
I49
tp385
a(I30
I79
tp386
a(I35
I108
tp387
a(I8
I67
tp388
a(I21
I16
tp389
asg26
I200
sba(imain2
Polygon
p390
(dp391
g3
(I127
I147
tp392
sg5
I200
sg6
(I45
I66
I112
I95
tp393
sg8
(lp394
(I109
I194
tp395
a(I79
I101
tp396
a(I97
I160
tp397
a(I161
I191
tp398
asg26
I200
sba(imain2
Polygon
p399
(dp400
g3
(I123
I114
tp401
sg5
I200
sg6
(I116
I0
I6
I0
tp402
sg8
(lp403
(I118
I78
tp404
a(I80
I136
tp405
a(I164
I68
tp406
a(I86
I139
tp407
a(I144
I118
tp408
a(I139
I90
tp409
a(I128
I105
tp410
a(I161
I129
tp411
asg26
I200
sba(imain2
Polygon
p412
(dp413
g3
(I2
I51
tp414
sg5
I200
sg6
(I121
I140
I221
I1
tp415
sg8
(lp416
(I34
I88
tp417
a(I34
I85
tp418
a(I0
I4
tp419
a(I5
I59
tp420
a(I0
I95
tp421
a(I0
I20
tp422
a(I0
I39
tp423
a(I0
I46
tp424
a(I26
I73
tp425
a(I15
I75
tp426
asg26
I200
sba(imain2
Polygon
p427
(dp428
g3
(I166
I21
tp429
sg5
I200
sg6
(I210
I244
I214
I79
tp430
sg8
(lp431
(I200
I0
tp432
a(I200
I59
tp433
a(I169
I70
tp434
a(I131
I0
tp435
a(I153
I0
tp436
a(I142
I0
tp437
a(I135
I0
tp438
a(I200
I0
tp439
a(I141
I29
tp440
asg26
I200
sba(imain2
Polygon
p441
(dp442
g3
(I110
I91
tp443
sg5
I200
sg6
(I127
I32
I29
I1
tp444
sg8
(lp445
(I112
I141
tp446
a(I90
I64
tp447
a(I116
I46
tp448
a(I135
I89
tp449
a(I111
I63
tp450
a(I81
I95
tp451
a(I119
I112
tp452
a(I147
I105
tp453
a(I129
I93
tp454
a(I123
I69
tp455
a(I94
I93
tp456
a(I75
I65
tp457
a(I74
I100
tp458
a(I134
I67
tp459
a(I80
I45
tp460
a(I105
I65
tp461
a(I126
I48
tp462
asg26
I200
sba(imain2
Polygon
p463
(dp464
g3
(I148
I41
tp465
sg5
I200
sg6
(I156
I0
I205
I0
tp466
sg8
(lp467
(I119
I7
tp468
a(I127
I76
tp469
a(I195
I72
tp470
a(I125
I27
tp471
a(I167
I84
tp472
a(I130
I66
tp473
a(I155
I13
tp474
a(I195
I36
tp475
a(I183
I32
tp476
a(I110
I80
tp477
a(I103
I84
tp478
a(I122
I1
tp479
a(I145
I45
tp480
asg26
I200
sba(imain2
Polygon
p481
(dp482
g3
(I188
I159
tp483
sg5
I200
sg6
(I161
I69
I65
I0
tp484
sg8
(lp485
(I200
I159
tp486
a(I166
I141
tp487
a(I200
I172
tp488
a(I200
I144
tp489
a(I200
I137
tp490
a(I200
I118
tp491
a(I197
I200
tp492
a(I156
I170
tp493
asg26
I200
sba(imain2
Polygon
p494
(dp495
g3
(I55
I106
tp496
sg5
I200
sg6
(I54
I89
I41
I1
tp497
sg8
(lp498
(I33
I100
tp499
a(I89
I61
tp500
a(I85
I102
tp501
a(I56
I94
tp502
a(I82
I124
tp503
a(I70
I101
tp504
a(I21
I156
tp505
a(I7
I154
tp506
a(I75
I126
tp507
a(I98
I130
tp508
asg26
I200
sba(imain2
Polygon
p509
(dp510
g3
(I118
I64
tp511
sg5
I200
sg6
(I128
I37
I2
I7
tp512
sg8
(lp513
(I68
I113
tp514
a(I79
I63
tp515
a(I77
I86
tp516
a(I74
I55
tp517
a(I125
I37
tp518
a(I149
I42
tp519
a(I146
I16
tp520
a(I122
I15
tp521
a(I89
I110
tp522
a(I129
I23
tp523
a(I88
I20
tp524
a(I123
I23
tp525
a(I105
I36
tp526
a(I147
I109
tp527
a(I168
I101
tp528
asg26
I200
sba(imain2
Polygon
p529
(dp530
g3
(I101
I127
tp531
sg5
I200
sg6
(I83
I171
I95
I76
tp532
sg8
(lp533
(I82
I132
tp534
a(I125
I83
tp535
a(I83
I154
tp536
a(I69
I123
tp537
a(I63
I110
tp538
asg26
I200
sba(imain2
Polygon
p539
(dp540
g3
(I42
I89
tp541
sg5
I200
sg6
(I17
I90
I177
I0
tp542
sg8
(lp543
(I76
I43
tp544
a(I78
I118
tp545
a(I43
I73
tp546
a(I78
I95
tp547
a(I51
I59
tp548
a(I7
I119
tp549
a(I1
I107
tp550
a(I77
I119
tp551
a(I0
I121
tp552
a(I0
I79
tp553
asg26
I200
sba(imain2
Polygon
p554
(dp555
g3
(I71
I151
tp556
sg5
I200
sg6
(I150
I167
I219
I128
tp557
sg8
(lp558
(I59
I125
tp559
a(I74
I126
tp560
a(I115
I198
tp561
a(I68
I200
tp562
a(I77
I200
tp563
a(I91
I177
tp564
a(I89
I164
tp565
asg26
I200
sba(imain2
Polygon
p566
(dp567
g3
(I13
I141
tp568
sg5
I200
sg6
(I244
I0
I196
I1
tp569
sg8
(lp570
(I30
I167
tp571
a(I0
I181
tp572
a(I9
I106
tp573
a(I0
I166
tp574
a(I11
I131
tp575
a(I8
I155
tp576
a(I53
I153
tp577
a(I39
I152
tp578
a(I0
I167
tp579
a(I30
I173
tp580
a(I38
I142
tp581
a(I47
I102
tp582
a(I28
I117
tp583
asg26
I200
sba(imain2
Polygon
p584
(dp585
g3
(I37
I11
tp586
sg5
I200
sg6
(I114
I18
I9
I93
tp587
sg8
(lp588
(I84
I0
tp589
a(I1
I7
tp590
a(I5
I26
tp591
a(I22
I34
tp592
a(I59
I15
tp593
a(I70
I6
tp594
asg26
I200
sba(imain2
Polygon
p595
(dp596
g3
(I97
I114
tp597
sg5
I200
sg6
(I145
I9
I201
I77
tp598
sg8
(lp599
(I62
I140
tp600
a(I86
I149
tp601
a(I121
I97
tp602
a(I126
I66
tp603
a(I62
I77
tp604
a(I73
I100
tp605
a(I48
I82
tp606
a(I94
I93
tp607
a(I100
I154
tp608
a(I83
I130
tp609
a(I61
I69
tp610
a(I56
I114
tp611
a(I77
I138
tp612
a(I76
I71
tp613
a(I110
I85
tp614
a(I80
I151
tp615
a(I113
I101
tp616
a(I64
I125
tp617
asg26
I200
sba(imain2
Polygon
p618
(dp619
g3
(I77
I12
tp620
sg5
I200
sg6
(I103
I0
I197
I1
tp621
sg8
(lp622
(I54
I0
tp623
a(I92
I1
tp624
a(I42
I0
tp625
a(I30
I23
tp626
a(I50
I51
tp627
a(I112
I0
tp628
a(I69
I0
tp629
a(I33
I5
tp630
a(I51
I42
tp631
asg26
I200
sba(imain2
Polygon
p632
(dp633
g3
(I114
I16
tp634
sg5
I200
sg6
(I0
I100
I178
I143
tp635
sg8
(lp636
(I164
I18
tp637
a(I151
I0
tp638
a(I70
I0
tp639
a(I142
I23
tp640
a(I160
I13
tp641
a(I135
I0
tp642
asg26
I200
sba(imain2
Polygon
p643
(dp644
g3
(I150
I10
tp645
sg5
I200
sg6
(I109
I57
I223
I155
tp646
sg8
(lp647
(I172
I0
tp648
a(I175
I1
tp649
a(I190
I0
tp650
a(I182
I0
tp651
a(I156
I0
tp652
a(I119
I18
tp653
a(I101
I0
tp654
a(I137
I0
tp655
a(I176
I52
tp656
a(I125
I0
tp657
a(I185
I0
tp658
asg26
I200
sba(imain2
Polygon
p659
(dp660
g3
(I41
I10
tp661
sg5
I200
sg6
(I113
I203
I84
I0
tp662
sg8
(lp663
(I28
I17
tp664
a(I23
I53
tp665
a(I74
I26
tp666
a(I86
I0
tp667
a(I0
I0
tp668
a(I43
I57
tp669
asg26
I200
sba(imain2
Polygon
p670
(dp671
g3
(I174
I159
tp672
sg5
I200
sg6
(I169
I106
I84
I96
tp673
sg8
(lp674
(I200
I125
tp675
a(I200
I200
tp676
a(I184
I191
tp677
a(I168
I116
tp678
a(I200
I121
tp679
a(I200
I173
tp680
a(I200
I119
tp681
asg26
I200
sba(imain2
Polygon
p682
(dp683
g3
(I61
I97
tp684
sg5
I200
sg6
(I123
I34
I106
I87
tp685
sg8
(lp686
(I67
I83
tp687
a(I76
I70
tp688
a(I64
I49
tp689
a(I103
I82
tp690
a(I64
I94
tp691
a(I102
I53
tp692
a(I108
I74
tp693
a(I96
I125
tp694
a(I52
I115
tp695
asg26
I200
sba(imain2
Polygon
p696
(dp697
g3
(I180
I97
tp698
sg5
I200
sg6
(I161
I154
I198
I1
tp699
sg8
(lp700
(I200
I88
tp701
a(I200
I108
tp702
a(I200
I138
tp703
a(I172
I65
tp704
a(I200
I145
tp705
a(I137
I86
tp706
a(I181
I70
tp707
asg26
I200
sba(imain2
Polygon
p708
(dp709
g3
(I101
I122
tp710
sg5
I200
sg6
(I163
I84
I0
I69
tp711
sg8
(lp712
(I87
I91
tp713
a(I111
I157
tp714
a(I106
I130
tp715
a(I93
I147
tp716
a(I118
I155
tp717
a(I135
I76
tp718
a(I61
I152
tp719
a(I83
I142
tp720
a(I54
I133
tp721
a(I123
I74
tp722
a(I77
I77
tp723
asg26
I200
sba(imain2
Polygon
p724
(dp725
g3
(I131
I15
tp726
sg5
I200
sg6
(I56
I126
I126
I0
tp727
sg8
(lp728
(I99
I0
tp729
a(I148
I25
tp730
a(I140
I30
tp731
a(I179
I62
tp732
a(I81
I27
tp733
a(I100
I0
tp734
a(I95
I0
tp735
a(I85
I52
tp736
a(I134
I55
tp737
a(I91
I0
tp738
a(I109
I23
tp739
asg26
I200
sba(imain2
Polygon
p740
(dp741
g3
(I113
I24
tp742
sg5
I200
sg6
(I150
I239
I1
I1
tp743
sg8
(lp744
(I163
I0
tp745
a(I88
I27
tp746
a(I125
I69
tp747
a(I154
I20
tp748
a(I125
I3
tp749
a(I140
I0
tp750
a(I117
I66
tp751
a(I110
I46
tp752
a(I84
I32
tp753
a(I122
I0
tp754
a(I77
I58
tp755
a(I140
I72
tp756
a(I128
I59
tp757
asg26
I200
sba(imain2
Polygon
p758
(dp759
g3
(I15
I21
tp760
sg5
I200
sg6
(I42
I40
I25
I1
tp761
sg8
(lp762
(I40
I54
tp763
a(I7
I0
tp764
a(I37
I64
tp765
a(I42
I34
tp766
a(I36
I65
tp767
a(I32
I0
tp768
a(I2
I0
tp769
asg26
I200
sba(imain2
Polygon
p770
(dp771
g3
(I75
I18
tp772
sg5
I200
sg6
(I118
I124
I38
I141
tp773
sg8
(lp774
(I125
I0
tp775
a(I82
I30
tp776
a(I98
I0
tp777
a(I90
I0
tp778
a(I92
I0
tp779
a(I29
I0
tp780
a(I86
I51
tp781
a(I54
I14
tp782
a(I64
I30
tp783
a(I69
I0
tp784
a(I26
I62
tp785
a(I118
I0
tp786
a(I64
I29
tp787
a(I25
I19
tp788
a(I53
I67
tp789
a(I111
I64
tp790
a(I124
I63
tp791
a(I84
I38
tp792
a(I72
I12
tp793
a(I104
I7
tp794
a(I73
I11
tp795
asg26
I200
sba(imain2
Polygon
p796
(dp797
g3
(I147
I31
tp798
sg5
I200
sg6
(I240
I1
I220
I139
tp799
sg8
(lp800
(I189
I0
tp801
a(I196
I42
tp802
a(I180
I38
tp803
a(I168
I65
tp804
a(I153
I34
tp805
a(I193
I77
tp806
a(I183
I0
tp807
a(I187
I24
tp808
a(I176
I51
tp809
a(I126
I17
tp810
a(I116
I7
tp811
a(I129
I0
tp812
asg26
I200
sba(imain2
Polygon
p813
(dp814
g3
(I43
I128
tp815
sg5
I200
sg6
(I89
I21
I104
I119
tp816
sg8
(lp817
(I7
I89
tp818
a(I0
I99
tp819
a(I21
I114
tp820
a(I15
I103
tp821
a(I5
I162
tp822
a(I19
I96
tp823
a(I39
I102
tp824
asg26
I200
sba(imain2
Polygon
p825
(dp826
g3
(I191
I52
tp827
sg5
I200
sg6
(I139
I142
I99
I1
tp828
sg8
(lp829
(I200
I4
tp830
a(I200
I26
tp831
a(I163
I6
tp832
a(I200
I80
tp833
a(I184
I37
tp834
a(I198
I60
tp835
a(I200
I28
tp836
a(I200
I17
tp837
a(I186
I45
tp838
a(I148
I88
tp839
asg26
I200
sba(imain2
Polygon
p840
(dp841
g3
(I124
I96
tp842
sg5
I200
sg6
(I221
I86
I120
I1
tp843
sg8
(lp844
(I156
I93
tp845
a(I154
I145
tp846
a(I106
I89
tp847
a(I156
I121
tp848
a(I90
I146
tp849
a(I91
I110
tp850
a(I151
I68
tp851
a(I138
I110
tp852
a(I109
I135
tp853
a(I167
I93
tp854
a(I128
I121
tp855
a(I123
I118
tp856
asg26
I200
sba(imain2
Polygon
p857
(dp858
g3
(I14
I107
tp859
sg5
I200
sg6
(I54
I1
I217
I127
tp860
sg8
(lp861
(I17
I104
tp862
a(I0
I102
tp863
a(I59
I117
tp864
asg26
I200
sba(imain2
Polygon
p865
(dp866
g3
(I84
I159
tp867
sg5
I200
sg6
(I50
I12
I192
I0
tp868
sg8
(lp869
(I90
I168
tp870
a(I84
I140
tp871
a(I90
I134
tp872
a(I65
I110
tp873
a(I113
I185
tp874
a(I87
I159
tp875
a(I63
I158
tp876
a(I40
I150
tp877
a(I45
I112
tp878
a(I64
I172
tp879
asg26
I200
sba(imain2
Polygon
p880
(dp881
g3
(I141
I115
tp882
sg5
I200
sg6
(I236
I170
I169
I1
tp883
sg8
(lp884
(I178
I152
tp885
a(I152
I78
tp886
a(I149
I65
tp887
asg26
I200
sba(imain2
Polygon
p888
(dp889
g3
(I199
I78
tp890
sg5
I200
sg6
(I204
I201
I84
I124
tp891
sg8
(lp892
(I151
I34
tp893
a(I153
I30
tp894
a(I200
I32
tp895
a(I200
I125
tp896
a(I164
I113
tp897
a(I175
I100
tp898
a(I189
I127
tp899
asg26
I200
sba(imain2
Polygon
p900
(dp901
g3
(I167
I90
tp902
sg5
I200
sg6
(I35
I188
I28
I49
tp903
sg8
(lp904
(I200
I91
tp905
a(I200
I41
tp906
a(I182
I102
tp907
a(I164
I106
tp908
a(I198
I74
tp909
a(I172
I52
tp910
asg26
I200
sba(imain2
Polygon
p911
(dp912
g3
(I17
I14
tp913
sg5
I200
sg6
(I0
I8
I91
I22
tp914
sg8
(lp915
(I12
I21
tp916
a(I58
I8
tp917
a(I51
I50
tp918
a(I59
I20
tp919
a(I8
I0
tp920
a(I28
I11
tp921
a(I0
I17
tp922
a(I0
I29
tp923
a(I55
I54
tp924
a(I54
I3
tp925
a(I0
I50
tp926
a(I42
I60
tp927
a(I16
I31
tp928
a(I44
I37
tp929
asg26
I200
sba(imain2
Polygon
p930
(dp931
g3
(I190
I180
tp932
sg5
I200
sg6
(I225
I104
I47
I1
tp933
sg8
(lp934
(I197
I149
tp935
a(I149
I200
tp936
a(I200
I200
tp937
a(I176
I200
tp938
asg26
I200
sba(imain2
Polygon
p939
(dp940
g3
(I70
I166
tp941
sg5
I200
sg6
(I105
I177
I2
I1
tp942
sg8
(lp943
(I76
I134
tp944
a(I60
I186
tp945
a(I56
I127
tp946
a(I72
I200
tp947
a(I36
I127
tp948
a(I29
I194
tp949
a(I48
I123
tp950
a(I34
I190
tp951
a(I52
I183
tp952
asg26
I200
sba(imain2
Polygon
p953
(dp954
g3
(I196
I185
tp955
sg5
I200
sg6
(I18
I156
I128
I0
tp956
sg8
(lp957
(I200
I191
tp958
a(I198
I140
tp959
a(I186
I150
tp960
a(I171
I192
tp961
a(I151
I200
tp962
a(I186
I148
tp963
a(I200
I200
tp964
asg26
I200
sba(imain2
Polygon
p965
(dp966
g3
(I48
I123
tp967
sg5
I200
sg6
(I164
I45
I17
I92
tp968
sg8
(lp969
(I8
I113
tp970
a(I8
I127
tp971
a(I0
I97
tp972
a(I48
I105
tp973
a(I47
I100
tp974
a(I58
I146
tp975
a(I89
I76
tp976
a(I9
I121
tp977
a(I27
I162
tp978
a(I11
I146
tp979
a(I19
I151
tp980
asg26
I200
sba(imain2
Polygon
p981
(dp982
g3
(I59
I97
tp983
sg5
I200
sg6
(I202
I47
I127
I24
tp984
sg8
(lp985
(I70
I135
tp986
a(I85
I54
tp987
a(I51
I58
tp988
a(I70
I64
tp989
a(I44
I80
tp990
a(I107
I114
tp991
a(I74
I82
tp992
a(I89
I99
tp993
a(I92
I57
tp994
a(I56
I68
tp995
asg26
I200
sba(imain2
Polygon
p996
(dp997
g3
(I17
I149
tp998
sg5
I200
sg6
(I1
I35
I156
I1
tp999
sg8
(lp1000
(I0
I160
tp1001
a(I0
I101
tp1002
a(I0
I181
tp1003
a(I0
I172
tp1004
a(I5
I196
tp1005
a(I56
I156
tp1006
a(I40
I145
tp1007
a(I44
I176
tp1008
asg26
I200
sba(imain2
Polygon
p1009
(dp1010
g3
(I88
I2
tp1011
sg5
I200
sg6
(I2
I101
I62
I49
tp1012
sg8
(lp1013
(I95
I0
tp1014
a(I115
I0
tp1015
a(I107
I6
tp1016
a(I48
I0
tp1017
a(I105
I20
tp1018
a(I82
I0
tp1019
a(I78
I0
tp1020
a(I85
I0
tp1021
a(I90
I52
tp1022
asg26
I200
sba(imain2
Polygon
p1023
(dp1024
g3
(I3
I161
tp1025
sg5
I200
sg6
(I174
I17
I190
I7
tp1026
sg8
(lp1027
(I24
I146
tp1028
a(I0
I200
tp1029
a(I0
I141
tp1030
a(I0
I194
tp1031
a(I41
I138
tp1032
a(I0
I170
tp1033
a(I0
I168
tp1034
a(I11
I145
tp1035
a(I0
I121
tp1036
a(I0
I200
tp1037
asg26
I200
sba(imain2
Polygon
p1038
(dp1039
g3
(I98
I58
tp1040
sg5
I200
sg6
(I36
I61
I167
I1
tp1041
sg8
(lp1042
(I126
I105
tp1043
a(I54
I55
tp1044
a(I71
I63
tp1045
a(I145
I40
tp1046
a(I74
I104
tp1047
asg26
I200
sba(imain2
Polygon
p1048
(dp1049
g3
(I109
I111
tp1050
sg5
I200
sg6
(I227
I37
I97
I0
tp1051
sg8
(lp1052
(I65
I139
tp1053
a(I96
I159
tp1054
a(I64
I113
tp1055
a(I109
I97
tp1056
a(I112
I80
tp1057
a(I103
I136
tp1058
a(I143
I127
tp1059
a(I124
I122
tp1060
a(I70
I107
tp1061
asg26
I200
sba(imain2
Polygon
p1062
(dp1063
g3
(I83
I155
tp1064
sg5
I200
sg6
(I202
I42
I183
I11
tp1065
sg8
(lp1066
(I81
I142
tp1067
a(I129
I115
tp1068
a(I132
I200
tp1069
a(I58
I195
tp1070
a(I112
I160
tp1071
a(I69
I123
tp1072
a(I50
I153
tp1073
a(I51
I131
tp1074
a(I66
I137
tp1075
a(I131
I190
tp1076
a(I120
I173
tp1077
a(I59
I155
tp1078
a(I114
I149
tp1079
a(I84
I144
tp1080
a(I73
I167
tp1081
a(I102
I105
tp1082
a(I109
I186
tp1083
asg26
I200
sba(imain2
Polygon
p1084
(dp1085
g3
(I81
I21
tp1086
sg5
I200
sg6
(I136
I1
I26
I113
tp1087
sg8
(lp1088
(I69
I0
tp1089
a(I65
I6
tp1090
a(I43
I48
tp1091
a(I90
I0
tp1092
a(I122
I60
tp1093
a(I103
I58
tp1094
a(I63
I3
tp1095
a(I117
I0
tp1096
a(I80
I0
tp1097
asg26
I200
sba(imain2
Polygon
p1098
(dp1099
g3
(I77
I115
tp1100
sg5
I200
sg6
(I91
I238
I217
I1
tp1101
sg8
(lp1102
(I99
I164
tp1103
a(I65
I128
tp1104
a(I35
I77
tp1105
a(I101
I94
tp1106
a(I34
I83
tp1107
a(I85
I78
tp1108
a(I76
I143
tp1109
asg26
I200
sba(imain2
Polygon
p1110
(dp1111
g3
(I108
I110
tp1112
sg5
I200
sg6
(I144
I114
I144
I1
tp1113
sg8
(lp1114
(I109
I74
tp1115
a(I154
I119
tp1116
a(I76
I135
tp1117
a(I115
I134
tp1118
a(I153
I68
tp1119
a(I88
I60
tp1120
a(I101
I139
tp1121
a(I80
I113
tp1122
a(I110
I143
tp1123
a(I129
I139
tp1124
a(I124
I94
tp1125
a(I113
I121
tp1126
asg26
I200
sba(imain2
Polygon
p1127
(dp1128
g3
(I7
I122
tp1129
sg5
I200
sg6
(I152
I0
I156
I0
tp1130
sg8
(lp1131
(I53
I94
tp1132
a(I26
I136
tp1133
a(I5
I155
tp1134
a(I35
I73
tp1135
a(I0
I113
tp1136
a(I3
I152
tp1137
a(I0
I123
tp1138
a(I0
I77
tp1139
a(I48
I92
tp1140
a(I0
I121
tp1141
a(I0
I165
tp1142
a(I0
I145
tp1143
a(I44
I153
tp1144
a(I0
I145
tp1145
a(I0
I114
tp1146
asg26
I200
sba(imain2
Polygon
p1147
(dp1148
g3
(I105
I20
tp1149
sg5
I200
sg6
(I211
I27
I228
I1
tp1150
sg8
(lp1151
(I124
I25
tp1152
a(I64
I70
tp1153
a(I81
I44
tp1154
a(I100
I10
tp1155
a(I96
I0
tp1156
a(I143
I0
tp1157
asg26
I200
sba(imain2
Polygon
p1158
(dp1159
g3
(I47
I80
tp1160
sg5
I200
sg6
(I108
I47
I113
I20
tp1161
sg8
(lp1162
(I55
I102
tp1163
a(I20
I55
tp1164
a(I24
I107
tp1165
a(I6
I49
tp1166
a(I87
I50
tp1167
a(I35
I42
tp1168
a(I94
I123
tp1169
a(I52
I37
tp1170
a(I38
I43
tp1171
a(I13
I128
tp1172
a(I45
I105
tp1173
a(I40
I86
tp1174
a(I37
I61
tp1175
a(I19
I101
tp1176
a(I19
I59
tp1177
a(I86
I34
tp1178
a(I7
I60
tp1179
a(I68
I74
tp1180
a(I54
I57
tp1181
a(I13
I123
tp1182
asg26
I200
sba(imain2
Polygon
p1183
(dp1184
g3
(I131
I30
tp1185
sg5
I200
sg6
(I203
I122
I169
I1
tp1186
sg8
(lp1187
(I108
I74
tp1188
a(I122
I24
tp1189
a(I162
I8
tp1190
asg26
I200
sba(imain2
Polygon
p1191
(dp1192
g3
(I199
I39
tp1193
sg5
I200
sg6
(I92
I189
I105
I55
tp1194
sg8
(lp1195
(I187
I1
tp1196
a(I150
I0
tp1197
a(I200
I89
tp1198
a(I200
I6
tp1199
a(I178
I0
tp1200
asg26
I200
sba(imain2
Polygon
p1201
(dp1202
g3
(I110
I156
tp1203
sg5
I200
sg6
(I188
I91
I124
I1
tp1204
sg8
(lp1205
(I72
I138
tp1206
a(I138
I163
tp1207
a(I97
I173
tp1208
a(I131
I138
tp1209
a(I116
I137
tp1210
a(I160
I151
tp1211
a(I76
I198
tp1212
a(I123
I125
tp1213
a(I133
I146
tp1214
a(I154
I193
tp1215
a(I76
I200
tp1216
a(I138
I148
tp1217
a(I100
I170
tp1218
a(I144
I153
tp1219
a(I152
I115
tp1220
asg26
I200
sba(imain2
Polygon
p1221
(dp1222
g3
(I14
I89
tp1223
sg5
I200
sg6
(I200
I19
I25
I75
tp1224
sg8
(lp1225
(I30
I67
tp1226
a(I49
I72
tp1227
a(I53
I72
tp1228
a(I55
I44
tp1229
a(I17
I118
tp1230
a(I0
I99
tp1231
a(I5
I50
tp1232
a(I11
I80
tp1233
asg26
I200
sba(imain2
Polygon
p1234
(dp1235
g3
(I124
I127
tp1236
sg5
I200
sg6
(I172
I217
I171
I1
tp1237
sg8
(lp1238
(I114
I145
tp1239
a(I129
I138
tp1240
a(I81
I155
tp1241
a(I111
I115
tp1242
a(I147
I96
tp1243
a(I124
I85
tp1244
a(I170
I95
tp1245
a(I135
I124
tp1246
a(I104
I171
tp1247
a(I92
I110
tp1248
a(I133
I80
tp1249
asg26
I200
sba(imain2
Polygon
p1250
(dp1251
g3
(I97
I78
tp1252
sg5
I200
sg6
(I146
I200
I158
I1
tp1253
sg8
(lp1254
(I113
I61
tp1255
a(I62
I103
tp1256
a(I66
I110
tp1257
a(I110
I111
tp1258
a(I135
I109
tp1259
a(I133
I53
tp1260
a(I78
I58
tp1261
a(I97
I51
tp1262
a(I84
I107
tp1263
a(I55
I62
tp1264
a(I54
I111
tp1265
a(I77
I65
tp1266
asg26
I200
sba(imain2
Polygon
p1267
(dp1268
g3
(I71
I43
tp1269
sg5
I200
sg6
(I218
I210
I119
I1
tp1270
sg8
(lp1271
(I107
I87
tp1272
a(I99
I17
tp1273
a(I84
I79
tp1274
a(I92
I40
tp1275
a(I77
I18
tp1276
a(I50
I41
tp1277
a(I47
I52
tp1278
a(I75
I14
tp1279
a(I39
I86
tp1280
asg26
I200
sba(imain2
Polygon
p1281
(dp1282
g3
(I109
I75
tp1283
sg5
I200
sg6
(I108
I161
I66
I127
tp1284
sg8
(lp1285
(I63
I26
tp1286
a(I62
I79
tp1287
a(I120
I76
tp1288
a(I87
I26
tp1289
a(I64
I35
tp1290
a(I71
I69
tp1291
asg26
I200
sba(imain2
Polygon
p1292
(dp1293
g3
(I149
I45
tp1294
sg5
I200
sg6
(I206
I141
I127
I85
tp1295
sg8
(lp1296
(I199
I90
tp1297
a(I165
I70
tp1298
a(I161
I69
tp1299
a(I183
I12
tp1300
a(I128
I0
tp1301
a(I175
I87
tp1302
a(I158
I84
tp1303
a(I187
I0
tp1304
a(I122
I22
tp1305
a(I189
I0
tp1306
a(I130
I0
tp1307
a(I187
I18
tp1308
a(I199
I27
tp1309
asg26
I200
sba(imain2
Polygon
p1310
(dp1311
g3
(I29
I98
tp1312
sg5
I200
sg6
(I6
I134
I169
I40
tp1313
sg8
(lp1314
(I0
I145
tp1315
a(I62
I70
tp1316
a(I0
I73
tp1317
a(I0
I113
tp1318
a(I32
I77
tp1319
a(I40
I82
tp1320
a(I7
I82
tp1321
a(I10
I53
tp1322
a(I60
I84
tp1323
a(I0
I135
tp1324
a(I28
I90
tp1325
a(I31
I80
tp1326
a(I24
I105
tp1327
asg26
I200
sba(imain2
Polygon
p1328
(dp1329
g3
(I90
I62
tp1330
sg5
I200
sg6
(I177
I118
I130
I1
tp1331
sg8
(lp1332
(I97
I26
tp1333
a(I98
I15
tp1334
a(I61
I49
tp1335
a(I54
I78
tp1336
a(I100
I106
tp1337
a(I119
I28
tp1338
asg26
I200
sba(imain2
Polygon
p1339
(dp1340
g3
(I63
I49
tp1341
sg5
I200
sg6
(I219
I250
I133
I1
tp1342
sg8
(lp1343
(I75
I83
tp1344
a(I30
I15
tp1345
a(I53
I1
tp1346
a(I93
I34
tp1347
a(I93
I64
tp1348
a(I113
I14
tp1349
a(I69
I24
tp1350
a(I82
I92
tp1351
a(I94
I60
tp1352
a(I24
I58
tp1353
asg26
I200
sba(imain2
Polygon
p1354
(dp1355
g3
(I31
I132
tp1356
sg5
I200
sg6
(I73
I118
I196
I21
tp1357
sg8
(lp1358
(I8
I160
tp1359
a(I35
I167
tp1360
a(I5
I181
tp1361
a(I0
I120
tp1362
a(I30
I175
tp1363
a(I10
I143
tp1364
a(I31
I164
tp1365
a(I70
I85
tp1366
a(I9
I172
tp1367
a(I0
I125
tp1368
a(I0
I146
tp1369
a(I14
I172
tp1370
a(I49
I135
tp1371
a(I69
I92
tp1372
a(I37
I163
tp1373
asg26
I200
sba(imain2
Polygon
p1374
(dp1375
g3
(I80
I158
tp1376
sg5
I200
sg6
(I24
I43
I59
I1
tp1377
sg8
(lp1378
(I62
I145
tp1379
a(I111
I200
tp1380
a(I114
I200
tp1381
a(I55
I186
tp1382
a(I94
I151
tp1383
a(I69
I136
tp1384
a(I105
I129
tp1385
a(I74
I194
tp1386
a(I65
I200
tp1387
a(I111
I109
tp1388
a(I64
I184
tp1389
a(I124
I119
tp1390
a(I102
I143
tp1391
a(I47
I154
tp1392
a(I37
I162
tp1393
a(I128
I170
tp1394
a(I82
I200
tp1395
a(I117
I168
tp1396
a(I120
I184
tp1397
a(I52
I182
tp1398
asg26
I200
sba(imain2
Polygon
p1399
(dp1400
g3
(I168
I51
tp1401
sg5
I200
sg6
(I100
I203
I209
I1
tp1402
sg8
(lp1403
(I123
I53
tp1404
a(I174
I19
tp1405
a(I153
I39
tp1406
a(I137
I13
tp1407
a(I119
I61
tp1408
a(I156
I89
tp1409
asg26
I200
sba(imain2
Polygon
p1410
(dp1411
g3
(I110
I14
tp1412
sg5
I200
sg6
(I156
I137
I49
I148
tp1413
sg8
(lp1414
(I118
I49
tp1415
a(I72
I59
tp1416
a(I101
I0
tp1417
a(I156
I0
tp1418
a(I158
I0
tp1419
a(I157
I28
tp1420
a(I144
I28
tp1421
a(I61
I0
tp1422
a(I67
I58
tp1423
a(I105
I0
tp1424
a(I79
I0
tp1425
a(I61
I0
tp1426
a(I77
I25
tp1427
asg26
I200
sba(imain2
Polygon
p1428
(dp1429
g3
(I85
I94
tp1430
sg5
I200
sg6
(I202
I232
I84
I64
tp1431
sg8
(lp1432
(I43
I56
tp1433
a(I110
I104
tp1434
a(I62
I48
tp1435
a(I105
I45
tp1436
a(I125
I73
tp1437
a(I93
I111
tp1438
a(I79
I138
tp1439
a(I109
I144
tp1440
a(I124
I111
tp1441
a(I62
I45
tp1442
a(I45
I66
tp1443
a(I55
I129
tp1444
a(I126
I96
tp1445
asg26
I200
sba(imain2
Polygon
p1446
(dp1447
g3
(I153
I81
tp1448
sg5
I200
sg6
(I121
I86
I190
I0
tp1449
sg8
(lp1450
(I112
I62
tp1451
a(I121
I118
tp1452
a(I150
I46
tp1453
a(I188
I103
tp1454
asg26
I200
sba(imain2
Polygon
p1455
(dp1456
g3
(I146
I37
tp1457
sg5
I200
sg6
(I227
I83
I157
I1
tp1458
sg8
(lp1459
(I166
I5
tp1460
a(I140
I78
tp1461
a(I111
I12
tp1462
a(I185
I9
tp1463
a(I135
I2
tp1464
a(I101
I19
tp1465
a(I122
I18
tp1466
asg26
I200
sba(imain2
Polygon
p1467
(dp1468
g3
(I36
I71
tp1469
sg5
I200
sg6
(I178
I120
I134
I0
tp1470
sg8
(lp1471
(I86
I118
tp1472
a(I15
I104
tp1473
a(I60
I30
tp1474
a(I14
I70
tp1475
a(I85
I60
tp1476
a(I48
I38
tp1477
a(I27
I63
tp1478
a(I13
I40
tp1479
a(I50
I114
tp1480
a(I0
I88
tp1481
a(I61
I117
tp1482
a(I10
I121
tp1483
asg26
I200
sba(imain2
Polygon
p1484
(dp1485
g3
(I36
I181
tp1486
sg5
I200
sg6
(I143
I212
I96
I79
tp1487
sg8
(lp1488
(I78
I149
tp1489
a(I48
I150
tp1490
a(I52
I149
tp1491
a(I81
I147
tp1492
a(I71
I200
tp1493
a(I13
I140
tp1494
a(I43
I172
tp1495
a(I80
I200
tp1496
a(I55
I200
tp1497
a(I66
I188
tp1498
a(I68
I200
tp1499
a(I71
I200
tp1500
asg26
I200
sba(imain2
Polygon
p1501
(dp1502
g3
(I94
I181
tp1503
sg5
I200
sg6
(I112
I50
I36
I0
tp1504
sg8
(lp1505
(I110
I200
tp1506
a(I73
I197
tp1507
a(I108
I160
tp1508
a(I89
I200
tp1509
a(I111
I200
tp1510
a(I106
I200
tp1511
a(I44
I131
tp1512
a(I112
I200
tp1513
a(I122
I170
tp1514
asg26
I200
sba(imain2
Polygon
p1515
(dp1516
g3
(I4
I26
tp1517
sg5
I200
sg6
(I28
I105
I61
I46
tp1518
sg8
(lp1519
(I25
I0
tp1520
a(I25
I0
tp1521
a(I0
I6
tp1522
a(I21
I31
tp1523
a(I0
I38
tp1524
a(I9
I3
tp1525
a(I54
I51
tp1526
a(I32
I59
tp1527
a(I0
I27
tp1528
a(I36
I14
tp1529
a(I17
I0
tp1530
a(I0
I0
tp1531
a(I0
I52
tp1532
a(I0
I38
tp1533
a(I49
I33
tp1534
asg26
I200
sba(imain2
Polygon
p1535
(dp1536
g3
(I14
I45
tp1537
sg5
I200
sg6
(I146
I107
I1
I0
tp1538
sg8
(lp1539
(I0
I56
tp1540
a(I0
I0
tp1541
a(I0
I64
tp1542
a(I0
I69
tp1543
a(I26
I76
tp1544
a(I0
I21
tp1545
a(I21
I81
tp1546
a(I8
I81
tp1547
a(I0
I21
tp1548
a(I3
I47
tp1549
asg26
I200
sba(imain2
Polygon
p1550
(dp1551
g3
(I103
I69
tp1552
sg5
I200
sg6
(I231
I218
I1
I42
tp1553
sg8
(lp1554
(I55
I36
tp1555
a(I53
I116
tp1556
a(I127
I84
tp1557
a(I135
I89
tp1558
a(I85
I19
tp1559
asg26
I200
sba(imain2
Polygon
p1560
(dp1561
g3
(I61
I77
tp1562
sg5
I200
sg6
(I60
I121
I192
I131
tp1563
sg8
(lp1564
(I106
I108
tp1565
a(I88
I94
tp1566
a(I89
I87
tp1567
asg26
I200
sba(imain2
Polygon
p1568
(dp1569
g3
(I36
I98
tp1570
sg5
I200
sg6
(I1
I199
I74
I46
tp1571
sg8
(lp1572
(I28
I97
tp1573
a(I4
I90
tp1574
a(I0
I121
tp1575
a(I0
I53
tp1576
a(I80
I75
tp1577
a(I30
I53
tp1578
a(I0
I53
tp1579
a(I18
I50
tp1580
a(I42
I52
tp1581
asg26
I200
sba(imain2
Polygon
p1582
(dp1583
g3
(I20
I133
tp1584
sg5
I200
sg6
(I199
I239
I132
I84
tp1585
sg8
(lp1586
(I30
I179
tp1587
a(I0
I181
tp1588
a(I0
I175
tp1589
a(I21
I139
tp1590
a(I28
I170
tp1591
asg26
I200
sba(imain2
Polygon
p1592
(dp1593
g3
(I178
I74
tp1594
sg5
I200
sg6
(I31
I120
I28
I0
tp1595
sg8
(lp1596
(I198
I80
tp1597
a(I128
I75
tp1598
a(I200
I57
tp1599
a(I161
I83
tp1600
a(I149
I92
tp1601
a(I175
I32
tp1602
a(I176
I34
tp1603
a(I200
I79
tp1604
a(I140
I63
tp1605
asg26
I200
sba(imain2
Polygon
p1606
(dp1607
g3
(I191
I151
tp1608
sg5
I200
sg6
(I238
I39
I77
I66
tp1609
sg8
(lp1610
(I190
I106
tp1611
a(I189
I120
tp1612
a(I175
I104
tp1613
asg26
I200
sba(imain2
Polygon
p1614
(dp1615
g3
(I81
I200
tp1616
sg5
I200
sg6
(I41
I59
I159
I36
tp1617
sg8
(lp1618
(I63
I200
tp1619
a(I33
I187
tp1620
a(I38
I191
tp1621
a(I59
I200
tp1622
a(I46
I200
tp1623
a(I72
I200
tp1624
a(I46
I200
tp1625
a(I62
I200
tp1626
a(I32
I200
tp1627
asg26
I200
sba(imain2
Polygon
p1628
(dp1629
g3
(I8
I200
tp1630
sg5
I200
sg6
(I236
I14
I66
I141
tp1631
sg8
(lp1632
(I0
I200
tp1633
a(I2
I200
tp1634
a(I41
I200
tp1635
a(I52
I200
tp1636
a(I23
I200
tp1637
a(I0
I200
tp1638
a(I0
I200
tp1639
a(I17
I195
tp1640
a(I0
I200
tp1641
a(I0
I200
tp1642
asg26
I200
sba(imain2
Polygon
p1643
(dp1644
g3
(I12
I187
tp1645
sg5
I200
sg6
(I224
I0
I178
I0
tp1646
sg8
(lp1647
(I46
I200
tp1648
a(I0
I167
tp1649
a(I22
I200
tp1650
a(I0
I174
tp1651
a(I0
I174
tp1652
a(I0
I200
tp1653
a(I0
I190
tp1654
a(I50
I200
tp1655
a(I25
I200
tp1656
a(I13
I200
tp1657
a(I20
I145
tp1658
a(I16
I198
tp1659
asg26
I200
sba(imain2
Polygon
p1660
(dp1661
g3
(I142
I43
tp1662
sg5
I200
sg6
(I50
I77
I163
I11
tp1663
sg8
(lp1664
(I132
I26
tp1665
a(I149
I90
tp1666
a(I148
I68
tp1667
a(I135
I64
tp1668
a(I176
I27
tp1669
a(I136
I59
tp1670
a(I138
I14
tp1671
a(I123
I43
tp1672
a(I106
I40
tp1673
a(I122
I35
tp1674
a(I126
I28
tp1675
a(I138
I19
tp1676
a(I122
I27
tp1677
a(I101
I36
tp1678
asg26
I200
sba(imain2
Polygon
p1679
(dp1680
g3
(I89
I37
tp1681
sg5
I200
sg6
(I1
I104
I197
I82
tp1682
sg8
(lp1683
(I104
I35
tp1684
a(I54
I51
tp1685
a(I55
I50
tp1686
asg26
I200
sba(imain2
Polygon
p1687
(dp1688
g3
(I43
I51
tp1689
sg5
I200
sg6
(I36
I141
I122
I1
tp1690
sg8
(lp1691
(I15
I67
tp1692
a(I36
I91
tp1693
a(I91
I92
tp1694
a(I58
I29
tp1695
a(I39
I44
tp1696
a(I47
I38
tp1697
a(I39
I44
tp1698
a(I62
I59
tp1699
a(I51
I66
tp1700
a(I11
I86
tp1701
a(I47
I50
tp1702
a(I40
I49
tp1703
a(I39
I83
tp1704
a(I88
I11
tp1705
a(I68
I65
tp1706
a(I25
I83
tp1707
a(I44
I24
tp1708
a(I15
I62
tp1709
asg26
I200
sba(imain2
Polygon
p1710
(dp1711
g3
(I23
I143
tp1712
sg5
I200
sg6
(I74
I246
I171
I53
tp1713
sg8
(lp1714
(I0
I144
tp1715
a(I0
I130
tp1716
a(I0
I188
tp1717
a(I29
I191
tp1718
a(I34
I148
tp1719
a(I0
I157
tp1720
a(I0
I133
tp1721
asg26
I200
sba(imain2
Polygon
p1722
(dp1723
g3
(I32
I143
tp1724
sg5
I200
sg6
(I52
I70
I162
I1
tp1725
sg8
(lp1726
(I61
I156
tp1727
a(I32
I159
tp1728
a(I64
I175
tp1729
a(I56
I160
tp1730
a(I0
I105
tp1731
a(I0
I175
tp1732
a(I71
I116
tp1733
a(I68
I151
tp1734
a(I34
I106
tp1735
a(I58
I144
tp1736
a(I39
I126
tp1737
a(I39
I147
tp1738
a(I55
I193
tp1739
a(I45
I108
tp1740
a(I53
I187
tp1741
a(I41
I126
tp1742
asg26
I200
sba(imain2
Polygon
p1743
(dp1744
g3
(I69
I107
tp1745
sg5
I200
sg6
(I160
I229
I0
I17
tp1746
sg8
(lp1747
(I92
I73
tp1748
a(I40
I61
tp1749
a(I48
I101
tp1750
a(I58
I92
tp1751
a(I103
I75
tp1752
a(I57
I154
tp1753
a(I29
I60
tp1754
a(I19
I90
tp1755
a(I93
I154
tp1756
a(I47
I112
tp1757
a(I69
I96
tp1758
a(I113
I129
tp1759
a(I73
I153
tp1760
asg26
I200
sba(imain2
Polygon
p1761
(dp1762
g3
(I172
I111
tp1763
sg5
I200
sg6
(I237
I214
I84
I132
tp1764
sg8
(lp1765
(I162
I84
tp1766
a(I200
I88
tp1767
a(I177
I85
tp1768
asg26
I200
sba(imain2
Polygon
p1769
(dp1770
g3
(I150
I91
tp1771
sg5
I200
sg6
(I8
I242
I87
I47
tp1772
sg8
(lp1773
(I191
I127
tp1774
a(I165
I85
tp1775
a(I174
I90
tp1776
a(I192
I141
tp1777
asg26
I200
sba(imain2
Polygon
p1778
(dp1779
g3
(I135
I188
tp1780
sg5
I200
sg6
(I77
I227
I7
I0
tp1781
sg8
(lp1782
(I161
I187
tp1783
a(I174
I200
tp1784
a(I94
I154
tp1785
a(I97
I156
tp1786
a(I141
I192
tp1787
a(I102
I176
tp1788
a(I87
I200
tp1789
a(I174
I200
tp1790
a(I125
I170
tp1791
a(I131
I200
tp1792
asg26
I200
sba(imain2
Polygon
p1793
(dp1794
g3
(I127
I113
tp1795
sg5
I200
sg6
(I133
I210
I151
I14
tp1796
sg8
(lp1797
(I116
I100
tp1798
a(I148
I82
tp1799
a(I164
I110
tp1800
a(I94
I89
tp1801
asg26
I200
sba(imain2
Polygon
p1802
(dp1803
g3
(I173
I20
tp1804
sg5
I200
sg6
(I231
I0
I218
I0
tp1805
sg8
(lp1806
(I147
I47
tp1807
a(I198
I62
tp1808
a(I171
I46
tp1809
a(I200
I0
tp1810
a(I182
I0
tp1811
a(I147
I0
tp1812
a(I137
I18
tp1813
a(I149
I0
tp1814
a(I189
I36
tp1815
a(I123
I0
tp1816
a(I200
I0
tp1817
a(I174
I41
tp1818
a(I163
I0
tp1819
a(I190
I0
tp1820
a(I186
I12
tp1821
a(I155
I17
tp1822
asg26
I200
sba(imain2
Polygon
p1823
(dp1824
g3
(I100
I197
tp1825
sg5
I200
sg6
(I34
I102
I177
I72
tp1826
sg8
(lp1827
(I99
I200
tp1828
a(I118
I200
tp1829
a(I147
I200
tp1830
a(I104
I151
tp1831
a(I135
I187
tp1832
a(I106
I200
tp1833
a(I137
I200
tp1834
a(I92
I200
tp1835
a(I135
I200
tp1836
a(I85
I200
tp1837
a(I133
I200
tp1838
a(I51
I200
tp1839
a(I55
I200
tp1840
a(I121
I200
tp1841
asg26
I200
sba(imain2
Polygon
p1842
(dp1843
g3
(I70
I0
tp1844
sg5
I200
sg6
(I136
I1
I195
I1
tp1845
sg8
(lp1846
(I62
I0
tp1847
a(I35
I15
tp1848
a(I115
I27
tp1849
a(I33
I15
tp1850
a(I90
I0
tp1851
a(I67
I18
tp1852
a(I44
I0
tp1853
a(I56
I0
tp1854
asg26
I200
sba(imain2
Polygon
p1855
(dp1856
g3
(I106
I152
tp1857
sg5
I200
sg6
(I99
I163
I62
I66
tp1858
sg8
(lp1859
(I133
I114
tp1860
a(I119
I166
tp1861
a(I59
I200
tp1862
a(I140
I199
tp1863
a(I115
I114
tp1864
a(I85
I153
tp1865
a(I124
I140
tp1866
a(I138
I185
tp1867
a(I122
I150
tp1868
a(I68
I141
tp1869
a(I128
I144
tp1870
asg26
I200
sba(imain2
Polygon
p1871
(dp1872
g3
(I11
I38
tp1873
sg5
I200
sg6
(I111
I0
I124
I5
tp1874
sg8
(lp1875
(I61
I76
tp1876
a(I0
I37
tp1877
a(I35
I52
tp1878
a(I0
I12
tp1879
a(I8
I17
tp1880
a(I0
I37
tp1881
a(I47
I24
tp1882
a(I51
I63
tp1883
a(I13
I62
tp1884
a(I53
I84
tp1885
a(I0
I54
tp1886
asg26
I200
sba(imain2
Polygon
p1887
(dp1888
g3
(I23
I68
tp1889
sg5
I200
sg6
(I217
I111
I190
I126
tp1890
sg8
(lp1891
(I35
I109
tp1892
a(I24
I85
tp1893
a(I54
I19
tp1894
a(I25
I33
tp1895
a(I35
I32
tp1896
a(I36
I40
tp1897
a(I0
I19
tp1898
a(I0
I111
tp1899
a(I7
I98
tp1900
a(I38
I112
tp1901
a(I4
I66
tp1902
asg26
I200
sba(imain2
Polygon
p1903
(dp1904
g3
(I73
I8
tp1905
sg5
I200
sg6
(I107
I163
I20
I137
tp1906
sg8
(lp1907
(I33
I0
tp1908
a(I116
I0
tp1909
a(I113
I0
tp1910
a(I27
I56
tp1911
a(I23
I45
tp1912
a(I24
I0
tp1913
a(I32
I0
tp1914
a(I39
I6
tp1915
a(I49
I29
tp1916
a(I58
I40
tp1917
asg26
I200
sba(imain2
Polygon
p1918
(dp1919
g3
(I175
I187
tp1920
sg5
I200
sg6
(I120
I193
I198
I57
tp1921
sg8
(lp1922
(I186
I200
tp1923
a(I170
I200
tp1924
a(I146
I200
tp1925
asg26
I200
sba(imain2
Polygon
p1926
(dp1927
g3
(I153
I195
tp1928
sg5
I200
sg6
(I54
I167
I29
I0
tp1929
sg8
(lp1930
(I179
I189
tp1931
a(I172
I184
tp1932
a(I144
I196
tp1933
a(I167
I153
tp1934
a(I129
I157
tp1935
a(I158
I200
tp1936
a(I192
I184
tp1937
a(I140
I198
tp1938
a(I125
I147
tp1939
asg26
I200
sba(imain2
Polygon
p1940
(dp1941
g3
(I199
I6
tp1942
sg5
I200
sg6
(I144
I41
I87
I1
tp1943
sg8
(lp1944
(I156
I21
tp1945
a(I200
I0
tp1946
a(I200
I0
tp1947
a(I149
I0
tp1948
a(I200
I20
tp1949
a(I200
I0
tp1950
a(I200
I0
tp1951
a(I200
I0
tp1952
asg26
I200
sba(imain2
Polygon
p1953
(dp1954
g3
(I46
I191
tp1955
sg5
I200
sg6
(I91
I15
I8
I118
tp1956
sg8
(lp1957
(I69
I200
tp1958
a(I73
I200
tp1959
a(I94
I165
tp1960
a(I0
I200
tp1961
a(I0
I146
tp1962
a(I27
I155
tp1963
a(I79
I193
tp1964
a(I34
I181
tp1965
a(I35
I167
tp1966
asg26
I200
sba(imain2
Polygon
p1967
(dp1968
g3
(I144
I179
tp1969
sg5
I200
sg6
(I125
I32
I190
I46
tp1970
sg8
(lp1971
(I165
I180
tp1972
a(I161
I152
tp1973
a(I115
I194
tp1974
a(I130
I191
tp1975
a(I133
I187
tp1976
a(I191
I200
tp1977
a(I106
I200
tp1978
a(I113
I200
tp1979
a(I133
I183
tp1980
a(I99
I183
tp1981
a(I164
I155
tp1982
a(I148
I156
tp1983
a(I105
I180
tp1984
a(I154
I153
tp1985
a(I168
I199
tp1986
a(I168
I200
tp1987
asg26
I200
sba(imain2
Polygon
p1988
(dp1989
g3
(I120
I46
tp1990
sg5
I200
sg6
(I83
I82
I102
I57
tp1991
sg8
(lp1992
(I118
I65
tp1993
a(I95
I18
tp1994
a(I126
I24
tp1995
a(I97
I17
tp1996
a(I112
I27
tp1997
a(I132
I30
tp1998
a(I113
I91
tp1999
a(I161
I26
tp2000
asg26
I200
sba(imain2
Polygon
p2001
(dp2002
g3
(I100
I144
tp2003
sg5
I200
sg6
(I123
I184
I166
I120
tp2004
sg8
(lp2005
(I112
I95
tp2006
a(I104
I138
tp2007
a(I98
I126
tp2008
a(I74
I100
tp2009
a(I78
I118
tp2010
a(I83
I152
tp2011
a(I125
I151
tp2012
a(I68
I158
tp2013
a(I56
I110
tp2014
asg26
I200
sba(imain2
Polygon
p2015
(dp2016
g3
(I151
I184
tp2017
sg5
I200
sg6
(I139
I1
I175
I3
tp2018
sg8
(lp2019
(I190
I200
tp2020
a(I185
I183
tp2021
a(I169
I169
tp2022
a(I122
I200
tp2023
a(I133
I135
tp2024
asg26
I200
sba(imain2
Polygon
p2025
(dp2026
g3
(I124
I187
tp2027
sg5
I200
sg6
(I26
I27
I211
I1
tp2028
sg8
(lp2029
(I154
I200
tp2030
a(I164
I200
tp2031
a(I90
I200
tp2032
a(I140
I200
tp2033
a(I119
I200
tp2034
a(I80
I200
tp2035
a(I143
I154
tp2036
asg26
I200
sba(imain2
Polygon
p2037
(dp2038
g3
(I48
I52
tp2039
sg5
I200
sg6
(I247
I132
I162
I141
tp2040
sg8
(lp2041
(I58
I94
tp2042
a(I79
I94
tp2043
a(I97
I60
tp2044
a(I67
I7
tp2045
a(I35
I65
tp2046
a(I31
I93
tp2047
a(I88
I8
tp2048
a(I0
I3
tp2049
a(I0
I82
tp2050
a(I2
I102
tp2051
a(I65
I76
tp2052
a(I18
I85
tp2053
a(I75
I83
tp2054
asg26
I200
sba(imain2
Polygon
p2055
(dp2056
g3
(I139
I74
tp2057
sg5
I200
sg6
(I152
I190
I238
I92
tp2058
sg8
(lp2059
(I174
I48
tp2060
a(I189
I47
tp2061
a(I185
I26
tp2062
a(I157
I30
tp2063
a(I169
I88
tp2064
a(I187
I48
tp2065
asg26
I200
sba(imain2
Polygon
p2066
(dp2067
g3
(I161
I83
tp2068
sg5
I200
sg6
(I202
I149
I103
I30
tp2069
sg8
(lp2070
(I114
I113
tp2071
a(I114
I49
tp2072
a(I178
I77
tp2073
a(I185
I60
tp2074
a(I155
I98
tp2075
a(I177
I113
tp2076
a(I199
I106
tp2077
a(I200
I106
tp2078
a(I200
I49
tp2079
a(I140
I35
tp2080
a(I197
I72
tp2081
a(I199
I71
tp2082
a(I145
I53
tp2083
a(I124
I126
tp2084
asg26
I200
sba(imain2
Polygon
p2085
(dp2086
g3
(I88
I36
tp2087
sg5
I200
sg6
(I1
I31
I72
I116
tp2088
sg8
(lp2089
(I82
I0
tp2090
a(I49
I39
tp2091
a(I102
I37
tp2092
a(I120
I27
tp2093
a(I125
I14
tp2094
a(I135
I16
tp2095
a(I71
I9
tp2096
a(I42
I13
tp2097
a(I58
I13
tp2098
asg26
I200
sba(imain2
Polygon
p2099
(dp2100
g3
(I12
I36
tp2101
sg5
I200
sg6
(I169
I102
I213
I1
tp2102
sg8
(lp2103
(I0
I57
tp2104
a(I6
I61
tp2105
a(I31
I82
tp2106
a(I39
I56
tp2107
a(I50
I5
tp2108
a(I9
I54
tp2109
asg26
I200
sba(imain2
Polygon
p2110
(dp2111
g3
(I79
I176
tp2112
sg5
I200
sg6
(I199
I84
I173
I102
tp2113
sg8
(lp2114
(I129
I200
tp2115
a(I119
I162
tp2116
a(I69
I200
tp2117
a(I128
I200
tp2118
a(I113
I200
tp2119
asg26
I200
sba(imain2
Polygon
p2120
(dp2121
g3
(I159
I193
tp2122
sg5
I200
sg6
(I189
I174
I62
I1
tp2123
sg8
(lp2124
(I200
I175
tp2125
a(I168
I178
tp2126
a(I179
I191
tp2127
a(I200
I161
tp2128
a(I200
I200
tp2129
a(I200
I196
tp2130
a(I192
I188
tp2131
a(I140
I155
tp2132
a(I129
I169
tp2133
a(I129
I200
tp2134
a(I176
I178
tp2135
a(I110
I181
tp2136
asg26
I200
sba(imain2
Polygon
p2137
(dp2138
g3
(I52
I197
tp2139
sg5
I200
sg6
(I164
I148
I229
I0
tp2140
sg8
(lp2141
(I30
I200
tp2142
a(I60
I200
tp2143
a(I29
I200
tp2144
a(I49
I200
tp2145
a(I14
I199
tp2146
a(I22
I181
tp2147
a(I37
I200
tp2148
a(I46
I170
tp2149
asg26
I200
sba(imain2
Polygon
p2150
(dp2151
g3
(I96
I168
tp2152
sg5
I200
sg6
(I82
I155
I165
I0
tp2153
sg8
(lp2154
(I105
I151
tp2155
a(I128
I200
tp2156
a(I100
I180
tp2157
a(I123
I200
tp2158
a(I132
I153
tp2159
a(I116
I141
tp2160
a(I145
I191
tp2161
asg26
I200
sba(imain2
Polygon
p2162
(dp2163
g3
(I148
I67
tp2164
sg5
I200
sg6
(I211
I29
I21
I1
tp2165
sg8
(lp2166
(I141
I85
tp2167
a(I110
I44
tp2168
a(I120
I55
tp2169
a(I156
I36
tp2170
a(I98
I103
tp2171
a(I105
I34
tp2172
a(I166
I61
tp2173
a(I165
I74
tp2174
a(I102
I67
tp2175
a(I186
I84
tp2176
a(I106
I33
tp2177
a(I191
I88
tp2178
a(I173
I104
tp2179
a(I198
I101
tp2180
asg26
I200
sba(imain2
Polygon
p2181
(dp2182
g3
(I185
I29
tp2183
sg5
I200
sg6
(I139
I164
I77
I84
tp2184
sg8
(lp2185
(I136
I0
tp2186
a(I199
I0
tp2187
a(I200
I25
tp2188
a(I174
I43
tp2189
a(I138
I31
tp2190
asg26
I200
sba(imain2
Polygon
p2191
(dp2192
g3
(I77
I185
tp2193
sg5
I200
sg6
(I28
I25
I97
I104
tp2194
sg8
(lp2195
(I61
I200
tp2196
a(I63
I154
tp2197
a(I39
I143
tp2198
a(I124
I169
tp2199
a(I40
I180
tp2200
a(I42
I200
tp2201
a(I35
I180
tp2202
a(I81
I200
tp2203
a(I64
I192
tp2204
a(I49
I200
tp2205
asg26
I200
sba(imain2
Polygon
p2206
(dp2207
g3
(I183
I173
tp2208
sg5
I200
sg6
(I108
I215
I89
I49
tp2209
sg8
(lp2210
(I200
I200
tp2211
a(I175
I200
tp2212
a(I200
I200
tp2213
a(I200
I125
tp2214
a(I137
I200
tp2215
asg26
I200
sba(imain2
Polygon
p2216
(dp2217
g3
(I141
I78
tp2218
sg5
I200
sg6
(I232
I87
I167
I1
tp2219
sg8
(lp2220
(I99
I101
tp2221
a(I170
I93
tp2222
a(I134
I66
tp2223
a(I172
I128
tp2224
a(I113
I54
tp2225
a(I182
I84
tp2226
a(I156
I78
tp2227
a(I120
I98
tp2228
a(I177
I35
tp2229
asg26
I200
sba(imain2
Polygon
p2230
(dp2231
g3
(I8
I10
tp2232
sg5
I200
sg6
(I62
I43
I74
I109
tp2233
sg8
(lp2234
(I33
I4
tp2235
a(I0
I0
tp2236
a(I30
I6
tp2237
a(I32
I6
tp2238
a(I0
I0
tp2239
a(I0
I0
tp2240
asg26
I200
sba(imain2
Polygon
p2241
(dp2242
g3
(I37
I13
tp2243
sg5
I200
sg6
(I1
I115
I18
I124
tp2244
sg8
(lp2245
(I36
I0
tp2246
a(I16
I0
tp2247
a(I17
I0
tp2248
a(I19
I8
tp2249
a(I0
I0
tp2250
a(I47
I12
tp2251
a(I37
I0
tp2252
a(I2
I12
tp2253
a(I28
I0
tp2254
a(I38
I0
tp2255
a(I23
I13
tp2256
asg26
I200
sba(imain2
Polygon
p2257
(dp2258
g3
(I168
I175
tp2259
sg5
I200
sg6
(I97
I55
I24
I3
tp2260
sg8
(lp2261
(I152
I200
tp2262
a(I120
I181
tp2263
a(I146
I200
tp2264
a(I136
I167
tp2265
a(I200
I200
tp2266
a(I193
I183
tp2267
a(I142
I174
tp2268
a(I170
I133
tp2269
a(I200
I200
tp2270
a(I122
I174
tp2271
asg26
I200
sba(imain2
Polygon
p2272
(dp2273
g3
(I75
I83
tp2274
sg5
I200
sg6
(I27
I33
I20
I0
tp2275
sg8
(lp2276
(I114
I59
tp2277
a(I50
I113
tp2278
a(I120
I50
tp2279
a(I37
I102
tp2280
a(I36
I53
tp2281
a(I51
I69
tp2282
a(I64
I50
tp2283
a(I26
I108
tp2284
a(I111
I44
tp2285
a(I115
I36
tp2286
a(I101
I82
tp2287
a(I34
I44
tp2288
a(I53
I122
tp2289
a(I42
I130
tp2290
asg26
I200
sba(imain2
Polygon
p2291
(dp2292
g3
(I18
I79
tp2293
sg5
I200
sg6
(I81
I1
I175
I116
tp2294
sg8
(lp2295
(I61
I110
tp2296
a(I51
I115
tp2297
a(I44
I52
tp2298
a(I43
I101
tp2299
a(I25
I110
tp2300
a(I12
I123
tp2301
a(I0
I103
tp2302
a(I0
I117
tp2303
a(I39
I119
tp2304
asg26
I200
sba(imain2
Polygon
p2305
(dp2306
g3
(I27
I28
tp2307
sg5
I200
sg6
(I222
I145
I40
I1
tp2308
sg8
(lp2309
(I50
I74
tp2310
a(I58
I68
tp2311
a(I0
I0
tp2312
a(I58
I0
tp2313
a(I32
I0
tp2314
a(I0
I0
tp2315
a(I19
I2
tp2316
a(I9
I62
tp2317
a(I0
I42
tp2318
a(I0
I23
tp2319
a(I49
I6
tp2320
a(I68
I73
tp2321
a(I0
I39
tp2322
asg26
I200
sba(imain2
Polygon
p2323
(dp2324
g3
(I85
I60
tp2325
sg5
I200
sg6
(I84
I115
I12
I111
tp2326
sg8
(lp2327
(I115
I60
tp2328
a(I134
I87
tp2329
a(I55
I107
tp2330
a(I36
I62
tp2331
a(I72
I90
tp2332
a(I131
I73
tp2333
a(I117
I52
tp2334
a(I123
I32
tp2335
asg26
I200
sba(imain2
Polygon
p2336
(dp2337
g3
(I45
I110
tp2338
sg5
I200
sg6
(I42
I242
I179
I56
tp2339
sg8
(lp2340
(I68
I158
tp2341
a(I45
I112
tp2342
a(I72
I109
tp2343
asg26
I200
sba(imain2
Polygon
p2344
(dp2345
g3
(I54
I138
tp2346
sg5
I200
sg6
(I117
I64
I186
I1
tp2347
sg8
(lp2348
(I99
I90
tp2349
a(I21
I111
tp2350
a(I88
I174
tp2351
a(I91
I117
tp2352
a(I77
I110
tp2353
a(I14
I186
tp2354
a(I72
I137
tp2355
a(I84
I118
tp2356
asg26
I200
sba(imain2
Polygon
p2357
(dp2358
g3
(I162
I123
tp2359
sg5
I200
sg6
(I46
I60
I73
I18
tp2360
sg8
(lp2361
(I175
I164
tp2362
a(I153
I85
tp2363
a(I200
I137
tp2364
a(I200
I144
tp2365
a(I125
I137
tp2366
a(I200
I106
tp2367
a(I180
I124
tp2368
a(I188
I77
tp2369
a(I123
I93
tp2370
a(I158
I73
tp2371
a(I153
I87
tp2372
a(I158
I164
tp2373
a(I116
I146
tp2374
a(I156
I80
tp2375
a(I161
I109
tp2376
a(I196
I165
tp2377
a(I154
I106
tp2378
a(I171
I82
tp2379
a(I125
I109
tp2380
asg26
I200
sba(imain2
Polygon
p2381
(dp2382
g3
(I144
I70
tp2383
sg5
I200
sg6
(I194
I40
I118
I40
tp2384
sg8
(lp2385
(I149
I30
tp2386
a(I169
I95
tp2387
a(I168
I100
tp2388
asg26
I200
sba(imain2
Polygon
p2389
(dp2390
g3
(I11
I36
tp2391
sg5
I200
sg6
(I145
I32
I78
I32
tp2392
sg8
(lp2393
(I0
I24
tp2394
a(I32
I31
tp2395
a(I0
I45
tp2396
a(I0
I0
tp2397
a(I0
I0
tp2398
a(I0
I57
tp2399
a(I0
I47
tp2400
a(I29
I0
tp2401
a(I0
I35
tp2402
a(I1
I41
tp2403
asg26
I200
sba(imain2
Polygon
p2404
(dp2405
g3
(I85
I175
tp2406
sg5
I200
sg6
(I240
I53
I44
I1
tp2407
sg8
(lp2408
(I122
I200
tp2409
a(I89
I168
tp2410
a(I112
I137
tp2411
a(I110
I185
tp2412
a(I108
I186
tp2413
a(I42
I200
tp2414
a(I66
I189
tp2415
a(I114
I192
tp2416
a(I100
I188
tp2417
a(I38
I152
tp2418
a(I73
I175
tp2419
a(I109
I150
tp2420
a(I61
I131
tp2421
a(I89
I176
tp2422
a(I80
I162
tp2423
a(I116
I200
tp2424
asg26
I200
sba(imain2
Polygon
p2425
(dp2426
g3
(I78
I22
tp2427
sg5
I200
sg6
(I0
I239
I66
I1
tp2428
sg8
(lp2429
(I80
I54
tp2430
a(I86
I25
tp2431
a(I28
I18
tp2432
a(I112
I49
tp2433
a(I70
I29
tp2434
a(I90
I30
tp2435
a(I80
I0
tp2436
a(I127
I21
tp2437
a(I97
I0
tp2438
a(I97
I0
tp2439
asg26
I200
sba(imain2
Polygon
p2440
(dp2441
g3
(I58
I165
tp2442
sg5
I200
sg6
(I74
I1
I134
I96
tp2443
sg8
(lp2444
(I40
I160
tp2445
a(I10
I120
tp2446
a(I46
I164
tp2447
a(I43
I143
tp2448
asg26
I200
sba(imain2
Polygon
p2449
(dp2450
g3
(I98
I69
tp2451
sg5
I200
sg6
(I73
I213
I127
I37
tp2452
sg8
(lp2453
(I111
I113
tp2454
a(I126
I99
tp2455
a(I78
I90
tp2456
asg26
I200
sba(imain2
Polygon
p2457
(dp2458
g3
(I184
I193
tp2459
sg5
I200
sg6
(I18
I63
I70
I1
tp2460
sg8
(lp2461
(I197
I200
tp2462
a(I185
I200
tp2463
a(I200
I163
tp2464
a(I200
I200
tp2465
a(I159
I167
tp2466
a(I159
I200
tp2467
asg26
I200
sba(imain2
Polygon
p2468
(dp2469
g3
(I136
I181
tp2470
sg5
I200
sg6
(I120
I127
I190
I0
tp2471
sg8
(lp2472
(I148
I200
tp2473
a(I87
I180
tp2474
a(I129
I164
tp2475
a(I115
I142
tp2476
a(I116
I139
tp2477
a(I177
I146
tp2478
a(I127
I139
tp2479
a(I178
I200
tp2480
asg26
I200
sba(imain2
Polygon
p2481
(dp2482
g3
(I65
I69
tp2483
sg5
I200
sg6
(I101
I92
I153
I9
tp2484
sg8
(lp2485
(I24
I101
tp2486
a(I42
I83
tp2487
a(I89
I104
tp2488
a(I37
I106
tp2489
a(I63
I93
tp2490
a(I24
I110
tp2491
a(I37
I81
tp2492
a(I73
I48
tp2493
asg26
I200
sba(imain2
Polygon
p2494
(dp2495
g3
(I146
I60
tp2496
sg5
I200
sg6
(I1
I2
I200
I1
tp2497
sg8
(lp2498
(I167
I55
tp2499
a(I165
I71
tp2500
a(I126
I28
tp2501
a(I193
I89
tp2502
a(I176
I95
tp2503
asg26
I200
sba(imain2
Polygon
p2504
(dp2505
g3
(I7
I191
tp2506
sg5
I200
sg6
(I0
I165
I63
I1
tp2507
sg8
(lp2508
(I14
I198
tp2509
a(I53
I198
tp2510
a(I35
I200
tp2511
a(I0
I200
tp2512
a(I37
I200
tp2513
a(I0
I200
tp2514
a(I0
I195
tp2515
a(I56
I177
tp2516
a(I0
I187
tp2517
a(I0
I180
tp2518
a(I18
I200
tp2519
asg26
I200
sba(imain2
Polygon
p2520
(dp2521
g3
(I177
I12
tp2522
sg5
I200
sg6
(I0
I127
I138
I0
tp2523
sg8
(lp2524
(I179
I47
tp2525
a(I200
I31
tp2526
a(I131
I0
tp2527
a(I173
I62
tp2528
a(I181
I36
tp2529
a(I200
I50
tp2530
a(I148
I56
tp2531
a(I198
I11
tp2532
a(I200
I4
tp2533
asg26
I200
sba(imain2
Polygon
p2534
(dp2535
g3
(I98
I60
tp2536
sg5
I200
sg6
(I143
I36
I48
I0
tp2537
sg8
(lp2538
(I87
I83
tp2539
a(I57
I39
tp2540
a(I138
I25
tp2541
a(I80
I91
tp2542
a(I61
I79
tp2543
a(I147
I11
tp2544
a(I125
I68
tp2545
a(I120
I18
tp2546
asg26
I200
sba(imain2
Polygon
p2547
(dp2548
g3
(I26
I121
tp2549
sg5
I200
sg6
(I19
I114
I3
I89
tp2550
sg8
(lp2551
(I5
I167
tp2552
a(I39
I85
tp2553
a(I0
I101
tp2554
a(I0
I166
tp2555
a(I30
I111
tp2556
a(I14
I135
tp2557
a(I45
I83
tp2558
a(I52
I113
tp2559
a(I0
I157
tp2560
a(I37
I137
tp2561
asg26
I200
sba(imain2
Polygon
p2562
(dp2563
g3
(I59
I10
tp2564
sg5
I200
sg6
(I179
I55
I106
I133
tp2565
sg8
(lp2566
(I13
I0
tp2567
a(I70
I0
tp2568
a(I73
I6
tp2569
a(I69
I0
tp2570
a(I109
I0
tp2571
a(I63
I23
tp2572
a(I10
I0
tp2573
a(I17
I23
tp2574
asg26
I200
sba(imain2
Polygon
p2575
(dp2576
g3
(I171
I141
tp2577
sg5
I200
sg6
(I37
I196
I138
I1
tp2578
sg8
(lp2579
(I200
I170
tp2580
a(I145
I150
tp2581
a(I175
I116
tp2582
a(I198
I129
tp2583
a(I159
I188
tp2584
a(I190
I148
tp2585
a(I187
I97
tp2586
asg26
I200
sba(imain2
Polygon
p2587
(dp2588
g3
(I80
I143
tp2589
sg5
I200
sg6
(I73
I75
I11
I117
tp2590
sg8
(lp2591
(I106
I144
tp2592
a(I70
I145
tp2593
a(I93
I192
tp2594
a(I130
I187
tp2595
a(I107
I140
tp2596
a(I69
I128
tp2597
a(I62
I133
tp2598
a(I71
I170
tp2599
a(I89
I141
tp2600
a(I111
I114
tp2601
a(I86
I147
tp2602
asg26
I200
sba(imain2
Polygon
p2603
(dp2604
g3
(I191
I199
tp2605
sg5
I200
sg6
(I1
I223
I24
I0
tp2606
sg8
(lp2607
(I200
I185
tp2608
a(I156
I200
tp2609
a(I150
I150
tp2610
a(I191
I200
tp2611
a(I151
I170
tp2612
a(I200
I200
tp2613
a(I148
I149
tp2614
a(I141
I160
tp2615
asg26
I200
sba(imain2
Polygon
p2616
(dp2617
g3
(I6
I112
tp2618
sg5
I200
sg6
(I132
I70
I129
I66
tp2619
sg8
(lp2620
(I0
I137
tp2621
a(I0
I140
tp2622
a(I25
I84
tp2623
a(I0
I123
tp2624
a(I0
I104
tp2625
a(I0
I161
tp2626
a(I15
I79
tp2627
asg26
I200
sba(imain2
Polygon
p2628
(dp2629
g3
(I189
I37
tp2630
sg5
I200
sg6
(I31
I238
I163
I57
tp2631
sg8
(lp2632
(I200
I41
tp2633
a(I177
I46
tp2634
a(I200
I40
tp2635
a(I199
I1
tp2636
asg26
I200
sba(imain2
Polygon
p2637
(dp2638
g3
(I121
I50
tp2639
sg5
I200
sg6
(I5
I72
I0
I1
tp2640
sg8
(lp2641
(I94
I28
tp2642
a(I142
I7
tp2643
a(I160
I54
tp2644
asg26
I200
sba(imain2
Polygon
p2645
(dp2646
g3
(I58
I165
tp2647
sg5
I200
sg6
(I142
I99
I2
I0
tp2648
sg8
(lp2649
(I53
I140
tp2650
a(I36
I158
tp2651
a(I59
I187
tp2652
a(I95
I181
tp2653
a(I97
I177
tp2654
a(I50
I165
tp2655
a(I17
I134
tp2656
a(I99
I183
tp2657
a(I88
I129
tp2658
a(I56
I151
tp2659
a(I33
I161
tp2660
asg26
I200
sba(imain2
Polygon
p2661
(dp2662
g3
(I155
I38
tp2663
sg5
I200
sg6
(I100
I108
I236
I99
tp2664
sg8
(lp2665
(I160
I2
tp2666
a(I162
I13
tp2667
a(I165
I27
tp2668
asg26
I200
sba(imain2
Polygon
p2669
(dp2670
g3
(I80
I130
tp2671
sg5
I200
sg6
(I224
I90
I0
I122
tp2672
sg8
(lp2673
(I90
I107
tp2674
a(I38
I91
tp2675
a(I127
I91
tp2676
a(I86
I180
tp2677
a(I90
I97
tp2678
a(I42
I107
tp2679
a(I57
I140
tp2680
a(I81
I161
tp2681
a(I95
I173
tp2682
a(I77
I124
tp2683
a(I91
I85
tp2684
a(I88
I146
tp2685
asg26
I200
sba(imain2
Polygon
p2686
(dp2687
g3
(I182
I31
tp2688
sg5
I200
sg6
(I112
I85
I112
I0
tp2689
sg8
(lp2690
(I200
I3
tp2691
a(I198
I51
tp2692
a(I135
I9
tp2693
a(I195
I0
tp2694
a(I164
I0
tp2695
a(I200
I47
tp2696
a(I151
I81
tp2697
a(I200
I11
tp2698
a(I200
I57
tp2699
a(I200
I0
tp2700
a(I196
I75
tp2701
a(I187
I0
tp2702
a(I200
I15
tp2703
a(I143
I33
tp2704
a(I195
I67
tp2705
a(I196
I17
tp2706
a(I192
I0
tp2707
a(I200
I72
tp2708
a(I148
I66
tp2709
a(I190
I38
tp2710
a(I200
I28
tp2711
asg26
I200
sba(imain2
Polygon
p2712
(dp2713
g3
(I164
I132
tp2714
sg5
I200
sg6
(I50
I68
I1
I1
tp2715
sg8
(lp2716
(I162
I178
tp2717
a(I168
I181
tp2718
a(I125
I177
tp2719
a(I158
I139
tp2720
a(I146
I102
tp2721
a(I128
I98
tp2722
a(I167
I103
tp2723
a(I128
I88
tp2724
a(I138
I162
tp2725
a(I122
I127
tp2726
a(I152
I121
tp2727
a(I122
I170
tp2728
a(I184
I174
tp2729
a(I165
I119
tp2730
a(I185
I112
tp2731
asg26
I200
sba(imain2
Polygon
p2732
(dp2733
g3
(I67
I123
tp2734
sg5
I200
sg6
(I203
I169
I128
I74
tp2735
sg8
(lp2736
(I114
I101
tp2737
a(I112
I148
tp2738
a(I65
I154
tp2739
a(I43
I93
tp2740
a(I96
I92
tp2741
a(I107
I100
tp2742
a(I49
I107
tp2743
a(I115
I104
tp2744
a(I46
I107
tp2745
a(I101
I102
tp2746
asg26
I200
sba(imain2
Polygon
p2747
(dp2748
g3
(I139
I46
tp2749
sg5
I200
sg6
(I2
I111
I83
I81
tp2750
sg8
(lp2751
(I185
I84
tp2752
a(I137
I74
tp2753
a(I164
I79
tp2754
asg26
I200
sba(imain2
Polygon
p2755
(dp2756
g3
(I137
I13
tp2757
sg5
I200
sg6
(I203
I131
I221
I5
tp2758
sg8
(lp2759
(I165
I0
tp2760
a(I179
I43
tp2761
a(I165
I55
tp2762
a(I117
I0
tp2763
a(I139
I19
tp2764
a(I157
I0
tp2765
a(I100
I0
tp2766
a(I88
I17
tp2767
a(I160
I57
tp2768
a(I126
I14
tp2769
asg26
I200
sba(imain2
Polygon
p2770
(dp2771
g3
(I72
I81
tp2772
sg5
I200
sg6
(I239
I108
I82
I1
tp2773
sg8
(lp2774
(I113
I53
tp2775
a(I48
I109
tp2776
a(I26
I64
tp2777
a(I41
I126
tp2778
a(I50
I126
tp2779
a(I81
I126
tp2780
a(I73
I64
tp2781
a(I63
I131
tp2782
asg26
I200
sba(imain2
Polygon
p2783
(dp2784
g3
(I24
I70
tp2785
sg5
I200
sg6
(I6
I225
I10
I14
tp2786
sg8
(lp2787
(I37
I25
tp2788
a(I72
I32
tp2789
a(I2
I21
tp2790
a(I0
I105
tp2791
a(I15
I106
tp2792
a(I52
I117
tp2793
a(I46
I40
tp2794
a(I22
I27
tp2795
asg26
I200
sba(imain2
Polygon
p2796
(dp2797
g3
(I144
I200
tp2798
sg5
I200
sg6
(I123
I88
I11
I1
tp2799
sg8
(lp2800
(I150
I159
tp2801
a(I118
I198
tp2802
a(I107
I168
tp2803
a(I185
I200
tp2804
a(I183
I167
tp2805
a(I157
I158
tp2806
a(I147
I151
tp2807
a(I181
I194
tp2808
a(I186
I200
tp2809
a(I129
I178
tp2810
a(I168
I183
tp2811
a(I124
I200
tp2812
a(I174
I196
tp2813
a(I117
I165
tp2814
a(I105
I200
tp2815
a(I162
I183
tp2816
a(I175
I200
tp2817
a(I114
I189
tp2818
a(I145
I200
tp2819
a(I142
I200
tp2820
asg26
I200
sba(imain2
Polygon
p2821
(dp2822
g3
(I63
I64
tp2823
sg5
I200
sg6
(I193
I193
I45
I4
tp2824
sg8
(lp2825
(I100
I49
tp2826
a(I18
I106
tp2827
a(I18
I45
tp2828
a(I97
I38
tp2829
a(I97
I107
tp2830
a(I35
I89
tp2831
a(I48
I88
tp2832
asg26
I200
sba(imain2
Polygon
p2833
(dp2834
g3
(I87
I65
tp2835
sg5
I200
sg6
(I216
I57
I100
I0
tp2836
sg8
(lp2837
(I54
I64
tp2838
a(I52
I99
tp2839
a(I86
I83
tp2840
a(I123
I74
tp2841
a(I77
I94
tp2842
a(I137
I35
tp2843
a(I46
I106
tp2844
a(I81
I46
tp2845
a(I103
I111
tp2846
a(I96
I80
tp2847
asg26
I200
sba(imain2
Polygon
p2848
(dp2849
g3
(I110
I191
tp2850
sg5
I200
sg6
(I162
I198
I225
I1
tp2851
sg8
(lp2852
(I150
I191
tp2853
a(I98
I178
tp2854
a(I157
I152
tp2855
a(I83
I180
tp2856
a(I85
I161
tp2857
a(I111
I200
tp2858
a(I151
I182
tp2859
a(I118
I200
tp2860
a(I62
I200
tp2861
asg26
I200
sba(imain2
Polygon
p2862
(dp2863
g3
(I108
I110
tp2864
sg5
I200
sg6
(I99
I178
I165
I0
tp2865
sg8
(lp2866
(I101
I127
tp2867
a(I104
I96
tp2868
a(I75
I84
tp2869
a(I112
I93
tp2870
a(I76
I126
tp2871
a(I100
I157
tp2872
asg26
I200
sba(imain2
Polygon
p2873
(dp2874
g3
(I112
I52
tp2875
sg5
I200
sg6
(I81
I201
I81
I104
tp2876
sg8
(lp2877
(I158
I54
tp2878
a(I118
I63
tp2879
a(I149
I58
tp2880
asg26
I200
sba.