(lp0
(imain2
Polygon
p1
(dp2
S'origin'
p3
(I39
I29
tp4
sS'h'
p5
I200
sS'color'
p6
(I202
I28
I144
I142
tp7
sS'corner_list'
p8
(lp9
(I75
I0
tp10
a(I50
I58
tp11
a(I71
I41
tp12
a(I21
I73
tp13
a(I87
I42
tp14
a(I25
I68
tp15
a(I50
I57
tp16
a(I81
I18
tp17
a(I34
I52
tp18
a(I0
I0
tp19
a(I77
I69
tp20
a(I13
I58
tp21
a(I67
I50
tp22
asS'w'
p23
I200
sba(imain2
Polygon
p24
(dp25
g3
(I66
I177
tp26
sg5
I200
sg6
(I142
I67
I51
I83
tp27
sg8
(lp28
(I97
I153
tp29
a(I61
I161
tp30
a(I96
I200
tp31
a(I90
I140
tp32
a(I74
I200
tp33
a(I45
I185
tp34
asg23
I200
sba(imain2
Polygon
p35
(dp36
g3
(I59
I53
tp37
sg5
I200
sg6
(I111
I51
I117
I191
tp38
sg8
(lp39
(I25
I69
tp40
a(I89
I41
tp41
a(I104
I16
tp42
a(I50
I75
tp43
a(I37
I45
tp44
a(I90
I95
tp45
a(I34
I84
tp46
a(I95
I72
tp47
a(I61
I29
tp48
a(I75
I50
tp49
a(I83
I99
tp50
a(I104
I50
tp51
a(I86
I14
tp52
a(I29
I44
tp53
a(I46
I64
tp54
a(I23
I90
tp55
a(I14
I50
tp56
asg23
I200
sba(imain2
Polygon
p57
(dp58
g3
(I79
I99
tp59
sg5
I200
sg6
(I75
I92
I77
I150
tp60
sg8
(lp61
(I76
I104
tp62
a(I116
I62
tp63
a(I118
I81
tp64
a(I67
I145
tp65
a(I118
I101
tp66
a(I81
I89
tp67
a(I29
I129
tp68
a(I101
I86
tp69
a(I95
I66
tp70
a(I102
I105
tp71
a(I74
I127
tp72
a(I89
I143
tp73
a(I124
I89
tp74
asg23
I200
sba(imain2
Polygon
p75
(dp76
g3
(I200
I83
tp77
sg5
I200
sg6
(I174
I234
I69
I50
tp78
sg8
(lp79
(I188
I55
tp80
a(I200
I76
tp81
a(I178
I118
tp82
a(I153
I33
tp83
a(I179
I34
tp84
a(I200
I78
tp85
a(I200
I93
tp86
a(I200
I117
tp87
a(I169
I83
tp88
a(I200
I101
tp89
a(I200
I129
tp90
asg23
I200
sba(imain2
Polygon
p91
(dp92
g3
(I48
I136
tp93
sg5
I200
sg6
(I110
I116
I153
I137
tp94
sg8
(lp95
(I62
I112
tp96
a(I70
I90
tp97
a(I61
I150
tp98
a(I48
I161
tp99
a(I95
I131
tp100
a(I50
I122
tp101
a(I82
I166
tp102
a(I96
I169
tp103
a(I76
I91
tp104
a(I59
I157
tp105
a(I17
I125
tp106
a(I60
I174
tp107
a(I41
I156
tp108
a(I41
I131
tp109
a(I84
I103
tp110
a(I14
I123
tp111
a(I12
I95
tp112
a(I44
I147
tp113
asg23
I200
sba(imain2
Polygon
p114
(dp115
g3
(I118
I72
tp116
sg5
I200
sg6
(I140
I143
I65
I110
tp117
sg8
(lp118
(I111
I105
tp119
a(I144
I33
tp120
a(I120
I95
tp121
a(I93
I53
tp122
a(I154
I66
tp123
a(I148
I89
tp124
a(I133
I55
tp125
a(I134
I42
tp126
a(I127
I82
tp127
a(I92
I110
tp128
a(I103
I38
tp129
a(I69
I73
tp130
a(I97
I26
tp131
a(I148
I56
tp132
asg23
I200
sba(imain2
Polygon
p133
(dp134
g3
(I75
I194
tp135
sg5
I200
sg6
(I216
I94
I112
I62
tp136
sg8
(lp137
(I93
I170
tp138
a(I93
I179
tp139
a(I104
I183
tp140
a(I111
I200
tp141
a(I25
I171
tp142
a(I25
I152
tp143
a(I40
I188
tp144
a(I100
I153
tp145
a(I96
I148
tp146
a(I40
I200
tp147
asg23
I200
sba(imain2
Polygon
p148
(dp149
g3
(I7
I180
tp150
sg5
I200
sg6
(I239
I41
I1
I1
tp151
sg8
(lp152
(I0
I179
tp153
a(I0
I145
tp154
a(I53
I161
tp155
a(I38
I200
tp156
a(I0
I196
tp157
a(I20
I179
tp158
a(I32
I188
tp159
a(I48
I164
tp160
a(I0
I200
tp161
a(I24
I200
tp162
a(I0
I136
tp163
a(I0
I199
tp164
asg23
I200
sba(imain2
Polygon
p165
(dp166
g3
(I200
I5
tp167
sg5
I200
sg6
(I172
I77
I117
I82
tp168
sg8
(lp169
(I181
I45
tp170
a(I200
I0
tp171
a(I200
I0
tp172
a(I200
I4
tp173
a(I200
I50
tp174
a(I199
I0
tp175
a(I162
I46
tp176
a(I169
I0
tp177
a(I200
I0
tp178
a(I200
I53
tp179
a(I188
I52
tp180
a(I200
I0
tp181
asg23
I200
sba(imain2
Polygon
p182
(dp183
g3
(I180
I27
tp184
sg5
I200
sg6
(I111
I118
I160
I0
tp185
sg8
(lp186
(I171
I2
tp187
a(I200
I2
tp188
a(I200
I34
tp189
a(I150
I16
tp190
a(I170
I0
tp191
a(I169
I45
tp192
a(I198
I58
tp193
a(I200
I53
tp194
a(I159
I10
tp195
a(I154
I65
tp196
a(I160
I44
tp197
asg23
I200
sba(imain2
Polygon
p198
(dp199
g3
(I59
I197
tp200
sg5
I200
sg6
(I88
I215
I141
I189
tp201
sg8
(lp202
(I11
I200
tp203
a(I47
I200
tp204
a(I78
I154
tp205
a(I62
I200
tp206
a(I58
I200
tp207
asg23
I200
sba(imain2
Polygon
p208
(dp209
g3
(I129
I124
tp210
sg5
I200
sg6
(I177
I193
I99
I124
tp211
sg8
(lp212
(I81
I152
tp213
a(I130
I147
tp214
a(I80
I155
tp215
a(I82
I139
tp216
a(I139
I74
tp217
a(I113
I126
tp218
a(I91
I105
tp219
a(I105
I109
tp220
a(I127
I134
tp221
a(I80
I81
tp222
asg23
I200
sba(imain2
Polygon
p223
(dp224
g3
(I107
I2
tp225
sg5
I200
sg6
(I56
I1
I164
I170
tp226
sg8
(lp227
(I120
I0
tp228
a(I136
I12
tp229
a(I63
I0
tp230
a(I89
I7
tp231
a(I64
I0
tp232
a(I135
I37
tp233
a(I147
I26
tp234
a(I80
I0
tp235
a(I115
I0
tp236
a(I64
I10
tp237
asg23
I200
sba(imain2
Polygon
p238
(dp239
g3
(I25
I107
tp240
sg5
I200
sg6
(I106
I33
I177
I14
tp241
sg8
(lp242
(I30
I137
tp243
a(I55
I139
tp244
a(I61
I148
tp245
a(I0
I84
tp246
a(I53
I134
tp247
a(I0
I78
tp248
a(I0
I153
tp249
a(I0
I70
tp250
a(I51
I103
tp251
a(I0
I124
tp252
a(I0
I145
tp253
a(I59
I97
tp254
a(I51
I120
tp255
a(I73
I150
tp256
asg23
I200
sba(imain2
Polygon
p257
(dp258
g3
(I194
I197
tp259
sg5
I200
sg6
(I16
I201
I66
I152
tp260
sg8
(lp261
(I191
I163
tp262
a(I200
I200
tp263
a(I200
I200
tp264
a(I181
I200
tp265
a(I200
I194
tp266
a(I200
I147
tp267
a(I200
I180
tp268
a(I192
I200
tp269
a(I200
I183
tp270
a(I193
I148
tp271
asg23
I200
sba(imain2
Polygon
p272
(dp273
g3
(I8
I2
tp274
sg5
I200
sg6
(I208
I201
I221
I7
tp275
sg8
(lp276
(I11
I49
tp277
a(I34
I47
tp278
a(I42
I0
tp279
a(I16
I0
tp280
a(I54
I26
tp281
a(I0
I26
tp282
a(I0
I38
tp283
a(I52
I1
tp284
a(I0
I49
tp285
a(I0
I0
tp286
a(I26
I0
tp287
asg23
I200
sba(imain2
Polygon
p288
(dp289
g3
(I171
I144
tp290
sg5
I200
sg6
(I113
I161
I195
I0
tp291
sg8
(lp292
(I182
I152
tp293
a(I155
I175
tp294
a(I136
I96
tp295
a(I136
I188
tp296
asg23
I200
sba(imain2
Polygon
p297
(dp298
g3
(I44
I42
tp299
sg5
I200
sg6
(I86
I138
I79
I47
tp300
sg8
(lp301
(I38
I36
tp302
a(I83
I2
tp303
a(I5
I77
tp304
a(I65
I67
tp305
a(I26
I13
tp306
a(I65
I5
tp307
asg23
I200
sba(imain2
Polygon
p308
(dp309
g3
(I26
I99
tp310
sg5
I200
sg6
(I178
I100
I173
I130
tp311
sg8
(lp312
(I0
I62
tp313
a(I11
I144
tp314
a(I25
I114
tp315
a(I31
I63
tp316
a(I17
I125
tp317
a(I0
I132
tp318
asg23
I200
sba(imain2
Polygon
p319
(dp320
g3
(I114
I46
tp321
sg5
I200
sg6
(I101
I196
I197
I0
tp322
sg8
(lp323
(I82
I10
tp324
a(I162
I95
tp325
a(I130
I25
tp326
a(I161
I16
tp327
a(I163
I68
tp328
asg23
I200
sba(imain2
Polygon
p329
(dp330
g3
(I68
I194
tp331
sg5
I200
sg6
(I92
I200
I154
I1
tp332
sg8
(lp333
(I33
I162
tp334
a(I72
I150
tp335
a(I100
I184
tp336
a(I94
I200
tp337
a(I90
I198
tp338
a(I92
I153
tp339
a(I108
I149
tp340
a(I73
I200
tp341
a(I48
I178
tp342
asg23
I200
sba(imain2
Polygon
p343
(dp344
g3
(I200
I53
tp345
sg5
I200
sg6
(I184
I186
I166
I45
tp346
sg8
(lp347
(I197
I30
tp348
a(I200
I23
tp349
a(I200
I60
tp350
a(I166
I61
tp351
a(I200
I53
tp352
a(I200
I14
tp353
a(I198
I5
tp354
asg23
I200
sba(imain2
Polygon
p355
(dp356
g3
(I172
I155
tp357
sg5
I200
sg6
(I202
I85
I247
I0
tp358
sg8
(lp359
(I189
I159
tp360
a(I200
I184
tp361
a(I200
I161
tp362
a(I152
I166
tp363
a(I155
I121
tp364
a(I166
I117
tp365
a(I200
I142
tp366
a(I150
I106
tp367
a(I155
I188
tp368
a(I133
I169
tp369
a(I200
I149
tp370
a(I200
I117
tp371
a(I171
I116
tp372
a(I135
I131
tp373
a(I171
I163
tp374
asg23
I200
sba(imain2
Polygon
p375
(dp376
g3
(I154
I159
tp377
sg5
I200
sg6
(I62
I209
I39
I36
tp378
sg8
(lp379
(I108
I200
tp380
a(I162
I187
tp381
a(I180
I120
tp382
a(I200
I200
tp383
a(I138
I200
tp384
a(I162
I132
tp385
a(I120
I128
tp386
a(I106
I117
tp387
a(I118
I117
tp388
a(I126
I113
tp389
a(I139
I131
tp390
a(I165
I156
tp391
a(I200
I196
tp392
asg23
I200
sba(imain2
Polygon
p393
(dp394
g3
(I55
I59
tp395
sg5
I200
sg6
(I77
I204
I205
I3
tp396
sg8
(lp397
(I22
I77
tp398
a(I24
I90
tp399
a(I95
I80
tp400
a(I29
I103
tp401
a(I54
I77
tp402
a(I20
I37
tp403
a(I50
I16
tp404
a(I105
I96
tp405
a(I101
I47
tp406
a(I67
I57
tp407
asg23
I200
sba(imain2
Polygon
p408
(dp409
g3
(I127
I147
tp410
sg5
I200
sg6
(I47
I74
I124
I161
tp411
sg8
(lp412
(I87
I157
tp413
a(I124
I148
tp414
a(I97
I167
tp415
a(I91
I163
tp416
a(I103
I104
tp417
a(I122
I150
tp418
a(I135
I136
tp419
asg23
I200
sba(imain2
Polygon
p420
(dp421
g3
(I123
I114
tp422
sg5
I200
sg6
(I118
I1
I11
I0
tp423
sg8
(lp424
(I110
I102
tp425
a(I74
I82
tp426
a(I152
I135
tp427
a(I105
I153
tp428
a(I148
I127
tp429
a(I144
I130
tp430
a(I96
I86
tp431
a(I111
I127
tp432
a(I128
I127
tp433
asg23
I200
sba(imain2
Polygon
p434
(dp435
g3
(I2
I51
tp436
sg5
I200
sg6
(I129
I146
I228
I0
tp437
sg8
(lp438
(I42
I66
tp439
a(I0
I8
tp440
a(I0
I23
tp441
a(I29
I34
tp442
a(I42
I71
tp443
a(I0
I15
tp444
a(I1
I23
tp445
a(I0
I32
tp446
a(I0
I42
tp447
a(I34
I56
tp448
a(I0
I84
tp449
asg23
I200
sba(imain2
Polygon
p450
(dp451
g3
(I166
I21
tp452
sg5
I200
sg6
(I214
I250
I220
I113
tp453
sg8
(lp454
(I200
I0
tp455
a(I200
I59
tp456
a(I169
I70
tp457
a(I131
I0
tp458
a(I134
I5
tp459
a(I193
I6
tp460
a(I137
I3
tp461
a(I145
I0
tp462
a(I118
I13
tp463
a(I135
I0
tp464
asg23
I200
sba(imain2
Polygon
p465
(dp466
g3
(I110
I91
tp467
sg5
I200
sg6
(I128
I41
I33
I30
tp468
sg8
(lp469
(I101
I84
tp470
a(I65
I112
tp471
a(I143
I126
tp472
a(I85
I140
tp473
a(I107
I48
tp474
a(I109
I69
tp475
a(I111
I86
tp476
a(I118
I55
tp477
a(I62
I50
tp478
a(I120
I75
tp479
a(I121
I62
tp480
a(I94
I122
tp481
a(I108
I105
tp482
a(I93
I82
tp483
asg23
I200
sba(imain2
Polygon
p484
(dp485
g3
(I148
I41
tp486
sg5
I200
sg6
(I161
I1
I214
I18
tp487
sg8
(lp488
(I184
I1
tp489
a(I113
I5
tp490
a(I190
I74
tp491
a(I131
I32
tp492
a(I117
I0
tp493
a(I136
I11
tp494
a(I104
I49
tp495
a(I177
I88
tp496
a(I188
I91
tp497
a(I119
I32
tp498
a(I182
I0
tp499
a(I188
I52
tp500
a(I197
I59
tp501
asg23
I200
sba(imain2
Polygon
p502
(dp503
g3
(I188
I159
tp504
sg5
I200
sg6
(I167
I71
I71
I0
tp505
sg8
(lp506
(I145
I178
tp507
a(I177
I174
tp508
a(I171
I200
tp509
a(I200
I170
tp510
a(I200
I122
tp511
a(I182
I123
tp512
a(I200
I145
tp513
a(I157
I188
tp514
a(I200
I157
tp515
a(I174
I158
tp516
asg23
I200
sba(imain2
Polygon
p517
(dp518
g3
(I55
I106
tp519
sg5
I200
sg6
(I60
I93
I51
I47
tp520
sg8
(lp521
(I84
I154
tp522
a(I29
I78
tp523
a(I84
I82
tp524
a(I68
I76
tp525
a(I35
I150
tp526
a(I48
I102
tp527
a(I74
I62
tp528
a(I38
I88
tp529
a(I44
I120
tp530
a(I75
I129
tp531
a(I37
I105
tp532
a(I69
I101
tp533
asg23
I200
sba(imain2
Polygon
p534
(dp535
g3
(I118
I64
tp536
sg5
I200
sg6
(I136
I42
I9
I74
tp537
sg8
(lp538
(I161
I20
tp539
a(I98
I67
tp540
a(I154
I55
tp541
a(I139
I69
tp542
a(I86
I30
tp543
a(I111
I49
tp544
a(I103
I16
tp545
a(I140
I53
tp546
a(I135
I63
tp547
a(I121
I14
tp548
a(I163
I36
tp549
a(I123
I57
tp550
a(I106
I22
tp551
asg23
I200
sba(imain2
Polygon
p552
(dp553
g3
(I101
I127
tp554
sg5
I200
sg6
(I89
I176
I97
I120
tp555
sg8
(lp556
(I88
I173
tp557
a(I51
I104
tp558
a(I118
I116
tp559
a(I112
I109
tp560
asg23
I200
sba(imain2
Polygon
p561
(dp562
g3
(I42
I89
tp563
sg5
I200
sg6
(I22
I93
I186
I0
tp564
sg8
(lp565
(I58
I128
tp566
a(I4
I98
tp567
a(I0
I72
tp568
a(I56
I39
tp569
a(I38
I98
tp570
a(I67
I88
tp571
a(I6
I49
tp572
a(I51
I104
tp573
a(I80
I100
tp574
asg23
I200
sba(imain2
Polygon
p575
(dp576
g3
(I71
I151
tp577
sg5
I200
sg6
(I155
I176
I226
I176
tp578
sg8
(lp579
(I26
I127
tp580
a(I97
I130
tp581
a(I48
I147
tp582
a(I115
I198
tp583
a(I58
I198
tp584
a(I54
I143
tp585
a(I88
I135
tp586
a(I69
I109
tp587
a(I94
I159
tp588
a(I72
I159
tp589
a(I78
I154
tp590
a(I120
I142
tp591
asg23
I200
sba(imain2
Polygon
p592
(dp593
g3
(I13
I141
tp594
sg5
I200
sg6
(I248
I0
I199
I59
tp595
sg8
(lp596
(I0
I116
tp597
a(I0
I122
tp598
a(I51
I129
tp599
a(I32
I178
tp600
a(I28
I113
tp601
a(I0
I160
tp602
a(I48
I181
tp603
a(I34
I99
tp604
a(I20
I166
tp605
a(I12
I125
tp606
a(I51
I115
tp607
a(I33
I112
tp608
a(I43
I119
tp609
asg23
I200
sba(imain2
Polygon
p610
(dp611
g3
(I37
I11
tp612
sg5
I200
sg6
(I118
I27
I16
I150
tp613
sg8
(lp614
(I27
I31
tp615
a(I42
I50
tp616
a(I27
I43
tp617
a(I24
I20
tp618
a(I54
I59
tp619
a(I0
I0
tp620
a(I36
I0
tp621
a(I36
I61
tp622
asg23
I200
sba(imain2
Polygon
p623
(dp624
g3
(I97
I114
tp625
sg5
I200
sg6
(I153
I12
I205
I131
tp626
sg8
(lp627
(I79
I77
tp628
a(I105
I120
tp629
a(I102
I98
tp630
a(I132
I92
tp631
a(I60
I136
tp632
a(I62
I68
tp633
a(I76
I84
tp634
a(I59
I129
tp635
a(I93
I72
tp636
a(I89
I93
tp637
a(I60
I147
tp638
a(I74
I133
tp639
asg23
I200
sba(imain2
Polygon
p640
(dp641
g3
(I77
I12
tp642
sg5
I200
sg6
(I108
I3
I202
I1
tp643
sg8
(lp644
(I38
I0
tp645
a(I28
I4
tp646
a(I63
I0
tp647
a(I90
I0
tp648
a(I104
I8
tp649
a(I96
I5
tp650
a(I91
I39
tp651
a(I100
I22
tp652
asg23
I200
sba(imain2
Polygon
p653
(dp654
g3
(I114
I16
tp655
sg5
I200
sg6
(I3
I104
I180
I187
tp656
sg8
(lp657
(I157
I39
tp658
a(I125
I3
tp659
a(I131
I53
tp660
a(I113
I53
tp661
a(I68
I0
tp662
a(I90
I44
tp663
a(I103
I0
tp664
a(I104
I2
tp665
asg23
I200
sba(imain2
Polygon
p666
(dp667
g3
(I150
I10
tp668
sg5
I200
sg6
(I114
I62
I229
I203
tp669
sg8
(lp670
(I103
I60
tp671
a(I125
I6
tp672
a(I140
I0
tp673
a(I106
I0
tp674
a(I112
I48
tp675
a(I104
I2
tp676
a(I119
I0
tp677
a(I109
I0
tp678
a(I139
I23
tp679
a(I133
I35
tp680
asg23
I200
sba(imain2
Polygon
p681
(dp682
g3
(I41
I10
tp683
sg5
I200
sg6
(I118
I208
I91
I15
tp684
sg8
(lp685
(I0
I0
tp686
a(I0
I0
tp687
a(I0
I0
tp688
a(I31
I0
tp689
asg23
I200
sba(imain2
Polygon
p690
(dp691
g3
(I174
I159
tp692
sg5
I200
sg6
(I174
I114
I91
I147
tp693
sg8
(lp694
(I200
I134
tp695
a(I200
I200
tp696
a(I182
I137
tp697
a(I187
I165
tp698
a(I168
I170
tp699
a(I189
I168
tp700
a(I200
I137
tp701
a(I200
I128
tp702
a(I177
I196
tp703
asg23
I200
sba(imain2
Polygon
p704
(dp705
g3
(I61
I97
tp706
sg5
I200
sg6
(I125
I39
I113
I146
tp707
sg8
(lp708
(I26
I84
tp709
a(I74
I104
tp710
a(I45
I102
tp711
a(I48
I106
tp712
a(I19
I138
tp713
a(I53
I101
tp714
a(I24
I84
tp715
asg23
I200
sba(imain2
Polygon
p716
(dp717
g3
(I180
I97
tp718
sg5
I200
sg6
(I167
I160
I206
I48
tp719
sg8
(lp720
(I200
I66
tp721
a(I192
I84
tp722
a(I200
I121
tp723
a(I200
I92
tp724
a(I200
I112
tp725
a(I184
I140
tp726
a(I160
I74
tp727
asg23
I200
sba(imain2
Polygon
p728
(dp729
g3
(I101
I122
tp730
sg5
I200
sg6
(I170
I89
I3
I118
tp731
sg8
(lp732
(I54
I94
tp733
a(I110
I76
tp734
a(I70
I104
tp735
a(I132
I81
tp736
a(I127
I133
tp737
a(I119
I131
tp738
a(I70
I165
tp739
a(I72
I125
tp740
a(I110
I162
tp741
a(I97
I153
tp742
a(I99
I162
tp743
a(I141
I111
tp744
a(I92
I91
tp745
a(I55
I115
tp746
a(I111
I162
tp747
a(I84
I143
tp748
asg23
I200
sba(imain2
Polygon
p749
(dp750
g3
(I131
I15
tp751
sg5
I200
sg6
(I61
I129
I132
I40
tp752
sg8
(lp753
(I105
I25
tp754
a(I138
I34
tp755
a(I111
I61
tp756
a(I122
I36
tp757
a(I121
I7
tp758
a(I175
I55
tp759
a(I125
I27
tp760
a(I82
I53
tp761
a(I115
I13
tp762
a(I102
I0
tp763
a(I134
I44
tp764
asg23
I200
sba(imain2
Polygon
p765
(dp766
g3
(I113
I24
tp767
sg5
I200
sg6
(I159
I244
I1
I13
tp768
sg8
(lp769
(I79
I0
tp770
a(I127
I0
tp771
a(I131
I65
tp772
a(I83
I0
tp773
a(I69
I59
tp774
a(I139
I24
tp775
a(I71
I42
tp776
a(I98
I13
tp777
a(I107
I61
tp778
a(I144
I0
tp779
a(I114
I25
tp780
asg23
I200
sba(imain2
Polygon
p781
(dp782
g3
(I15
I21
tp783
sg5
I200
sg6
(I50
I45
I28
I12
tp784
sg8
(lp785
(I5
I4
tp786
a(I0
I43
tp787
a(I7
I51
tp788
a(I7
I45
tp789
a(I36
I36
tp790
a(I0
I0
tp791
a(I62
I12
tp792
a(I0
I49
tp793
a(I0
I11
tp794
asg23
I200
sba(imain2
Polygon
p795
(dp796
g3
(I75
I18
tp797
sg5
I200
sg6
(I121
I127
I41
I191
tp798
sg8
(lp799
(I31
I0
tp800
a(I27
I44
tp801
a(I48
I49
tp802
a(I76
I31
tp803
a(I93
I0
tp804
a(I125
I21
tp805
a(I33
I4
tp806
a(I69
I4
tp807
a(I35
I13
tp808
a(I100
I47
tp809
a(I56
I62
tp810
a(I107
I57
tp811
a(I39
I57
tp812
a(I109
I2
tp813
a(I38
I29
tp814
a(I59
I0
tp815
a(I38
I0
tp816
a(I125
I21
tp817
asg23
I200
sba(imain2
Polygon
p818
(dp819
g3
(I147
I31
tp820
sg5
I200
sg6
(I245
I7
I229
I205
tp821
sg8
(lp822
(I178
I16
tp823
a(I126
I3
tp824
a(I164
I35
tp825
a(I125
I0
tp826
a(I108
I0
tp827
a(I106
I0
tp828
a(I181
I37
tp829
a(I176
I30
tp830
a(I192
I21
tp831
a(I163
I31
tp832
a(I104
I0
tp833
asg23
I200
sba(imain2
Polygon
p834
(dp835
g3
(I43
I128
tp836
sg5
I200
sg6
(I91
I29
I112
I184
tp837
sg8
(lp838
(I86
I79
tp839
a(I83
I115
tp840
a(I25
I159
tp841
a(I92
I107
tp842
a(I47
I154
tp843
a(I68
I137
tp844
a(I83
I79
tp845
a(I85
I117
tp846
a(I28
I116
tp847
asg23
I200
sba(imain2
Polygon
p848
(dp849
g3
(I191
I52
tp850
sg5
I200
sg6
(I144
I147
I104
I1
tp851
sg8
(lp852
(I187
I78
tp853
a(I147
I82
tp854
a(I147
I38
tp855
a(I177
I21
tp856
a(I196
I71
tp857
a(I170
I65
tp858
a(I200
I56
tp859
a(I200
I28
tp860
a(I200
I2
tp861
a(I185
I45
tp862
asg23
I200
sba(imain2
Polygon
p863
(dp864
g3
(I124
I96
tp865
sg5
I200
sg6
(I229
I90
I127
I0
tp866
sg8
(lp867
(I145
I140
tp868
a(I115
I102
tp869
a(I114
I77
tp870
a(I153
I64
tp871
a(I76
I85
tp872
a(I152
I72
tp873
a(I135
I98
tp874
asg23
I200
sba(imain2
Polygon
p875
(dp876
g3
(I14
I107
tp877
sg5
I200
sg6
(I62
I5
I224
I194
tp878
sg8
(lp879
(I0
I102
tp880
a(I0
I84
tp881
a(I55
I151
tp882
a(I0
I101
tp883
a(I8
I148
tp884
a(I0
I99
tp885
a(I2
I130
tp886
a(I0
I150
tp887
asg23
I200
sba(imain2
Polygon
p888
(dp889
g3
(I84
I159
tp890
sg5
I200
sg6
(I57
I17
I197
I0
tp891
sg8
(lp892
(I41
I120
tp893
a(I130
I128
tp894
a(I51
I145
tp895
a(I73
I165
tp896
a(I100
I200
tp897
a(I113
I162
tp898
a(I59
I110
tp899
a(I106
I194
tp900
a(I60
I127
tp901
a(I91
I167
tp902
a(I104
I125
tp903
a(I50
I196
tp904
a(I95
I177
tp905
a(I105
I168
tp906
asg23
I200
sba(imain2
Polygon
p907
(dp908
g3
(I141
I115
tp909
sg5
I200
sg6
(I244
I174
I175
I27
tp910
sg8
(lp911
(I96
I156
tp912
a(I133
I149
tp913
a(I104
I121
tp914
a(I119
I101
tp915
a(I101
I91
tp916
a(I129
I72
tp917
asg23
I200
sba(imain2
Polygon
p918
(dp919
g3
(I199
I78
tp920
sg5
I200
sg6
(I210
I203
I91
I177
tp921
sg8
(lp922
(I188
I101
tp923
a(I200
I49
tp924
a(I200
I122
tp925
a(I200
I59
tp926
a(I200
I83
tp927
a(I190
I41
tp928
a(I200
I112
tp929
a(I192
I115
tp930
asg23
I200
sba(imain2
Polygon
p931
(dp932
g3
(I167
I90
tp933
sg5
I200
sg6
(I42
I195
I33
I102
tp934
sg8
(lp935
(I200
I124
tp936
a(I175
I41
tp937
a(I149
I78
tp938
a(I153
I74
tp939
a(I131
I76
tp940
a(I137
I84
tp941
a(I130
I74
tp942
a(I125
I55
tp943
asg23
I200
sba(imain2
Polygon
p944
(dp945
g3
(I17
I14
tp946
sg5
I200
sg6
(I1
I14
I93
I70
tp947
sg8
(lp948
(I49
I33
tp949
a(I0
I23
tp950
a(I17
I2
tp951
a(I58
I24
tp952
a(I67
I32
tp953
a(I47
I12
tp954
a(I49
I39
tp955
a(I58
I40
tp956
a(I20
I47
tp957
a(I0
I22
tp958
a(I0
I0
tp959
a(I3
I53
tp960
asg23
I200
sba(imain2
Polygon
p961
(dp962
g3
(I190
I180
tp963
sg5
I200
sg6
(I230
I109
I51
I0
tp964
sg8
(lp965
(I151
I135
tp966
a(I200
I158
tp967
a(I200
I130
tp968
a(I200
I200
tp969
a(I200
I159
tp970
a(I200
I135
tp971
asg23
I200
sba(imain2
Polygon
p972
(dp973
g3
(I70
I166
tp974
sg5
I200
sg6
(I113
I181
I8
I40
tp975
sg8
(lp976
(I89
I126
tp977
a(I95
I124
tp978
a(I83
I129
tp979
a(I69
I174
tp980
a(I111
I125
tp981
a(I91
I197
tp982
a(I29
I177
tp983
a(I109
I158
tp984
a(I24
I200
tp985
a(I99
I129
tp986
a(I21
I190
tp987
asg23
I200
sba(imain2
Polygon
p988
(dp989
g3
(I196
I185
tp990
sg5
I200
sg6
(I23
I163
I132
I0
tp991
sg8
(lp992
(I195
I200
tp993
a(I153
I200
tp994
a(I186
I189
tp995
a(I197
I200
tp996
a(I190
I145
tp997
a(I177
I200
tp998
a(I199
I200
tp999
a(I169
I200
tp1000
a(I200
I168
tp1001
asg23
I200
sba(imain2
Polygon
p1002
(dp1003
g3
(I48
I123
tp1004
sg5
I200
sg6
(I169
I54
I31
I160
tp1005
sg8
(lp1006
(I56
I81
tp1007
a(I82
I159
tp1008
a(I66
I152
tp1009
a(I15
I162
tp1010
a(I91
I173
tp1011
a(I11
I144
tp1012
a(I48
I88
tp1013
a(I19
I101
tp1014
a(I8
I144
tp1015
a(I66
I119
tp1016
asg23
I200
sba(imain2
Polygon
p1017
(dp1018
g3
(I59
I97
tp1019
sg5
I200
sg6
(I213
I56
I129
I82
tp1020
sg8
(lp1021
(I46
I97
tp1022
a(I70
I136
tp1023
a(I63
I76
tp1024
a(I93
I108
tp1025
a(I73
I56
tp1026
a(I70
I64
tp1027
a(I17
I89
tp1028
a(I47
I90
tp1029
a(I48
I87
tp1030
a(I93
I116
tp1031
a(I81
I52
tp1032
asg23
I200
sba(imain2
Polygon
p1033
(dp1034
g3
(I17
I149
tp1035
sg5
I200
sg6
(I0
I38
I159
I38
tp1036
sg8
(lp1037
(I44
I147
tp1038
a(I0
I144
tp1039
a(I0
I161
tp1040
a(I0
I197
tp1041
asg23
I200
sba(imain2
Polygon
p1042
(dp1043
g3
(I88
I2
tp1044
sg5
I200
sg6
(I6
I104
I65
I111
tp1045
sg8
(lp1046
(I48
I46
tp1047
a(I64
I0
tp1048
a(I104
I0
tp1049
a(I129
I0
tp1050
a(I123
I0
tp1051
a(I62
I19
tp1052
a(I101
I14
tp1053
a(I85
I0
tp1054
a(I86
I37
tp1055
a(I132
I39
tp1056
a(I132
I0
tp1057
a(I60
I24
tp1058
a(I128
I20
tp1059
asg23
I200
sba(imain2
Polygon
p1060
(dp1061
g3
(I3
I161
tp1062
sg5
I200
sg6
(I184
I24
I196
I60
tp1063
sg8
(lp1064
(I9
I171
tp1065
a(I50
I193
tp1066
a(I2
I191
tp1067
a(I0
I131
tp1068
a(I0
I179
tp1069
a(I0
I154
tp1070
a(I49
I200
tp1071
a(I13
I171
tp1072
a(I0
I133
tp1073
a(I39
I126
tp1074
a(I6
I117
tp1075
a(I16
I153
tp1076
a(I11
I194
tp1077
a(I14
I137
tp1078
a(I0
I112
tp1079
asg23
I200
sba(imain2
Polygon
p1080
(dp1081
g3
(I98
I58
tp1082
sg5
I200
sg6
(I42
I68
I174
I31
tp1083
sg8
(lp1084
(I116
I9
tp1085
a(I63
I46
tp1086
a(I105
I63
tp1087
a(I135
I94
tp1088
a(I104
I38
tp1089
asg23
I200
sba(imain2
Polygon
p1090
(dp1091
g3
(I109
I111
tp1092
sg5
I200
sg6
(I234
I40
I103
I64
tp1093
sg8
(lp1094
(I105
I124
tp1095
a(I60
I102
tp1096
a(I90
I102
tp1097
a(I59
I120
tp1098
a(I76
I136
tp1099
a(I132
I153
tp1100
a(I63
I81
tp1101
asg23
I200
sba(imain2
Polygon
p1102
(dp1103
g3
(I83
I155
tp1104
sg5
I200
sg6
(I204
I47
I189
I80
tp1105
sg8
(lp1106
(I38
I108
tp1107
a(I58
I184
tp1108
a(I117
I136
tp1109
a(I73
I176
tp1110
a(I85
I105
tp1111
a(I66
I200
tp1112
a(I117
I200
tp1113
a(I75
I200
tp1114
a(I109
I155
tp1115
a(I97
I163
tp1116
a(I59
I160
tp1117
a(I57
I200
tp1118
a(I118
I185
tp1119
a(I70
I200
tp1120
asg23
I200
sba(imain2
Polygon
p1121
(dp1122
g3
(I81
I21
tp1123
sg5
I200
sg6
(I140
I0
I33
I167
tp1124
sg8
(lp1125
(I112
I52
tp1126
a(I98
I56
tp1127
a(I32
I0
tp1128
a(I57
I35
tp1129
a(I100
I10
tp1130
a(I116
I3
tp1131
a(I103
I19
tp1132
a(I56
I19
tp1133
a(I119
I28
tp1134
a(I51
I29
tp1135
a(I43
I28
tp1136
asg23
I200
sba(imain2
Polygon
p1137
(dp1138
g3
(I77
I115
tp1139
sg5
I200
sg6
(I99
I250
I222
I1
tp1140
sg8
(lp1141
(I100
I108
tp1142
a(I58
I65
tp1143
a(I86
I119
tp1144
a(I124
I112
tp1145
a(I106
I99
tp1146
a(I71
I92
tp1147
a(I99
I108
tp1148
asg23
I200
sba(imain2
Polygon
p1149
(dp1150
g3
(I108
I110
tp1151
sg5
I200
sg6
(I147
I117
I151
I1
tp1152
sg8
(lp1153
(I116
I127
tp1154
a(I91
I102
tp1155
a(I99
I160
tp1156
a(I116
I63
tp1157
a(I67
I62
tp1158
a(I104
I71
tp1159
a(I99
I105
tp1160
a(I70
I147
tp1161
asg23
I200
sba(imain2
Polygon
p1162
(dp1163
g3
(I7
I122
tp1164
sg5
I200
sg6
(I158
I9
I163
I22
tp1165
sg8
(lp1166
(I4
I160
tp1167
a(I0
I162
tp1168
a(I0
I163
tp1169
a(I0
I170
tp1170
a(I36
I84
tp1171
a(I0
I88
tp1172
a(I29
I84
tp1173
a(I20
I124
tp1174
a(I51
I114
tp1175
a(I0
I126
tp1176
a(I0
I113
tp1177
a(I6
I135
tp1178
a(I0
I89
tp1179
a(I0
I121
tp1180
a(I0
I120
tp1181
a(I0
I147
tp1182
asg23
I200
sba(imain2
Polygon
p1183
(dp1184
g3
(I105
I20
tp1185
sg5
I200
sg6
(I214
I31
I231
I29
tp1186
sg8
(lp1187
(I111
I34
tp1188
a(I85
I0
tp1189
a(I72
I0
tp1190
a(I97
I0
tp1191
a(I128
I16
tp1192
a(I145
I3
tp1193
asg23
I200
sba(imain2
Polygon
p1194
(dp1195
g3
(I47
I80
tp1196
sg5
I200
sg6
(I111
I52
I114
I78
tp1197
sg8
(lp1198
(I35
I51
tp1199
a(I1
I67
tp1200
a(I9
I128
tp1201
a(I57
I64
tp1202
a(I57
I108
tp1203
a(I74
I89
tp1204
a(I9
I75
tp1205
a(I66
I115
tp1206
a(I76
I69
tp1207
a(I76
I108
tp1208
a(I64
I94
tp1209
a(I77
I32
tp1210
a(I83
I57
tp1211
a(I6
I119
tp1212
asg23
I200
sba(imain2
Polygon
p1213
(dp1214
g3
(I131
I30
tp1215
sg5
I200
sg6
(I213
I132
I178
I37
tp1216
sg8
(lp1217
(I118
I19
tp1218
a(I122
I20
tp1219
a(I108
I0
tp1220
a(I131
I13
tp1221
a(I123
I12
tp1222
a(I142
I42
tp1223
a(I118
I36
tp1224
asg23
I200
sba(imain2
Polygon
p1225
(dp1226
g3
(I199
I39
tp1227
sg5
I200
sg6
(I100
I196
I112
I116
tp1228
sg8
(lp1229
(I200
I81
tp1230
a(I149
I80
tp1231
a(I166
I88
tp1232
a(I166
I50
tp1233
a(I200
I4
tp1234
a(I200
I0
tp1235
a(I163
I47
tp1236
a(I200
I89
tp1237
asg23
I200
sba(imain2
Polygon
p1238
(dp1239
g3
(I110
I156
tp1240
sg5
I200
sg6
(I191
I93
I129
I6
tp1241
sg8
(lp1242
(I101
I165
tp1243
a(I102
I150
tp1244
a(I135
I126
tp1245
a(I106
I160
tp1246
a(I110
I107
tp1247
a(I85
I186
tp1248
a(I95
I123
tp1249
a(I97
I189
tp1250
a(I128
I185
tp1251
a(I83
I134
tp1252
a(I87
I151
tp1253
a(I101
I152
tp1254
a(I97
I200
tp1255
asg23
I200
sba(imain2
Polygon
p1256
(dp1257
g3
(I14
I89
tp1258
sg5
I200
sg6
(I207
I28
I28
I134
tp1259
sg8
(lp1260
(I9
I113
tp1261
a(I0
I80
tp1262
a(I0
I136
tp1263
a(I27
I63
tp1264
a(I0
I131
tp1265
a(I53
I72
tp1266
a(I55
I44
tp1267
asg23
I200
sba(imain2
Polygon
p1268
(dp1269
g3
(I124
I127
tp1270
sg5
I200
sg6
(I181
I221
I175
I1
tp1271
sg8
(lp1272
(I122
I171
tp1273
a(I156
I88
tp1274
a(I154
I169
tp1275
a(I159
I89
tp1276
a(I161
I119
tp1277
a(I142
I119
tp1278
a(I129
I137
tp1279
a(I162
I99
tp1280
asg23
I200
sba(imain2
Polygon
p1281
(dp1282
g3
(I97
I78
tp1283
sg5
I200
sg6
(I148
I209
I161
I0
tp1284
sg8
(lp1285
(I144
I105
tp1286
a(I62
I103
tp1287
a(I96
I94
tp1288
a(I123
I118
tp1289
a(I138
I122
tp1290
a(I73
I110
tp1291
a(I85
I33
tp1292
a(I74
I48
tp1293
a(I51
I52
tp1294
a(I71
I107
tp1295
a(I51
I118
tp1296
a(I134
I54
tp1297
asg23
I200
sba(imain2
Polygon
p1298
(dp1299
g3
(I71
I43
tp1300
sg5
I200
sg6
(I227
I218
I125
I1
tp1301
sg8
(lp1302
(I79
I92
tp1303
a(I119
I0
tp1304
a(I37
I0
tp1305
a(I94
I79
tp1306
a(I100
I34
tp1307
a(I53
I42
tp1308
asg23
I200
sba(imain2
Polygon
p1309
(dp1310
g3
(I109
I75
tp1311
sg5
I200
sg6
(I113
I171
I72
I182
tp1312
sg8
(lp1313
(I110
I84
tp1314
a(I63
I26
tp1315
a(I62
I79
tp1316
a(I102
I79
tp1317
a(I115
I32
tp1318
a(I77
I36
tp1319
a(I76
I66
tp1320
asg23
I200
sba(imain2
Polygon
p1321
(dp1322
g3
(I149
I45
tp1323
sg5
I200
sg6
(I214
I143
I133
I122
tp1324
sg8
(lp1325
(I100
I68
tp1326
a(I192
I38
tp1327
a(I193
I78
tp1328
a(I150
I92
tp1329
a(I183
I12
tp1330
a(I143
I12
tp1331
a(I145
I29
tp1332
a(I145
I81
tp1333
a(I191
I71
tp1334
a(I187
I0
tp1335
a(I173
I91
tp1336
a(I105
I44
tp1337
a(I133
I46
tp1338
a(I187
I18
tp1339
a(I194
I34
tp1340
asg23
I200
sba(imain2
Polygon
p1341
(dp1342
g3
(I29
I98
tp1343
sg5
I200
sg6
(I9
I136
I172
I100
tp1344
sg8
(lp1345
(I8
I108
tp1346
a(I2
I146
tp1347
a(I1
I61
tp1348
a(I3
I129
tp1349
a(I23
I119
tp1350
a(I20
I68
tp1351
a(I15
I71
tp1352
a(I69
I107
tp1353
a(I9
I107
tp1354
a(I74
I86
tp1355
a(I51
I111
tp1356
asg23
I200
sba(imain2
Polygon
p1357
(dp1358
g3
(I90
I62
tp1359
sg5
I200
sg6
(I179
I122
I137
I1
tp1360
sg8
(lp1361
(I97
I67
tp1362
a(I84
I31
tp1363
a(I96
I49
tp1364
a(I127
I101
tp1365
a(I61
I13
tp1366
a(I94
I46
tp1367
a(I92
I34
tp1368
a(I55
I71
tp1369
a(I58
I13
tp1370
asg23
I200
sba(imain2
Polygon
p1371
(dp1372
g3
(I63
I49
tp1373
sg5
I200
sg6
(I225
I253
I139
I0
tp1374
sg8
(lp1375
(I45
I64
tp1376
a(I87
I36
tp1377
a(I77
I51
tp1378
a(I13
I47
tp1379
a(I63
I47
tp1380
a(I65
I62
tp1381
a(I52
I17
tp1382
a(I16
I82
tp1383
a(I107
I23
tp1384
a(I41
I46
tp1385
asg23
I200
sba(imain2
Polygon
p1386
(dp1387
g3
(I31
I132
tp1388
sg5
I200
sg6
(I80
I120
I199
I76
tp1389
sg8
(lp1390
(I66
I171
tp1391
a(I39
I163
tp1392
a(I61
I159
tp1393
a(I73
I175
tp1394
a(I11
I117
tp1395
a(I8
I178
tp1396
a(I0
I146
tp1397
a(I55
I94
tp1398
a(I0
I111
tp1399
a(I29
I108
tp1400
a(I3
I124
tp1401
a(I73
I180
tp1402
asg23
I200
sba(imain2
Polygon
p1403
(dp1404
g3
(I80
I158
tp1405
sg5
I200
sg6
(I31
I49
I67
I22
tp1406
sg8
(lp1407
(I106
I108
tp1408
a(I78
I114
tp1409
a(I83
I149
tp1410
a(I50
I159
tp1411
a(I86
I135
tp1412
a(I125
I164
tp1413
a(I94
I111
tp1414
a(I100
I188
tp1415
a(I81
I172
tp1416
a(I100
I200
tp1417
a(I111
I144
tp1418
a(I30
I174
tp1419
a(I103
I174
tp1420
a(I124
I160
tp1421
a(I30
I181
tp1422
a(I82
I190
tp1423
asg23
I200
sba(imain2
Polygon
p1424
(dp1425
g3
(I168
I51
tp1426
sg5
I200
sg6
(I106
I209
I210
I0
tp1427
sg8
(lp1428
(I200
I20
tp1429
a(I190
I34
tp1430
a(I134
I17
tp1431
a(I145
I11
tp1432
a(I196
I74
tp1433
a(I200
I11
tp1434
a(I152
I44
tp1435
a(I185
I43
tp1436
a(I180
I54
tp1437
a(I158
I80
tp1438
a(I200
I69
tp1439
a(I140
I67
tp1440
asg23
I200
sba(imain2
Polygon
p1441
(dp1442
g3
(I110
I14
tp1443
sg5
I200
sg6
(I157
I141
I52
I194
tp1444
sg8
(lp1445
(I83
I0
tp1446
a(I138
I63
tp1447
a(I101
I0
tp1448
a(I145
I0
tp1449
a(I107
I18
tp1450
a(I142
I0
tp1451
a(I148
I25
tp1452
a(I122
I61
tp1453
a(I74
I62
tp1454
a(I67
I58
tp1455
a(I72
I61
tp1456
a(I101
I6
tp1457
asg23
I200
sba(imain2
Polygon
p1458
(dp1459
g3
(I85
I94
tp1460
sg5
I200
sg6
(I208
I237
I89
I111
tp1461
sg8
(lp1462
(I60
I87
tp1463
a(I43
I47
tp1464
a(I67
I99
tp1465
a(I55
I82
tp1466
a(I105
I45
tp1467
a(I125
I73
tp1468
a(I53
I132
tp1469
a(I121
I137
tp1470
a(I60
I137
tp1471
a(I126
I122
tp1472
a(I60
I47
tp1473
a(I40
I82
tp1474
a(I80
I94
tp1475
a(I84
I60
tp1476
asg23
I200
sba(imain2
Polygon
p1477
(dp1478
g3
(I153
I81
tp1479
sg5
I200
sg6
(I127
I90
I191
I40
tp1480
sg8
(lp1481
(I186
I53
tp1482
a(I197
I98
tp1483
a(I195
I36
tp1484
a(I174
I94
tp1485
a(I169
I51
tp1486
a(I127
I41
tp1487
a(I179
I33
tp1488
a(I149
I44
tp1489
a(I184
I66
tp1490
a(I176
I71
tp1491
asg23
I200
sba(imain2
Polygon
p1492
(dp1493
g3
(I146
I37
tp1494
sg5
I200
sg6
(I230
I87
I161
I0
tp1495
sg8
(lp1496
(I116
I25
tp1497
a(I107
I0
tp1498
a(I108
I72
tp1499
a(I170
I44
tp1500
a(I161
I47
tp1501
a(I147
I0
tp1502
a(I103
I49
tp1503
asg23
I200
sba(imain2
Polygon
p1504
(dp1505
g3
(I36
I71
tp1506
sg5
I200
sg6
(I183
I125
I138
I1
tp1507
sg8
(lp1508
(I21
I119
tp1509
a(I15
I87
tp1510
a(I84
I40
tp1511
a(I73
I38
tp1512
a(I85
I51
tp1513
a(I6
I37
tp1514
a(I44
I33
tp1515
a(I77
I57
tp1516
a(I65
I92
tp1517
a(I77
I55
tp1518
a(I59
I22
tp1519
a(I41
I72
tp1520
a(I45
I47
tp1521
asg23
I200
sba(imain2
Polygon
p1522
(dp1523
g3
(I36
I181
tp1524
sg5
I200
sg6
(I148
I217
I101
I148
tp1525
sg8
(lp1526
(I63
I199
tp1527
a(I0
I173
tp1528
a(I10
I200
tp1529
a(I3
I169
tp1530
a(I0
I171
tp1531
a(I24
I165
tp1532
a(I8
I166
tp1533
a(I50
I141
tp1534
a(I9
I198
tp1535
a(I56
I176
tp1536
a(I70
I200
tp1537
a(I28
I194
tp1538
a(I82
I200
tp1539
asg23
I200
sba(imain2
Polygon
p1540
(dp1541
g3
(I94
I181
tp1542
sg5
I200
sg6
(I120
I54
I43
I6
tp1543
sg8
(lp1544
(I121
I200
tp1545
a(I52
I200
tp1546
a(I68
I195
tp1547
a(I77
I139
tp1548
a(I138
I134
tp1549
a(I100
I161
tp1550
a(I50
I146
tp1551
a(I143
I187
tp1552
a(I93
I131
tp1553
a(I87
I200
tp1554
a(I120
I137
tp1555
a(I100
I200
tp1556
asg23
I200
sba(imain2
Polygon
p1557
(dp1558
g3
(I4
I26
tp1559
sg5
I200
sg6
(I34
I108
I67
I107
tp1560
sg8
(lp1561
(I5
I0
tp1562
a(I7
I71
tp1563
a(I0
I0
tp1564
a(I0
I29
tp1565
a(I0
I0
tp1566
a(I0
I33
tp1567
a(I0
I11
tp1568
a(I48
I3
tp1569
a(I0
I67
tp1570
a(I0
I0
tp1571
a(I9
I45
tp1572
a(I43
I48
tp1573
a(I39
I73
tp1574
a(I0
I9
tp1575
asg23
I200
sba(imain2
Polygon
p1576
(dp1577
g3
(I14
I45
tp1578
sg5
I200
sg6
(I159
I111
I1
I1
tp1579
sg8
(lp1580
(I33
I1
tp1581
a(I0
I0
tp1582
a(I0
I90
tp1583
a(I29
I6
tp1584
a(I0
I92
tp1585
a(I4
I0
tp1586
a(I0
I24
tp1587
a(I0
I57
tp1588
a(I0
I75
tp1589
a(I0
I68
tp1590
asg23
I200
sba(imain2
Polygon
p1591
(dp1592
g3
(I103
I69
tp1593
sg5
I200
sg6
(I239
I221
I1
I81
tp1594
sg8
(lp1595
(I106
I97
tp1596
a(I92
I46
tp1597
a(I88
I86
tp1598
a(I93
I30
tp1599
a(I53
I51
tp1600
a(I61
I94
tp1601
a(I127
I84
tp1602
a(I109
I35
tp1603
a(I90
I32
tp1604
a(I97
I27
tp1605
a(I92
I77
tp1606
asg23
I200
sba(imain2
Polygon
p1607
(dp1608
g3
(I61
I77
tp1609
sg5
I200
sg6
(I67
I125
I197
I185
tp1610
sg8
(lp1611
(I93
I115
tp1612
a(I69
I92
tp1613
a(I94
I105
tp1614
a(I99
I76
tp1615
a(I109
I113
tp1616
asg23
I200
sba(imain2
Polygon
p1617
(dp1618
g3
(I36
I98
tp1619
sg5
I200
sg6
(I0
I203
I76
I106
tp1620
sg8
(lp1621
(I77
I142
tp1622
a(I41
I80
tp1623
a(I64
I129
tp1624
a(I68
I127
tp1625
a(I26
I135
tp1626
a(I72
I94
tp1627
a(I21
I115
tp1628
asg23
I200
sba(imain2
Polygon
p1629
(dp1630
g3
(I20
I133
tp1631
sg5
I200
sg6
(I207
I242
I137
I143
tp1632
sg8
(lp1633
(I0
I168
tp1634
a(I39
I149
tp1635
a(I17
I183
tp1636
a(I0
I143
tp1637
a(I0
I92
tp1638
a(I0
I137
tp1639
a(I2
I152
tp1640
a(I0
I127
tp1641
asg23
I200
sba(imain2
Polygon
p1642
(dp1643
g3
(I178
I74
tp1644
sg5
I200
sg6
(I36
I125
I35
I1
tp1645
sg8
(lp1646
(I200
I98
tp1647
a(I200
I28
tp1648
a(I164
I113
tp1649
a(I131
I92
tp1650
a(I200
I93
tp1651
a(I161
I81
tp1652
a(I164
I97
tp1653
a(I163
I90
tp1654
asg23
I200
sba(imain2
Polygon
p1655
(dp1656
g3
(I191
I151
tp1657
sg5
I200
sg6
(I244
I48
I81
I125
tp1658
sg8
(lp1659
(I155
I131
tp1660
a(I157
I134
tp1661
a(I141
I130
tp1662
asg23
I200
sba(imain2
Polygon
p1663
(dp1664
g3
(I81
I200
tp1665
sg5
I200
sg6
(I48
I62
I164
I95
tp1666
sg8
(lp1667
(I60
I200
tp1668
a(I33
I187
tp1669
a(I71
I156
tp1670
a(I104
I184
tp1671
a(I74
I157
tp1672
a(I82
I197
tp1673
a(I93
I200
tp1674
a(I91
I166
tp1675
a(I114
I200
tp1676
a(I46
I200
tp1677
a(I34
I171
tp1678
asg23
I200
sba(imain2
Polygon
p1679
(dp1680
g3
(I8
I200
tp1681
sg5
I200
sg6
(I246
I19
I71
I201
tp1682
sg8
(lp1683
(I0
I200
tp1684
a(I0
I200
tp1685
a(I0
I200
tp1686
a(I3
I181
tp1687
a(I13
I177
tp1688
a(I0
I200
tp1689
a(I6
I152
tp1690
a(I0
I198
tp1691
a(I9
I183
tp1692
a(I0
I200
tp1693
asg23
I200
sba(imain2
Polygon
p1694
(dp1695
g3
(I12
I187
tp1696
sg5
I200
sg6
(I227
I7
I183
I1
tp1697
sg8
(lp1698
(I0
I174
tp1699
a(I0
I142
tp1700
a(I0
I141
tp1701
a(I0
I194
tp1702
a(I21
I141
tp1703
a(I37
I200
tp1704
a(I51
I200
tp1705
a(I49
I166
tp1706
a(I0
I200
tp1707
a(I58
I200
tp1708
asg23
I200
sba(imain2
Polygon
p1709
(dp1710
g3
(I142
I43
tp1711
sg5
I200
sg6
(I54
I82
I171
I84
tp1712
sg8
(lp1713
(I162
I81
tp1714
a(I122
I7
tp1715
a(I126
I14
tp1716
a(I141
I47
tp1717
a(I139
I78
tp1718
a(I131
I41
tp1719
a(I168
I33
tp1720
a(I104
I17
tp1721
a(I144
I40
tp1722
a(I150
I44
tp1723
a(I127
I84
tp1724
a(I177
I71
tp1725
a(I167
I66
tp1726
a(I183
I37
tp1727
asg23
I200
sba(imain2
Polygon
p1728
(dp1729
g3
(I89
I37
tp1730
sg5
I200
sg6
(I1
I109
I203
I130
tp1731
sg8
(lp1732
(I125
I17
tp1733
a(I59
I52
tp1734
a(I72
I8
tp1735
a(I74
I32
tp1736
a(I56
I25
tp1737
a(I85
I0
tp1738
a(I55
I50
tp1739
asg23
I200
sba(imain2
Polygon
p1740
(dp1741
g3
(I43
I51
tp1742
sg5
I200
sg6
(I38
I146
I125
I0
tp1743
sg8
(lp1744
(I63
I100
tp1745
a(I6
I45
tp1746
a(I65
I28
tp1747
a(I89
I76
tp1748
a(I79
I73
tp1749
a(I86
I47
tp1750
a(I70
I89
tp1751
a(I19
I97
tp1752
a(I80
I61
tp1753
a(I10
I77
tp1754
a(I71
I79
tp1755
a(I49
I96
tp1756
asg23
I200
sba(imain2
Polygon
p1757
(dp1758
g3
(I23
I143
tp1759
sg5
I200
sg6
(I79
I253
I182
I103
tp1760
sg8
(lp1761
(I0
I146
tp1762
a(I0
I130
tp1763
a(I0
I119
tp1764
a(I0
I163
tp1765
a(I0
I188
tp1766
a(I53
I143
tp1767
asg23
I200
sba(imain2
Polygon
p1768
(dp1769
g3
(I32
I143
tp1770
sg5
I200
sg6
(I55
I80
I166
I46
tp1771
sg8
(lp1772
(I47
I180
tp1773
a(I11
I140
tp1774
a(I18
I152
tp1775
a(I66
I113
tp1776
a(I47
I114
tp1777
a(I0
I167
tp1778
a(I0
I133
tp1779
asg23
I200
sba(imain2
Polygon
p1780
(dp1781
g3
(I69
I107
tp1782
sg5
I200
sg6
(I167
I236
I3
I69
tp1783
sg8
(lp1784
(I92
I73
tp1785
a(I40
I61
tp1786
a(I44
I127
tp1787
a(I71
I152
tp1788
a(I111
I100
tp1789
a(I67
I78
tp1790
a(I88
I134
tp1791
a(I21
I145
tp1792
a(I59
I110
tp1793
asg23
I200
sba(imain2
Polygon
p1794
(dp1795
g3
(I172
I111
tp1796
sg5
I200
sg6
(I244
I220
I95
I183
tp1797
sg8
(lp1798
(I162
I84
tp1799
a(I160
I92
tp1800
a(I153
I62
tp1801
a(I140
I75
tp1802
a(I200
I86
tp1803
a(I154
I86
tp1804
a(I131
I76
tp1805
a(I177
I85
tp1806
asg23
I200
sba(imain2
Polygon
p1807
(dp1808
g3
(I150
I91
tp1809
sg5
I200
sg6
(I13
I248
I88
I103
tp1810
sg8
(lp1811
(I169
I92
tp1812
a(I134
I44
tp1813
a(I199
I109
tp1814
a(I189
I79
tp1815
a(I114
I79
tp1816
a(I149
I72
tp1817
a(I140
I74
tp1818
a(I175
I96
tp1819
a(I186
I113
tp1820
asg23
I200
sba(imain2
Polygon
p1821
(dp1822
g3
(I135
I188
tp1823
sg5
I200
sg6
(I81
I237
I12
I7
tp1824
sg8
(lp1825
(I142
I155
tp1826
a(I106
I200
tp1827
a(I125
I200
tp1828
a(I106
I200
tp1829
a(I129
I171
tp1830
a(I173
I169
tp1831
a(I136
I200
tp1832
a(I135
I184
tp1833
asg23
I200
sba(imain2
Polygon
p1834
(dp1835
g3
(I127
I113
tp1836
sg5
I200
sg6
(I141
I220
I157
I62
tp1837
sg8
(lp1838
(I129
I72
tp1839
a(I153
I64
tp1840
a(I100
I82
tp1841
asg23
I200
sba(imain2
Polygon
p1842
(dp1843
g3
(I173
I20
tp1844
sg5
I200
sg6
(I236
I4
I224
I1
tp1845
sg8
(lp1846
(I192
I4
tp1847
a(I159
I58
tp1848
a(I200
I60
tp1849
a(I169
I0
tp1850
a(I200
I14
tp1851
a(I146
I0
tp1852
a(I156
I0
tp1853
a(I126
I60
tp1854
a(I138
I0
tp1855
a(I200
I65
tp1856
a(I194
I57
tp1857
asg23
I200
sba(imain2
Polygon
p1858
(dp1859
g3
(I100
I197
tp1860
sg5
I200
sg6
(I43
I107
I181
I120
tp1861
sg8
(lp1862
(I101
I200
tp1863
a(I64
I199
tp1864
a(I57
I195
tp1865
a(I63
I149
tp1866
a(I106
I200
tp1867
a(I118
I194
tp1868
a(I127
I200
tp1869
a(I54
I194
tp1870
a(I119
I200
tp1871
a(I86
I200
tp1872
a(I69
I200
tp1873
asg23
I200
sba(imain2
Polygon
p1874
(dp1875
g3
(I70
I0
tp1876
sg5
I200
sg6
(I140
I1
I200
I32
tp1877
sg8
(lp1878
(I66
I0
tp1879
a(I117
I7
tp1880
a(I61
I0
tp1881
a(I29
I0
tp1882
a(I34
I3
tp1883
a(I28
I0
tp1884
a(I87
I0
tp1885
a(I58
I0
tp1886
asg23
I200
sba(imain2
Polygon
p1887
(dp1888
g3
(I106
I152
tp1889
sg5
I200
sg6
(I103
I168
I65
I114
tp1890
sg8
(lp1891
(I81
I103
tp1892
a(I95
I166
tp1893
a(I119
I166
tp1894
a(I150
I135
tp1895
a(I56
I195
tp1896
a(I140
I199
tp1897
a(I108
I135
tp1898
a(I133
I127
tp1899
a(I75
I191
tp1900
a(I127
I150
tp1901
a(I74
I199
tp1902
a(I102
I114
tp1903
asg23
I200
sba(imain2
Polygon
p1904
(dp1905
g3
(I11
I38
tp1906
sg5
I200
sg6
(I116
I5
I129
I70
tp1907
sg8
(lp1908
(I0
I76
tp1909
a(I24
I13
tp1910
a(I10
I15
tp1911
a(I0
I80
tp1912
a(I58
I0
tp1913
a(I0
I17
tp1914
a(I24
I61
tp1915
asg23
I200
sba(imain2
Polygon
p1916
(dp1917
g3
(I23
I68
tp1918
sg5
I200
sg6
(I221
I113
I193
I175
tp1919
sg8
(lp1920
(I70
I114
tp1921
a(I24
I85
tp1922
a(I48
I73
tp1923
a(I49
I83
tp1924
a(I22
I23
tp1925
a(I24
I46
tp1926
a(I0
I57
tp1927
a(I0
I63
tp1928
a(I0
I100
tp1929
a(I41
I97
tp1930
asg23
I200
sba(imain2
Polygon
p1931
(dp1932
g3
(I73
I8
tp1933
sg5
I200
sg6
(I109
I163
I25
I178
tp1934
sg8
(lp1935
(I81
I0
tp1936
a(I97
I0
tp1937
a(I110
I29
tp1938
a(I35
I0
tp1939
a(I40
I14
tp1940
a(I104
I44
tp1941
a(I105
I0
tp1942
a(I39
I23
tp1943
a(I70
I32
tp1944
a(I81
I0
tp1945
a(I84
I33
tp1946
asg23
I200
sba(imain2
Polygon
p1947
(dp1948
g3
(I175
I187
tp1949
sg5
I200
sg6
(I128
I197
I201
I114
tp1950
sg8
(lp1951
(I156
I200
tp1952
a(I146
I200
tp1953
a(I155
I200
tp1954
a(I170
I186
tp1955
a(I170
I200
tp1956
a(I164
I182
tp1957
a(I164
I188
tp1958
a(I155
I200
tp1959
asg23
I200
sba(imain2
Polygon
p1960
(dp1961
g3
(I153
I195
tp1962
sg5
I200
sg6
(I57
I173
I34
I1
tp1963
sg8
(lp1964
(I110
I200
tp1965
a(I183
I198
tp1966
a(I199
I166
tp1967
a(I120
I198
tp1968
a(I136
I152
tp1969
a(I107
I196
tp1970
a(I122
I185
tp1971
a(I150
I200
tp1972
a(I145
I161
tp1973
a(I169
I168
tp1974
a(I176
I200
tp1975
asg23
I200
sba(imain2
Polygon
p1976
(dp1977
g3
(I199
I6
tp1978
sg5
I200
sg6
(I151
I43
I90
I0
tp1979
sg8
(lp1980
(I200
I49
tp1981
a(I200
I0
tp1982
a(I193
I0
tp1983
a(I200
I0
tp1984
a(I200
I54
tp1985
a(I162
I0
tp1986
a(I200
I55
tp1987
a(I199
I0
tp1988
a(I164
I0
tp1989
a(I195
I0
tp1990
a(I200
I0
tp1991
asg23
I200
sba(imain2
Polygon
p1992
(dp1993
g3
(I46
I191
tp1994
sg5
I200
sg6
(I97
I22
I13
I170
tp1995
sg8
(lp1996
(I81
I200
tp1997
a(I75
I200
tp1998
a(I0
I170
tp1999
a(I73
I200
tp2000
a(I64
I151
tp2001
a(I73
I200
tp2002
a(I0
I200
tp2003
a(I0
I146
tp2004
a(I27
I155
tp2005
a(I88
I189
tp2006
a(I77
I145
tp2007
a(I28
I148
tp2008
asg23
I200
sba(imain2
Polygon
p2009
(dp2010
g3
(I144
I179
tp2011
sg5
I200
sg6
(I128
I36
I200
I114
tp2012
sg8
(lp2013
(I149
I155
tp2014
a(I106
I165
tp2015
a(I161
I152
tp2016
a(I163
I136
tp2017
a(I158
I130
tp2018
a(I150
I165
tp2019
a(I133
I187
tp2020
a(I101
I162
tp2021
a(I123
I185
tp2022
a(I148
I171
tp2023
a(I160
I193
tp2024
a(I159
I200
tp2025
a(I151
I144
tp2026
a(I168
I137
tp2027
a(I148
I158
tp2028
a(I169
I200
tp2029
a(I169
I200
tp2030
asg23
I200
sba(imain2
Polygon
p2031
(dp2032
g3
(I120
I46
tp2033
sg5
I200
sg6
(I89
I90
I114
I109
tp2034
sg8
(lp2035
(I129
I60
tp2036
a(I104
I62
tp2037
a(I114
I37
tp2038
a(I163
I83
tp2039
a(I125
I0
tp2040
a(I129
I11
tp2041
a(I98
I23
tp2042
a(I77
I52
tp2043
a(I126
I48
tp2044
a(I121
I38
tp2045
a(I139
I56
tp2046
a(I147
I47
tp2047
a(I123
I56
tp2048
a(I122
I89
tp2049
asg23
I200
sba(imain2
Polygon
p2050
(dp2051
g3
(I100
I144
tp2052
sg5
I200
sg6
(I129
I191
I171
I176
tp2053
sg8
(lp2054
(I112
I95
tp2055
a(I104
I138
tp2056
a(I61
I169
tp2057
a(I77
I101
tp2058
a(I90
I95
tp2059
a(I67
I171
tp2060
a(I83
I152
tp2061
a(I74
I167
tp2062
a(I53
I115
tp2063
asg23
I200
sba(imain2
Polygon
p2064
(dp2065
g3
(I151
I184
tp2066
sg5
I200
sg6
(I140
I13
I176
I58
tp2067
sg8
(lp2068
(I156
I200
tp2069
a(I111
I200
tp2070
a(I102
I164
tp2071
asg23
I200
sba(imain2
Polygon
p2072
(dp2073
g3
(I124
I187
tp2074
sg5
I200
sg6
(I37
I37
I215
I0
tp2075
sg8
(lp2076
(I84
I156
tp2077
a(I98
I140
tp2078
a(I88
I183
tp2079
a(I131
I200
tp2080
a(I90
I141
tp2081
a(I81
I155
tp2082
a(I161
I166
tp2083
a(I159
I192
tp2084
a(I113
I197
tp2085
asg23
I200
sba(imain2
Polygon
p2086
(dp2087
g3
(I48
I52
tp2088
sg5
I200
sg6
(I251
I133
I173
I168
tp2089
sg8
(lp2090
(I61
I76
tp2091
a(I13
I72
tp2092
a(I79
I94
tp2093
a(I93
I21
tp2094
a(I65
I16
tp2095
a(I36
I66
tp2096
a(I31
I93
tp2097
a(I88
I8
tp2098
a(I3
I5
tp2099
a(I0
I82
tp2100
a(I0
I93
tp2101
a(I26
I82
tp2102
a(I26
I63
tp2103
a(I0
I89
tp2104
a(I41
I96
tp2105
a(I47
I68
tp2106
asg23
I200
sba(imain2
Polygon
p2107
(dp2108
g3
(I139
I74
tp2109
sg5
I200
sg6
(I158
I194
I241
I156
tp2110
sg8
(lp2111
(I159
I56
tp2112
a(I145
I69
tp2113
a(I189
I47
tp2114
a(I186
I44
tp2115
a(I177
I29
tp2116
a(I180
I41
tp2117
a(I97
I111
tp2118
a(I119
I94
tp2119
a(I113
I92
tp2120
a(I90
I121
tp2121
asg23
I200
sba(imain2
Polygon
p2122
(dp2123
g3
(I161
I83
tp2124
sg5
I200
sg6
(I208
I156
I114
I87
tp2125
sg8
(lp2126
(I200
I78
tp2127
a(I140
I81
tp2128
a(I122
I46
tp2129
a(I132
I42
tp2130
a(I111
I52
tp2131
a(I184
I37
tp2132
a(I190
I52
tp2133
a(I199
I106
tp2134
a(I163
I121
tp2135
a(I170
I88
tp2136
a(I154
I96
tp2137
a(I198
I46
tp2138
a(I200
I94
tp2139
asg23
I200
sba(imain2
Polygon
p2140
(dp2141
g3
(I88
I36
tp2142
sg5
I200
sg6
(I0
I35
I81
I173
tp2143
sg8
(lp2144
(I67
I7
tp2145
a(I41
I0
tp2146
a(I66
I0
tp2147
a(I49
I39
tp2148
a(I102
I37
tp2149
a(I91
I20
tp2150
a(I134
I70
tp2151
a(I125
I14
tp2152
a(I40
I24
tp2153
a(I96
I1
tp2154
a(I71
I9
tp2155
asg23
I200
sba(imain2
Polygon
p2156
(dp2157
g3
(I12
I36
tp2158
sg5
I200
sg6
(I177
I107
I221
I7
tp2159
sg8
(lp2160
(I0
I7
tp2161
a(I5
I22
tp2162
a(I0
I0
tp2163
a(I47
I63
tp2164
a(I54
I24
tp2165
a(I52
I43
tp2166
a(I0
I12
tp2167
a(I0
I84
tp2168
a(I27
I26
tp2169
a(I6
I48
tp2170
a(I25
I0
tp2171
a(I19
I0
tp2172
asg23
I200
sba(imain2
Polygon
p2173
(dp2174
g3
(I79
I176
tp2175
sg5
I200
sg6
(I204
I86
I179
I163
tp2176
sg8
(lp2177
(I120
I200
tp2178
a(I75
I167
tp2179
a(I79
I160
tp2180
a(I83
I200
tp2181
a(I122
I200
tp2182
a(I91
I200
tp2183
asg23
I200
sba(imain2
Polygon
p2184
(dp2185
g3
(I159
I193
tp2186
sg5
I200
sg6
(I193
I180
I65
I33
tp2187
sg8
(lp2188
(I161
I162
tp2189
a(I181
I190
tp2190
a(I165
I182
tp2191
a(I133
I200
tp2192
a(I128
I151
tp2193
a(I136
I191
tp2194
a(I175
I200
tp2195
a(I175
I200
tp2196
a(I131
I185
tp2197
a(I109
I200
tp2198
a(I130
I200
tp2199
a(I197
I170
tp2200
a(I183
I187
tp2201
asg23
I200
sba(imain2
Polygon
p2202
(dp2203
g3
(I52
I197
tp2204
sg5
I200
sg6
(I171
I154
I237
I33
tp2205
sg8
(lp2206
(I83
I191
tp2207
a(I56
I149
tp2208
a(I92
I200
tp2209
a(I55
I149
tp2210
a(I54
I161
tp2211
a(I68
I200
tp2212
a(I68
I200
tp2213
asg23
I200
sba(imain2
Polygon
p2214
(dp2215
g3
(I96
I168
tp2216
sg5
I200
sg6
(I92
I165
I177
I25
tp2217
sg8
(lp2218
(I106
I145
tp2219
a(I74
I125
tp2220
a(I99
I188
tp2221
a(I142
I153
tp2222
a(I99
I193
tp2223
a(I64
I138
tp2224
a(I127
I169
tp2225
a(I103
I161
tp2226
a(I64
I200
tp2227
a(I86
I160
tp2228
a(I88
I200
tp2229
asg23
I200
sba(imain2
Polygon
p2230
(dp2231
g3
(I148
I67
tp2232
sg5
I200
sg6
(I213
I33
I25
I0
tp2233
sg8
(lp2234
(I121
I26
tp2235
a(I157
I82
tp2236
a(I176
I23
tp2237
a(I135
I86
tp2238
a(I188
I76
tp2239
a(I118
I100
tp2240
a(I138
I60
tp2241
a(I197
I68
tp2242
a(I160
I114
tp2243
a(I190
I19
tp2244
a(I177
I56
tp2245
a(I172
I36
tp2246
asg23
I200
sba(imain2
Polygon
p2247
(dp2248
g3
(I185
I29
tp2249
sg5
I200
sg6
(I144
I168
I78
I120
tp2250
sg8
(lp2251
(I136
I0
tp2252
a(I144
I0
tp2253
a(I200
I0
tp2254
a(I141
I53
tp2255
a(I150
I16
tp2256
a(I167
I74
tp2257
a(I200
I63
tp2258
a(I144
I53
tp2259
a(I197
I8
tp2260
a(I166
I41
tp2261
asg23
I200
sba(imain2
Polygon
p2262
(dp2263
g3
(I77
I185
tp2264
sg5
I200
sg6
(I32
I33
I106
I169
tp2265
sg8
(lp2266
(I61
I200
tp2267
a(I70
I200
tp2268
a(I30
I200
tp2269
a(I39
I143
tp2270
a(I124
I169
tp2271
a(I77
I200
tp2272
a(I122
I160
tp2273
a(I84
I200
tp2274
a(I100
I155
tp2275
a(I78
I200
tp2276
a(I84
I199
tp2277
a(I64
I192
tp2278
asg23
I200
sba(imain2
Polygon
p2279
(dp2280
g3
(I183
I173
tp2281
sg5
I200
sg6
(I113
I225
I98
I104
tp2282
sg8
(lp2283
(I148
I141
tp2284
a(I154
I125
tp2285
a(I151
I151
tp2286
a(I171
I184
tp2287
a(I172
I200
tp2288
a(I200
I200
tp2289
a(I200
I200
tp2290
a(I200
I198
tp2291
a(I173
I200
tp2292
asg23
I200
sba(imain2
Polygon
p2293
(dp2294
g3
(I141
I78
tp2295
sg5
I200
sg6
(I236
I94
I169
I0
tp2296
sg8
(lp2297
(I125
I45
tp2298
a(I157
I111
tp2299
a(I91
I99
tp2300
a(I134
I29
tp2301
a(I143
I34
tp2302
a(I148
I40
tp2303
a(I134
I96
tp2304
asg23
I200
sba(imain2
Polygon
p2305
(dp2306
g3
(I8
I10
tp2307
sg5
I200
sg6
(I70
I45
I80
I166
tp2308
sg8
(lp2309
(I0
I0
tp2310
a(I38
I0
tp2311
a(I0
I0
tp2312
a(I46
I12
tp2313
a(I0
I0
tp2314
a(I44
I0
tp2315
a(I31
I15
tp2316
a(I0
I0
tp2317
asg23
I200
sba(imain2
Polygon
p2318
(dp2319
g3
(I37
I13
tp2320
sg5
I200
sg6
(I5
I117
I28
I185
tp2321
sg8
(lp2322
(I65
I0
tp2323
a(I23
I0
tp2324
a(I72
I38
tp2325
a(I46
I0
tp2326
a(I65
I41
tp2327
a(I66
I42
tp2328
a(I0
I0
tp2329
a(I57
I9
tp2330
a(I0
I0
tp2331
a(I81
I0
tp2332
a(I7
I0
tp2333
a(I17
I0
tp2334
a(I32
I26
tp2335
a(I0
I0
tp2336
a(I76
I0
tp2337
a(I7
I21
tp2338
asg23
I200
sba(imain2
Polygon
p2339
(dp2340
g3
(I168
I175
tp2341
sg5
I200
sg6
(I102
I61
I29
I47
tp2342
sg8
(lp2343
(I184
I126
tp2344
a(I152
I200
tp2345
a(I120
I181
tp2346
a(I121
I129
tp2347
a(I185
I125
tp2348
a(I148
I200
tp2349
a(I149
I200
tp2350
a(I123
I196
tp2351
a(I200
I200
tp2352
a(I195
I135
tp2353
asg23
I200
sba(imain2
Polygon
p2354
(dp2355
g3
(I75
I83
tp2356
sg5
I200
sg6
(I28
I36
I24
I0
tp2357
sg8
(lp2358
(I50
I96
tp2359
a(I112
I58
tp2360
a(I125
I72
tp2361
a(I123
I52
tp2362
a(I97
I89
tp2363
a(I81
I75
tp2364
a(I83
I93
tp2365
a(I107
I90
tp2366
a(I40
I101
tp2367
a(I83
I98
tp2368
a(I106
I59
tp2369
asg23
I200
sba(imain2
Polygon
p2370
(dp2371
g3
(I18
I79
tp2372
sg5
I200
sg6
(I84
I1
I182
I171
tp2373
sg8
(lp2374
(I0
I119
tp2375
a(I68
I117
tp2376
a(I44
I52
tp2377
a(I68
I35
tp2378
a(I58
I32
tp2379
a(I25
I110
tp2380
a(I33
I89
tp2381
a(I42
I92
tp2382
a(I0
I114
tp2383
a(I31
I81
tp2384
asg23
I200
sba(imain2
Polygon
p2385
(dp2386
g3
(I27
I28
tp2387
sg5
I200
sg6
(I229
I150
I48
I1
tp2388
sg8
(lp2389
(I37
I18
tp2390
a(I0
I0
tp2391
a(I0
I78
tp2392
a(I38
I16
tp2393
a(I0
I64
tp2394
a(I0
I12
tp2395
a(I46
I0
tp2396
a(I0
I34
tp2397
a(I6
I72
tp2398
a(I48
I59
tp2399
asg23
I200
sba(imain2
Polygon
p2400
(dp2401
g3
(I85
I60
tp2402
sg5
I200
sg6
(I92
I123
I19
I150
tp2403
sg8
(lp2404
(I115
I60
tp2405
a(I134
I87
tp2406
a(I50
I105
tp2407
a(I36
I62
tp2408
a(I43
I67
tp2409
a(I72
I90
tp2410
a(I131
I73
tp2411
a(I105
I68
tp2412
asg23
I200
sba(imain2
Polygon
p2413
(dp2414
g3
(I45
I110
tp2415
sg5
I200
sg6
(I47
I246
I185
I109
tp2416
sg8
(lp2417
(I45
I102
tp2418
a(I91
I138
tp2419
a(I72
I115
tp2420
a(I21
I99
tp2421
a(I18
I88
tp2422
a(I61
I135
tp2423
asg23
I200
sba(imain2
Polygon
p2424
(dp2425
g3
(I54
I138
tp2426
sg5
I200
sg6
(I124
I66
I191
I45
tp2427
sg8
(lp2428
(I8
I165
tp2429
a(I45
I135
tp2430
a(I25
I141
tp2431
a(I86
I170
tp2432
a(I18
I94
tp2433
a(I19
I117
tp2434
a(I98
I98
tp2435
a(I41
I107
tp2436
a(I97
I149
tp2437
asg23
I200
sba(imain2
Polygon
p2438
(dp2439
g3
(I162
I123
tp2440
sg5
I200
sg6
(I56
I66
I77
I70
tp2441
sg8
(lp2442
(I181
I152
tp2443
a(I140
I85
tp2444
a(I172
I84
tp2445
a(I200
I143
tp2446
a(I200
I172
tp2447
a(I135
I146
tp2448
a(I176
I109
tp2449
a(I200
I165
tp2450
a(I195
I153
tp2451
a(I200
I76
tp2452
a(I179
I112
tp2453
a(I132
I167
tp2454
a(I126
I162
tp2455
a(I116
I125
tp2456
a(I135
I87
tp2457
a(I133
I160
tp2458
a(I153
I171
tp2459
a(I200
I126
tp2460
asg23
I200
sba(imain2
Polygon
p2461
(dp2462
g3
(I144
I70
tp2463
sg5
I200
sg6
(I197
I47
I126
I94
tp2464
sg8
(lp2465
(I154
I43
tp2466
a(I186
I111
tp2467
a(I160
I61
tp2468
a(I191
I86
tp2469
a(I169
I95
tp2470
a(I132
I71
tp2471
a(I129
I24
tp2472
asg23
I200
sba(imain2
Polygon
p2473
(dp2474
g3
(I11
I36
tp2475
sg5
I200
sg6
(I153
I36
I82
I115
tp2476
sg8
(lp2477
(I30
I8
tp2478
a(I9
I0
tp2479
a(I0
I0
tp2480
a(I16
I40
tp2481
a(I0
I0
tp2482
a(I57
I71
tp2483
a(I0
I72
tp2484
a(I45
I85
tp2485
a(I0
I8
tp2486
asg23
I200
sba(imain2
Polygon
p2487
(dp2488
g3
(I85
I175
tp2489
sg5
I200
sg6
(I244
I57
I50
I42
tp2490
sg8
(lp2491
(I106
I173
tp2492
a(I37
I126
tp2493
a(I118
I131
tp2494
a(I98
I171
tp2495
a(I69
I200
tp2496
a(I122
I165
tp2497
a(I122
I198
tp2498
a(I67
I200
tp2499
a(I68
I150
tp2500
a(I119
I142
tp2501
asg23
I200
sba(imain2
Polygon
p2502
(dp2503
g3
(I78
I22
tp2504
sg5
I200
sg6
(I5
I244
I73
I0
tp2505
sg8
(lp2506
(I69
I68
tp2507
a(I100
I45
tp2508
a(I67
I0
tp2509
a(I41
I35
tp2510
a(I42
I32
tp2511
a(I122
I34
tp2512
a(I67
I0
tp2513
a(I72
I15
tp2514
a(I57
I71
tp2515
a(I81
I0
tp2516
a(I88
I35
tp2517
a(I47
I61
tp2518
asg23
I200
sba(imain2
Polygon
p2519
(dp2520
g3
(I58
I165
tp2521
sg5
I200
sg6
(I84
I1
I142
I155
tp2522
sg8
(lp2523
(I26
I165
tp2524
a(I85
I143
tp2525
a(I83
I173
tp2526
a(I78
I133
tp2527
a(I98
I123
tp2528
a(I43
I117
tp2529
a(I17
I117
tp2530
a(I20
I136
tp2531
asg23
I200
sba(imain2
Polygon
p2532
(dp2533
g3
(I98
I69
tp2534
sg5
I200
sg6
(I78
I225
I133
I105
tp2535
sg8
(lp2536
(I78
I62
tp2537
a(I106
I42
tp2538
a(I65
I113
tp2539
a(I56
I85
tp2540
a(I110
I113
tp2541
a(I65
I110
tp2542
a(I107
I39
tp2543
asg23
I200
sba(imain2
Polygon
p2544
(dp2545
g3
(I184
I193
tp2546
sg5
I200
sg6
(I27
I70
I73
I0
tp2547
sg8
(lp2548
(I176
I200
tp2549
a(I176
I200
tp2550
a(I153
I200
tp2551
a(I144
I147
tp2552
a(I190
I147
tp2553
a(I148
I144
tp2554
a(I158
I200
tp2555
a(I154
I154
tp2556
a(I134
I174
tp2557
a(I154
I200
tp2558
a(I172
I181
tp2559
asg23
I200
sba(imain2
Polygon
p2560
(dp2561
g3
(I136
I181
tp2562
sg5
I200
sg6
(I127
I133
I194
I20
tp2563
sg8
(lp2564
(I159
I189
tp2565
a(I123
I200
tp2566
a(I115
I200
tp2567
a(I166
I200
tp2568
a(I150
I200
tp2569
a(I183
I189
tp2570
a(I102
I195
tp2571
a(I86
I199
tp2572
a(I127
I191
tp2573
a(I91
I200
tp2574
a(I133
I193
tp2575
asg23
I200
sba(imain2
Polygon
p2576
(dp2577
g3
(I65
I69
tp2578
sg5
I200
sg6
(I105
I102
I161
I78
tp2579
sg8
(lp2580
(I66
I35
tp2581
a(I93
I74
tp2582
a(I103
I114
tp2583
a(I75
I21
tp2584
a(I75
I22
tp2585
a(I51
I60
tp2586
a(I51
I106
tp2587
a(I48
I64
tp2588
asg23
I200
sba(imain2
Polygon
p2589
(dp2590
g3
(I146
I60
tp2591
sg5
I200
sg6
(I4
I11
I208
I54
tp2592
sg8
(lp2593
(I104
I85
tp2594
a(I165
I61
tp2595
a(I102
I41
tp2596
a(I102
I38
tp2597
a(I194
I102
tp2598
a(I125
I29
tp2599
a(I103
I92
tp2600
a(I134
I26
tp2601
a(I168
I90
tp2602
asg23
I200
sba(imain2
Polygon
p2603
(dp2604
g3
(I7
I191
tp2605
sg5
I200
sg6
(I1
I173
I66
I1
tp2606
sg8
(lp2607
(I57
I159
tp2608
a(I21
I154
tp2609
a(I0
I189
tp2610
a(I0
I200
tp2611
a(I0
I200
tp2612
a(I46
I200
tp2613
a(I5
I186
tp2614
a(I10
I167
tp2615
a(I0
I200
tp2616
a(I0
I175
tp2617
a(I0
I158
tp2618
asg23
I200
sba(imain2
Polygon
p2619
(dp2620
g3
(I177
I12
tp2621
sg5
I200
sg6
(I1
I134
I139
I37
tp2622
sg8
(lp2623
(I171
I55
tp2624
a(I198
I28
tp2625
a(I196
I0
tp2626
a(I200
I32
tp2627
a(I200
I31
tp2628
asg23
I200
sba(imain2
Polygon
p2629
(dp2630
g3
(I98
I60
tp2631
sg5
I200
sg6
(I147
I44
I52
I45
tp2632
sg8
(lp2633
(I117
I109
tp2634
a(I145
I79
tp2635
a(I137
I14
tp2636
a(I92
I65
tp2637
a(I115
I64
tp2638
a(I74
I16
tp2639
a(I139
I12
tp2640
a(I80
I91
tp2641
a(I119
I103
tp2642
a(I99
I12
tp2643
asg23
I200
sba(imain2
Polygon
p2644
(dp2645
g3
(I26
I121
tp2646
sg5
I200
sg6
(I24
I119
I8
I142
tp2647
sg8
(lp2648
(I56
I156
tp2649
a(I8
I168
tp2650
a(I39
I85
tp2651
a(I0
I101
tp2652
a(I0
I163
tp2653
a(I40
I117
tp2654
a(I8
I153
tp2655
a(I45
I83
tp2656
a(I74
I103
tp2657
a(I58
I77
tp2658
a(I71
I166
tp2659
asg23
I200
sba(imain2
Polygon
p2660
(dp2661
g3
(I59
I10
tp2662
sg5
I200
sg6
(I182
I57
I112
I188
tp2663
sg8
(lp2664
(I12
I0
tp2665
a(I57
I0
tp2666
a(I100
I48
tp2667
a(I72
I17
tp2668
a(I55
I0
tp2669
a(I86
I0
tp2670
a(I39
I48
tp2671
a(I26
I38
tp2672
a(I10
I0
tp2673
a(I45
I0
tp2674
asg23
I200
sba(imain2
Polygon
p2675
(dp2676
g3
(I171
I141
tp2677
sg5
I200
sg6
(I46
I206
I139
I42
tp2678
sg8
(lp2679
(I140
I127
tp2680
a(I153
I96
tp2681
a(I148
I103
tp2682
a(I149
I145
tp2683
a(I200
I117
tp2684
a(I200
I120
tp2685
a(I190
I157
tp2686
a(I155
I146
tp2687
a(I125
I136
tp2688
a(I197
I159
tp2689
asg23
I200
sba(imain2
Polygon
p2690
(dp2691
g3
(I80
I143
tp2692
sg5
I200
sg6
(I79
I83
I16
I173
tp2693
sg8
(lp2694
(I53
I153
tp2695
a(I70
I145
tp2696
a(I32
I140
tp2697
a(I130
I187
tp2698
a(I120
I110
tp2699
a(I119
I94
tp2700
a(I86
I142
tp2701
a(I31
I166
tp2702
a(I65
I188
tp2703
a(I118
I114
tp2704
a(I36
I110
tp2705
asg23
I200
sba(imain2
Polygon
p2706
(dp2707
g3
(I191
I199
tp2708
sg5
I200
sg6
(I0
I227
I29
I1
tp2709
sg8
(lp2710
(I200
I200
tp2711
a(I200
I200
tp2712
a(I178
I200
tp2713
a(I200
I163
tp2714
a(I193
I200
tp2715
a(I192
I200
tp2716
a(I200
I200
tp2717
a(I200
I200
tp2718
a(I188
I163
tp2719
a(I200
I200
tp2720
a(I200
I200
tp2721
asg23
I200
sba(imain2
Polygon
p2722
(dp2723
g3
(I6
I112
tp2724
sg5
I200
sg6
(I136
I75
I140
I129
tp2725
sg8
(lp2726
(I24
I92
tp2727
a(I0
I81
tp2728
a(I0
I66
tp2729
a(I32
I103
tp2730
a(I0
I100
tp2731
a(I0
I83
tp2732
a(I13
I65
tp2733
asg23
I200
sba(imain2
Polygon
p2734
(dp2735
g3
(I189
I37
tp2736
sg5
I200
sg6
(I34
I238
I171
I113
tp2737
sg8
(lp2738
(I200
I0
tp2739
a(I200
I27
tp2740
a(I200
I20
tp2741
a(I200
I40
tp2742
asg23
I200
sba(imain2
Polygon
p2743
(dp2744
g3
(I121
I50
tp2745
sg5
I200
sg6
(I10
I76
I3
I1
tp2746
sg8
(lp2747
(I130
I91
tp2748
a(I79
I87
tp2749
a(I132
I30
tp2750
a(I95
I46
tp2751
a(I107
I29
tp2752
a(I124
I62
tp2753
asg23
I200
sba(imain2
Polygon
p2754
(dp2755
g3
(I58
I165
tp2756
sg5
I200
sg6
(I151
I100
I7
I0
tp2757
sg8
(lp2758
(I100
I200
tp2759
a(I19
I165
tp2760
a(I80
I143
tp2761
a(I106
I142
tp2762
a(I20
I146
tp2763
a(I69
I130
tp2764
a(I105
I168
tp2765
a(I45
I127
tp2766
a(I16
I200
tp2767
asg23
I200
sba(imain2
Polygon
p2768
(dp2769
g3
(I155
I38
tp2770
sg5
I200
sg6
(I106
I116
I244
I164
tp2771
sg8
(lp2772
(I172
I10
tp2773
a(I153
I63
tp2774
a(I165
I27
tp2775
asg23
I200
sba(imain2
Polygon
p2776
(dp2777
g3
(I80
I130
tp2778
sg5
I200
sg6
(I228
I91
I1
I167
tp2779
sg8
(lp2780
(I90
I107
tp2781
a(I43
I96
tp2782
a(I127
I91
tp2783
a(I86
I180
tp2784
a(I95
I85
tp2785
a(I42
I120
tp2786
a(I87
I161
tp2787
a(I84
I165
tp2788
a(I91
I167
tp2789
a(I96
I151
tp2790
a(I66
I121
tp2791
asg23
I200
sba(imain2
Polygon
p2792
(dp2793
g3
(I182
I31
tp2794
sg5
I200
sg6
(I121
I92
I117
I24
tp2795
sg8
(lp2796
(I193
I63
tp2797
a(I167
I24
tp2798
a(I197
I0
tp2799
a(I152
I57
tp2800
a(I146
I62
tp2801
a(I179
I74
tp2802
a(I175
I65
tp2803
a(I160
I52
tp2804
a(I175
I23
tp2805
a(I200
I15
tp2806
a(I200
I0
tp2807
a(I144
I51
tp2808
a(I172
I30
tp2809
asg23
I200
sba(imain2
Polygon
p2810
(dp2811
g3
(I164
I132
tp2812
sg5
I200
sg6
(I51
I75
I5
I1
tp2813
sg8
(lp2814
(I200
I134
tp2815
a(I200
I115
tp2816
a(I196
I133
tp2817
a(I123
I114
tp2818
a(I154
I94
tp2819
a(I200
I159
tp2820
a(I150
I115
tp2821
a(I158
I154
tp2822
a(I180
I130
tp2823
a(I189
I121
tp2824
a(I192
I85
tp2825
a(I156
I119
tp2826
asg23
I200
sba(imain2
Polygon
p2827
(dp2828
g3
(I67
I123
tp2829
sg5
I200
sg6
(I209
I171
I133
I129
tp2830
sg8
(lp2831
(I102
I101
tp2832
a(I103
I119
tp2833
a(I65
I154
tp2834
a(I43
I93
tp2835
a(I70
I100
tp2836
a(I35
I105
tp2837
a(I97
I105
tp2838
a(I49
I107
tp2839
a(I60
I100
tp2840
a(I46
I107
tp2841
asg23
I200
sba(imain2
Polygon
p2842
(dp2843
g3
(I139
I46
tp2844
sg5
I200
sg6
(I5
I113
I90
I149
tp2845
sg8
(lp2846
(I135
I93
tp2847
a(I185
I84
tp2848
a(I129
I21
tp2849
asg23
I200
sba(imain2
Polygon
p2850
(dp2851
g3
(I137
I13
tp2852
sg5
I200
sg6
(I205
I136
I227
I35
tp2853
sg8
(lp2854
(I102
I0
tp2855
a(I165
I1
tp2856
a(I187
I0
tp2857
a(I153
I4
tp2858
a(I106
I0
tp2859
a(I156
I37
tp2860
a(I186
I0
tp2861
a(I135
I0
tp2862
a(I118
I0
tp2863
asg23
I200
sba(imain2
Polygon
p2864
(dp2865
g3
(I72
I81
tp2866
sg5
I200
sg6
(I245
I114
I87
I6
tp2867
sg8
(lp2868
(I51
I52
tp2869
a(I73
I34
tp2870
a(I116
I48
tp2871
a(I100
I91
tp2872
a(I79
I120
tp2873
a(I30
I81
tp2874
a(I53
I98
tp2875
a(I42
I64
tp2876
asg23
I200
sba(imain2
Polygon
p2877
(dp2878
g3
(I24
I70
tp2879
sg5
I200
sg6
(I8
I227
I20
I39
tp2880
sg8
(lp2881
(I49
I45
tp2882
a(I72
I32
tp2883
a(I2
I21
tp2884
a(I0
I50
tp2885
a(I0
I120
tp2886
a(I59
I88
tp2887
a(I14
I102
tp2888
a(I58
I87
tp2889
a(I38
I99
tp2890
asg23
I200
sba(imain2
Polygon
p2891
(dp2892
g3
(I144
I200
tp2893
sg5
I200
sg6
(I128
I96
I15
I1
tp2894
sg8
(lp2895
(I185
I200
tp2896
a(I107
I200
tp2897
a(I188
I200
tp2898
a(I130
I160
tp2899
a(I128
I200
tp2900
a(I145
I200
tp2901
a(I97
I200
tp2902
a(I128
I200
tp2903
a(I171
I200
tp2904
a(I190
I196
tp2905
a(I107
I200
tp2906
a(I131
I200
tp2907
a(I152
I200
tp2908
a(I166
I200
tp2909
a(I150
I198
tp2910
a(I115
I161
tp2911
asg23
I200
sba(imain2
Polygon
p2912
(dp2913
g3
(I63
I64
tp2914
sg5
I200
sg6
(I200
I199
I47
I33
tp2915
sg8
(lp2916
(I103
I50
tp2917
a(I21
I100
tp2918
a(I28
I31
tp2919
a(I97
I38
tp2920
a(I46
I113
tp2921
a(I97
I107
tp2922
a(I81
I80
tp2923
asg23
I200
sba(imain2
Polygon
p2924
(dp2925
g3
(I87
I65
tp2926
sg5
I200
sg6
(I221
I62
I108
I11
tp2927
sg8
(lp2928
(I83
I52
tp2929
a(I87
I40
tp2930
a(I44
I77
tp2931
a(I57
I35
tp2932
a(I73
I93
tp2933
a(I113
I106
tp2934
a(I77
I65
tp2935
a(I65
I27
tp2936
a(I66
I34
tp2937
a(I101
I51
tp2938
a(I42
I54
tp2939
a(I71
I23
tp2940
asg23
I200
sba(imain2
Polygon
p2941
(dp2942
g3
(I110
I191
tp2943
sg5
I200
sg6
(I167
I200
I229
I0
tp2944
sg8
(lp2945
(I157
I166
tp2946
a(I129
I200
tp2947
a(I76
I160
tp2948
a(I128
I195
tp2949
a(I69
I185
tp2950
a(I134
I200
tp2951
a(I90
I198
tp2952
a(I108
I184
tp2953
asg23
I200
sba(imain2
Polygon
p2954
(dp2955
g3
(I108
I110
tp2956
sg5
I200
sg6
(I103
I186
I177
I0
tp2957
sg8
(lp2958
(I137
I129
tp2959
a(I117
I90
tp2960
a(I69
I150
tp2961
a(I157
I91
tp2962
a(I131
I104
tp2963
a(I124
I114
tp2964
a(I143
I62
tp2965
a(I135
I107
tp2966
a(I149
I121
tp2967
a(I126
I125
tp2968
asg23
I200
sba(imain2
Polygon
p2969
(dp2970
g3
(I112
I52
tp2971
sg5
I200
sg6
(I82
I204
I89
I160
tp2972
sg8
(lp2973
(I124
I75
tp2974
a(I152
I55
tp2975
a(I151
I70
tp2976
a(I149
I58
tp2977
asg23
I200
sba.