(lp0
(imain2
Polygon
p1
(dp2
S'origin'
p3
(I39
I29
tp4
sS'h'
p5
I200
sS'color'
p6
(I195
I23
I139
I80
tp7
sS'corner_list'
p8
(lp9
(I0
I0
tp10
a(I33
I71
tp11
a(I71
I41
tp12
a(I83
I36
tp13
a(I71
I0
tp14
a(I18
I34
tp15
a(I0
I33
tp16
a(I18
I16
tp17
a(I0
I37
tp18
a(I83
I19
tp19
a(I58
I39
tp20
a(I4
I54
tp21
a(I21
I30
tp22
a(I13
I20
tp23
a(I39
I30
tp24
a(I64
I0
tp25
asS'w'
p26
I200
sba(imain2
Polygon
p27
(dp28
g3
(I66
I177
tp29
sg5
I200
sg6
(I138
I56
I47
I31
tp30
sg8
(lp31
(I77
I143
tp32
a(I82
I135
tp33
a(I111
I200
tp34
a(I34
I200
tp35
a(I71
I200
tp36
a(I102
I200
tp37
a(I44
I200
tp38
a(I77
I200
tp39
asg26
I200
sba(imain2
Polygon
p40
(dp41
g3
(I59
I53
tp42
sg5
I200
sg6
(I109
I43
I107
I142
tp43
sg8
(lp44
(I106
I10
tp45
a(I26
I102
tp46
a(I9
I53
tp47
a(I59
I26
tp48
a(I63
I3
tp49
a(I45
I35
tp50
a(I40
I72
tp51
a(I32
I51
tp52
a(I38
I88
tp53
a(I97
I87
tp54
a(I109
I84
tp55
a(I91
I22
tp56
a(I92
I46
tp57
a(I76
I61
tp58
a(I97
I29
tp59
a(I20
I53
tp60
a(I53
I45
tp61
a(I57
I67
tp62
asg26
I200
sba(imain2
Polygon
p63
(dp64
g3
(I79
I99
tp65
sg5
I200
sg6
(I72
I89
I68
I91
tp66
sg8
(lp67
(I88
I64
tp68
a(I98
I98
tp69
a(I76
I117
tp70
a(I76
I74
tp71
a(I35
I63
tp72
a(I72
I80
tp73
a(I123
I57
tp74
a(I114
I125
tp75
a(I30
I114
tp76
asg26
I200
sba(imain2
Polygon
p77
(dp78
g3
(I200
I83
tp79
sg5
I200
sg6
(I165
I229
I64
I6
tp80
sg8
(lp81
(I200
I58
tp82
a(I172
I56
tp83
a(I191
I129
tp84
a(I200
I100
tp85
a(I200
I53
tp86
a(I170
I131
tp87
asg26
I200
sba(imain2
Polygon
p88
(dp89
g3
(I48
I136
tp90
sg5
I200
sg6
(I104
I110
I145
I56
tp91
sg8
(lp92
(I74
I106
tp93
a(I87
I127
tp94
a(I94
I141
tp95
a(I43
I102
tp96
a(I5
I168
tp97
a(I60
I171
tp98
a(I89
I93
tp99
a(I7
I140
tp100
a(I87
I101
tp101
a(I86
I178
tp102
a(I47
I126
tp103
a(I46
I109
tp104
a(I2
I151
tp105
a(I64
I175
tp106
a(I58
I161
tp107
a(I45
I165
tp108
a(I87
I144
tp109
a(I84
I92
tp110
a(I79
I93
tp111
a(I69
I164
tp112
asg26
I200
sba(imain2
Polygon
p113
(dp114
g3
(I118
I72
tp115
sg5
I200
sg6
(I132
I137
I60
I50
tp116
sg8
(lp117
(I99
I82
tp118
a(I118
I81
tp119
a(I118
I115
tp120
a(I126
I57
tp121
a(I89
I36
tp122
a(I68
I93
tp123
a(I104
I108
tp124
a(I97
I43
tp125
asg26
I200
sba(imain2
Polygon
p126
(dp127
g3
(I75
I194
tp128
sg5
I200
sg6
(I212
I85
I105
I10
tp129
sg8
(lp130
(I118
I184
tp131
a(I81
I145
tp132
a(I100
I167
tp133
a(I71
I200
tp134
a(I96
I159
tp135
a(I72
I157
tp136
asg26
I200
sba(imain2
Polygon
p137
(dp138
g3
(I7
I180
tp139
sg5
I200
sg6
(I233
I34
I1
I1
tp140
sg8
(lp141
(I28
I179
tp142
a(I0
I200
tp143
a(I0
I200
tp144
a(I0
I158
tp145
a(I0
I192
tp146
a(I41
I140
tp147
a(I39
I200
tp148
a(I50
I143
tp149
a(I0
I200
tp150
a(I0
I188
tp151
a(I5
I200
tp152
asg26
I200
sba(imain2
Polygon
p153
(dp154
g3
(I200
I5
tp155
sg5
I200
sg6
(I172
I75
I111
I30
tp156
sg8
(lp157
(I200
I28
tp158
a(I200
I0
tp159
a(I200
I0
tp160
a(I179
I0
tp161
a(I154
I0
tp162
a(I180
I0
tp163
a(I200
I0
tp164
a(I200
I45
tp165
a(I155
I15
tp166
a(I200
I0
tp167
asg26
I200
sba(imain2
Polygon
p168
(dp169
g3
(I180
I27
tp170
sg5
I200
sg6
(I104
I111
I153
I0
tp171
sg8
(lp172
(I200
I66
tp173
a(I200
I76
tp174
a(I189
I19
tp175
a(I162
I29
tp176
a(I186
I32
tp177
a(I193
I34
tp178
a(I163
I0
tp179
a(I153
I0
tp180
a(I149
I53
tp181
a(I160
I34
tp182
a(I150
I0
tp183
a(I169
I65
tp184
a(I134
I46
tp185
a(I200
I0
tp186
asg26
I200
sba(imain2
Polygon
p187
(dp188
g3
(I59
I197
tp189
sg5
I200
sg6
(I80
I206
I135
I130
tp190
sg8
(lp191
(I98
I200
tp192
a(I93
I157
tp193
a(I71
I197
tp194
a(I54
I200
tp195
asg26
I200
sba(imain2
Polygon
p196
(dp197
g3
(I129
I124
tp198
sg5
I200
sg6
(I169
I187
I96
I62
tp199
sg8
(lp200
(I122
I123
tp201
a(I92
I168
tp202
a(I130
I89
tp203
a(I111
I89
tp204
a(I90
I106
tp205
a(I88
I150
tp206
a(I119
I138
tp207
asg26
I200
sba(imain2
Polygon
p208
(dp209
g3
(I107
I2
tp210
sg5
I200
sg6
(I47
I0
I159
I109
tp211
sg8
(lp212
(I83
I0
tp213
a(I65
I3
tp214
a(I97
I0
tp215
a(I134
I0
tp216
a(I86
I0
tp217
a(I106
I7
tp218
a(I142
I27
tp219
a(I156
I2
tp220
asg26
I200
sba(imain2
Polygon
p221
(dp222
g3
(I25
I107
tp223
sg5
I200
sg6
(I102
I25
I170
I1
tp224
sg8
(lp225
(I30
I146
tp226
a(I12
I69
tp227
a(I0
I123
tp228
a(I0
I68
tp229
a(I47
I130
tp230
a(I63
I86
tp231
a(I32
I154
tp232
a(I47
I83
tp233
a(I47
I135
tp234
a(I22
I124
tp235
a(I0
I59
tp236
a(I3
I58
tp237
a(I0
I103
tp238
a(I9
I75
tp239
a(I7
I139
tp240
a(I58
I86
tp241
asg26
I200
sba(imain2
Polygon
p242
(dp243
g3
(I194
I197
tp244
sg5
I200
sg6
(I7
I196
I62
I88
tp245
sg8
(lp246
(I187
I200
tp247
a(I200
I176
tp248
a(I200
I180
tp249
asg26
I200
sba(imain2
Polygon
p250
(dp251
g3
(I8
I2
tp252
sg5
I200
sg6
(I204
I194
I218
I0
tp253
sg8
(lp254
(I20
I0
tp255
a(I33
I37
tp256
a(I53
I9
tp257
a(I40
I9
tp258
a(I0
I4
tp259
a(I0
I0
tp260
a(I9
I17
tp261
a(I16
I0
tp262
a(I0
I0
tp263
a(I52
I0
tp264
a(I24
I41
tp265
a(I20
I0
tp266
a(I55
I0
tp267
asg26
I200
sba(imain2
Polygon
p268
(dp269
g3
(I171
I144
tp270
sg5
I200
sg6
(I110
I156
I185
I0
tp271
sg8
(lp272
(I136
I112
tp273
a(I126
I156
tp274
a(I165
I102
tp275
a(I132
I120
tp276
a(I176
I147
tp277
a(I123
I111
tp278
a(I198
I129
tp279
a(I177
I113
tp280
asg26
I200
sba(imain2
Polygon
p281
(dp282
g3
(I44
I42
tp283
sg5
I200
sg6
(I78
I127
I74
I0
tp284
sg8
(lp285
(I29
I80
tp286
a(I41
I39
tp287
a(I91
I0
tp288
a(I69
I42
tp289
a(I28
I58
tp290
a(I18
I19
tp291
a(I0
I11
tp292
asg26
I200
sba(imain2
Polygon
p293
(dp294
g3
(I26
I99
tp295
sg5
I200
sg6
(I167
I96
I166
I67
tp296
sg8
(lp297
(I71
I87
tp298
a(I54
I125
tp299
a(I75
I72
tp300
asg26
I200
sba(imain2
Polygon
p301
(dp302
g3
(I114
I46
tp303
sg5
I200
sg6
(I95
I192
I193
I0
tp304
sg8
(lp305
(I79
I0
tp306
a(I126
I34
tp307
a(I145
I56
tp308
a(I90
I66
tp309
a(I64
I42
tp310
a(I158
I59
tp311
asg26
I200
sba(imain2
Polygon
p312
(dp313
g3
(I68
I194
tp314
sg5
I200
sg6
(I85
I192
I149
I0
tp315
sg8
(lp316
(I73
I200
tp317
a(I63
I182
tp318
a(I30
I194
tp319
a(I65
I200
tp320
a(I57
I192
tp321
a(I45
I200
tp322
asg26
I200
sba(imain2
Polygon
p323
(dp324
g3
(I200
I53
tp325
sg5
I200
sg6
(I179
I181
I163
I1
tp326
sg8
(lp327
(I183
I79
tp328
a(I152
I41
tp329
a(I200
I16
tp330
asg26
I200
sba(imain2
Polygon
p331
(dp332
g3
(I172
I155
tp333
sg5
I200
sg6
(I197
I77
I241
I0
tp334
sg8
(lp335
(I156
I193
tp336
a(I186
I112
tp337
a(I135
I150
tp338
a(I144
I130
tp339
a(I139
I119
tp340
a(I158
I120
tp341
a(I138
I123
tp342
a(I177
I185
tp343
a(I166
I121
tp344
a(I154
I196
tp345
a(I200
I135
tp346
a(I197
I144
tp347
a(I200
I163
tp348
asg26
I200
sba(imain2
Polygon
p349
(dp350
g3
(I154
I159
tp351
sg5
I200
sg6
(I53
I205
I33
I0
tp352
sg8
(lp353
(I150
I131
tp354
a(I122
I109
tp355
a(I164
I130
tp356
a(I127
I131
tp357
a(I176
I190
tp358
a(I108
I117
tp359
a(I137
I190
tp360
a(I141
I167
tp361
a(I158
I198
tp362
a(I128
I200
tp363
a(I107
I136
tp364
a(I159
I171
tp365
a(I113
I158
tp366
a(I182
I138
tp367
asg26
I200
sba(imain2
Polygon
p368
(dp369
g3
(I55
I59
tp370
sg5
I200
sg6
(I72
I195
I201
I1
tp371
sg8
(lp372
(I35
I56
tp373
a(I83
I49
tp374
a(I105
I86
tp375
a(I55
I83
tp376
a(I33
I69
tp377
a(I44
I80
tp378
a(I93
I9
tp379
a(I47
I28
tp380
a(I81
I9
tp381
a(I103
I76
tp382
a(I60
I9
tp383
a(I31
I25
tp384
a(I10
I22
tp385
a(I30
I79
tp386
a(I56
I13
tp387
a(I8
I67
tp388
a(I21
I16
tp389
a(I7
I61
tp390
asg26
I200
sba(imain2
Polygon
p391
(dp392
g3
(I127
I147
tp393
sg5
I200
sg6
(I45
I66
I112
I93
tp394
sg8
(lp395
(I109
I194
tp396
a(I79
I101
tp397
a(I97
I160
tp398
a(I161
I191
tp399
asg26
I200
sba(imain2
Polygon
p400
(dp401
g3
(I123
I114
tp402
sg5
I200
sg6
(I116
I0
I6
I1
tp403
sg8
(lp404
(I118
I78
tp405
a(I80
I136
tp406
a(I164
I68
tp407
a(I86
I139
tp408
a(I118
I115
tp409
a(I139
I90
tp410
a(I79
I111
tp411
a(I161
I129
tp412
a(I153
I78
tp413
asg26
I200
sba(imain2
Polygon
p414
(dp415
g3
(I2
I51
tp416
sg5
I200
sg6
(I121
I139
I221
I1
tp417
sg8
(lp418
(I34
I88
tp419
a(I34
I85
tp420
a(I0
I4
tp421
a(I0
I44
tp422
a(I0
I95
tp423
a(I0
I20
tp424
a(I0
I48
tp425
a(I0
I46
tp426
a(I26
I73
tp427
a(I15
I75
tp428
asg26
I200
sba(imain2
Polygon
p429
(dp430
g3
(I166
I21
tp431
sg5
I200
sg6
(I210
I244
I214
I78
tp432
sg8
(lp433
(I200
I0
tp434
a(I200
I59
tp435
a(I169
I70
tp436
a(I131
I0
tp437
a(I153
I0
tp438
a(I131
I6
tp439
a(I135
I0
tp440
a(I200
I0
tp441
a(I150
I71
tp442
asg26
I200
sba(imain2
Polygon
p443
(dp444
g3
(I110
I91
tp445
sg5
I200
sg6
(I127
I32
I29
I0
tp446
sg8
(lp447
(I78
I111
tp448
a(I70
I70
tp449
a(I80
I118
tp450
a(I66
I74
tp451
a(I111
I63
tp452
a(I81
I95
tp453
a(I68
I96
tp454
a(I128
I95
tp455
a(I96
I68
tp456
a(I123
I69
tp457
a(I94
I93
tp458
a(I75
I65
tp459
a(I74
I100
tp460
a(I134
I67
tp461
a(I129
I138
tp462
a(I105
I65
tp463
a(I71
I109
tp464
a(I155
I99
tp465
asg26
I200
sba(imain2
Polygon
p466
(dp467
g3
(I148
I41
tp468
sg5
I200
sg6
(I156
I0
I205
I1
tp469
sg8
(lp470
(I119
I7
tp471
a(I127
I76
tp472
a(I195
I72
tp473
a(I195
I0
tp474
a(I167
I84
tp475
a(I130
I66
tp476
a(I155
I13
tp477
a(I195
I36
tp478
a(I183
I32
tp479
a(I110
I80
tp480
a(I103
I84
tp481
a(I122
I1
tp482
a(I145
I45
tp483
a(I153
I30
tp484
asg26
I200
sba(imain2
Polygon
p485
(dp486
g3
(I188
I159
tp487
sg5
I200
sg6
(I161
I69
I64
I1
tp488
sg8
(lp489
(I200
I159
tp490
a(I166
I141
tp491
a(I200
I172
tp492
a(I200
I144
tp493
a(I200
I137
tp494
a(I200
I118
tp495
a(I197
I200
tp496
a(I156
I170
tp497
asg26
I200
sba(imain2
Polygon
p498
(dp499
g3
(I55
I106
tp500
sg5
I200
sg6
(I54
I89
I40
I1
tp501
sg8
(lp502
(I66
I60
tp503
a(I89
I61
tp504
a(I82
I142
tp505
a(I56
I94
tp506
a(I50
I154
tp507
a(I70
I101
tp508
a(I99
I105
tp509
a(I7
I154
tp510
a(I75
I126
tp511
a(I98
I130
tp512
a(I92
I93
tp513
asg26
I200
sba(imain2
Polygon
p514
(dp515
g3
(I118
I64
tp516
sg5
I200
sg6
(I128
I36
I2
I4
tp517
sg8
(lp518
(I68
I113
tp519
a(I97
I48
tp520
a(I77
I86
tp521
a(I125
I37
tp522
a(I149
I42
tp523
a(I146
I16
tp524
a(I122
I15
tp525
a(I89
I110
tp526
a(I160
I97
tp527
a(I88
I20
tp528
a(I123
I23
tp529
a(I105
I36
tp530
a(I92
I32
tp531
asg26
I200
sba(imain2
Polygon
p532
(dp533
g3
(I101
I127
tp534
sg5
I200
sg6
(I83
I171
I94
I71
tp535
sg8
(lp536
(I82
I132
tp537
a(I66
I119
tp538
a(I83
I154
tp539
a(I132
I81
tp540
a(I63
I110
tp541
asg26
I200
sba(imain2
Polygon
p542
(dp543
g3
(I42
I89
tp544
sg5
I200
sg6
(I17
I90
I177
I0
tp545
sg8
(lp546
(I82
I88
tp547
a(I78
I118
tp548
a(I43
I73
tp549
a(I78
I95
tp550
a(I15
I128
tp551
a(I7
I119
tp552
a(I1
I107
tp553
a(I29
I107
tp554
a(I0
I121
tp555
a(I0
I79
tp556
asg26
I200
sba(imain2
Polygon
p557
(dp558
g3
(I71
I151
tp559
sg5
I200
sg6
(I150
I167
I219
I127
tp560
sg8
(lp561
(I59
I125
tp562
a(I74
I126
tp563
a(I115
I198
tp564
a(I68
I200
tp565
a(I77
I200
tp566
a(I91
I177
tp567
a(I89
I164
tp568
asg26
I200
sba(imain2
Polygon
p569
(dp570
g3
(I13
I141
tp571
sg5
I200
sg6
(I244
I1
I195
I0
tp572
sg8
(lp573
(I0
I181
tp574
a(I0
I181
tp575
a(I0
I165
tp576
a(I0
I166
tp577
a(I0
I119
tp578
a(I8
I155
tp579
a(I53
I153
tp580
a(I0
I157
tp581
a(I0
I112
tp582
a(I30
I173
tp583
a(I38
I142
tp584
a(I47
I102
tp585
a(I28
I117
tp586
asg26
I200
sba(imain2
Polygon
p587
(dp588
g3
(I37
I11
tp589
sg5
I200
sg6
(I113
I18
I9
I93
tp590
sg8
(lp591
(I84
I0
tp592
a(I1
I7
tp593
a(I5
I26
tp594
a(I22
I34
tp595
a(I59
I15
tp596
a(I70
I6
tp597
asg26
I200
sba(imain2
Polygon
p598
(dp599
g3
(I97
I114
tp600
sg5
I200
sg6
(I144
I9
I201
I74
tp601
sg8
(lp602
(I62
I140
tp603
a(I86
I149
tp604
a(I121
I97
tp605
a(I126
I64
tp606
a(I62
I77
tp607
a(I73
I100
tp608
a(I48
I82
tp609
a(I75
I158
tp610
a(I100
I154
tp611
a(I83
I130
tp612
a(I115
I101
tp613
a(I56
I114
tp614
a(I77
I138
tp615
a(I76
I71
tp616
a(I110
I85
tp617
a(I80
I151
tp618
a(I113
I101
tp619
a(I64
I125
tp620
a(I85
I64
tp621
asg26
I200
sba(imain2
Polygon
p622
(dp623
g3
(I77
I12
tp624
sg5
I200
sg6
(I102
I0
I197
I0
tp625
sg8
(lp626
(I34
I0
tp627
a(I85
I0
tp628
a(I42
I0
tp629
a(I30
I23
tp630
a(I50
I51
tp631
a(I99
I49
tp632
a(I69
I0
tp633
a(I50
I1
tp634
a(I51
I42
tp635
asg26
I200
sba(imain2
Polygon
p636
(dp637
g3
(I114
I16
tp638
sg5
I200
sg6
(I0
I100
I177
I141
tp639
sg8
(lp640
(I159
I40
tp641
a(I151
I0
tp642
a(I70
I0
tp643
a(I142
I23
tp644
a(I160
I13
tp645
a(I135
I0
tp646
asg26
I200
sba(imain2
Polygon
p647
(dp648
g3
(I150
I10
tp649
sg5
I200
sg6
(I109
I57
I223
I152
tp650
sg8
(lp651
(I172
I0
tp652
a(I175
I1
tp653
a(I153
I0
tp654
a(I182
I0
tp655
a(I129
I11
tp656
a(I119
I18
tp657
a(I101
I0
tp658
a(I137
I0
tp659
a(I176
I52
tp660
a(I125
I0
tp661
a(I185
I0
tp662
asg26
I200
sba(imain2
Polygon
p663
(dp664
g3
(I41
I10
tp665
sg5
I200
sg6
(I113
I203
I84
I1
tp666
sg8
(lp667
(I28
I17
tp668
a(I23
I53
tp669
a(I0
I4
tp670
a(I86
I0
tp671
a(I16
I18
tp672
a(I35
I18
tp673
asg26
I200
sba(imain2
Polygon
p674
(dp675
g3
(I174
I159
tp676
sg5
I200
sg6
(I169
I106
I84
I92
tp677
sg8
(lp678
(I200
I125
tp679
a(I200
I200
tp680
a(I184
I191
tp681
a(I168
I116
tp682
a(I200
I121
tp683
a(I200
I173
tp684
a(I200
I119
tp685
asg26
I200
sba(imain2
Polygon
p686
(dp687
g3
(I61
I97
tp688
sg5
I200
sg6
(I123
I33
I105
I84
tp689
sg8
(lp690
(I51
I61
tp691
a(I103
I126
tp692
a(I64
I49
tp693
a(I103
I82
tp694
a(I64
I94
tp695
a(I102
I53
tp696
a(I108
I74
tp697
a(I96
I125
tp698
a(I52
I115
tp699
asg26
I200
sba(imain2
Polygon
p700
(dp701
g3
(I180
I97
tp702
sg5
I200
sg6
(I160
I154
I197
I1
tp703
sg8
(lp704
(I200
I88
tp705
a(I200
I108
tp706
a(I200
I138
tp707
a(I172
I65
tp708
a(I200
I145
tp709
a(I137
I86
tp710
a(I181
I70
tp711
asg26
I200
sba(imain2
Polygon
p712
(dp713
g3
(I101
I122
tp714
sg5
I200
sg6
(I163
I84
I0
I67
tp715
sg8
(lp716
(I87
I91
tp717
a(I111
I157
tp718
a(I106
I130
tp719
a(I93
I147
tp720
a(I118
I155
tp721
a(I125
I80
tp722
a(I61
I152
tp723
a(I83
I142
tp724
a(I54
I133
tp725
a(I58
I84
tp726
a(I77
I77
tp727
asg26
I200
sba(imain2
Polygon
p728
(dp729
g3
(I131
I15
tp730
sg5
I200
sg6
(I56
I126
I126
I0
tp731
sg8
(lp732
(I154
I0
tp733
a(I148
I25
tp734
a(I140
I30
tp735
a(I179
I62
tp736
a(I91
I0
tp737
a(I100
I0
tp738
a(I95
I0
tp739
a(I179
I0
tp740
a(I134
I55
tp741
a(I91
I0
tp742
a(I109
I23
tp743
asg26
I200
sba(imain2
Polygon
p744
(dp745
g3
(I113
I24
tp746
sg5
I200
sg6
(I150
I239
I1
I1
tp747
sg8
(lp748
(I163
I0
tp749
a(I88
I27
tp750
a(I125
I69
tp751
a(I154
I20
tp752
a(I125
I3
tp753
a(I119
I36
tp754
a(I117
I66
tp755
a(I110
I46
tp756
a(I138
I18
tp757
a(I122
I0
tp758
a(I77
I58
tp759
a(I140
I72
tp760
a(I82
I0
tp761
asg26
I200
sba(imain2
Polygon
p762
(dp763
g3
(I15
I21
tp764
sg5
I200
sg6
(I42
I40
I25
I1
tp765
sg8
(lp766
(I40
I54
tp767
a(I7
I0
tp768
a(I0
I26
tp769
a(I42
I34
tp770
a(I7
I47
tp771
a(I32
I0
tp772
a(I2
I0
tp773
asg26
I200
sba(imain2
Polygon
p774
(dp775
g3
(I75
I18
tp776
sg5
I200
sg6
(I118
I124
I38
I140
tp777
sg8
(lp778
(I125
I0
tp779
a(I82
I30
tp780
a(I98
I0
tp781
a(I90
I0
tp782
a(I60
I0
tp783
a(I29
I0
tp784
a(I70
I49
tp785
a(I31
I0
tp786
a(I64
I30
tp787
a(I69
I0
tp788
a(I26
I62
tp789
a(I118
I0
tp790
a(I123
I13
tp791
a(I25
I19
tp792
a(I53
I67
tp793
a(I111
I64
tp794
a(I124
I63
tp795
a(I84
I38
tp796
a(I72
I12
tp797
a(I104
I7
tp798
a(I73
I11
tp799
asg26
I200
sba(imain2
Polygon
p800
(dp801
g3
(I147
I31
tp802
sg5
I200
sg6
(I240
I1
I220
I135
tp803
sg8
(lp804
(I189
I0
tp805
a(I196
I42
tp806
a(I180
I38
tp807
a(I168
I65
tp808
a(I153
I34
tp809
a(I193
I77
tp810
a(I183
I0
tp811
a(I187
I24
tp812
a(I176
I51
tp813
a(I126
I17
tp814
a(I116
I7
tp815
a(I130
I0
tp816
asg26
I200
sba(imain2
Polygon
p817
(dp818
g3
(I43
I128
tp819
sg5
I200
sg6
(I89
I21
I103
I118
tp820
sg8
(lp821
(I7
I89
tp822
a(I0
I99
tp823
a(I41
I87
tp824
a(I15
I103
tp825
a(I5
I162
tp826
a(I19
I96
tp827
a(I39
I102
tp828
asg26
I200
sba(imain2
Polygon
p829
(dp830
g3
(I191
I52
tp831
sg5
I200
sg6
(I139
I141
I98
I1
tp832
sg8
(lp833
(I200
I4
tp834
a(I200
I26
tp835
a(I179
I57
tp836
a(I200
I80
tp837
a(I184
I37
tp838
a(I198
I60
tp839
a(I200
I28
tp840
a(I151
I8
tp841
a(I186
I45
tp842
a(I148
I88
tp843
asg26
I200
sba(imain2
Polygon
p844
(dp845
g3
(I124
I96
tp846
sg5
I200
sg6
(I221
I86
I120
I1
tp847
sg8
(lp848
(I156
I93
tp849
a(I154
I145
tp850
a(I106
I89
tp851
a(I140
I135
tp852
a(I90
I146
tp853
a(I91
I110
tp854
a(I151
I68
tp855
a(I138
I110
tp856
a(I109
I135
tp857
a(I167
I93
tp858
a(I87
I114
tp859
a(I123
I118
tp860
asg26
I200
sba(imain2
Polygon
p861
(dp862
g3
(I14
I107
tp863
sg5
I200
sg6
(I54
I1
I216
I125
tp864
sg8
(lp865
(I17
I104
tp866
a(I0
I102
tp867
a(I6
I81
tp868
asg26
I200
sba(imain2
Polygon
p869
(dp870
g3
(I84
I159
tp871
sg5
I200
sg6
(I49
I11
I192
I1
tp872
sg8
(lp873
(I90
I168
tp874
a(I84
I140
tp875
a(I90
I134
tp876
a(I51
I133
tp877
a(I113
I185
tp878
a(I87
I159
tp879
a(I63
I158
tp880
a(I45
I112
tp881
a(I64
I172
tp882
asg26
I200
sba(imain2
Polygon
p883
(dp884
g3
(I141
I115
tp885
sg5
I200
sg6
(I236
I170
I169
I0
tp886
sg8
(lp887
(I178
I152
tp888
a(I152
I78
tp889
a(I149
I65
tp890
asg26
I200
sba(imain2
Polygon
p891
(dp892
g3
(I199
I78
tp893
sg5
I200
sg6
(I204
I201
I83
I122
tp894
sg8
(lp895
(I151
I34
tp896
a(I153
I30
tp897
a(I200
I32
tp898
a(I200
I125
tp899
a(I164
I113
tp900
a(I175
I100
tp901
a(I189
I127
tp902
asg26
I200
sba(imain2
Polygon
p903
(dp904
g3
(I167
I90
tp905
sg5
I200
sg6
(I35
I185
I28
I46
tp906
sg8
(lp907
(I200
I91
tp908
a(I200
I99
tp909
a(I182
I102
tp910
a(I198
I74
tp911
a(I172
I52
tp912
asg26
I200
sba(imain2
Polygon
p913
(dp914
g3
(I17
I14
tp915
sg5
I200
sg6
(I0
I7
I91
I21
tp916
sg8
(lp917
(I12
I21
tp918
a(I58
I8
tp919
a(I24
I22
tp920
a(I0
I31
tp921
a(I8
I0
tp922
a(I28
I11
tp923
a(I0
I17
tp924
a(I0
I29
tp925
a(I55
I54
tp926
a(I54
I3
tp927
a(I0
I50
tp928
a(I42
I60
tp929
a(I16
I31
tp930
a(I44
I37
tp931
asg26
I200
sba(imain2
Polygon
p932
(dp933
g3
(I190
I180
tp934
sg5
I200
sg6
(I224
I103
I47
I1
tp935
sg8
(lp936
(I197
I149
tp937
a(I149
I200
tp938
a(I200
I200
tp939
a(I176
I200
tp940
asg26
I200
sba(imain2
Polygon
p941
(dp942
g3
(I70
I166
tp943
sg5
I200
sg6
(I105
I177
I1
I0
tp944
sg8
(lp945
(I76
I134
tp946
a(I60
I186
tp947
a(I84
I188
tp948
a(I72
I200
tp949
a(I36
I127
tp950
a(I29
I194
tp951
a(I48
I123
tp952
a(I96
I132
tp953
a(I52
I183
tp954
asg26
I200
sba(imain2
Polygon
p955
(dp956
g3
(I196
I185
tp957
sg5
I200
sg6
(I17
I156
I128
I0
tp958
sg8
(lp959
(I200
I166
tp960
a(I198
I140
tp961
a(I152
I139
tp962
a(I171
I192
tp963
a(I151
I200
tp964
a(I186
I148
tp965
a(I200
I200
tp966
asg26
I200
sba(imain2
Polygon
p967
(dp968
g3
(I48
I123
tp969
sg5
I200
sg6
(I164
I43
I17
I90
tp970
sg8
(lp971
(I8
I113
tp972
a(I8
I127
tp973
a(I0
I97
tp974
a(I22
I76
tp975
a(I47
I100
tp976
a(I58
I146
tp977
a(I89
I76
tp978
a(I9
I121
tp979
a(I27
I162
tp980
a(I11
I146
tp981
a(I19
I151
tp982
asg26
I200
sba(imain2
Polygon
p983
(dp984
g3
(I59
I97
tp985
sg5
I200
sg6
(I202
I47
I127
I20
tp986
sg8
(lp987
(I70
I135
tp988
a(I85
I54
tp989
a(I17
I129
tp990
a(I70
I64
tp991
a(I44
I80
tp992
a(I107
I114
tp993
a(I74
I82
tp994
a(I89
I99
tp995
a(I108
I130
tp996
a(I56
I68
tp997
asg26
I200
sba(imain2
Polygon
p998
(dp999
g3
(I17
I149
tp1000
sg5
I200
sg6
(I1
I35
I155
I1
tp1001
sg8
(lp1002
(I26
I188
tp1003
a(I0
I184
tp1004
a(I40
I138
tp1005
a(I0
I172
tp1006
a(I5
I196
tp1007
a(I56
I156
tp1008
a(I40
I145
tp1009
a(I44
I176
tp1010
asg26
I200
sba(imain2
Polygon
p1011
(dp1012
g3
(I88
I2
tp1013
sg5
I200
sg6
(I2
I101
I62
I47
tp1014
sg8
(lp1015
(I95
I0
tp1016
a(I76
I0
tp1017
a(I107
I6
tp1018
a(I48
I0
tp1019
a(I105
I20
tp1020
a(I82
I0
tp1021
a(I78
I0
tp1022
a(I85
I0
tp1023
a(I90
I52
tp1024
asg26
I200
sba(imain2
Polygon
p1025
(dp1026
g3
(I3
I161
tp1027
sg5
I200
sg6
(I174
I17
I188
I4
tp1028
sg8
(lp1029
(I0
I125
tp1030
a(I0
I200
tp1031
a(I0
I141
tp1032
a(I0
I194
tp1033
a(I0
I158
tp1034
a(I0
I170
tp1035
a(I0
I168
tp1036
a(I11
I145
tp1037
a(I0
I121
tp1038
a(I0
I200
tp1039
asg26
I200
sba(imain2
Polygon
p1040
(dp1041
g3
(I98
I58
tp1042
sg5
I200
sg6
(I36
I61
I167
I0
tp1043
sg8
(lp1044
(I126
I105
tp1045
a(I54
I55
tp1046
a(I91
I106
tp1047
a(I145
I40
tp1048
a(I74
I104
tp1049
a(I52
I73
tp1050
asg26
I200
sba(imain2
Polygon
p1051
(dp1052
g3
(I109
I111
tp1053
sg5
I200
sg6
(I227
I37
I97
I0
tp1054
sg8
(lp1055
(I111
I122
tp1056
a(I96
I159
tp1057
a(I64
I113
tp1058
a(I109
I97
tp1059
a(I60
I145
tp1060
a(I103
I136
tp1061
a(I143
I127
tp1062
a(I124
I122
tp1063
a(I74
I92
tp1064
asg26
I200
sba(imain2
Polygon
p1065
(dp1066
g3
(I83
I155
tp1067
sg5
I200
sg6
(I201
I42
I182
I7
tp1068
sg8
(lp1069
(I104
I131
tp1070
a(I129
I115
tp1071
a(I132
I200
tp1072
a(I58
I195
tp1073
a(I112
I160
tp1074
a(I60
I111
tp1075
a(I50
I153
tp1076
a(I51
I131
tp1077
a(I87
I167
tp1078
a(I49
I160
tp1079
a(I120
I173
tp1080
a(I56
I159
tp1081
a(I114
I149
tp1082
a(I84
I144
tp1083
a(I73
I167
tp1084
a(I69
I148
tp1085
a(I109
I186
tp1086
a(I43
I119
tp1087
asg26
I200
sba(imain2
Polygon
p1088
(dp1089
g3
(I81
I21
tp1090
sg5
I200
sg6
(I136
I1
I26
I110
tp1091
sg8
(lp1092
(I69
I0
tp1093
a(I65
I6
tp1094
a(I43
I48
tp1095
a(I90
I0
tp1096
a(I122
I60
tp1097
a(I103
I58
tp1098
a(I63
I3
tp1099
a(I117
I0
tp1100
a(I80
I0
tp1101
asg26
I200
sba(imain2
Polygon
p1102
(dp1103
g3
(I77
I115
tp1104
sg5
I200
sg6
(I91
I237
I217
I1
tp1105
sg8
(lp1106
(I39
I74
tp1107
a(I65
I128
tp1108
a(I27
I121
tp1109
a(I103
I151
tp1110
a(I32
I139
tp1111
a(I85
I78
tp1112
a(I76
I143
tp1113
asg26
I200
sba(imain2
Polygon
p1114
(dp1115
g3
(I108
I110
tp1116
sg5
I200
sg6
(I143
I114
I143
I1
tp1117
sg8
(lp1118
(I109
I74
tp1119
a(I154
I119
tp1120
a(I76
I135
tp1121
a(I149
I65
tp1122
a(I153
I68
tp1123
a(I121
I79
tp1124
a(I101
I139
tp1125
a(I68
I108
tp1126
a(I110
I143
tp1127
a(I124
I94
tp1128
a(I113
I121
tp1129
asg26
I200
sba(imain2
Polygon
p1130
(dp1131
g3
(I7
I122
tp1132
sg5
I200
sg6
(I152
I0
I156
I0
tp1133
sg8
(lp1134
(I1
I75
tp1135
a(I26
I136
tp1136
a(I5
I155
tp1137
a(I35
I73
tp1138
a(I0
I113
tp1139
a(I3
I152
tp1140
a(I0
I123
tp1141
a(I0
I77
tp1142
a(I48
I92
tp1143
a(I57
I139
tp1144
a(I15
I79
tp1145
a(I0
I145
tp1146
a(I0
I160
tp1147
a(I0
I145
tp1148
a(I0
I104
tp1149
a(I23
I87
tp1150
asg26
I200
sba(imain2
Polygon
p1151
(dp1152
g3
(I105
I20
tp1153
sg5
I200
sg6
(I211
I26
I228
I1
tp1154
sg8
(lp1155
(I124
I25
tp1156
a(I117
I17
tp1157
a(I81
I44
tp1158
a(I66
I0
tp1159
a(I143
I0
tp1160
asg26
I200
sba(imain2
Polygon
p1161
(dp1162
g3
(I47
I80
tp1163
sg5
I200
sg6
(I107
I47
I113
I17
tp1164
sg8
(lp1165
(I55
I102
tp1166
a(I20
I55
tp1167
a(I24
I107
tp1168
a(I6
I49
tp1169
a(I87
I50
tp1170
a(I35
I42
tp1171
a(I19
I65
tp1172
a(I52
I37
tp1173
a(I11
I37
tp1174
a(I13
I128
tp1175
a(I45
I105
tp1176
a(I40
I86
tp1177
a(I37
I61
tp1178
a(I19
I101
tp1179
a(I19
I59
tp1180
a(I86
I34
tp1181
a(I7
I60
tp1182
a(I68
I74
tp1183
a(I54
I57
tp1184
a(I13
I123
tp1185
asg26
I200
sba(imain2
Polygon
p1186
(dp1187
g3
(I131
I30
tp1188
sg5
I200
sg6
(I203
I122
I168
I0
tp1189
sg8
(lp1190
(I120
I0
tp1191
a(I155
I10
tp1192
a(I162
I8
tp1193
asg26
I200
sba(imain2
Polygon
p1194
(dp1195
g3
(I199
I39
tp1196
sg5
I200
sg6
(I91
I188
I105
I53
tp1197
sg8
(lp1198
(I187
I1
tp1199
a(I150
I0
tp1200
a(I200
I89
tp1201
a(I200
I6
tp1202
a(I178
I0
tp1203
asg26
I200
sba(imain2
Polygon
p1204
(dp1205
g3
(I110
I156
tp1206
sg5
I200
sg6
(I188
I90
I124
I1
tp1207
sg8
(lp1208
(I106
I166
tp1209
a(I138
I163
tp1210
a(I97
I173
tp1211
a(I131
I138
tp1212
a(I116
I137
tp1213
a(I160
I151
tp1214
a(I76
I198
tp1215
a(I123
I125
tp1216
a(I133
I146
tp1217
a(I154
I193
tp1218
a(I76
I200
tp1219
a(I138
I148
tp1220
a(I100
I170
tp1221
a(I144
I153
tp1222
a(I152
I115
tp1223
a(I69
I200
tp1224
asg26
I200
sba(imain2
Polygon
p1225
(dp1226
g3
(I14
I89
tp1227
sg5
I200
sg6
(I200
I19
I24
I72
tp1228
sg8
(lp1229
(I0
I61
tp1230
a(I49
I72
tp1231
a(I53
I72
tp1232
a(I55
I44
tp1233
a(I17
I118
tp1234
a(I0
I99
tp1235
a(I5
I50
tp1236
a(I11
I80
tp1237
asg26
I200
sba(imain2
Polygon
p1238
(dp1239
g3
(I124
I127
tp1240
sg5
I200
sg6
(I172
I217
I170
I1
tp1241
sg8
(lp1242
(I114
I145
tp1243
a(I143
I86
tp1244
a(I81
I155
tp1245
a(I111
I115
tp1246
a(I147
I96
tp1247
a(I97
I169
tp1248
a(I170
I95
tp1249
a(I135
I124
tp1250
a(I104
I171
tp1251
a(I92
I110
tp1252
a(I130
I141
tp1253
a(I160
I103
tp1254
a(I97
I110
tp1255
asg26
I200
sba(imain2
Polygon
p1256
(dp1257
g3
(I97
I78
tp1258
sg5
I200
sg6
(I146
I200
I157
I1
tp1259
sg8
(lp1260
(I84
I95
tp1261
a(I62
I103
tp1262
a(I66
I110
tp1263
a(I110
I111
tp1264
a(I135
I109
tp1265
a(I118
I78
tp1266
a(I78
I58
tp1267
a(I97
I51
tp1268
a(I84
I107
tp1269
a(I55
I62
tp1270
a(I54
I111
tp1271
a(I77
I65
tp1272
asg26
I200
sba(imain2
Polygon
p1273
(dp1274
g3
(I71
I43
tp1275
sg5
I200
sg6
(I218
I210
I118
I1
tp1276
sg8
(lp1277
(I107
I87
tp1278
a(I75
I22
tp1279
a(I79
I84
tp1280
a(I57
I62
tp1281
a(I77
I18
tp1282
a(I50
I41
tp1283
a(I38
I52
tp1284
a(I75
I14
tp1285
a(I39
I86
tp1286
asg26
I200
sba(imain2
Polygon
p1287
(dp1288
g3
(I109
I75
tp1289
sg5
I200
sg6
(I108
I159
I66
I124
tp1290
sg8
(lp1291
(I63
I26
tp1292
a(I62
I79
tp1293
a(I120
I76
tp1294
a(I87
I26
tp1295
a(I64
I35
tp1296
a(I71
I69
tp1297
asg26
I200
sba(imain2
Polygon
p1298
(dp1299
g3
(I149
I45
tp1300
sg5
I200
sg6
(I206
I139
I126
I84
tp1301
sg8
(lp1302
(I199
I90
tp1303
a(I165
I70
tp1304
a(I161
I69
tp1305
a(I183
I12
tp1306
a(I128
I0
tp1307
a(I175
I87
tp1308
a(I158
I84
tp1309
a(I187
I0
tp1310
a(I192
I43
tp1311
a(I189
I0
tp1312
a(I130
I0
tp1313
a(I195
I19
tp1314
a(I199
I27
tp1315
asg26
I200
sba(imain2
Polygon
p1316
(dp1317
g3
(I29
I98
tp1318
sg5
I200
sg6
(I6
I134
I169
I37
tp1319
sg8
(lp1320
(I0
I145
tp1321
a(I62
I70
tp1322
a(I0
I73
tp1323
a(I0
I142
tp1324
a(I32
I77
tp1325
a(I67
I79
tp1326
a(I60
I84
tp1327
a(I0
I135
tp1328
a(I28
I90
tp1329
a(I56
I50
tp1330
a(I3
I123
tp1331
asg26
I200
sba(imain2
Polygon
p1332
(dp1333
g3
(I90
I62
tp1334
sg5
I200
sg6
(I176
I117
I130
I1
tp1335
sg8
(lp1336
(I98
I15
tp1337
a(I61
I49
tp1338
a(I54
I78
tp1339
a(I100
I106
tp1340
a(I119
I28
tp1341
a(I87
I21
tp1342
asg26
I200
sba(imain2
Polygon
p1343
(dp1344
g3
(I63
I49
tp1345
sg5
I200
sg6
(I219
I250
I133
I1
tp1346
sg8
(lp1347
(I75
I83
tp1348
a(I30
I15
tp1349
a(I53
I1
tp1350
a(I14
I3
tp1351
a(I93
I64
tp1352
a(I85
I25
tp1353
a(I69
I24
tp1354
a(I99
I65
tp1355
a(I94
I60
tp1356
a(I24
I58
tp1357
asg26
I200
sba(imain2
Polygon
p1358
(dp1359
g3
(I31
I132
tp1360
sg5
I200
sg6
(I73
I118
I196
I14
tp1361
sg8
(lp1362
(I8
I160
tp1363
a(I35
I167
tp1364
a(I5
I181
tp1365
a(I0
I120
tp1366
a(I53
I134
tp1367
a(I10
I143
tp1368
a(I31
I164
tp1369
a(I9
I172
tp1370
a(I0
I125
tp1371
a(I0
I146
tp1372
a(I14
I172
tp1373
a(I49
I135
tp1374
a(I73
I127
tp1375
a(I37
I163
tp1376
a(I19
I109
tp1377
asg26
I200
sba(imain2
Polygon
p1378
(dp1379
g3
(I80
I158
tp1380
sg5
I200
sg6
(I24
I43
I59
I1
tp1381
sg8
(lp1382
(I62
I145
tp1383
a(I111
I200
tp1384
a(I114
I200
tp1385
a(I55
I186
tp1386
a(I94
I151
tp1387
a(I69
I136
tp1388
a(I105
I129
tp1389
a(I74
I194
tp1390
a(I65
I200
tp1391
a(I111
I109
tp1392
a(I67
I151
tp1393
a(I124
I119
tp1394
a(I102
I143
tp1395
a(I47
I154
tp1396
a(I37
I162
tp1397
a(I128
I170
tp1398
a(I82
I200
tp1399
a(I117
I168
tp1400
a(I120
I184
tp1401
a(I85
I183
tp1402
asg26
I200
sba(imain2
Polygon
p1403
(dp1404
g3
(I168
I51
tp1405
sg5
I200
sg6
(I100
I203
I209
I1
tp1406
sg8
(lp1407
(I123
I53
tp1408
a(I174
I19
tp1409
a(I153
I39
tp1410
a(I195
I54
tp1411
a(I119
I61
tp1412
a(I190
I11
tp1413
asg26
I200
sba(imain2
Polygon
p1414
(dp1415
g3
(I110
I14
tp1416
sg5
I200
sg6
(I156
I137
I49
I147
tp1417
sg8
(lp1418
(I118
I49
tp1419
a(I72
I59
tp1420
a(I101
I0
tp1421
a(I156
I0
tp1422
a(I158
I0
tp1423
a(I157
I28
tp1424
a(I144
I28
tp1425
a(I61
I0
tp1426
a(I67
I58
tp1427
a(I105
I0
tp1428
a(I140
I0
tp1429
a(I61
I0
tp1430
a(I77
I25
tp1431
asg26
I200
sba(imain2
Polygon
p1432
(dp1433
g3
(I85
I94
tp1434
sg5
I200
sg6
(I202
I232
I84
I64
tp1435
sg8
(lp1436
(I43
I56
tp1437
a(I110
I104
tp1438
a(I62
I48
tp1439
a(I105
I45
tp1440
a(I125
I73
tp1441
a(I92
I95
tp1442
a(I79
I138
tp1443
a(I109
I144
tp1444
a(I124
I111
tp1445
a(I62
I45
tp1446
a(I45
I66
tp1447
a(I55
I129
tp1448
a(I107
I102
tp1449
asg26
I200
sba(imain2
Polygon
p1450
(dp1451
g3
(I153
I81
tp1452
sg5
I200
sg6
(I121
I86
I189
I0
tp1453
sg8
(lp1454
(I165
I41
tp1455
a(I121
I118
tp1456
a(I150
I46
tp1457
a(I188
I103
tp1458
a(I163
I70
tp1459
a(I188
I127
tp1460
asg26
I200
sba(imain2
Polygon
p1461
(dp1462
g3
(I146
I37
tp1463
sg5
I200
sg6
(I227
I83
I157
I0
tp1464
sg8
(lp1465
(I166
I5
tp1466
a(I140
I78
tp1467
a(I105
I42
tp1468
a(I147
I30
tp1469
a(I170
I57
tp1470
a(I101
I19
tp1471
a(I126
I50
tp1472
asg26
I200
sba(imain2
Polygon
p1473
(dp1474
g3
(I36
I71
tp1475
sg5
I200
sg6
(I178
I120
I134
I0
tp1476
sg8
(lp1477
(I67
I92
tp1478
a(I15
I104
tp1479
a(I71
I32
tp1480
a(I14
I70
tp1481
a(I48
I38
tp1482
a(I0
I51
tp1483
a(I13
I40
tp1484
a(I50
I114
tp1485
a(I29
I32
tp1486
a(I61
I117
tp1487
a(I10
I121
tp1488
asg26
I200
sba(imain2
Polygon
p1489
(dp1490
g3
(I36
I181
tp1491
sg5
I200
sg6
(I143
I212
I96
I77
tp1492
sg8
(lp1493
(I78
I149
tp1494
a(I48
I150
tp1495
a(I81
I147
tp1496
a(I71
I200
tp1497
a(I13
I140
tp1498
a(I43
I172
tp1499
a(I80
I200
tp1500
a(I55
I200
tp1501
a(I66
I188
tp1502
a(I68
I200
tp1503
a(I71
I200
tp1504
asg26
I200
sba(imain2
Polygon
p1505
(dp1506
g3
(I94
I181
tp1507
sg5
I200
sg6
(I112
I49
I36
I1
tp1508
sg8
(lp1509
(I110
I200
tp1510
a(I73
I197
tp1511
a(I108
I160
tp1512
a(I119
I171
tp1513
a(I133
I167
tp1514
a(I44
I131
tp1515
a(I112
I200
tp1516
a(I122
I170
tp1517
asg26
I200
sba(imain2
Polygon
p1518
(dp1519
g3
(I4
I26
tp1520
sg5
I200
sg6
(I28
I104
I59
I43
tp1521
sg8
(lp1522
(I25
I0
tp1523
a(I25
I0
tp1524
a(I1
I19
tp1525
a(I0
I38
tp1526
a(I0
I38
tp1527
a(I9
I3
tp1528
a(I54
I51
tp1529
a(I32
I59
tp1530
a(I0
I27
tp1531
a(I36
I14
tp1532
a(I0
I76
tp1533
a(I0
I0
tp1534
a(I4
I45
tp1535
a(I0
I38
tp1536
a(I49
I33
tp1537
asg26
I200
sba(imain2
Polygon
p1538
(dp1539
g3
(I14
I45
tp1540
sg5
I200
sg6
(I146
I107
I1
I1
tp1541
sg8
(lp1542
(I0
I56
tp1543
a(I0
I0
tp1544
a(I0
I69
tp1545
a(I26
I76
tp1546
a(I0
I21
tp1547
a(I21
I81
tp1548
a(I8
I81
tp1549
a(I0
I21
tp1550
a(I0
I73
tp1551
asg26
I200
sba(imain2
Polygon
p1552
(dp1553
g3
(I103
I69
tp1554
sg5
I200
sg6
(I231
I218
I1
I41
tp1555
sg8
(lp1556
(I55
I36
tp1557
a(I53
I116
tp1558
a(I125
I109
tp1559
a(I135
I89
tp1560
a(I85
I19
tp1561
asg26
I200
sba(imain2
Polygon
p1562
(dp1563
g3
(I61
I77
tp1564
sg5
I200
sg6
(I60
I121
I190
I128
tp1565
sg8
(lp1566
(I106
I108
tp1567
a(I88
I94
tp1568
a(I89
I87
tp1569
asg26
I200
sba(imain2
Polygon
p1570
(dp1571
g3
(I36
I98
tp1572
sg5
I200
sg6
(I0
I199
I73
I42
tp1573
sg8
(lp1574
(I28
I97
tp1575
a(I4
I90
tp1576
a(I0
I121
tp1577
a(I0
I53
tp1578
a(I80
I75
tp1579
a(I30
I53
tp1580
a(I0
I53
tp1581
a(I18
I50
tp1582
a(I42
I52
tp1583
a(I19
I124
tp1584
asg26
I200
sba(imain2
Polygon
p1585
(dp1586
g3
(I20
I133
tp1587
sg5
I200
sg6
(I198
I238
I132
I82
tp1588
sg8
(lp1589
(I30
I179
tp1590
a(I0
I181
tp1591
a(I0
I175
tp1592
a(I21
I139
tp1593
a(I28
I170
tp1594
asg26
I200
sba(imain2
Polygon
p1595
(dp1596
g3
(I178
I74
tp1597
sg5
I200
sg6
(I31
I119
I26
I0
tp1598
sg8
(lp1599
(I182
I58
tp1600
a(I128
I75
tp1601
a(I200
I57
tp1602
a(I161
I83
tp1603
a(I176
I104
tp1604
a(I176
I34
tp1605
a(I200
I79
tp1606
a(I140
I63
tp1607
asg26
I200
sba(imain2
Polygon
p1608
(dp1609
g3
(I191
I151
tp1610
sg5
I200
sg6
(I238
I39
I76
I65
tp1611
sg8
(lp1612
(I190
I106
tp1613
a(I200
I171
tp1614
a(I200
I189
tp1615
asg26
I200
sba(imain2
Polygon
p1616
(dp1617
g3
(I81
I200
tp1618
sg5
I200
sg6
(I41
I59
I159
I34
tp1619
sg8
(lp1620
(I63
I200
tp1621
a(I33
I187
tp1622
a(I38
I191
tp1623
a(I59
I200
tp1624
a(I46
I200
tp1625
a(I69
I176
tp1626
a(I46
I200
tp1627
a(I62
I200
tp1628
a(I32
I200
tp1629
asg26
I200
sba(imain2
Polygon
p1630
(dp1631
g3
(I8
I200
tp1632
sg5
I200
sg6
(I236
I14
I66
I137
tp1633
sg8
(lp1634
(I0
I200
tp1635
a(I0
I200
tp1636
a(I41
I200
tp1637
a(I52
I200
tp1638
a(I23
I200
tp1639
a(I0
I200
tp1640
a(I0
I200
tp1641
a(I0
I200
tp1642
a(I0
I200
tp1643
asg26
I200
sba(imain2
Polygon
p1644
(dp1645
g3
(I12
I187
tp1646
sg5
I200
sg6
(I224
I0
I178
I0
tp1647
sg8
(lp1648
(I46
I200
tp1649
a(I0
I167
tp1650
a(I22
I200
tp1651
a(I0
I174
tp1652
a(I0
I174
tp1653
a(I0
I200
tp1654
a(I0
I190
tp1655
a(I0
I160
tp1656
a(I25
I200
tp1657
a(I0
I198
tp1658
a(I20
I145
tp1659
a(I16
I198
tp1660
asg26
I200
sba(imain2
Polygon
p1661
(dp1662
g3
(I142
I43
tp1663
sg5
I200
sg6
(I50
I77
I163
I7
tp1664
sg8
(lp1665
(I97
I32
tp1666
a(I149
I90
tp1667
a(I148
I68
tp1668
a(I159
I5
tp1669
a(I118
I49
tp1670
a(I136
I59
tp1671
a(I138
I14
tp1672
a(I123
I43
tp1673
a(I150
I57
tp1674
a(I122
I35
tp1675
a(I124
I30
tp1676
a(I138
I19
tp1677
a(I122
I27
tp1678
a(I121
I37
tp1679
asg26
I200
sba(imain2
Polygon
p1680
(dp1681
g3
(I89
I37
tp1682
sg5
I200
sg6
(I0
I103
I197
I80
tp1683
sg8
(lp1684
(I104
I35
tp1685
a(I54
I51
tp1686
a(I55
I50
tp1687
asg26
I200
sba(imain2
Polygon
p1688
(dp1689
g3
(I43
I51
tp1690
sg5
I200
sg6
(I36
I141
I122
I1
tp1691
sg8
(lp1692
(I15
I67
tp1693
a(I36
I91
tp1694
a(I91
I92
tp1695
a(I54
I93
tp1696
a(I39
I44
tp1697
a(I47
I38
tp1698
a(I86
I5
tp1699
a(I62
I59
tp1700
a(I37
I59
tp1701
a(I76
I99
tp1702
a(I47
I50
tp1703
a(I2
I88
tp1704
a(I39
I83
tp1705
a(I88
I11
tp1706
a(I79
I30
tp1707
a(I25
I83
tp1708
a(I12
I42
tp1709
a(I15
I62
tp1710
asg26
I200
sba(imain2
Polygon
p1711
(dp1712
g3
(I23
I143
tp1713
sg5
I200
sg6
(I73
I246
I171
I48
tp1714
sg8
(lp1715
(I0
I144
tp1716
a(I0
I130
tp1717
a(I0
I188
tp1718
a(I29
I191
tp1719
a(I34
I148
tp1720
a(I0
I157
tp1721
a(I0
I133
tp1722
asg26
I200
sba(imain2
Polygon
p1723
(dp1724
g3
(I32
I143
tp1725
sg5
I200
sg6
(I52
I70
I161
I0
tp1726
sg8
(lp1727
(I61
I156
tp1728
a(I32
I159
tp1729
a(I64
I175
tp1730
a(I56
I160
tp1731
a(I0
I105
tp1732
a(I81
I115
tp1733
a(I71
I116
tp1734
a(I68
I151
tp1735
a(I55
I190
tp1736
a(I63
I118
tp1737
a(I41
I99
tp1738
a(I39
I147
tp1739
a(I55
I193
tp1740
a(I69
I169
tp1741
a(I53
I187
tp1742
a(I41
I126
tp1743
a(I64
I151
tp1744
asg26
I200
sba(imain2
Polygon
p1745
(dp1746
g3
(I69
I107
tp1747
sg5
I200
sg6
(I159
I229
I0
I16
tp1748
sg8
(lp1749
(I92
I73
tp1750
a(I40
I61
tp1751
a(I48
I101
tp1752
a(I58
I92
tp1753
a(I103
I75
tp1754
a(I57
I154
tp1755
a(I29
I60
tp1756
a(I19
I90
tp1757
a(I93
I154
tp1758
a(I47
I112
tp1759
a(I69
I96
tp1760
a(I113
I129
tp1761
a(I73
I153
tp1762
asg26
I200
sba(imain2
Polygon
p1763
(dp1764
g3
(I172
I111
tp1765
sg5
I200
sg6
(I237
I213
I84
I127
tp1766
sg8
(lp1767
(I162
I84
tp1768
a(I200
I88
tp1769
a(I177
I85
tp1770
asg26
I200
sba(imain2
Polygon
p1771
(dp1772
g3
(I150
I91
tp1773
sg5
I200
sg6
(I8
I241
I87
I45
tp1774
sg8
(lp1775
(I174
I136
tp1776
a(I165
I85
tp1777
a(I174
I90
tp1778
a(I192
I141
tp1779
asg26
I200
sba(imain2
Polygon
p1780
(dp1781
g3
(I135
I188
tp1782
sg5
I200
sg6
(I77
I227
I6
I0
tp1783
sg8
(lp1784
(I161
I187
tp1785
a(I119
I200
tp1786
a(I94
I154
tp1787
a(I127
I200
tp1788
a(I141
I192
tp1789
a(I102
I176
tp1790
a(I87
I200
tp1791
a(I174
I200
tp1792
a(I114
I200
tp1793
a(I174
I151
tp1794
asg26
I200
sba(imain2
Polygon
p1795
(dp1796
g3
(I127
I113
tp1797
sg5
I200
sg6
(I133
I210
I151
I10
tp1798
sg8
(lp1799
(I116
I100
tp1800
a(I127
I78
tp1801
a(I164
I110
tp1802
a(I146
I135
tp1803
a(I111
I130
tp1804
asg26
I200
sba(imain2
Polygon
p1805
(dp1806
g3
(I173
I20
tp1807
sg5
I200
sg6
(I231
I0
I218
I1
tp1808
sg8
(lp1809
(I147
I47
tp1810
a(I198
I62
tp1811
a(I171
I46
tp1812
a(I200
I0
tp1813
a(I159
I22
tp1814
a(I126
I0
tp1815
a(I137
I18
tp1816
a(I152
I0
tp1817
a(I189
I36
tp1818
a(I123
I0
tp1819
a(I200
I0
tp1820
a(I174
I41
tp1821
a(I163
I0
tp1822
a(I173
I0
tp1823
a(I186
I12
tp1824
a(I200
I35
tp1825
asg26
I200
sba(imain2
Polygon
p1826
(dp1827
g3
(I100
I197
tp1828
sg5
I200
sg6
(I34
I102
I176
I66
tp1829
sg8
(lp1830
(I99
I200
tp1831
a(I118
I200
tp1832
a(I147
I200
tp1833
a(I104
I151
tp1834
a(I135
I187
tp1835
a(I106
I200
tp1836
a(I137
I200
tp1837
a(I92
I200
tp1838
a(I135
I200
tp1839
a(I85
I200
tp1840
a(I133
I200
tp1841
a(I139
I200
tp1842
a(I55
I200
tp1843
a(I121
I200
tp1844
asg26
I200
sba(imain2
Polygon
p1845
(dp1846
g3
(I70
I0
tp1847
sg5
I200
sg6
(I136
I0
I195
I1
tp1848
sg8
(lp1849
(I62
I0
tp1850
a(I115
I27
tp1851
a(I33
I15
tp1852
a(I90
I0
tp1853
a(I107
I0
tp1854
a(I44
I0
tp1855
a(I34
I24
tp1856
asg26
I200
sba(imain2
Polygon
p1857
(dp1858
g3
(I106
I152
tp1859
sg5
I200
sg6
(I99
I163
I62
I66
tp1860
sg8
(lp1861
(I133
I114
tp1862
a(I119
I166
tp1863
a(I59
I200
tp1864
a(I140
I199
tp1865
a(I115
I114
tp1866
a(I85
I153
tp1867
a(I124
I140
tp1868
a(I138
I185
tp1869
a(I122
I150
tp1870
a(I68
I141
tp1871
a(I112
I141
tp1872
asg26
I200
sba(imain2
Polygon
p1873
(dp1874
g3
(I11
I38
tp1875
sg5
I200
sg6
(I111
I0
I124
I5
tp1876
sg8
(lp1877
(I26
I79
tp1878
a(I0
I37
tp1879
a(I35
I52
tp1880
a(I0
I12
tp1881
a(I8
I17
tp1882
a(I0
I79
tp1883
a(I52
I31
tp1884
a(I51
I63
tp1885
a(I13
I62
tp1886
a(I53
I84
tp1887
a(I0
I54
tp1888
asg26
I200
sba(imain2
Polygon
p1889
(dp1890
g3
(I23
I68
tp1891
sg5
I200
sg6
(I217
I111
I190
I123
tp1892
sg8
(lp1893
(I35
I109
tp1894
a(I24
I85
tp1895
a(I54
I19
tp1896
a(I25
I33
tp1897
a(I35
I32
tp1898
a(I64
I43
tp1899
a(I0
I19
tp1900
a(I0
I111
tp1901
a(I7
I98
tp1902
a(I38
I112
tp1903
a(I4
I66
tp1904
asg26
I200
sba(imain2
Polygon
p1905
(dp1906
g3
(I73
I8
tp1907
sg5
I200
sg6
(I107
I163
I20
I134
tp1908
sg8
(lp1909
(I33
I0
tp1910
a(I113
I0
tp1911
a(I27
I56
tp1912
a(I23
I45
tp1913
a(I27
I13
tp1914
a(I32
I0
tp1915
a(I39
I6
tp1916
a(I49
I29
tp1917
a(I58
I40
tp1918
asg26
I200
sba(imain2
Polygon
p1919
(dp1920
g3
(I175
I187
tp1921
sg5
I200
sg6
(I119
I193
I198
I56
tp1922
sg8
(lp1923
(I186
I200
tp1924
a(I170
I200
tp1925
a(I146
I200
tp1926
asg26
I200
sba(imain2
Polygon
p1927
(dp1928
g3
(I153
I195
tp1929
sg5
I200
sg6
(I54
I166
I29
I0
tp1930
sg8
(lp1931
(I179
I189
tp1932
a(I164
I149
tp1933
a(I144
I196
tp1934
a(I129
I157
tp1935
a(I158
I200
tp1936
a(I192
I184
tp1937
a(I140
I198
tp1938
a(I125
I147
tp1939
asg26
I200
sba(imain2
Polygon
p1940
(dp1941
g3
(I199
I6
tp1942
sg5
I200
sg6
(I144
I40
I87
I1
tp1943
sg8
(lp1944
(I156
I21
tp1945
a(I200
I0
tp1946
a(I200
I0
tp1947
a(I149
I0
tp1948
a(I200
I20
tp1949
a(I200
I0
tp1950
a(I200
I0
tp1951
a(I200
I0
tp1952
asg26
I200
sba(imain2
Polygon
p1953
(dp1954
g3
(I46
I191
tp1955
sg5
I200
sg6
(I91
I15
I8
I116
tp1956
sg8
(lp1957
(I69
I200
tp1958
a(I73
I200
tp1959
a(I94
I165
tp1960
a(I0
I200
tp1961
a(I0
I146
tp1962
a(I27
I155
tp1963
a(I79
I193
tp1964
a(I34
I181
tp1965
a(I35
I167
tp1966
asg26
I200
sba(imain2
Polygon
p1967
(dp1968
g3
(I144
I179
tp1969
sg5
I200
sg6
(I125
I32
I190
I42
tp1970
sg8
(lp1971
(I150
I154
tp1972
a(I161
I152
tp1973
a(I115
I194
tp1974
a(I130
I191
tp1975
a(I102
I180
tp1976
a(I191
I200
tp1977
a(I106
I200
tp1978
a(I113
I200
tp1979
a(I133
I183
tp1980
a(I99
I183
tp1981
a(I164
I155
tp1982
a(I148
I156
tp1983
a(I120
I177
tp1984
a(I154
I153
tp1985
a(I168
I199
tp1986
a(I168
I200
tp1987
asg26
I200
sba(imain2
Polygon
p1988
(dp1989
g3
(I120
I46
tp1990
sg5
I200
sg6
(I83
I82
I102
I55
tp1991
sg8
(lp1992
(I118
I65
tp1993
a(I133
I48
tp1994
a(I126
I24
tp1995
a(I97
I17
tp1996
a(I112
I27
tp1997
a(I132
I30
tp1998
a(I113
I91
tp1999
a(I132
I24
tp2000
asg26
I200
sba(imain2
Polygon
p2001
(dp2002
g3
(I100
I144
tp2003
sg5
I200
sg6
(I123
I183
I166
I118
tp2004
sg8
(lp2005
(I112
I95
tp2006
a(I104
I138
tp2007
a(I98
I126
tp2008
a(I74
I100
tp2009
a(I73
I147
tp2010
a(I83
I152
tp2011
a(I125
I151
tp2012
a(I68
I158
tp2013
a(I56
I110
tp2014
a(I69
I97
tp2015
asg26
I200
sba(imain2
Polygon
p2016
(dp2017
g3
(I151
I184
tp2018
sg5
I200
sg6
(I139
I0
I175
I2
tp2019
sg8
(lp2020
(I141
I163
tp2021
a(I169
I169
tp2022
a(I122
I200
tp2023
a(I133
I135
tp2024
asg26
I200
sba(imain2
Polygon
p2025
(dp2026
g3
(I124
I187
tp2027
sg5
I200
sg6
(I25
I27
I211
I0
tp2028
sg8
(lp2029
(I154
I200
tp2030
a(I164
I200
tp2031
a(I90
I200
tp2032
a(I140
I200
tp2033
a(I119
I200
tp2034
a(I80
I200
tp2035
a(I143
I154
tp2036
a(I84
I200
tp2037
asg26
I200
sba(imain2
Polygon
p2038
(dp2039
g3
(I48
I52
tp2040
sg5
I200
sg6
(I247
I132
I161
I141
tp2041
sg8
(lp2042
(I58
I94
tp2043
a(I79
I94
tp2044
a(I97
I60
tp2045
a(I67
I7
tp2046
a(I35
I65
tp2047
a(I31
I93
tp2048
a(I88
I8
tp2049
a(I0
I3
tp2050
a(I0
I82
tp2051
a(I2
I102
tp2052
a(I65
I76
tp2053
a(I18
I85
tp2054
a(I75
I83
tp2055
asg26
I200
sba(imain2
Polygon
p2056
(dp2057
g3
(I139
I74
tp2058
sg5
I200
sg6
(I152
I190
I237
I87
tp2059
sg8
(lp2060
(I174
I48
tp2061
a(I189
I47
tp2062
a(I185
I26
tp2063
a(I157
I30
tp2064
a(I169
I88
tp2065
a(I187
I48
tp2066
asg26
I200
sba(imain2
Polygon
p2067
(dp2068
g3
(I161
I83
tp2069
sg5
I200
sg6
(I202
I149
I103
I30
tp2070
sg8
(lp2071
(I114
I113
tp2072
a(I114
I49
tp2073
a(I178
I77
tp2074
a(I155
I98
tp2075
a(I177
I113
tp2076
a(I199
I106
tp2077
a(I200
I106
tp2078
a(I200
I49
tp2079
a(I140
I35
tp2080
a(I197
I72
tp2081
a(I199
I71
tp2082
a(I145
I53
tp2083
a(I124
I126
tp2084
asg26
I200
sba(imain2
Polygon
p2085
(dp2086
g3
(I88
I36
tp2087
sg5
I200
sg6
(I1
I30
I71
I113
tp2088
sg8
(lp2089
(I80
I10
tp2090
a(I49
I39
tp2091
a(I102
I37
tp2092
a(I120
I27
tp2093
a(I125
I14
tp2094
a(I135
I16
tp2095
a(I71
I9
tp2096
a(I83
I9
tp2097
a(I58
I13
tp2098
asg26
I200
sba(imain2
Polygon
p2099
(dp2100
g3
(I12
I36
tp2101
sg5
I200
sg6
(I168
I102
I213
I1
tp2102
sg8
(lp2103
(I6
I61
tp2104
a(I31
I82
tp2105
a(I0
I69
tp2106
a(I50
I5
tp2107
a(I55
I26
tp2108
a(I0
I34
tp2109
asg26
I200
sba(imain2
Polygon
p2110
(dp2111
g3
(I79
I176
tp2112
sg5
I200
sg6
(I199
I84
I170
I102
tp2113
sg8
(lp2114
(I129
I200
tp2115
a(I119
I162
tp2116
a(I69
I200
tp2117
a(I128
I200
tp2118
a(I113
I200
tp2119
asg26
I200
sba(imain2
Polygon
p2120
(dp2121
g3
(I159
I193
tp2122
sg5
I200
sg6
(I189
I173
I62
I1
tp2123
sg8
(lp2124
(I118
I200
tp2125
a(I136
I181
tp2126
a(I179
I191
tp2127
a(I138
I149
tp2128
a(I180
I146
tp2129
a(I200
I196
tp2130
a(I192
I188
tp2131
a(I121
I171
tp2132
a(I129
I169
tp2133
a(I129
I200
tp2134
a(I176
I178
tp2135
a(I110
I181
tp2136
asg26
I200
sba(imain2
Polygon
p2137
(dp2138
g3
(I52
I197
tp2139
sg5
I200
sg6
(I164
I147
I229
I0
tp2140
sg8
(lp2141
(I34
I200
tp2142
a(I60
I200
tp2143
a(I29
I200
tp2144
a(I49
I200
tp2145
a(I14
I199
tp2146
a(I22
I181
tp2147
a(I16
I153
tp2148
a(I46
I170
tp2149
asg26
I200
sba(imain2
Polygon
p2150
(dp2151
g3
(I96
I168
tp2152
sg5
I200
sg6
(I82
I155
I165
I1
tp2153
sg8
(lp2154
(I105
I151
tp2155
a(I128
I200
tp2156
a(I56
I193
tp2157
a(I123
I200
tp2158
a(I132
I153
tp2159
a(I116
I141
tp2160
a(I145
I191
tp2161
asg26
I200
sba(imain2
Polygon
p2162
(dp2163
g3
(I148
I67
tp2164
sg5
I200
sg6
(I211
I29
I21
I0
tp2165
sg8
(lp2166
(I141
I85
tp2167
a(I162
I93
tp2168
a(I120
I55
tp2169
a(I156
I36
tp2170
a(I98
I103
tp2171
a(I105
I34
tp2172
a(I106
I68
tp2173
a(I165
I74
tp2174
a(I102
I67
tp2175
a(I100
I97
tp2176
a(I106
I33
tp2177
a(I191
I88
tp2178
a(I159
I41
tp2179
a(I198
I101
tp2180
asg26
I200
sba(imain2
Polygon
p2181
(dp2182
g3
(I185
I29
tp2183
sg5
I200
sg6
(I139
I164
I77
I82
tp2184
sg8
(lp2185
(I136
I0
tp2186
a(I199
I0
tp2187
a(I200
I25
tp2188
a(I174
I43
tp2189
a(I138
I31
tp2190
asg26
I200
sba(imain2
Polygon
p2191
(dp2192
g3
(I77
I185
tp2193
sg5
I200
sg6
(I28
I24
I96
I99
tp2194
sg8
(lp2195
(I77
I165
tp2196
a(I63
I154
tp2197
a(I110
I156
tp2198
a(I124
I169
tp2199
a(I40
I180
tp2200
a(I42
I200
tp2201
a(I35
I180
tp2202
a(I81
I200
tp2203
a(I64
I192
tp2204
a(I49
I200
tp2205
a(I102
I143
tp2206
asg26
I200
sba(imain2
Polygon
p2207
(dp2208
g3
(I183
I173
tp2209
sg5
I200
sg6
(I108
I215
I88
I47
tp2210
sg8
(lp2211
(I200
I200
tp2212
a(I175
I200
tp2213
a(I200
I200
tp2214
a(I200
I125
tp2215
a(I137
I200
tp2216
asg26
I200
sba(imain2
Polygon
p2217
(dp2218
g3
(I141
I78
tp2219
sg5
I200
sg6
(I231
I87
I166
I1
tp2220
sg8
(lp2221
(I99
I101
tp2222
a(I170
I93
tp2223
a(I134
I66
tp2224
a(I94
I70
tp2225
a(I162
I119
tp2226
a(I156
I78
tp2227
a(I120
I98
tp2228
a(I177
I35
tp2229
asg26
I200
sba(imain2
Polygon
p2230
(dp2231
g3
(I8
I10
tp2232
sg5
I200
sg6
(I62
I43
I73
I104
tp2233
sg8
(lp2234
(I33
I4
tp2235
a(I0
I0
tp2236
a(I30
I6
tp2237
a(I32
I6
tp2238
a(I0
I0
tp2239
a(I0
I0
tp2240
asg26
I200
sba(imain2
Polygon
p2241
(dp2242
g3
(I37
I13
tp2243
sg5
I200
sg6
(I1
I115
I18
I121
tp2244
sg8
(lp2245
(I36
I0
tp2246
a(I16
I0
tp2247
a(I2
I0
tp2248
a(I19
I8
tp2249
a(I47
I4
tp2250
a(I47
I12
tp2251
a(I37
I0
tp2252
a(I53
I0
tp2253
a(I28
I0
tp2254
a(I38
I0
tp2255
a(I23
I13
tp2256
a(I41
I0
tp2257
asg26
I200
sba(imain2
Polygon
p2258
(dp2259
g3
(I168
I175
tp2260
sg5
I200
sg6
(I97
I55
I24
I0
tp2261
sg8
(lp2262
(I152
I200
tp2263
a(I120
I181
tp2264
a(I146
I200
tp2265
a(I136
I167
tp2266
a(I200
I200
tp2267
a(I200
I169
tp2268
a(I140
I149
tp2269
a(I170
I133
tp2270
a(I200
I200
tp2271
a(I122
I174
tp2272
asg26
I200
sba(imain2
Polygon
p2273
(dp2274
g3
(I75
I83
tp2275
sg5
I200
sg6
(I27
I33
I20
I0
tp2276
sg8
(lp2277
(I114
I59
tp2278
a(I50
I113
tp2279
a(I118
I51
tp2280
a(I37
I102
tp2281
a(I36
I53
tp2282
a(I51
I69
tp2283
a(I28
I131
tp2284
a(I93
I78
tp2285
a(I111
I44
tp2286
a(I115
I36
tp2287
a(I101
I82
tp2288
a(I34
I44
tp2289
a(I47
I59
tp2290
a(I39
I98
tp2291
asg26
I200
sba(imain2
Polygon
p2292
(dp2293
g3
(I18
I79
tp2294
sg5
I200
sg6
(I81
I1
I175
I111
tp2295
sg8
(lp2296
(I36
I125
tp2297
a(I51
I115
tp2298
a(I18
I107
tp2299
a(I43
I101
tp2300
a(I25
I110
tp2301
a(I12
I123
tp2302
a(I0
I103
tp2303
a(I0
I117
tp2304
a(I39
I119
tp2305
asg26
I200
sba(imain2
Polygon
p2306
(dp2307
g3
(I27
I28
tp2308
sg5
I200
sg6
(I221
I145
I40
I1
tp2309
sg8
(lp2310
(I50
I74
tp2311
a(I33
I10
tp2312
a(I19
I0
tp2313
a(I42
I0
tp2314
a(I71
I0
tp2315
a(I0
I0
tp2316
a(I19
I2
tp2317
a(I9
I62
tp2318
a(I0
I42
tp2319
a(I0
I23
tp2320
a(I49
I6
tp2321
a(I68
I73
tp2322
a(I0
I39
tp2323
a(I69
I25
tp2324
asg26
I200
sba(imain2
Polygon
p2325
(dp2326
g3
(I85
I60
tp2327
sg5
I200
sg6
(I84
I114
I12
I108
tp2328
sg8
(lp2329
(I115
I60
tp2330
a(I134
I87
tp2331
a(I55
I107
tp2332
a(I36
I62
tp2333
a(I72
I90
tp2334
a(I131
I73
tp2335
a(I117
I52
tp2336
a(I123
I32
tp2337
asg26
I200
sba(imain2
Polygon
p2338
(dp2339
g3
(I45
I110
tp2340
sg5
I200
sg6
(I42
I241
I179
I52
tp2341
sg8
(lp2342
(I68
I158
tp2343
a(I45
I112
tp2344
a(I72
I109
tp2345
asg26
I200
sba(imain2
Polygon
p2346
(dp2347
g3
(I54
I138
tp2348
sg5
I200
sg6
(I117
I64
I186
I1
tp2349
sg8
(lp2350
(I99
I90
tp2351
a(I21
I111
tp2352
a(I4
I182
tp2353
a(I27
I135
tp2354
a(I95
I108
tp2355
a(I14
I186
tp2356
a(I72
I137
tp2357
a(I84
I118
tp2358
asg26
I200
sba(imain2
Polygon
p2359
(dp2360
g3
(I162
I123
tp2361
sg5
I200
sg6
(I46
I59
I71
I17
tp2362
sg8
(lp2363
(I175
I164
tp2364
a(I153
I85
tp2365
a(I200
I137
tp2366
a(I200
I144
tp2367
a(I125
I137
tp2368
a(I200
I106
tp2369
a(I180
I124
tp2370
a(I188
I77
tp2371
a(I123
I93
tp2372
a(I158
I73
tp2373
a(I153
I87
tp2374
a(I158
I164
tp2375
a(I147
I147
tp2376
a(I156
I80
tp2377
a(I161
I109
tp2378
a(I196
I165
tp2379
a(I177
I99
tp2380
a(I200
I97
tp2381
a(I125
I109
tp2382
asg26
I200
sba(imain2
Polygon
p2383
(dp2384
g3
(I144
I70
tp2385
sg5
I200
sg6
(I194
I40
I118
I38
tp2386
sg8
(lp2387
(I170
I95
tp2388
a(I169
I95
tp2389
a(I168
I100
tp2390
asg26
I200
sba(imain2
Polygon
p2391
(dp2392
g3
(I11
I36
tp2393
sg5
I200
sg6
(I145
I32
I78
I29
tp2394
sg8
(lp2395
(I0
I24
tp2396
a(I0
I45
tp2397
a(I0
I0
tp2398
a(I0
I0
tp2399
a(I0
I57
tp2400
a(I0
I31
tp2401
a(I0
I0
tp2402
a(I0
I35
tp2403
a(I1
I41
tp2404
asg26
I200
sba(imain2
Polygon
p2405
(dp2406
g3
(I85
I175
tp2407
sg5
I200
sg6
(I240
I52
I44
I0
tp2408
sg8
(lp2409
(I60
I200
tp2410
a(I42
I169
tp2411
a(I112
I137
tp2412
a(I100
I133
tp2413
a(I108
I186
tp2414
a(I42
I200
tp2415
a(I66
I189
tp2416
a(I114
I192
tp2417
a(I100
I188
tp2418
a(I38
I152
tp2419
a(I73
I175
tp2420
a(I61
I131
tp2421
a(I89
I176
tp2422
a(I80
I162
tp2423
a(I116
I200
tp2424
asg26
I200
sba(imain2
Polygon
p2425
(dp2426
g3
(I78
I22
tp2427
sg5
I200
sg6
(I0
I239
I66
I1
tp2428
sg8
(lp2429
(I80
I54
tp2430
a(I47
I0
tp2431
a(I28
I18
tp2432
a(I112
I49
tp2433
a(I90
I30
tp2434
a(I80
I0
tp2435
a(I127
I21
tp2436
a(I88
I0
tp2437
a(I97
I0
tp2438
asg26
I200
sba(imain2
Polygon
p2439
(dp2440
g3
(I58
I165
tp2441
sg5
I200
sg6
(I74
I1
I134
I94
tp2442
sg8
(lp2443
(I40
I160
tp2444
a(I10
I120
tp2445
a(I46
I164
tp2446
a(I43
I143
tp2447
asg26
I200
sba(imain2
Polygon
p2448
(dp2449
g3
(I98
I69
tp2450
sg5
I200
sg6
(I73
I213
I127
I36
tp2451
sg8
(lp2452
(I111
I113
tp2453
a(I126
I99
tp2454
a(I78
I90
tp2455
asg26
I200
sba(imain2
Polygon
p2456
(dp2457
g3
(I184
I193
tp2458
sg5
I200
sg6
(I18
I63
I70
I1
tp2459
sg8
(lp2460
(I200
I177
tp2461
a(I185
I200
tp2462
a(I200
I163
tp2463
a(I200
I200
tp2464
a(I159
I167
tp2465
a(I159
I200
tp2466
asg26
I200
sba(imain2
Polygon
p2467
(dp2468
g3
(I136
I181
tp2469
sg5
I200
sg6
(I120
I127
I190
I0
tp2470
sg8
(lp2471
(I148
I200
tp2472
a(I87
I180
tp2473
a(I129
I164
tp2474
a(I115
I142
tp2475
a(I177
I146
tp2476
a(I127
I139
tp2477
a(I178
I200
tp2478
asg26
I200
sba(imain2
Polygon
p2479
(dp2480
g3
(I65
I69
tp2481
sg5
I200
sg6
(I101
I92
I153
I6
tp2482
sg8
(lp2483
(I24
I101
tp2484
a(I42
I83
tp2485
a(I89
I104
tp2486
a(I37
I106
tp2487
a(I63
I93
tp2488
a(I16
I47
tp2489
a(I37
I81
tp2490
a(I73
I48
tp2491
asg26
I200
sba(imain2
Polygon
p2492
(dp2493
g3
(I146
I60
tp2494
sg5
I200
sg6
(I1
I2
I200
I0
tp2495
sg8
(lp2496
(I167
I55
tp2497
a(I113
I53
tp2498
a(I126
I28
tp2499
a(I193
I89
tp2500
a(I176
I95
tp2501
asg26
I200
sba(imain2
Polygon
p2502
(dp2503
g3
(I7
I191
tp2504
sg5
I200
sg6
(I0
I165
I63
I1
tp2505
sg8
(lp2506
(I14
I198
tp2507
a(I53
I198
tp2508
a(I27
I178
tp2509
a(I0
I200
tp2510
a(I36
I192
tp2511
a(I0
I200
tp2512
a(I0
I195
tp2513
a(I56
I177
tp2514
a(I0
I143
tp2515
a(I0
I180
tp2516
a(I0
I200
tp2517
a(I32
I200
tp2518
asg26
I200
sba(imain2
Polygon
p2519
(dp2520
g3
(I177
I12
tp2521
sg5
I200
sg6
(I0
I127
I138
I0
tp2522
sg8
(lp2523
(I179
I47
tp2524
a(I200
I31
tp2525
a(I131
I0
tp2526
a(I173
I62
tp2527
a(I181
I36
tp2528
a(I200
I50
tp2529
a(I200
I50
tp2530
a(I200
I4
tp2531
a(I132
I54
tp2532
asg26
I200
sba(imain2
Polygon
p2533
(dp2534
g3
(I98
I60
tp2535
sg5
I200
sg6
(I142
I36
I47
I1
tp2536
sg8
(lp2537
(I87
I83
tp2538
a(I138
I25
tp2539
a(I80
I91
tp2540
a(I104
I32
tp2541
a(I147
I11
tp2542
a(I125
I68
tp2543
a(I74
I41
tp2544
a(I87
I90
tp2545
asg26
I200
sba(imain2
Polygon
p2546
(dp2547
g3
(I26
I121
tp2548
sg5
I200
sg6
(I19
I113
I2
I88
tp2549
sg8
(lp2550
(I5
I167
tp2551
a(I39
I85
tp2552
a(I0
I101
tp2553
a(I0
I166
tp2554
a(I30
I111
tp2555
a(I14
I135
tp2556
a(I45
I83
tp2557
a(I52
I113
tp2558
a(I0
I157
tp2559
a(I37
I137
tp2560
asg26
I200
sba(imain2
Polygon
p2561
(dp2562
g3
(I59
I10
tp2563
sg5
I200
sg6
(I179
I55
I106
I128
tp2564
sg8
(lp2565
(I13
I0
tp2566
a(I70
I0
tp2567
a(I73
I6
tp2568
a(I69
I0
tp2569
a(I109
I0
tp2570
a(I63
I23
tp2571
a(I10
I0
tp2572
a(I17
I23
tp2573
asg26
I200
sba(imain2
Polygon
p2574
(dp2575
g3
(I171
I141
tp2576
sg5
I200
sg6
(I37
I196
I138
I1
tp2577
sg8
(lp2578
(I200
I170
tp2579
a(I145
I150
tp2580
a(I175
I116
tp2581
a(I198
I129
tp2582
a(I159
I188
tp2583
a(I190
I148
tp2584
a(I187
I97
tp2585
asg26
I200
sba(imain2
Polygon
p2586
(dp2587
g3
(I80
I143
tp2588
sg5
I200
sg6
(I73
I75
I10
I114
tp2589
sg8
(lp2590
(I66
I140
tp2591
a(I70
I145
tp2592
a(I93
I192
tp2593
a(I130
I187
tp2594
a(I107
I140
tp2595
a(I69
I128
tp2596
a(I62
I133
tp2597
a(I71
I170
tp2598
a(I111
I114
tp2599
a(I86
I147
tp2600
asg26
I200
sba(imain2
Polygon
p2601
(dp2602
g3
(I191
I199
tp2603
sg5
I200
sg6
(I1
I223
I23
I1
tp2604
sg8
(lp2605
(I200
I185
tp2606
a(I177
I200
tp2607
a(I150
I150
tp2608
a(I193
I156
tp2609
a(I151
I170
tp2610
a(I200
I200
tp2611
a(I148
I149
tp2612
a(I141
I160
tp2613
asg26
I200
sba(imain2
Polygon
p2614
(dp2615
g3
(I6
I112
tp2616
sg5
I200
sg6
(I132
I70
I129
I64
tp2617
sg8
(lp2618
(I0
I137
tp2619
a(I0
I140
tp2620
a(I25
I84
tp2621
a(I2
I142
tp2622
a(I0
I104
tp2623
a(I0
I161
tp2624
a(I15
I79
tp2625
asg26
I200
sba(imain2
Polygon
p2626
(dp2627
g3
(I189
I37
tp2628
sg5
I200
sg6
(I31
I238
I163
I54
tp2629
sg8
(lp2630
(I200
I41
tp2631
a(I200
I7
tp2632
a(I200
I40
tp2633
a(I199
I1
tp2634
asg26
I200
sba(imain2
Polygon
p2635
(dp2636
g3
(I121
I50
tp2637
sg5
I200
sg6
(I4
I72
I0
I0
tp2638
sg8
(lp2639
(I94
I28
tp2640
a(I142
I7
tp2641
a(I160
I54
tp2642
asg26
I200
sba(imain2
Polygon
p2643
(dp2644
g3
(I58
I165
tp2645
sg5
I200
sg6
(I142
I99
I2
I1
tp2646
sg8
(lp2647
(I22
I161
tp2648
a(I59
I187
tp2649
a(I9
I168
tp2650
a(I97
I177
tp2651
a(I50
I165
tp2652
a(I35
I200
tp2653
a(I99
I183
tp2654
a(I107
I152
tp2655
a(I56
I151
tp2656
a(I33
I161
tp2657
a(I83
I175
tp2658
asg26
I200
sba(imain2
Polygon
p2659
(dp2660
g3
(I155
I38
tp2661
sg5
I200
sg6
(I100
I107
I236
I94
tp2662
sg8
(lp2663
(I160
I2
tp2664
a(I162
I13
tp2665
a(I165
I27
tp2666
asg26
I200
sba(imain2
Polygon
p2667
(dp2668
g3
(I80
I130
tp2669
sg5
I200
sg6
(I223
I90
I0
I121
tp2670
sg8
(lp2671
(I90
I107
tp2672
a(I38
I91
tp2673
a(I127
I91
tp2674
a(I86
I180
tp2675
a(I90
I97
tp2676
a(I42
I107
tp2677
a(I57
I140
tp2678
a(I81
I161
tp2679
a(I95
I173
tp2680
a(I77
I124
tp2681
a(I91
I85
tp2682
a(I88
I146
tp2683
asg26
I200
sba(imain2
Polygon
p2684
(dp2685
g3
(I182
I31
tp2686
sg5
I200
sg6
(I112
I85
I112
I0
tp2687
sg8
(lp2688
(I200
I65
tp2689
a(I198
I51
tp2690
a(I135
I9
tp2691
a(I195
I0
tp2692
a(I164
I0
tp2693
a(I175
I40
tp2694
a(I151
I81
tp2695
a(I200
I11
tp2696
a(I200
I57
tp2697
a(I200
I0
tp2698
a(I200
I0
tp2699
a(I187
I0
tp2700
a(I200
I15
tp2701
a(I174
I47
tp2702
a(I195
I67
tp2703
a(I200
I0
tp2704
a(I192
I0
tp2705
a(I157
I72
tp2706
a(I148
I66
tp2707
a(I190
I38
tp2708
a(I200
I28
tp2709
a(I146
I24
tp2710
a(I133
I0
tp2711
asg26
I200
sba(imain2
Polygon
p2712
(dp2713
g3
(I164
I132
tp2714
sg5
I200
sg6
(I50
I68
I1
I0
tp2715
sg8
(lp2716
(I171
I122
tp2717
a(I136
I113
tp2718
a(I166
I169
tp2719
a(I158
I139
tp2720
a(I146
I102
tp2721
a(I180
I136
tp2722
a(I128
I88
tp2723
a(I138
I162
tp2724
a(I122
I127
tp2725
a(I152
I121
tp2726
a(I122
I170
tp2727
a(I184
I174
tp2728
a(I165
I119
tp2729
a(I185
I112
tp2730
asg26
I200
sba(imain2
Polygon
p2731
(dp2732
g3
(I67
I123
tp2733
sg5
I200
sg6
(I203
I168
I127
I73
tp2734
sg8
(lp2735
(I114
I101
tp2736
a(I112
I148
tp2737
a(I65
I154
tp2738
a(I43
I93
tp2739
a(I96
I92
tp2740
a(I107
I100
tp2741
a(I49
I107
tp2742
a(I115
I104
tp2743
a(I46
I107
tp2744
a(I101
I102
tp2745
asg26
I200
sba(imain2
Polygon
p2746
(dp2747
g3
(I139
I46
tp2748
sg5
I200
sg6
(I2
I111
I83
I76
tp2749
sg8
(lp2750
(I185
I84
tp2751
a(I137
I74
tp2752
a(I164
I79
tp2753
asg26
I200
sba(imain2
Polygon
p2754
(dp2755
g3
(I137
I13
tp2756
sg5
I200
sg6
(I203
I131
I220
I5
tp2757
sg8
(lp2758
(I165
I0
tp2759
a(I180
I37
tp2760
a(I165
I55
tp2761
a(I117
I0
tp2762
a(I139
I19
tp2763
a(I157
I0
tp2764
a(I100
I0
tp2765
a(I88
I17
tp2766
a(I160
I57
tp2767
a(I126
I14
tp2768
asg26
I200
sba(imain2
Polygon
p2769
(dp2770
g3
(I72
I81
tp2771
sg5
I200
sg6
(I239
I108
I82
I0
tp2772
sg8
(lp2773
(I113
I53
tp2774
a(I77
I31
tp2775
a(I26
I64
tp2776
a(I41
I126
tp2777
a(I71
I58
tp2778
a(I81
I126
tp2779
a(I73
I64
tp2780
a(I63
I131
tp2781
asg26
I200
sba(imain2
Polygon
p2782
(dp2783
g3
(I24
I70
tp2784
sg5
I200
sg6
(I6
I225
I9
I12
tp2785
sg8
(lp2786
(I37
I25
tp2787
a(I72
I32
tp2788
a(I2
I21
tp2789
a(I0
I105
tp2790
a(I15
I106
tp2791
a(I52
I117
tp2792
a(I46
I40
tp2793
asg26
I200
sba(imain2
Polygon
p2794
(dp2795
g3
(I144
I200
tp2796
sg5
I200
sg6
(I123
I88
I11
I1
tp2797
sg8
(lp2798
(I150
I159
tp2799
a(I121
I196
tp2800
a(I107
I168
tp2801
a(I185
I200
tp2802
a(I183
I167
tp2803
a(I105
I200
tp2804
a(I147
I151
tp2805
a(I181
I194
tp2806
a(I119
I181
tp2807
a(I98
I181
tp2808
a(I168
I183
tp2809
a(I103
I200
tp2810
a(I174
I196
tp2811
a(I104
I200
tp2812
a(I128
I200
tp2813
a(I162
I183
tp2814
a(I175
I200
tp2815
a(I145
I200
tp2816
a(I142
I200
tp2817
asg26
I200
sba(imain2
Polygon
p2818
(dp2819
g3
(I63
I64
tp2820
sg5
I200
sg6
(I193
I193
I45
I4
tp2821
sg8
(lp2822
(I100
I49
tp2823
a(I18
I106
tp2824
a(I18
I45
tp2825
a(I97
I38
tp2826
a(I97
I107
tp2827
a(I48
I88
tp2828
asg26
I200
sba(imain2
Polygon
p2829
(dp2830
g3
(I87
I65
tp2831
sg5
I200
sg6
(I216
I57
I99
I1
tp2832
sg8
(lp2833
(I136
I80
tp2834
a(I52
I99
tp2835
a(I86
I83
tp2836
a(I123
I74
tp2837
a(I60
I111
tp2838
a(I137
I35
tp2839
a(I46
I106
tp2840
a(I81
I46
tp2841
a(I103
I111
tp2842
a(I96
I80
tp2843
asg26
I200
sba(imain2
Polygon
p2844
(dp2845
g3
(I110
I191
tp2846
sg5
I200
sg6
(I162
I198
I225
I1
tp2847
sg8
(lp2848
(I132
I182
tp2849
a(I98
I178
tp2850
a(I157
I152
tp2851
a(I83
I180
tp2852
a(I85
I161
tp2853
a(I111
I200
tp2854
a(I151
I182
tp2855
a(I118
I200
tp2856
a(I62
I200
tp2857
a(I146
I200
tp2858
asg26
I200
sba(imain2
Polygon
p2859
(dp2860
g3
(I108
I110
tp2861
sg5
I200
sg6
(I99
I178
I164
I0
tp2862
sg8
(lp2863
(I101
I127
tp2864
a(I117
I114
tp2865
a(I112
I93
tp2866
a(I76
I126
tp2867
a(I100
I157
tp2868
a(I69
I90
tp2869
asg26
I200
sba(imain2
Polygon
p2870
(dp2871
g3
(I112
I52
tp2872
sg5
I200
sg6
(I81
I201
I81
I104
tp2873
sg8
(lp2874
(I158
I54
tp2875
a(I152
I56
tp2876
a(I149
I58
tp2877
asg26
I200
sba.