(lp0
(imain2
Polygon
p1
(dp2
S'origin'
p3
(I39
I29
tp4
sS'h'
p5
I200
sS'color'
p6
(I196
I23
I139
I83
tp7
sS'corner_list'
p8
(lp9
(I0
I0
tp10
a(I33
I71
tp11
a(I71
I41
tp12
a(I83
I36
tp13
a(I53
I0
tp14
a(I50
I57
tp15
a(I0
I33
tp16
a(I24
I0
tp17
a(I0
I37
tp18
a(I83
I19
tp19
a(I65
I20
tp20
a(I58
I39
tp21
a(I36
I0
tp22
a(I21
I30
tp23
a(I43
I62
tp24
a(I39
I30
tp25
a(I64
I0
tp26
asS'w'
p27
I200
sba(imain2
Polygon
p28
(dp29
g3
(I66
I177
tp30
sg5
I200
sg6
(I138
I57
I48
I38
tp31
sg8
(lp32
(I77
I143
tp33
a(I82
I135
tp34
a(I89
I186
tp35
a(I34
I200
tp36
a(I71
I200
tp37
a(I102
I200
tp38
a(I92
I175
tp39
a(I77
I200
tp40
asg27
I200
sba(imain2
Polygon
p41
(dp42
g3
(I59
I53
tp43
sg5
I200
sg6
(I110
I44
I109
I150
tp44
sg8
(lp45
(I106
I10
tp46
a(I26
I102
tp47
a(I10
I62
tp48
a(I80
I35
tp49
a(I59
I26
tp50
a(I63
I3
tp51
a(I15
I3
tp52
a(I40
I72
tp53
a(I30
I51
tp54
a(I38
I88
tp55
a(I94
I64
tp56
a(I16
I14
tp57
a(I91
I22
tp58
a(I92
I46
tp59
a(I76
I61
tp60
a(I104
I79
tp61
a(I79
I46
tp62
a(I64
I24
tp63
a(I57
I67
tp64
asg27
I200
sba(imain2
Polygon
p65
(dp66
g3
(I79
I99
tp67
sg5
I200
sg6
(I72
I89
I70
I100
tp68
sg8
(lp69
(I119
I65
tp70
a(I62
I79
tp71
a(I105
I125
tp72
a(I115
I127
tp73
a(I85
I54
tp74
a(I35
I63
tp75
a(I46
I81
tp76
a(I123
I57
tp77
a(I114
I125
tp78
a(I30
I114
tp79
asg27
I200
sba(imain2
Polygon
p80
(dp81
g3
(I200
I83
tp82
sg5
I200
sg6
(I168
I230
I64
I11
tp83
sg8
(lp84
(I200
I104
tp85
a(I200
I99
tp86
a(I163
I71
tp87
a(I200
I100
tp88
a(I200
I53
tp89
a(I177
I38
tp90
a(I152
I55
tp91
asg27
I200
sba(imain2
Polygon
p92
(dp93
g3
(I48
I136
tp94
sg5
I200
sg6
(I104
I110
I146
I72
tp95
sg8
(lp96
(I74
I106
tp97
a(I87
I127
tp98
a(I94
I141
tp99
a(I85
I153
tp100
a(I43
I102
tp101
a(I5
I168
tp102
a(I82
I166
tp103
a(I89
I93
tp104
a(I88
I108
tp105
a(I68
I100
tp106
a(I87
I101
tp107
a(I86
I178
tp108
a(I46
I130
tp109
a(I46
I109
tp110
a(I2
I151
tp111
a(I64
I175
tp112
a(I20
I153
tp113
a(I45
I165
tp114
a(I87
I144
tp115
a(I85
I127
tp116
a(I79
I93
tp117
asg27
I200
sba(imain2
Polygon
p118
(dp119
g3
(I118
I72
tp120
sg5
I200
sg6
(I134
I138
I60
I62
tp121
sg8
(lp122
(I105
I74
tp123
a(I99
I82
tp124
a(I118
I81
tp125
a(I118
I115
tp126
a(I126
I57
tp127
a(I89
I36
tp128
a(I68
I93
tp129
a(I104
I108
tp130
asg27
I200
sba(imain2
Polygon
p131
(dp132
g3
(I75
I194
tp133
sg5
I200
sg6
(I212
I87
I107
I18
tp134
sg8
(lp135
(I118
I184
tp136
a(I107
I200
tp137
a(I113
I188
tp138
a(I100
I167
tp139
a(I63
I200
tp140
asg27
I200
sba(imain2
Polygon
p141
(dp142
g3
(I7
I180
tp143
sg5
I200
sg6
(I234
I36
I1
I0
tp144
sg8
(lp145
(I15
I138
tp146
a(I0
I197
tp147
a(I52
I161
tp148
a(I24
I183
tp149
a(I0
I168
tp150
a(I0
I173
tp151
a(I39
I200
tp152
a(I38
I151
tp153
a(I0
I200
tp154
a(I0
I200
tp155
asg27
I200
sba(imain2
Polygon
p156
(dp157
g3
(I200
I5
tp158
sg5
I200
sg6
(I172
I75
I112
I39
tp159
sg8
(lp160
(I200
I29
tp161
a(I200
I0
tp162
a(I200
I0
tp163
a(I174
I38
tp164
a(I191
I0
tp165
a(I200
I40
tp166
a(I162
I46
tp167
a(I150
I1
tp168
a(I200
I0
tp169
a(I200
I45
tp170
a(I155
I15
tp171
a(I200
I0
tp172
asg27
I200
sba(imain2
Polygon
p173
(dp174
g3
(I180
I27
tp175
sg5
I200
sg6
(I104
I112
I154
I0
tp176
sg8
(lp177
(I200
I66
tp178
a(I200
I76
tp179
a(I199
I7
tp180
a(I151
I63
tp181
a(I177
I21
tp182
a(I174
I1
tp183
a(I163
I0
tp184
a(I184
I25
tp185
a(I158
I0
tp186
a(I160
I34
tp187
a(I200
I60
tp188
a(I169
I65
tp189
asg27
I200
sba(imain2
Polygon
p190
(dp191
g3
(I59
I197
tp192
sg5
I200
sg6
(I82
I207
I136
I138
tp193
sg8
(lp194
(I98
I200
tp195
a(I93
I157
tp196
a(I71
I197
tp197
a(I54
I200
tp198
asg27
I200
sba(imain2
Polygon
p199
(dp200
g3
(I129
I124
tp201
sg5
I200
sg6
(I169
I188
I97
I70
tp202
sg8
(lp203
(I100
I125
tp204
a(I122
I123
tp205
a(I92
I168
tp206
a(I130
I89
tp207
a(I111
I89
tp208
a(I90
I106
tp209
a(I88
I150
tp210
a(I133
I128
tp211
asg27
I200
sba(imain2
Polygon
p212
(dp213
g3
(I107
I2
tp214
sg5
I200
sg6
(I47
I0
I159
I114
tp215
sg8
(lp216
(I83
I0
tp217
a(I62
I4
tp218
a(I94
I0
tp219
a(I134
I0
tp220
a(I86
I0
tp221
a(I150
I0
tp222
a(I106
I7
tp223
a(I142
I27
tp224
asg27
I200
sba(imain2
Polygon
p225
(dp226
g3
(I25
I107
tp227
sg5
I200
sg6
(I102
I25
I170
I1
tp228
sg8
(lp229
(I49
I141
tp230
a(I0
I81
tp231
a(I0
I123
tp232
a(I27
I114
tp233
a(I47
I130
tp234
a(I58
I62
tp235
a(I4
I147
tp236
a(I59
I126
tp237
a(I47
I83
tp238
a(I47
I135
tp239
a(I22
I124
tp240
a(I0
I132
tp241
a(I3
I58
tp242
a(I27
I112
tp243
a(I0
I98
tp244
a(I21
I117
tp245
a(I13
I133
tp246
a(I55
I130
tp247
asg27
I200
sba(imain2
Polygon
p248
(dp249
g3
(I194
I197
tp250
sg5
I200
sg6
(I9
I199
I62
I94
tp251
sg8
(lp252
(I200
I187
tp253
a(I161
I170
tp254
a(I200
I172
tp255
a(I200
I166
tp256
asg27
I200
sba(imain2
Polygon
p257
(dp258
g3
(I8
I2
tp259
sg5
I200
sg6
(I204
I195
I218
I0
tp260
sg8
(lp261
(I30
I0
tp262
a(I33
I40
tp263
a(I32
I4
tp264
a(I0
I46
tp265
a(I40
I9
tp266
a(I0
I11
tp267
a(I0
I0
tp268
a(I19
I6
tp269
a(I16
I0
tp270
a(I0
I0
tp271
a(I0
I3
tp272
a(I0
I16
tp273
a(I0
I43
tp274
a(I55
I0
tp275
asg27
I200
sba(imain2
Polygon
p276
(dp277
g3
(I171
I144
tp278
sg5
I200
sg6
(I111
I156
I186
I0
tp279
sg8
(lp280
(I127
I125
tp281
a(I159
I135
tp282
a(I200
I181
tp283
a(I132
I141
tp284
a(I132
I120
tp285
a(I145
I154
tp286
a(I123
I111
tp287
asg27
I200
sba(imain2
Polygon
p288
(dp289
g3
(I44
I42
tp290
sg5
I200
sg6
(I78
I129
I75
I1
tp291
sg8
(lp292
(I29
I80
tp293
a(I41
I39
tp294
a(I91
I0
tp295
a(I76
I41
tp296
a(I28
I58
tp297
a(I18
I19
tp298
asg27
I200
sba(imain2
Polygon
p299
(dp300
g3
(I26
I99
tp301
sg5
I200
sg6
(I167
I97
I168
I76
tp302
sg8
(lp303
(I71
I87
tp304
a(I54
I125
tp305
a(I75
I72
tp306
a(I72
I50
tp307
asg27
I200
sba(imain2
Polygon
p308
(dp309
g3
(I114
I46
tp310
sg5
I200
sg6
(I96
I192
I193
I0
tp311
sg8
(lp312
(I117
I22
tp313
a(I138
I79
tp314
a(I78
I89
tp315
a(I134
I0
tp316
asg27
I200
sba(imain2
Polygon
p317
(dp318
g3
(I68
I194
tp319
sg5
I200
sg6
(I85
I193
I149
I1
tp320
sg8
(lp321
(I73
I200
tp322
a(I63
I182
tp323
a(I30
I194
tp324
a(I115
I200
tp325
a(I65
I200
tp326
a(I57
I192
tp327
asg27
I200
sba(imain2
Polygon
p328
(dp329
g3
(I200
I53
tp330
sg5
I200
sg6
(I179
I181
I163
I1
tp331
sg8
(lp332
(I183
I79
tp333
a(I200
I53
tp334
a(I152
I41
tp335
asg27
I200
sba(imain2
Polygon
p336
(dp337
g3
(I172
I155
tp338
sg5
I200
sg6
(I198
I78
I243
I1
tp339
sg8
(lp340
(I200
I118
tp341
a(I186
I112
tp342
a(I135
I150
tp343
a(I167
I200
tp344
a(I139
I119
tp345
a(I158
I120
tp346
a(I200
I179
tp347
a(I165
I200
tp348
a(I193
I200
tp349
a(I200
I139
tp350
a(I141
I162
tp351
a(I200
I135
tp352
a(I196
I156
tp353
asg27
I200
sba(imain2
Polygon
p354
(dp355
g3
(I154
I159
tp356
sg5
I200
sg6
(I54
I205
I33
I1
tp357
sg8
(lp358
(I178
I146
tp359
a(I122
I109
tp360
a(I167
I196
tp361
a(I127
I131
tp362
a(I190
I169
tp363
a(I182
I200
tp364
a(I124
I177
tp365
a(I129
I170
tp366
a(I158
I198
tp367
a(I138
I167
tp368
a(I105
I200
tp369
a(I200
I168
tp370
asg27
I200
sba(imain2
Polygon
p371
(dp372
g3
(I55
I59
tp373
sg5
I200
sg6
(I73
I196
I202
I0
tp374
sg8
(lp375
(I41
I39
tp376
a(I83
I49
tp377
a(I28
I19
tp378
a(I77
I97
tp379
a(I65
I103
tp380
a(I44
I80
tp381
a(I93
I9
tp382
a(I47
I28
tp383
a(I81
I9
tp384
a(I7
I48
tp385
a(I52
I62
tp386
a(I31
I25
tp387
a(I30
I55
tp388
a(I30
I79
tp389
a(I16
I39
tp390
asg27
I200
sba(imain2
Polygon
p391
(dp392
g3
(I127
I147
tp393
sg5
I200
sg6
(I46
I67
I112
I102
tp394
sg8
(lp395
(I109
I194
tp396
a(I79
I101
tp397
a(I97
I160
tp398
a(I161
I191
tp399
asg27
I200
sba(imain2
Polygon
p400
(dp401
g3
(I123
I114
tp402
sg5
I200
sg6
(I116
I1
I8
I1
tp403
sg8
(lp404
(I118
I78
tp405
a(I80
I136
tp406
a(I144
I156
tp407
a(I113
I76
tp408
a(I78
I113
tp409
a(I144
I118
tp410
a(I110
I94
tp411
a(I100
I148
tp412
a(I161
I129
tp413
asg27
I200
sba(imain2
Polygon
p414
(dp415
g3
(I2
I51
tp416
sg5
I200
sg6
(I122
I140
I222
I0
tp417
sg8
(lp418
(I0
I39
tp419
a(I36
I22
tp420
a(I0
I4
tp421
a(I18
I24
tp422
a(I0
I95
tp423
a(I11
I81
tp424
a(I0
I16
tp425
a(I0
I97
tp426
a(I45
I76
tp427
a(I15
I75
tp428
asg27
I200
sba(imain2
Polygon
p429
(dp430
g3
(I166
I21
tp431
sg5
I200
sg6
(I210
I245
I214
I82
tp432
sg8
(lp433
(I200
I0
tp434
a(I200
I59
tp435
a(I169
I70
tp436
a(I131
I0
tp437
a(I153
I0
tp438
a(I174
I0
tp439
a(I118
I13
tp440
a(I135
I0
tp441
a(I200
I0
tp442
a(I141
I29
tp443
asg27
I200
sba(imain2
Polygon
p444
(dp445
g3
(I110
I91
tp446
sg5
I200
sg6
(I127
I33
I29
I1
tp447
sg8
(lp448
(I112
I141
tp449
a(I90
I64
tp450
a(I116
I46
tp451
a(I128
I88
tp452
a(I135
I89
tp453
a(I111
I63
tp454
a(I73
I59
tp455
a(I119
I112
tp456
a(I147
I105
tp457
a(I129
I93
tp458
a(I123
I69
tp459
a(I94
I93
tp460
a(I75
I65
tp461
a(I74
I100
tp462
a(I145
I49
tp463
a(I116
I88
tp464
a(I120
I128
tp465
asg27
I200
sba(imain2
Polygon
p466
(dp467
g3
(I148
I41
tp468
sg5
I200
sg6
(I156
I0
I206
I1
tp469
sg8
(lp470
(I119
I7
tp471
a(I180
I38
tp472
a(I195
I72
tp473
a(I135
I86
tp474
a(I164
I85
tp475
a(I136
I20
tp476
a(I162
I51
tp477
a(I195
I36
tp478
a(I165
I84
tp479
a(I110
I80
tp480
a(I103
I84
tp481
a(I122
I1
tp482
asg27
I200
sba(imain2
Polygon
p483
(dp484
g3
(I188
I159
tp485
sg5
I200
sg6
(I161
I69
I65
I1
tp486
sg8
(lp487
(I200
I176
tp488
a(I166
I141
tp489
a(I200
I124
tp490
a(I200
I160
tp491
a(I200
I137
tp492
a(I200
I186
tp493
a(I197
I200
tp494
a(I156
I170
tp495
asg27
I200
sba(imain2
Polygon
p496
(dp497
g3
(I55
I106
tp498
sg5
I200
sg6
(I55
I89
I43
I0
tp499
sg8
(lp500
(I33
I100
tp501
a(I28
I60
tp502
a(I89
I61
tp503
a(I85
I102
tp504
a(I56
I94
tp505
a(I55
I63
tp506
a(I34
I127
tp507
a(I21
I156
tp508
a(I103
I124
tp509
a(I104
I87
tp510
a(I51
I130
tp511
asg27
I200
sba(imain2
Polygon
p512
(dp513
g3
(I118
I64
tp514
sg5
I200
sg6
(I129
I37
I3
I17
tp515
sg8
(lp516
(I151
I76
tp517
a(I79
I63
tp518
a(I77
I86
tp519
a(I74
I55
tp520
a(I125
I37
tp521
a(I68
I76
tp522
a(I146
I16
tp523
a(I122
I15
tp524
a(I138
I16
tp525
a(I100
I38
tp526
a(I88
I20
tp527
a(I123
I23
tp528
a(I160
I71
tp529
a(I105
I36
tp530
a(I147
I109
tp531
a(I168
I101
tp532
asg27
I200
sba(imain2
Polygon
p533
(dp534
g3
(I101
I127
tp535
sg5
I200
sg6
(I83
I171
I95
I81
tp536
sg8
(lp537
(I82
I132
tp538
a(I125
I83
tp539
a(I83
I154
tp540
a(I53
I122
tp541
a(I92
I137
tp542
asg27
I200
sba(imain2
Polygon
p543
(dp544
g3
(I42
I89
tp545
sg5
I200
sg6
(I17
I90
I178
I0
tp546
sg8
(lp547
(I76
I43
tp548
a(I42
I139
tp549
a(I67
I95
tp550
a(I59
I84
tp551
a(I61
I123
tp552
a(I51
I59
tp553
a(I7
I119
tp554
a(I1
I107
tp555
a(I77
I119
tp556
asg27
I200
sba(imain2
Polygon
p557
(dp558
g3
(I71
I151
tp559
sg5
I200
sg6
(I150
I168
I219
I132
tp560
sg8
(lp561
(I59
I125
tp562
a(I74
I126
tp563
a(I115
I198
tp564
a(I68
I200
tp565
a(I77
I200
tp566
a(I91
I177
tp567
a(I89
I164
tp568
asg27
I200
sba(imain2
Polygon
p569
(dp570
g3
(I13
I141
tp571
sg5
I200
sg6
(I244
I0
I196
I0
tp572
sg8
(lp573
(I30
I167
tp574
a(I16
I104
tp575
a(I9
I106
tp576
a(I0
I130
tp577
a(I0
I156
tp578
a(I8
I155
tp579
a(I53
I153
tp580
a(I55
I119
tp581
a(I12
I103
tp582
a(I30
I173
tp583
a(I38
I142
tp584
a(I47
I102
tp585
asg27
I200
sba(imain2
Polygon
p586
(dp587
g3
(I37
I11
tp588
sg5
I200
sg6
(I114
I18
I10
I98
tp589
sg8
(lp590
(I49
I0
tp591
a(I1
I7
tp592
a(I5
I26
tp593
a(I22
I34
tp594
a(I46
I0
tp595
a(I70
I6
tp596
asg27
I200
sba(imain2
Polygon
p597
(dp598
g3
(I97
I114
tp599
sg5
I200
sg6
(I146
I9
I202
I84
tp600
sg8
(lp601
(I62
I140
tp602
a(I96
I103
tp603
a(I62
I147
tp604
a(I121
I97
tp605
a(I126
I66
tp606
a(I62
I77
tp607
a(I102
I68
tp608
a(I48
I82
tp609
a(I94
I93
tp610
a(I100
I154
tp611
a(I83
I130
tp612
a(I61
I69
tp613
a(I56
I114
tp614
a(I72
I112
tp615
a(I76
I71
tp616
a(I110
I85
tp617
a(I80
I151
tp618
a(I113
I101
tp619
a(I48
I130
tp620
asg27
I200
sba(imain2
Polygon
p621
(dp622
g3
(I77
I12
tp623
sg5
I200
sg6
(I104
I0
I197
I1
tp624
sg8
(lp625
(I54
I0
tp626
a(I54
I19
tp627
a(I85
I0
tp628
a(I67
I54
tp629
a(I97
I44
tp630
a(I65
I53
tp631
a(I86
I30
tp632
a(I69
I0
tp633
a(I33
I5
tp634
a(I51
I42
tp635
asg27
I200
sba(imain2
Polygon
p636
(dp637
g3
(I114
I16
tp638
sg5
I200
sg6
(I1
I101
I178
I148
tp639
sg8
(lp640
(I164
I18
tp641
a(I151
I0
tp642
a(I70
I0
tp643
a(I124
I21
tp644
a(I160
I13
tp645
a(I135
I0
tp646
asg27
I200
sba(imain2
Polygon
p647
(dp648
g3
(I150
I10
tp649
sg5
I200
sg6
(I109
I59
I223
I162
tp650
sg8
(lp651
(I172
I0
tp652
a(I175
I1
tp653
a(I163
I8
tp654
a(I119
I0
tp655
a(I156
I0
tp656
a(I119
I18
tp657
a(I101
I0
tp658
a(I137
I0
tp659
a(I176
I52
tp660
a(I125
I0
tp661
a(I188
I0
tp662
asg27
I200
sba(imain2
Polygon
p663
(dp664
g3
(I41
I10
tp665
sg5
I200
sg6
(I113
I204
I84
I0
tp666
sg8
(lp667
(I4
I39
tp668
a(I23
I53
tp669
a(I74
I26
tp670
a(I86
I0
tp671
a(I64
I0
tp672
asg27
I200
sba(imain2
Polygon
p673
(dp674
g3
(I174
I159
tp675
sg5
I200
sg6
(I169
I107
I85
I102
tp676
sg8
(lp677
(I200
I125
tp678
a(I200
I200
tp679
a(I184
I191
tp680
a(I168
I116
tp681
a(I200
I121
tp682
asg27
I200
sba(imain2
Polygon
p683
(dp684
g3
(I61
I97
tp685
sg5
I200
sg6
(I123
I35
I107
I93
tp686
sg8
(lp687
(I45
I82
tp688
a(I76
I70
tp689
a(I56
I96
tp690
a(I103
I82
tp691
a(I64
I94
tp692
a(I31
I112
tp693
a(I108
I74
tp694
a(I96
I125
tp695
a(I52
I115
tp696
asg27
I200
sba(imain2
Polygon
p697
(dp698
g3
(I180
I97
tp699
sg5
I200
sg6
(I161
I155
I198
I1
tp700
sg8
(lp701
(I200
I88
tp702
a(I200
I71
tp703
a(I134
I131
tp704
a(I200
I138
tp705
a(I172
I65
tp706
a(I200
I138
tp707
a(I171
I119
tp708
a(I190
I111
tp709
asg27
I200
sba(imain2
Polygon
p710
(dp711
g3
(I101
I122
tp712
sg5
I200
sg6
(I164
I85
I0
I76
tp713
sg8
(lp714
(I148
I75
tp715
a(I71
I95
tp716
a(I111
I157
tp717
a(I106
I130
tp718
a(I90
I160
tp719
a(I118
I155
tp720
a(I135
I76
tp721
a(I61
I152
tp722
a(I83
I142
tp723
a(I52
I169
tp724
a(I123
I74
tp725
asg27
I200
sba(imain2
Polygon
p726
(dp727
g3
(I131
I15
tp728
sg5
I200
sg6
(I56
I126
I126
I0
tp729
sg8
(lp730
(I178
I16
tp731
a(I84
I0
tp732
a(I140
I30
tp733
a(I179
I62
tp734
a(I177
I17
tp735
a(I100
I0
tp736
a(I154
I62
tp737
a(I115
I0
tp738
a(I134
I55
tp739
a(I86
I62
tp740
asg27
I200
sba(imain2
Polygon
p741
(dp742
g3
(I113
I24
tp743
sg5
I200
sg6
(I152
I239
I0
I0
tp744
sg8
(lp745
(I116
I0
tp746
a(I142
I0
tp747
a(I125
I69
tp748
a(I143
I0
tp749
a(I125
I3
tp750
a(I157
I0
tp751
a(I117
I66
tp752
a(I110
I46
tp753
a(I84
I32
tp754
a(I122
I0
tp755
a(I77
I58
tp756
a(I89
I6
tp757
asg27
I200
sba(imain2
Polygon
p758
(dp759
g3
(I15
I21
tp760
sg5
I200
sg6
(I44
I42
I25
I1
tp761
sg8
(lp762
(I40
I54
tp763
a(I7
I0
tp764
a(I37
I64
tp765
a(I42
I34
tp766
a(I2
I17
tp767
a(I32
I0
tp768
asg27
I200
sba(imain2
Polygon
p769
(dp770
g3
(I75
I18
tp771
sg5
I200
sg6
(I119
I125
I39
I146
tp772
sg8
(lp773
(I125
I0
tp774
a(I82
I30
tp775
a(I98
I0
tp776
a(I90
I0
tp777
a(I64
I0
tp778
a(I29
I0
tp779
a(I86
I51
tp780
a(I54
I14
tp781
a(I64
I30
tp782
a(I69
I0
tp783
a(I26
I62
tp784
a(I118
I0
tp785
a(I74
I16
tp786
a(I25
I19
tp787
a(I53
I67
tp788
a(I111
I64
tp789
a(I97
I0
tp790
a(I84
I38
tp791
a(I72
I12
tp792
a(I34
I25
tp793
a(I96
I39
tp794
a(I73
I11
tp795
asg27
I200
sba(imain2
Polygon
p796
(dp797
g3
(I147
I31
tp798
sg5
I200
sg6
(I240
I1
I224
I145
tp799
sg8
(lp800
(I189
I0
tp801
a(I196
I42
tp802
a(I180
I38
tp803
a(I168
I65
tp804
a(I153
I34
tp805
a(I193
I77
tp806
a(I183
I0
tp807
a(I187
I24
tp808
a(I176
I51
tp809
a(I126
I17
tp810
a(I116
I7
tp811
a(I129
I0
tp812
asg27
I200
sba(imain2
Polygon
p813
(dp814
g3
(I43
I128
tp815
sg5
I200
sg6
(I89
I23
I106
I125
tp816
sg8
(lp817
(I7
I89
tp818
a(I0
I99
tp819
a(I21
I114
tp820
a(I15
I103
tp821
a(I5
I162
tp822
a(I19
I96
tp823
a(I39
I102
tp824
asg27
I200
sba(imain2
Polygon
p825
(dp826
g3
(I191
I52
tp827
sg5
I200
sg6
(I140
I142
I102
I1
tp828
sg8
(lp829
(I200
I4
tp830
a(I200
I69
tp831
a(I200
I9
tp832
a(I167
I81
tp833
a(I141
I80
tp834
a(I161
I48
tp835
a(I200
I28
tp836
a(I200
I17
tp837
a(I200
I32
tp838
asg27
I200
sba(imain2
Polygon
p839
(dp840
g3
(I124
I96
tp841
sg5
I200
sg6
(I222
I87
I120
I1
tp842
sg8
(lp843
(I156
I93
tp844
a(I154
I145
tp845
a(I142
I78
tp846
a(I156
I121
tp847
a(I156
I112
tp848
a(I101
I113
tp849
a(I91
I110
tp850
a(I172
I131
tp851
a(I138
I110
tp852
a(I167
I134
tp853
a(I117
I140
tp854
a(I114
I95
tp855
asg27
I200
sba(imain2
Polygon
p856
(dp857
g3
(I14
I107
tp858
sg5
I200
sg6
(I56
I0
I217
I135
tp859
sg8
(lp860
(I17
I104
tp861
a(I2
I107
tp862
a(I0
I102
tp863
a(I0
I111
tp864
a(I0
I104
tp865
a(I59
I117
tp866
asg27
I200
sba(imain2
Polygon
p867
(dp868
g3
(I84
I159
tp869
sg5
I200
sg6
(I51
I12
I193
I0
tp870
sg8
(lp871
(I55
I146
tp872
a(I84
I140
tp873
a(I112
I114
tp874
a(I98
I180
tp875
a(I113
I185
tp876
a(I87
I159
tp877
a(I122
I200
tp878
a(I132
I119
tp879
a(I40
I150
tp880
a(I45
I112
tp881
a(I64
I172
tp882
asg27
I200
sba(imain2
Polygon
p883
(dp884
g3
(I141
I115
tp885
sg5
I200
sg6
(I238
I170
I169
I0
tp886
sg8
(lp887
(I178
I152
tp888
a(I188
I72
tp889
a(I178
I129
tp890
asg27
I200
sba(imain2
Polygon
p891
(dp892
g3
(I199
I78
tp893
sg5
I200
sg6
(I204
I202
I85
I130
tp894
sg8
(lp895
(I151
I34
tp896
a(I200
I32
tp897
a(I200
I32
tp898
a(I200
I125
tp899
a(I164
I113
tp900
a(I175
I100
tp901
a(I189
I127
tp902
asg27
I200
sba(imain2
Polygon
p903
(dp904
g3
(I167
I90
tp905
sg5
I200
sg6
(I36
I188
I29
I57
tp906
sg8
(lp907
(I200
I94
tp908
a(I149
I78
tp909
a(I182
I102
tp910
a(I164
I106
tp911
a(I187
I129
tp912
a(I172
I52
tp913
asg27
I200
sba(imain2
Polygon
p914
(dp915
g3
(I17
I14
tp916
sg5
I200
sg6
(I1
I10
I92
I31
tp917
sg8
(lp918
(I0
I56
tp919
a(I0
I0
tp920
a(I51
I50
tp921
a(I17
I50
tp922
a(I8
I0
tp923
a(I28
I11
tp924
a(I0
I17
tp925
a(I0
I0
tp926
a(I55
I54
tp927
a(I54
I3
tp928
a(I8
I60
tp929
a(I22
I0
tp930
asg27
I200
sba(imain2
Polygon
p931
(dp932
g3
(I190
I180
tp933
sg5
I200
sg6
(I225
I104
I47
I0
tp934
sg8
(lp935
(I197
I149
tp936
a(I172
I147
tp937
a(I195
I199
tp938
asg27
I200
sba(imain2
Polygon
p939
(dp940
g3
(I70
I166
tp941
sg5
I200
sg6
(I107
I177
I2
I1
tp942
sg8
(lp943
(I76
I134
tp944
a(I117
I200
tp945
a(I56
I127
tp946
a(I21
I178
tp947
a(I54
I157
tp948
a(I29
I194
tp949
a(I48
I123
tp950
a(I34
I190
tp951
a(I52
I183
tp952
asg27
I200
sba(imain2
Polygon
p953
(dp954
g3
(I196
I185
tp955
sg5
I200
sg6
(I18
I159
I128
I0
tp956
sg8
(lp957
(I200
I191
tp958
a(I153
I136
tp959
a(I192
I153
tp960
a(I171
I192
tp961
a(I200
I156
tp962
a(I186
I148
tp963
a(I165
I169
tp964
asg27
I200
sba(imain2
Polygon
p965
(dp966
g3
(I48
I123
tp967
sg5
I200
sg6
(I164
I46
I18
I99
tp968
sg8
(lp969
(I8
I113
tp970
a(I18
I117
tp971
a(I0
I97
tp972
a(I48
I105
tp973
a(I47
I100
tp974
a(I58
I146
tp975
a(I90
I79
tp976
a(I89
I76
tp977
a(I9
I121
tp978
a(I27
I162
tp979
a(I11
I146
tp980
a(I19
I151
tp981
asg27
I200
sba(imain2
Polygon
p982
(dp983
g3
(I59
I97
tp984
sg5
I200
sg6
(I202
I49
I127
I27
tp985
sg8
(lp986
(I35
I56
tp987
a(I89
I86
tp988
a(I51
I58
tp989
a(I70
I64
tp990
a(I44
I80
tp991
a(I107
I114
tp992
a(I74
I82
tp993
a(I93
I57
tp994
a(I92
I57
tp995
a(I56
I68
tp996
asg27
I200
sba(imain2
Polygon
p997
(dp998
g3
(I17
I149
tp999
sg5
I200
sg6
(I1
I35
I156
I1
tp1000
sg8
(lp1001
(I15
I167
tp1002
a(I0
I101
tp1003
a(I0
I181
tp1004
a(I28
I189
tp1005
a(I5
I196
tp1006
a(I0
I101
tp1007
a(I40
I145
tp1008
a(I44
I176
tp1009
asg27
I200
sba(imain2
Polygon
p1010
(dp1011
g3
(I88
I2
tp1012
sg5
I200
sg6
(I3
I101
I62
I55
tp1013
sg8
(lp1014
(I95
I0
tp1015
a(I95
I21
tp1016
a(I115
I0
tp1017
a(I53
I0
tp1018
a(I48
I0
tp1019
a(I55
I24
tp1020
a(I79
I0
tp1021
a(I105
I20
tp1022
a(I117
I0
tp1023
a(I82
I0
tp1024
a(I73
I49
tp1025
a(I78
I0
tp1026
a(I129
I0
tp1027
asg27
I200
sba(imain2
Polygon
p1028
(dp1029
g3
(I3
I161
tp1030
sg5
I200
sg6
(I176
I18
I191
I15
tp1031
sg8
(lp1032
(I24
I146
tp1033
a(I30
I152
tp1034
a(I2
I153
tp1035
a(I29
I156
tp1036
a(I0
I194
tp1037
a(I0
I164
tp1038
a(I0
I170
tp1039
a(I0
I145
tp1040
a(I11
I145
tp1041
a(I0
I121
tp1042
a(I0
I114
tp1043
asg27
I200
sba(imain2
Polygon
p1044
(dp1045
g3
(I98
I58
tp1046
sg5
I200
sg6
(I37
I61
I168
I1
tp1047
sg8
(lp1048
(I92
I81
tp1049
a(I64
I60
tp1050
a(I74
I72
tp1051
asg27
I200
sba(imain2
Polygon
p1052
(dp1053
g3
(I109
I111
tp1054
sg5
I200
sg6
(I227
I37
I98
I6
tp1055
sg8
(lp1056
(I65
I139
tp1057
a(I96
I159
tp1058
a(I117
I140
tp1059
a(I109
I97
tp1060
a(I124
I120
tp1061
a(I111
I73
tp1062
a(I143
I127
tp1063
a(I124
I122
tp1064
a(I79
I147
tp1065
asg27
I200
sba(imain2
Polygon
p1066
(dp1067
g3
(I83
I155
tp1068
sg5
I200
sg6
(I202
I44
I183
I24
tp1069
sg8
(lp1070
(I81
I142
tp1071
a(I102
I200
tp1072
a(I132
I200
tp1073
a(I73
I148
tp1074
a(I112
I160
tp1075
a(I74
I167
tp1076
a(I50
I153
tp1077
a(I61
I166
tp1078
a(I117
I195
tp1079
a(I131
I190
tp1080
a(I120
I173
tp1081
a(I93
I152
tp1082
a(I64
I176
tp1083
a(I114
I149
tp1084
a(I100
I163
tp1085
a(I99
I200
tp1086
a(I102
I105
tp1087
asg27
I200
sba(imain2
Polygon
p1088
(dp1089
g3
(I81
I21
tp1090
sg5
I200
sg6
(I136
I0
I26
I119
tp1091
sg8
(lp1092
(I69
I0
tp1093
a(I65
I6
tp1094
a(I43
I48
tp1095
a(I90
I0
tp1096
a(I122
I60
tp1097
a(I103
I58
tp1098
a(I63
I3
tp1099
a(I117
I0
tp1100
asg27
I200
sba(imain2
Polygon
p1101
(dp1102
g3
(I77
I115
tp1103
sg5
I200
sg6
(I92
I239
I219
I0
tp1104
sg8
(lp1105
(I99
I164
tp1106
a(I65
I128
tp1107
a(I35
I77
tp1108
a(I101
I94
tp1109
a(I34
I83
tp1110
a(I85
I78
tp1111
a(I76
I143
tp1112
asg27
I200
sba(imain2
Polygon
p1113
(dp1114
g3
(I108
I110
tp1115
sg5
I200
sg6
(I144
I115
I144
I1
tp1116
sg8
(lp1117
(I109
I74
tp1118
a(I132
I95
tp1119
a(I154
I119
tp1120
a(I76
I135
tp1121
a(I115
I134
tp1122
a(I153
I68
tp1123
a(I88
I60
tp1124
a(I101
I139
tp1125
a(I80
I113
tp1126
a(I110
I143
tp1127
a(I129
I139
tp1128
a(I124
I94
tp1129
asg27
I200
sba(imain2
Polygon
p1130
(dp1131
g3
(I7
I122
tp1132
sg5
I200
sg6
(I152
I0
I158
I1
tp1133
sg8
(lp1134
(I53
I94
tp1135
a(I42
I98
tp1136
a(I30
I118
tp1137
a(I35
I73
tp1138
a(I0
I113
tp1139
a(I3
I152
tp1140
a(I0
I105
tp1141
a(I0
I119
tp1142
a(I0
I123
tp1143
a(I0
I77
tp1144
a(I0
I149
tp1145
a(I0
I121
tp1146
a(I0
I165
tp1147
a(I0
I145
tp1148
a(I44
I153
tp1149
a(I0
I152
tp1150
a(I0
I114
tp1151
asg27
I200
sba(imain2
Polygon
p1152
(dp1153
g3
(I105
I20
tp1154
sg5
I200
sg6
(I212
I28
I228
I1
tp1155
sg8
(lp1156
(I124
I25
tp1157
a(I153
I35
tp1158
a(I148
I4
tp1159
a(I70
I44
tp1160
a(I96
I0
tp1161
a(I143
I0
tp1162
asg27
I200
sba(imain2
Polygon
p1163
(dp1164
g3
(I47
I80
tp1165
sg5
I200
sg6
(I108
I47
I113
I27
tp1166
sg8
(lp1167
(I55
I102
tp1168
a(I68
I48
tp1169
a(I48
I106
tp1170
a(I21
I62
tp1171
a(I87
I50
tp1172
a(I35
I42
tp1173
a(I94
I123
tp1174
a(I53
I46
tp1175
a(I38
I43
tp1176
a(I13
I128
tp1177
a(I45
I105
tp1178
a(I40
I86
tp1179
a(I37
I61
tp1180
a(I19
I101
tp1181
a(I19
I59
tp1182
a(I86
I34
tp1183
a(I7
I60
tp1184
a(I68
I74
tp1185
a(I54
I57
tp1186
a(I13
I123
tp1187
asg27
I200
sba(imain2
Polygon
p1188
(dp1189
g3
(I131
I30
tp1190
sg5
I200
sg6
(I203
I123
I169
I1
tp1191
sg8
(lp1192
(I108
I74
tp1193
a(I155
I71
tp1194
a(I162
I8
tp1195
asg27
I200
sba(imain2
Polygon
p1196
(dp1197
g3
(I199
I39
tp1198
sg5
I200
sg6
(I93
I189
I106
I56
tp1199
sg8
(lp1200
(I178
I52
tp1201
a(I187
I1
tp1202
a(I150
I0
tp1203
a(I200
I89
tp1204
a(I200
I6
tp1205
a(I178
I0
tp1206
asg27
I200
sba(imain2
Polygon
p1207
(dp1208
g3
(I110
I156
tp1209
sg5
I200
sg6
(I190
I91
I125
I1
tp1210
sg8
(lp1211
(I63
I144
tp1212
a(I120
I200
tp1213
a(I94
I199
tp1214
a(I131
I138
tp1215
a(I116
I137
tp1216
a(I74
I183
tp1217
a(I62
I193
tp1218
a(I145
I141
tp1219
a(I133
I146
tp1220
a(I154
I193
tp1221
a(I85
I187
tp1222
a(I147
I189
tp1223
a(I100
I170
tp1224
asg27
I200
sba(imain2
Polygon
p1225
(dp1226
g3
(I14
I89
tp1227
sg5
I200
sg6
(I200
I19
I25
I82
tp1228
sg8
(lp1229
(I0
I70
tp1230
a(I49
I72
tp1231
a(I53
I72
tp1232
a(I55
I44
tp1233
a(I17
I118
tp1234
a(I0
I99
tp1235
asg27
I200
sba(imain2
Polygon
p1236
(dp1237
g3
(I124
I127
tp1238
sg5
I200
sg6
(I172
I217
I173
I1
tp1239
sg8
(lp1240
(I134
I100
tp1241
a(I129
I138
tp1242
a(I96
I162
tp1243
a(I111
I115
tp1244
a(I147
I96
tp1245
a(I124
I85
tp1246
a(I96
I82
tp1247
a(I170
I95
tp1248
a(I135
I124
tp1249
a(I153
I94
tp1250
a(I123
I89
tp1251
a(I92
I110
tp1252
asg27
I200
sba(imain2
Polygon
p1253
(dp1254
g3
(I97
I78
tp1255
sg5
I200
sg6
(I147
I200
I158
I1
tp1256
sg8
(lp1257
(I113
I61
tp1258
a(I62
I103
tp1259
a(I83
I75
tp1260
a(I110
I111
tp1261
a(I56
I51
tp1262
a(I91
I125
tp1263
a(I78
I58
tp1264
a(I98
I57
tp1265
a(I69
I107
tp1266
a(I132
I100
tp1267
a(I58
I80
tp1268
a(I77
I65
tp1269
asg27
I200
sba(imain2
Polygon
p1270
(dp1271
g3
(I71
I43
tp1272
sg5
I200
sg6
(I219
I212
I119
I1
tp1273
sg8
(lp1274
(I107
I87
tp1275
a(I67
I73
tp1276
a(I64
I18
tp1277
a(I84
I79
tp1278
a(I92
I40
tp1279
a(I77
I18
tp1280
a(I50
I41
tp1281
a(I47
I52
tp1282
a(I29
I2
tp1283
asg27
I200
sba(imain2
Polygon
p1284
(dp1285
g3
(I109
I75
tp1286
sg5
I200
sg6
(I109
I161
I68
I128
tp1287
sg8
(lp1288
(I63
I26
tp1289
a(I62
I79
tp1290
a(I120
I76
tp1291
a(I87
I26
tp1292
a(I64
I35
tp1293
asg27
I200
sba(imain2
Polygon
p1294
(dp1295
g3
(I149
I45
tp1296
sg5
I200
sg6
(I206
I141
I127
I85
tp1297
sg8
(lp1298
(I199
I90
tp1299
a(I165
I70
tp1300
a(I161
I69
tp1301
a(I183
I12
tp1302
a(I143
I12
tp1303
a(I175
I87
tp1304
a(I158
I84
tp1305
a(I187
I0
tp1306
a(I165
I77
tp1307
a(I189
I0
tp1308
a(I130
I0
tp1309
a(I187
I18
tp1310
a(I198
I21
tp1311
asg27
I200
sba(imain2
Polygon
p1312
(dp1313
g3
(I29
I98
tp1314
sg5
I200
sg6
(I6
I134
I170
I45
tp1315
sg8
(lp1316
(I0
I145
tp1317
a(I62
I70
tp1318
a(I0
I73
tp1319
a(I46
I51
tp1320
a(I19
I62
tp1321
a(I40
I82
tp1322
a(I7
I82
tp1323
a(I39
I54
tp1324
a(I60
I84
tp1325
a(I0
I135
tp1326
a(I28
I90
tp1327
asg27
I200
sba(imain2
Polygon
p1328
(dp1329
g3
(I90
I62
tp1330
sg5
I200
sg6
(I177
I118
I130
I1
tp1331
sg8
(lp1332
(I52
I15
tp1333
a(I124
I39
tp1334
a(I129
I98
tp1335
a(I109
I81
tp1336
a(I61
I49
tp1337
a(I54
I78
tp1338
a(I100
I106
tp1339
a(I46
I96
tp1340
a(I113
I23
tp1341
asg27
I200
sba(imain2
Polygon
p1342
(dp1343
g3
(I63
I49
tp1344
sg5
I200
sg6
(I219
I251
I135
I1
tp1345
sg8
(lp1346
(I76
I48
tp1347
a(I30
I15
tp1348
a(I53
I1
tp1349
a(I93
I34
tp1350
a(I28
I10
tp1351
a(I66
I88
tp1352
a(I69
I24
tp1353
a(I82
I92
tp1354
a(I87
I68
tp1355
a(I52
I63
tp1356
asg27
I200
sba(imain2
Polygon
p1357
(dp1358
g3
(I31
I132
tp1359
sg5
I200
sg6
(I73
I118
I196
I30
tp1360
sg8
(lp1361
(I0
I118
tp1362
a(I35
I167
tp1363
a(I3
I115
tp1364
a(I0
I120
tp1365
a(I30
I175
tp1366
a(I10
I143
tp1367
a(I31
I164
tp1368
a(I70
I85
tp1369
a(I9
I172
tp1370
a(I0
I125
tp1371
a(I0
I111
tp1372
a(I49
I139
tp1373
a(I49
I135
tp1374
asg27
I200
sba(imain2
Polygon
p1375
(dp1376
g3
(I80
I158
tp1377
sg5
I200
sg6
(I24
I43
I60
I1
tp1378
sg8
(lp1379
(I130
I158
tp1380
a(I119
I172
tp1381
a(I114
I200
tp1382
a(I55
I186
tp1383
a(I94
I151
tp1384
a(I111
I110
tp1385
a(I34
I137
tp1386
a(I74
I194
tp1387
a(I59
I117
tp1388
a(I111
I109
tp1389
a(I124
I111
tp1390
a(I68
I200
tp1391
a(I112
I146
tp1392
a(I30
I119
tp1393
a(I37
I162
tp1394
a(I95
I151
tp1395
a(I82
I200
tp1396
a(I40
I155
tp1397
a(I120
I184
tp1398
asg27
I200
sba(imain2
Polygon
p1399
(dp1400
g3
(I168
I51
tp1401
sg5
I200
sg6
(I100
I203
I209
I1
tp1402
sg8
(lp1403
(I123
I53
tp1404
a(I179
I45
tp1405
a(I153
I39
tp1406
a(I173
I60
tp1407
a(I146
I34
tp1408
a(I119
I61
tp1409
a(I166
I31
tp1410
asg27
I200
sba(imain2
Polygon
p1411
(dp1412
g3
(I110
I14
tp1413
sg5
I200
sg6
(I156
I137
I49
I150
tp1414
sg8
(lp1415
(I118
I49
tp1416
a(I72
I59
tp1417
a(I101
I0
tp1418
a(I156
I0
tp1419
a(I158
I0
tp1420
a(I157
I28
tp1421
a(I144
I28
tp1422
a(I65
I3
tp1423
a(I67
I58
tp1424
a(I105
I0
tp1425
a(I79
I0
tp1426
a(I61
I0
tp1427
a(I77
I25
tp1428
asg27
I200
sba(imain2
Polygon
p1429
(dp1430
g3
(I85
I94
tp1431
sg5
I200
sg6
(I203
I232
I85
I65
tp1432
sg8
(lp1433
(I122
I114
tp1434
a(I110
I104
tp1435
a(I62
I48
tp1436
a(I105
I45
tp1437
a(I125
I73
tp1438
a(I93
I111
tp1439
a(I79
I138
tp1440
a(I109
I144
tp1441
a(I124
I111
tp1442
a(I62
I45
tp1443
a(I45
I66
tp1444
a(I55
I129
tp1445
a(I126
I96
tp1446
asg27
I200
sba(imain2
Polygon
p1447
(dp1448
g3
(I153
I81
tp1449
sg5
I200
sg6
(I122
I86
I190
I0
tp1450
sg8
(lp1451
(I112
I62
tp1452
a(I151
I80
tp1453
a(I150
I46
tp1454
a(I159
I50
tp1455
a(I182
I97
tp1456
a(I188
I103
tp1457
asg27
I200
sba(imain2
Polygon
p1458
(dp1459
g3
(I146
I37
tp1460
sg5
I200
sg6
(I227
I84
I157
I0
tp1461
sg8
(lp1462
(I166
I5
tp1463
a(I109
I72
tp1464
a(I140
I51
tp1465
a(I111
I12
tp1466
a(I106
I32
tp1467
a(I185
I9
tp1468
a(I157
I74
tp1469
a(I196
I84
tp1470
a(I99
I2
tp1471
asg27
I200
sba(imain2
Polygon
p1472
(dp1473
g3
(I36
I71
tp1474
sg5
I200
sg6
(I178
I120
I134
I0
tp1475
sg8
(lp1476
(I7
I61
tp1477
a(I82
I65
tp1478
a(I60
I30
tp1479
a(I14
I70
tp1480
a(I0
I99
tp1481
a(I48
I38
tp1482
a(I27
I63
tp1483
a(I13
I40
tp1484
a(I46
I58
tp1485
a(I0
I88
tp1486
a(I61
I117
tp1487
a(I10
I121
tp1488
asg27
I200
sba(imain2
Polygon
p1489
(dp1490
g3
(I36
I181
tp1491
sg5
I200
sg6
(I143
I212
I96
I86
tp1492
sg8
(lp1493
(I78
I149
tp1494
a(I60
I152
tp1495
a(I48
I150
tp1496
a(I0
I170
tp1497
a(I52
I149
tp1498
a(I81
I147
tp1499
a(I71
I200
tp1500
a(I13
I140
tp1501
a(I43
I172
tp1502
a(I80
I200
tp1503
a(I55
I200
tp1504
a(I66
I188
tp1505
a(I68
I200
tp1506
a(I71
I200
tp1507
asg27
I200
sba(imain2
Polygon
p1508
(dp1509
g3
(I94
I181
tp1510
sg5
I200
sg6
(I112
I50
I36
I1
tp1511
sg8
(lp1512
(I70
I179
tp1513
a(I136
I200
tp1514
a(I108
I160
tp1515
a(I89
I200
tp1516
a(I56
I136
tp1517
a(I130
I200
tp1518
a(I128
I200
tp1519
a(I88
I191
tp1520
a(I130
I142
tp1521
asg27
I200
sba(imain2
Polygon
p1522
(dp1523
g3
(I4
I26
tp1524
sg5
I200
sg6
(I29
I105
I61
I51
tp1525
sg8
(lp1526
(I25
I0
tp1527
a(I0
I0
tp1528
a(I26
I50
tp1529
a(I21
I31
tp1530
a(I0
I38
tp1531
a(I9
I3
tp1532
a(I54
I51
tp1533
a(I7
I69
tp1534
a(I0
I66
tp1535
a(I0
I27
tp1536
a(I10
I24
tp1537
a(I17
I0
tp1538
a(I21
I16
tp1539
a(I0
I0
tp1540
a(I0
I52
tp1541
a(I0
I38
tp1542
asg27
I200
sba(imain2
Polygon
p1543
(dp1544
g3
(I14
I45
tp1545
sg5
I200
sg6
(I148
I107
I1
I0
tp1546
sg8
(lp1547
(I32
I34
tp1548
a(I0
I0
tp1549
a(I35
I27
tp1550
a(I0
I69
tp1551
a(I0
I8
tp1552
a(I0
I21
tp1553
a(I0
I82
tp1554
a(I44
I7
tp1555
a(I0
I21
tp1556
a(I14
I33
tp1557
asg27
I200
sba(imain2
Polygon
p1558
(dp1559
g3
(I103
I69
tp1560
sg5
I200
sg6
(I232
I219
I1
I44
tp1561
sg8
(lp1562
(I55
I36
tp1563
a(I53
I116
tp1564
a(I127
I84
tp1565
a(I135
I89
tp1566
a(I85
I19
tp1567
asg27
I200
sba(imain2
Polygon
p1568
(dp1569
g3
(I61
I77
tp1570
sg5
I200
sg6
(I61
I122
I192
I138
tp1571
sg8
(lp1572
(I90
I104
tp1573
a(I88
I94
tp1574
a(I79
I107
tp1575
asg27
I200
sba(imain2
Polygon
p1576
(dp1577
g3
(I36
I98
tp1578
sg5
I200
sg6
(I0
I200
I74
I53
tp1579
sg8
(lp1580
(I28
I97
tp1581
a(I4
I90
tp1582
a(I0
I121
tp1583
a(I0
I53
tp1584
a(I50
I78
tp1585
a(I30
I53
tp1586
a(I0
I53
tp1587
a(I18
I50
tp1588
asg27
I200
sba(imain2
Polygon
p1589
(dp1590
g3
(I20
I133
tp1591
sg5
I200
sg6
(I199
I239
I132
I90
tp1592
sg8
(lp1593
(I30
I179
tp1594
a(I0
I181
tp1595
a(I0
I175
tp1596
a(I21
I139
tp1597
asg27
I200
sba(imain2
Polygon
p1598
(dp1599
g3
(I178
I74
tp1600
sg5
I200
sg6
(I32
I121
I30
I1
tp1601
sg8
(lp1602
(I198
I80
tp1603
a(I128
I75
tp1604
a(I129
I100
tp1605
a(I200
I45
tp1606
a(I141
I76
tp1607
a(I149
I92
tp1608
a(I175
I32
tp1609
a(I176
I34
tp1610
a(I200
I79
tp1611
a(I163
I37
tp1612
a(I200
I114
tp1613
asg27
I200
sba(imain2
Polygon
p1614
(dp1615
g3
(I191
I151
tp1616
sg5
I200
sg6
(I239
I43
I77
I69
tp1617
sg8
(lp1618
(I190
I106
tp1619
a(I189
I120
tp1620
a(I175
I104
tp1621
asg27
I200
sba(imain2
Polygon
p1622
(dp1623
g3
(I81
I200
tp1624
sg5
I200
sg6
(I41
I59
I160
I44
tp1625
sg8
(lp1626
(I63
I200
tp1627
a(I33
I187
tp1628
a(I118
I153
tp1629
a(I38
I191
tp1630
a(I36
I177
tp1631
a(I46
I200
tp1632
a(I101
I200
tp1633
a(I46
I200
tp1634
a(I62
I200
tp1635
a(I68
I200
tp1636
a(I84
I200
tp1637
asg27
I200
sba(imain2
Polygon
p1638
(dp1639
g3
(I8
I200
tp1640
sg5
I200
sg6
(I236
I15
I67
I148
tp1641
sg8
(lp1642
(I34
I200
tp1643
a(I0
I200
tp1644
a(I0
I200
tp1645
a(I2
I200
tp1646
a(I41
I200
tp1647
a(I52
I200
tp1648
a(I23
I200
tp1649
a(I1
I200
tp1650
a(I0
I200
tp1651
a(I17
I195
tp1652
a(I0
I200
tp1653
asg27
I200
sba(imain2
Polygon
p1654
(dp1655
g3
(I12
I187
tp1656
sg5
I200
sg6
(I224
I0
I179
I0
tp1657
sg8
(lp1658
(I34
I167
tp1659
a(I0
I167
tp1660
a(I12
I188
tp1661
a(I0
I174
tp1662
a(I0
I174
tp1663
a(I59
I200
tp1664
a(I44
I171
tp1665
a(I50
I200
tp1666
a(I25
I200
tp1667
a(I13
I200
tp1668
a(I18
I166
tp1669
a(I56
I175
tp1670
asg27
I200
sba(imain2
Polygon
p1671
(dp1672
g3
(I142
I43
tp1673
sg5
I200
sg6
(I50
I78
I164
I18
tp1674
sg8
(lp1675
(I132
I26
tp1676
a(I147
I48
tp1677
a(I148
I68
tp1678
a(I135
I64
tp1679
a(I100
I67
tp1680
a(I136
I59
tp1681
a(I138
I14
tp1682
a(I123
I43
tp1683
a(I106
I40
tp1684
a(I122
I35
tp1685
a(I94
I31
tp1686
a(I138
I19
tp1687
a(I122
I27
tp1688
a(I101
I36
tp1689
asg27
I200
sba(imain2
Polygon
p1690
(dp1691
g3
(I89
I37
tp1692
sg5
I200
sg6
(I1
I104
I197
I86
tp1693
sg8
(lp1694
(I104
I35
tp1695
a(I54
I51
tp1696
a(I55
I50
tp1697
asg27
I200
sba(imain2
Polygon
p1698
(dp1699
g3
(I43
I51
tp1700
sg5
I200
sg6
(I38
I141
I122
I0
tp1701
sg8
(lp1702
(I37
I89
tp1703
a(I71
I76
tp1704
a(I91
I92
tp1705
a(I58
I29
tp1706
a(I39
I44
tp1707
a(I47
I38
tp1708
a(I39
I44
tp1709
a(I62
I59
tp1710
a(I89
I46
tp1711
a(I11
I86
tp1712
a(I47
I50
tp1713
a(I40
I49
tp1714
a(I39
I83
tp1715
a(I88
I11
tp1716
a(I44
I25
tp1717
a(I25
I83
tp1718
a(I55
I58
tp1719
a(I15
I62
tp1720
asg27
I200
sba(imain2
Polygon
p1721
(dp1722
g3
(I23
I143
tp1723
sg5
I200
sg6
(I76
I247
I171
I59
tp1724
sg8
(lp1725
(I6
I147
tp1726
a(I4
I149
tp1727
a(I0
I188
tp1728
a(I29
I191
tp1729
a(I25
I165
tp1730
a(I0
I157
tp1731
a(I14
I128
tp1732
asg27
I200
sba(imain2
Polygon
p1733
(dp1734
g3
(I32
I143
tp1735
sg5
I200
sg6
(I53
I70
I163
I1
tp1736
sg8
(lp1737
(I61
I156
tp1738
a(I32
I159
tp1739
a(I5
I104
tp1740
a(I50
I122
tp1741
a(I44
I162
tp1742
a(I0
I175
tp1743
a(I54
I104
tp1744
a(I55
I127
tp1745
a(I34
I106
tp1746
a(I33
I138
tp1747
a(I39
I126
tp1748
a(I39
I147
tp1749
a(I55
I193
tp1750
a(I45
I108
tp1751
a(I53
I187
tp1752
a(I12
I139
tp1753
asg27
I200
sba(imain2
Polygon
p1754
(dp1755
g3
(I69
I107
tp1756
sg5
I200
sg6
(I160
I229
I0
I20
tp1757
sg8
(lp1758
(I92
I73
tp1759
a(I40
I61
tp1760
a(I104
I157
tp1761
a(I58
I92
tp1762
a(I103
I75
tp1763
a(I95
I93
tp1764
a(I29
I60
tp1765
a(I19
I90
tp1766
a(I93
I154
tp1767
a(I52
I77
tp1768
a(I69
I96
tp1769
a(I113
I129
tp1770
asg27
I200
sba(imain2
Polygon
p1771
(dp1772
g3
(I172
I111
tp1773
sg5
I200
sg6
(I238
I215
I84
I135
tp1774
sg8
(lp1775
(I162
I84
tp1776
a(I200
I88
tp1777
a(I177
I85
tp1778
asg27
I200
sba(imain2
Polygon
p1779
(dp1780
g3
(I150
I91
tp1781
sg5
I200
sg6
(I8
I243
I87
I53
tp1782
sg8
(lp1783
(I191
I127
tp1784
a(I169
I84
tp1785
a(I165
I85
tp1786
a(I174
I90
tp1787
a(I191
I123
tp1788
asg27
I200
sba(imain2
Polygon
p1789
(dp1790
g3
(I135
I188
tp1791
sg5
I200
sg6
(I79
I228
I8
I1
tp1792
sg8
(lp1793
(I126
I200
tp1794
a(I174
I200
tp1795
a(I90
I186
tp1796
a(I97
I156
tp1797
a(I177
I190
tp1798
a(I102
I176
tp1799
a(I142
I178
tp1800
a(I139
I172
tp1801
asg27
I200
sba(imain2
Polygon
p1802
(dp1803
g3
(I127
I113
tp1804
sg5
I200
sg6
(I133
I211
I151
I20
tp1805
sg8
(lp1806
(I109
I131
tp1807
a(I116
I100
tp1808
a(I148
I82
tp1809
a(I81
I98
tp1810
a(I94
I89
tp1811
asg27
I200
sba(imain2
Polygon
p1812
(dp1813
g3
(I173
I20
tp1814
sg5
I200
sg6
(I231
I0
I219
I1
tp1815
sg8
(lp1816
(I147
I47
tp1817
a(I145
I56
tp1818
a(I171
I46
tp1819
a(I200
I0
tp1820
a(I182
I0
tp1821
a(I147
I0
tp1822
a(I137
I18
tp1823
a(I148
I37
tp1824
a(I189
I36
tp1825
a(I185
I0
tp1826
a(I159
I0
tp1827
a(I174
I41
tp1828
a(I149
I40
tp1829
a(I144
I1
tp1830
a(I186
I12
tp1831
asg27
I200
sba(imain2
Polygon
p1832
(dp1833
g3
(I100
I197
tp1834
sg5
I200
sg6
(I34
I102
I177
I76
tp1835
sg8
(lp1836
(I99
I200
tp1837
a(I118
I200
tp1838
a(I147
I200
tp1839
a(I104
I151
tp1840
a(I135
I187
tp1841
a(I106
I200
tp1842
a(I137
I200
tp1843
a(I84
I193
tp1844
a(I135
I200
tp1845
a(I72
I198
tp1846
a(I133
I200
tp1847
a(I51
I200
tp1848
a(I55
I200
tp1849
asg27
I200
sba(imain2
Polygon
p1850
(dp1851
g3
(I70
I0
tp1852
sg5
I200
sg6
(I136
I0
I196
I1
tp1853
sg8
(lp1854
(I62
I0
tp1855
a(I80
I22
tp1856
a(I65
I26
tp1857
a(I90
I0
tp1858
a(I115
I27
tp1859
a(I52
I0
tp1860
a(I76
I34
tp1861
a(I78
I0
tp1862
a(I81
I0
tp1863
asg27
I200
sba(imain2
Polygon
p1864
(dp1865
g3
(I106
I152
tp1866
sg5
I200
sg6
(I99
I163
I63
I69
tp1867
sg8
(lp1868
(I133
I114
tp1869
a(I119
I166
tp1870
a(I59
I200
tp1871
a(I140
I199
tp1872
a(I115
I114
tp1873
a(I56
I163
tp1874
a(I124
I140
tp1875
a(I138
I185
tp1876
a(I122
I150
tp1877
a(I68
I141
tp1878
a(I128
I144
tp1879
asg27
I200
sba(imain2
Polygon
p1880
(dp1881
g3
(I11
I38
tp1882
sg5
I200
sg6
(I111
I0
I125
I11
tp1883
sg8
(lp1884
(I0
I3
tp1885
a(I13
I59
tp1886
a(I35
I52
tp1887
a(I0
I5
tp1888
a(I54
I81
tp1889
a(I14
I34
tp1890
a(I60
I54
tp1891
a(I51
I63
tp1892
a(I13
I62
tp1893
a(I53
I84
tp1894
a(I42
I66
tp1895
asg27
I200
sba(imain2
Polygon
p1896
(dp1897
g3
(I23
I68
tp1898
sg5
I200
sg6
(I217
I112
I190
I130
tp1899
sg8
(lp1900
(I35
I109
tp1901
a(I24
I85
tp1902
a(I54
I19
tp1903
a(I25
I33
tp1904
a(I35
I32
tp1905
a(I36
I40
tp1906
a(I0
I19
tp1907
a(I0
I111
tp1908
a(I7
I98
tp1909
a(I38
I112
tp1910
a(I4
I66
tp1911
asg27
I200
sba(imain2
Polygon
p1912
(dp1913
g3
(I73
I8
tp1914
sg5
I200
sg6
(I107
I163
I21
I142
tp1915
sg8
(lp1916
(I33
I0
tp1917
a(I31
I0
tp1918
a(I113
I0
tp1919
a(I27
I56
tp1920
a(I23
I45
tp1921
a(I24
I0
tp1922
a(I84
I33
tp1923
a(I39
I6
tp1924
a(I49
I29
tp1925
a(I58
I40
tp1926
asg27
I200
sba(imain2
Polygon
p1927
(dp1928
g3
(I175
I187
tp1929
sg5
I200
sg6
(I122
I193
I199
I65
tp1930
sg8
(lp1931
(I186
I200
tp1932
a(I170
I200
tp1933
a(I146
I200
tp1934
asg27
I200
sba(imain2
Polygon
p1935
(dp1936
g3
(I153
I195
tp1937
sg5
I200
sg6
(I54
I168
I30
I0
tp1938
sg8
(lp1939
(I138
I200
tp1940
a(I172
I184
tp1941
a(I144
I196
tp1942
a(I169
I200
tp1943
a(I139
I200
tp1944
a(I149
I200
tp1945
a(I136
I184
tp1946
a(I140
I198
tp1947
asg27
I200
sba(imain2
Polygon
p1948
(dp1949
g3
(I199
I6
tp1950
sg5
I200
sg6
(I145
I41
I87
I1
tp1951
sg8
(lp1952
(I200
I0
tp1953
a(I197
I0
tp1954
a(I200
I0
tp1955
a(I200
I0
tp1956
a(I200
I0
tp1957
a(I200
I18
tp1958
a(I200
I0
tp1959
a(I200
I6
tp1960
a(I200
I0
tp1961
asg27
I200
sba(imain2
Polygon
p1962
(dp1963
g3
(I46
I191
tp1964
sg5
I200
sg6
(I91
I16
I8
I126
tp1965
sg8
(lp1966
(I69
I200
tp1967
a(I73
I200
tp1968
a(I94
I165
tp1969
a(I0
I200
tp1970
a(I0
I146
tp1971
a(I27
I155
tp1972
a(I83
I178
tp1973
a(I34
I181
tp1974
a(I35
I167
tp1975
asg27
I200
sba(imain2
Polygon
p1976
(dp1977
g3
(I144
I179
tp1978
sg5
I200
sg6
(I125
I32
I190
I55
tp1979
sg8
(lp1980
(I165
I180
tp1981
a(I161
I152
tp1982
a(I115
I194
tp1983
a(I130
I191
tp1984
a(I133
I187
tp1985
a(I191
I200
tp1986
a(I106
I200
tp1987
a(I113
I200
tp1988
a(I159
I164
tp1989
a(I159
I200
tp1990
a(I164
I155
tp1991
a(I103
I200
tp1992
a(I105
I180
tp1993
a(I154
I153
tp1994
a(I168
I199
tp1995
a(I168
I200
tp1996
asg27
I200
sba(imain2
Polygon
p1997
(dp1998
g3
(I120
I46
tp1999
sg5
I200
sg6
(I84
I82
I103
I63
tp2000
sg8
(lp2001
(I118
I65
tp2002
a(I95
I18
tp2003
a(I126
I24
tp2004
a(I116
I13
tp2005
a(I97
I17
tp2006
a(I112
I27
tp2007
a(I122
I89
tp2008
a(I125
I46
tp2009
asg27
I200
sba(imain2
Polygon
p2010
(dp2011
g3
(I100
I144
tp2012
sg5
I200
sg6
(I124
I184
I167
I130
tp2013
sg8
(lp2014
(I112
I95
tp2015
a(I104
I138
tp2016
a(I98
I126
tp2017
a(I74
I100
tp2018
a(I78
I118
tp2019
a(I83
I152
tp2020
a(I125
I151
tp2021
a(I68
I158
tp2022
a(I56
I110
tp2023
asg27
I200
sba(imain2
Polygon
p2024
(dp2025
g3
(I151
I184
tp2026
sg5
I200
sg6
(I139
I1
I175
I5
tp2027
sg8
(lp2028
(I166
I200
tp2029
a(I190
I200
tp2030
a(I200
I200
tp2031
a(I169
I169
tp2032
a(I122
I200
tp2033
asg27
I200
sba(imain2
Polygon
p2034
(dp2035
g3
(I124
I187
tp2036
sg5
I200
sg6
(I27
I28
I211
I1
tp2037
sg8
(lp2038
(I113
I140
tp2039
a(I97
I200
tp2040
a(I145
I160
tp2041
a(I90
I200
tp2042
a(I84
I197
tp2043
a(I119
I200
tp2044
a(I80
I200
tp2045
a(I143
I154
tp2046
asg27
I200
sba(imain2
Polygon
p2047
(dp2048
g3
(I48
I52
tp2049
sg5
I200
sg6
(I247
I132
I163
I141
tp2050
sg8
(lp2051
(I58
I94
tp2052
a(I79
I94
tp2053
a(I97
I60
tp2054
a(I67
I7
tp2055
a(I36
I66
tp2056
a(I31
I93
tp2057
a(I88
I8
tp2058
a(I0
I10
tp2059
a(I0
I82
tp2060
a(I2
I102
tp2061
a(I65
I76
tp2062
a(I18
I85
tp2063
a(I75
I83
tp2064
asg27
I200
sba(imain2
Polygon
p2065
(dp2066
g3
(I139
I74
tp2067
sg5
I200
sg6
(I153
I190
I238
I100
tp2068
sg8
(lp2069
(I174
I48
tp2070
a(I189
I47
tp2071
a(I185
I26
tp2072
a(I157
I30
tp2073
a(I171
I52
tp2074
a(I187
I48
tp2075
asg27
I200
sba(imain2
Polygon
p2076
(dp2077
g3
(I161
I83
tp2078
sg5
I200
sg6
(I203
I149
I103
I35
tp2079
sg8
(lp2080
(I114
I113
tp2081
a(I114
I49
tp2082
a(I178
I77
tp2083
a(I185
I60
tp2084
a(I155
I98
tp2085
a(I177
I113
tp2086
a(I199
I106
tp2087
a(I118
I73
tp2088
a(I200
I106
tp2089
a(I200
I49
tp2090
a(I140
I35
tp2091
a(I197
I72
tp2092
a(I172
I66
tp2093
a(I199
I71
tp2094
a(I145
I53
tp2095
a(I124
I126
tp2096
asg27
I200
sba(imain2
Polygon
p2097
(dp2098
g3
(I88
I36
tp2099
sg5
I200
sg6
(I0
I31
I73
I122
tp2100
sg8
(lp2101
(I82
I0
tp2102
a(I49
I39
tp2103
a(I102
I37
tp2104
a(I120
I27
tp2105
a(I125
I14
tp2106
a(I135
I16
tp2107
a(I71
I9
tp2108
a(I42
I13
tp2109
a(I58
I13
tp2110
asg27
I200
sba(imain2
Polygon
p2111
(dp2112
g3
(I12
I36
tp2113
sg5
I200
sg6
(I169
I103
I215
I0
tp2114
sg8
(lp2115
(I0
I57
tp2116
a(I4
I56
tp2117
a(I30
I24
tp2118
a(I0
I0
tp2119
a(I50
I5
tp2120
a(I9
I54
tp2121
asg27
I200
sba(imain2
Polygon
p2122
(dp2123
g3
(I79
I176
tp2124
sg5
I200
sg6
(I200
I85
I176
I107
tp2125
sg8
(lp2126
(I129
I200
tp2127
a(I119
I162
tp2128
a(I87
I199
tp2129
a(I128
I200
tp2130
asg27
I200
sba(imain2
Polygon
p2131
(dp2132
g3
(I159
I193
tp2133
sg5
I200
sg6
(I189
I174
I62
I1
tp2134
sg8
(lp2135
(I200
I175
tp2136
a(I156
I151
tp2137
a(I179
I191
tp2138
a(I180
I153
tp2139
a(I200
I200
tp2140
a(I200
I196
tp2141
a(I192
I188
tp2142
a(I125
I183
tp2143
a(I175
I146
tp2144
a(I118
I200
tp2145
a(I176
I178
tp2146
a(I139
I200
tp2147
asg27
I200
sba(imain2
Polygon
p2148
(dp2149
g3
(I52
I197
tp2150
sg5
I200
sg6
(I164
I149
I230
I0
tp2151
sg8
(lp2152
(I55
I200
tp2153
a(I57
I200
tp2154
a(I29
I200
tp2155
a(I49
I200
tp2156
a(I14
I199
tp2157
a(I22
I181
tp2158
a(I37
I200
tp2159
asg27
I200
sba(imain2
Polygon
p2160
(dp2161
g3
(I96
I168
tp2162
sg5
I200
sg6
(I84
I155
I167
I1
tp2163
sg8
(lp2164
(I47
I192
tp2165
a(I128
I200
tp2166
a(I73
I156
tp2167
a(I138
I200
tp2168
a(I139
I200
tp2169
a(I72
I170
tp2170
a(I145
I191
tp2171
a(I74
I200
tp2172
asg27
I200
sba(imain2
Polygon
p2173
(dp2174
g3
(I148
I67
tp2175
sg5
I200
sg6
(I211
I30
I22
I1
tp2176
sg8
(lp2177
(I174
I47
tp2178
a(I110
I44
tp2179
a(I120
I55
tp2180
a(I113
I19
tp2181
a(I108
I48
tp2182
a(I108
I94
tp2183
a(I178
I39
tp2184
a(I165
I74
tp2185
a(I139
I104
tp2186
a(I168
I46
tp2187
a(I106
I33
tp2188
asg27
I200
sba(imain2
Polygon
p2189
(dp2190
g3
(I185
I29
tp2191
sg5
I200
sg6
(I140
I164
I77
I85
tp2192
sg8
(lp2193
(I136
I0
tp2194
a(I199
I0
tp2195
a(I194
I26
tp2196
a(I160
I50
tp2197
a(I174
I43
tp2198
a(I138
I31
tp2199
asg27
I200
sba(imain2
Polygon
p2200
(dp2201
g3
(I77
I185
tp2202
sg5
I200
sg6
(I29
I26
I99
I115
tp2203
sg8
(lp2204
(I61
I200
tp2205
a(I63
I154
tp2206
a(I39
I143
tp2207
a(I124
I169
tp2208
a(I40
I180
tp2209
a(I39
I144
tp2210
a(I35
I180
tp2211
a(I94
I168
tp2212
a(I64
I192
tp2213
a(I66
I165
tp2214
asg27
I200
sba(imain2
Polygon
p2215
(dp2216
g3
(I183
I173
tp2217
sg5
I200
sg6
(I108
I217
I89
I57
tp2218
sg8
(lp2219
(I150
I200
tp2220
a(I175
I200
tp2221
a(I173
I200
tp2222
a(I173
I194
tp2223
a(I164
I182
tp2224
asg27
I200
sba(imain2
Polygon
p2225
(dp2226
g3
(I141
I78
tp2227
sg5
I200
sg6
(I233
I87
I167
I1
tp2228
sg8
(lp2229
(I99
I101
tp2230
a(I168
I60
tp2231
a(I134
I66
tp2232
a(I176
I106
tp2233
a(I125
I122
tp2234
a(I182
I84
tp2235
a(I124
I124
tp2236
a(I120
I98
tp2237
a(I176
I101
tp2238
a(I106
I72
tp2239
asg27
I200
sba(imain2
Polygon
p2240
(dp2241
g3
(I8
I10
tp2242
sg5
I200
sg6
(I63
I44
I74
I119
tp2243
sg8
(lp2244
(I17
I0
tp2245
a(I0
I0
tp2246
a(I30
I6
tp2247
a(I32
I6
tp2248
a(I0
I0
tp2249
a(I0
I21
tp2250
a(I0
I0
tp2251
asg27
I200
sba(imain2
Polygon
p2252
(dp2253
g3
(I37
I13
tp2254
sg5
I200
sg6
(I1
I115
I20
I126
tp2255
sg8
(lp2256
(I36
I0
tp2257
a(I16
I0
tp2258
a(I17
I0
tp2259
a(I19
I8
tp2260
a(I0
I0
tp2261
a(I47
I12
tp2262
a(I0
I0
tp2263
a(I2
I12
tp2264
a(I61
I0
tp2265
a(I79
I31
tp2266
a(I38
I0
tp2267
asg27
I200
sba(imain2
Polygon
p2268
(dp2269
g3
(I168
I175
tp2270
sg5
I200
sg6
(I97
I56
I24
I9
tp2271
sg8
(lp2272
(I152
I200
tp2273
a(I120
I181
tp2274
a(I189
I200
tp2275
a(I163
I181
tp2276
a(I177
I200
tp2277
a(I193
I183
tp2278
a(I193
I200
tp2279
a(I192
I161
tp2280
a(I170
I133
tp2281
a(I174
I140
tp2282
a(I122
I174
tp2283
asg27
I200
sba(imain2
Polygon
p2284
(dp2285
g3
(I75
I83
tp2286
sg5
I200
sg6
(I27
I33
I20
I0
tp2287
sg8
(lp2288
(I114
I59
tp2289
a(I50
I113
tp2290
a(I120
I50
tp2291
a(I37
I102
tp2292
a(I91
I37
tp2293
a(I51
I69
tp2294
a(I72
I87
tp2295
a(I68
I133
tp2296
a(I106
I101
tp2297
a(I110
I110
tp2298
a(I89
I59
tp2299
a(I85
I90
tp2300
a(I100
I106
tp2301
a(I42
I130
tp2302
asg27
I200
sba(imain2
Polygon
p2303
(dp2304
g3
(I18
I79
tp2305
sg5
I200
sg6
(I81
I1
I176
I122
tp2306
sg8
(lp2307
(I61
I110
tp2308
a(I51
I115
tp2309
a(I44
I52
tp2310
a(I43
I101
tp2311
a(I25
I110
tp2312
a(I12
I123
tp2313
a(I0
I103
tp2314
a(I0
I117
tp2315
a(I39
I119
tp2316
asg27
I200
sba(imain2
Polygon
p2317
(dp2318
g3
(I27
I28
tp2319
sg5
I200
sg6
(I222
I146
I40
I1
tp2320
sg8
(lp2321
(I50
I74
tp2322
a(I58
I68
tp2323
a(I0
I0
tp2324
a(I75
I71
tp2325
a(I69
I0
tp2326
a(I32
I0
tp2327
a(I0
I0
tp2328
a(I0
I50
tp2329
a(I72
I42
tp2330
a(I0
I42
tp2331
a(I0
I23
tp2332
a(I26
I69
tp2333
a(I68
I73
tp2334
asg27
I200
sba(imain2
Polygon
p2335
(dp2336
g3
(I85
I60
tp2337
sg5
I200
sg6
(I84
I115
I14
I111
tp2338
sg8
(lp2339
(I115
I60
tp2340
a(I134
I87
tp2341
a(I55
I107
tp2342
a(I36
I62
tp2343
a(I72
I90
tp2344
a(I131
I73
tp2345
a(I117
I52
tp2346
a(I123
I32
tp2347
asg27
I200
sba(imain2
Polygon
p2348
(dp2349
g3
(I45
I110
tp2350
sg5
I200
sg6
(I42
I243
I179
I60
tp2351
sg8
(lp2352
(I68
I158
tp2353
a(I45
I112
tp2354
a(I89
I87
tp2355
a(I72
I109
tp2356
asg27
I200
sba(imain2
Polygon
p2357
(dp2358
g3
(I54
I138
tp2359
sg5
I200
sg6
(I119
I64
I186
I0
tp2360
sg8
(lp2361
(I97
I93
tp2362
a(I41
I139
tp2363
a(I99
I90
tp2364
a(I40
I154
tp2365
a(I88
I174
tp2366
a(I91
I117
tp2367
a(I77
I110
tp2368
a(I14
I186
tp2369
a(I72
I137
tp2370
a(I101
I147
tp2371
asg27
I200
sba(imain2
Polygon
p2372
(dp2373
g3
(I162
I123
tp2374
sg5
I200
sg6
(I47
I61
I73
I22
tp2375
sg8
(lp2376
(I119
I79
tp2377
a(I153
I85
tp2378
a(I200
I137
tp2379
a(I200
I144
tp2380
a(I125
I137
tp2381
a(I142
I158
tp2382
a(I180
I124
tp2383
a(I168
I135
tp2384
a(I123
I93
tp2385
a(I158
I73
tp2386
a(I184
I95
tp2387
a(I158
I164
tp2388
a(I116
I146
tp2389
a(I156
I80
tp2390
a(I161
I109
tp2391
a(I197
I100
tp2392
a(I190
I140
tp2393
a(I118
I94
tp2394
a(I125
I109
tp2395
asg27
I200
sba(imain2
Polygon
p2396
(dp2397
g3
(I144
I70
tp2398
sg5
I200
sg6
(I194
I40
I118
I47
tp2399
sg8
(lp2400
(I149
I30
tp2401
a(I169
I95
tp2402
a(I155
I49
tp2403
asg27
I200
sba(imain2
Polygon
p2404
(dp2405
g3
(I11
I36
tp2406
sg5
I200
sg6
(I146
I33
I79
I41
tp2407
sg8
(lp2408
(I0
I29
tp2409
a(I37
I36
tp2410
a(I0
I13
tp2411
a(I35
I7
tp2412
a(I0
I0
tp2413
a(I0
I57
tp2414
a(I0
I17
tp2415
a(I29
I0
tp2416
a(I0
I35
tp2417
a(I0
I0
tp2418
asg27
I200
sba(imain2
Polygon
p2419
(dp2420
g3
(I85
I175
tp2421
sg5
I200
sg6
(I241
I54
I45
I5
tp2422
sg8
(lp2423
(I122
I200
tp2424
a(I89
I168
tp2425
a(I112
I137
tp2426
a(I61
I130
tp2427
a(I77
I143
tp2428
a(I122
I198
tp2429
a(I40
I200
tp2430
a(I66
I189
tp2431
a(I114
I192
tp2432
a(I100
I188
tp2433
a(I70
I129
tp2434
a(I91
I200
tp2435
a(I109
I150
tp2436
a(I61
I131
tp2437
a(I89
I176
tp2438
a(I47
I146
tp2439
asg27
I200
sba(imain2
Polygon
p2440
(dp2441
g3
(I78
I22
tp2442
sg5
I200
sg6
(I0
I239
I66
I0
tp2443
sg8
(lp2444
(I64
I19
tp2445
a(I86
I0
tp2446
a(I80
I67
tp2447
a(I112
I68
tp2448
a(I112
I49
tp2449
a(I51
I15
tp2450
a(I103
I9
tp2451
a(I80
I0
tp2452
a(I80
I27
tp2453
a(I97
I0
tp2454
a(I42
I46
tp2455
a(I37
I57
tp2456
asg27
I200
sba(imain2
Polygon
p2457
(dp2458
g3
(I58
I165
tp2459
sg5
I200
sg6
(I74
I0
I135
I102
tp2460
sg8
(lp2461
(I39
I165
tp2462
a(I19
I159
tp2463
a(I46
I164
tp2464
a(I53
I157
tp2465
a(I43
I143
tp2466
asg27
I200
sba(imain2
Polygon
p2467
(dp2468
g3
(I98
I69
tp2469
sg5
I200
sg6
(I75
I214
I127
I44
tp2470
sg8
(lp2471
(I111
I113
tp2472
a(I126
I99
tp2473
a(I56
I86
tp2474
asg27
I200
sba(imain2
Polygon
p2475
(dp2476
g3
(I184
I193
tp2477
sg5
I200
sg6
(I18
I64
I70
I0
tp2478
sg8
(lp2479
(I197
I200
tp2480
a(I185
I200
tp2481
a(I200
I163
tp2482
a(I200
I200
tp2483
a(I159
I167
tp2484
a(I186
I200
tp2485
asg27
I200
sba(imain2
Polygon
p2486
(dp2487
g3
(I136
I181
tp2488
sg5
I200
sg6
(I120
I127
I190
I0
tp2489
sg8
(lp2490
(I148
I200
tp2491
a(I87
I180
tp2492
a(I129
I164
tp2493
a(I175
I181
tp2494
a(I115
I142
tp2495
a(I131
I164
tp2496
a(I124
I156
tp2497
a(I180
I199
tp2498
a(I127
I139
tp2499
a(I178
I200
tp2500
asg27
I200
sba(imain2
Polygon
p2501
(dp2502
g3
(I65
I69
tp2503
sg5
I200
sg6
(I101
I94
I153
I22
tp2504
sg8
(lp2505
(I57
I66
tp2506
a(I40
I84
tp2507
a(I79
I112
tp2508
a(I80
I100
tp2509
a(I37
I106
tp2510
a(I63
I93
tp2511
a(I42
I61
tp2512
a(I37
I81
tp2513
a(I73
I48
tp2514
asg27
I200
sba(imain2
Polygon
p2515
(dp2516
g3
(I146
I60
tp2517
sg5
I200
sg6
(I1
I3
I200
I8
tp2518
sg8
(lp2519
(I167
I55
tp2520
a(I174
I96
tp2521
a(I158
I56
tp2522
a(I151
I109
tp2523
a(I164
I56
tp2524
a(I111
I50
tp2525
asg27
I200
sba(imain2
Polygon
p2526
(dp2527
g3
(I7
I191
tp2528
sg5
I200
sg6
(I1
I167
I63
I1
tp2529
sg8
(lp2530
(I42
I172
tp2531
a(I53
I198
tp2532
a(I5
I200
tp2533
a(I31
I200
tp2534
a(I37
I200
tp2535
a(I0
I200
tp2536
a(I0
I195
tp2537
a(I56
I177
tp2538
a(I0
I187
tp2539
asg27
I200
sba(imain2
Polygon
p2540
(dp2541
g3
(I177
I12
tp2542
sg5
I200
sg6
(I0
I128
I138
I1
tp2543
sg8
(lp2544
(I179
I47
tp2545
a(I200
I31
tp2546
a(I131
I0
tp2547
a(I173
I62
tp2548
a(I200
I45
tp2549
a(I200
I50
tp2550
a(I148
I56
tp2551
a(I141
I7
tp2552
a(I198
I11
tp2553
asg27
I200
sba(imain2
Polygon
p2554
(dp2555
g3
(I98
I60
tp2556
sg5
I200
sg6
(I143
I37
I48
I4
tp2557
sg8
(lp2558
(I87
I83
tp2559
a(I57
I109
tp2560
a(I138
I25
tp2561
a(I80
I91
tp2562
a(I126
I103
tp2563
a(I147
I11
tp2564
a(I125
I68
tp2565
asg27
I200
sba(imain2
Polygon
p2566
(dp2567
g3
(I26
I121
tp2568
sg5
I200
sg6
(I19
I114
I4
I95
tp2569
sg8
(lp2570
(I5
I167
tp2571
a(I39
I85
tp2572
a(I0
I101
tp2573
a(I0
I166
tp2574
a(I51
I153
tp2575
a(I14
I135
tp2576
a(I45
I83
tp2577
a(I52
I113
tp2578
a(I0
I157
tp2579
a(I0
I125
tp2580
asg27
I200
sba(imain2
Polygon
p2581
(dp2582
g3
(I59
I10
tp2583
sg5
I200
sg6
(I180
I56
I106
I139
tp2584
sg8
(lp2585
(I13
I0
tp2586
a(I70
I0
tp2587
a(I73
I6
tp2588
a(I69
I0
tp2589
a(I109
I0
tp2590
a(I63
I23
tp2591
a(I10
I0
tp2592
a(I17
I23
tp2593
asg27
I200
sba(imain2
Polygon
p2594
(dp2595
g3
(I171
I141
tp2596
sg5
I200
sg6
(I37
I200
I138
I6
tp2597
sg8
(lp2598
(I200
I170
tp2599
a(I200
I173
tp2600
a(I200
I169
tp2601
a(I175
I116
tp2602
a(I176
I119
tp2603
a(I200
I183
tp2604
a(I126
I103
tp2605
a(I187
I97
tp2606
asg27
I200
sba(imain2
Polygon
p2607
(dp2608
g3
(I80
I143
tp2609
sg5
I200
sg6
(I73
I76
I11
I121
tp2610
sg8
(lp2611
(I106
I144
tp2612
a(I70
I145
tp2613
a(I93
I192
tp2614
a(I130
I187
tp2615
a(I107
I140
tp2616
a(I32
I121
tp2617
a(I39
I93
tp2618
a(I65
I188
tp2619
a(I118
I114
tp2620
a(I89
I141
tp2621
a(I111
I114
tp2622
a(I86
I147
tp2623
asg27
I200
sba(imain2
Polygon
p2624
(dp2625
g3
(I191
I199
tp2626
sg5
I200
sg6
(I0
I224
I25
I1
tp2627
sg8
(lp2628
(I148
I156
tp2629
a(I196
I200
tp2630
a(I200
I171
tp2631
a(I150
I150
tp2632
a(I171
I200
tp2633
a(I151
I170
tp2634
a(I200
I170
tp2635
a(I148
I149
tp2636
a(I200
I153
tp2637
asg27
I200
sba(imain2
Polygon
p2638
(dp2639
g3
(I6
I112
tp2640
sg5
I200
sg6
(I132
I71
I131
I72
tp2641
sg8
(lp2642
(I0
I137
tp2643
a(I0
I140
tp2644
a(I25
I84
tp2645
a(I0
I123
tp2646
a(I0
I106
tp2647
a(I0
I161
tp2648
a(I0
I71
tp2649
asg27
I200
sba(imain2
Polygon
p2650
(dp2651
g3
(I189
I37
tp2652
sg5
I200
sg6
(I31
I238
I165
I65
tp2653
sg8
(lp2654
(I200
I41
tp2655
a(I177
I46
tp2656
a(I200
I40
tp2657
a(I199
I1
tp2658
asg27
I200
sba(imain2
Polygon
p2659
(dp2660
g3
(I121
I50
tp2661
sg5
I200
sg6
(I5
I72
I1
I0
tp2662
sg8
(lp2663
(I170
I34
tp2664
a(I142
I7
tp2665
a(I160
I54
tp2666
asg27
I200
sba(imain2
Polygon
p2667
(dp2668
g3
(I58
I165
tp2669
sg5
I200
sg6
(I144
I99
I3
I1
tp2670
sg8
(lp2671
(I53
I140
tp2672
a(I39
I171
tp2673
a(I32
I150
tp2674
a(I95
I181
tp2675
a(I97
I177
tp2676
a(I50
I165
tp2677
a(I17
I134
tp2678
a(I59
I152
tp2679
a(I88
I129
tp2680
a(I56
I151
tp2681
asg27
I200
sba(imain2
Polygon
p2682
(dp2683
g3
(I155
I38
tp2684
sg5
I200
sg6
(I101
I109
I238
I108
tp2685
sg8
(lp2686
(I160
I2
tp2687
a(I162
I13
tp2688
a(I165
I27
tp2689
asg27
I200
sba(imain2
Polygon
p2690
(dp2691
g3
(I80
I130
tp2692
sg5
I200
sg6
(I224
I90
I1
I125
tp2693
sg8
(lp2694
(I90
I107
tp2695
a(I38
I91
tp2696
a(I127
I91
tp2697
a(I86
I180
tp2698
a(I90
I97
tp2699
a(I42
I107
tp2700
a(I57
I140
tp2701
a(I81
I161
tp2702
a(I95
I173
tp2703
a(I77
I124
tp2704
a(I91
I85
tp2705
a(I88
I146
tp2706
asg27
I200
sba(imain2
Polygon
p2707
(dp2708
g3
(I182
I31
tp2709
sg5
I200
sg6
(I112
I86
I112
I0
tp2710
sg8
(lp2711
(I200
I3
tp2712
a(I198
I51
tp2713
a(I146
I14
tp2714
a(I140
I64
tp2715
a(I164
I0
tp2716
a(I200
I47
tp2717
a(I163
I17
tp2718
a(I182
I55
tp2719
a(I164
I73
tp2720
a(I200
I13
tp2721
a(I191
I0
tp2722
a(I168
I44
tp2723
a(I200
I15
tp2724
a(I174
I6
tp2725
a(I195
I67
tp2726
a(I196
I17
tp2727
a(I192
I0
tp2728
a(I200
I72
tp2729
a(I198
I23
tp2730
a(I199
I1
tp2731
asg27
I200
sba(imain2
Polygon
p2732
(dp2733
g3
(I164
I132
tp2734
sg5
I200
sg6
(I50
I69
I1
I1
tp2735
sg8
(lp2736
(I162
I178
tp2737
a(I129
I182
tp2738
a(I152
I161
tp2739
a(I154
I157
tp2740
a(I125
I177
tp2741
a(I190
I92
tp2742
a(I146
I102
tp2743
a(I143
I150
tp2744
a(I166
I123
tp2745
a(I144
I129
tp2746
a(I181
I85
tp2747
a(I127
I166
tp2748
a(I122
I127
tp2749
a(I116
I151
tp2750
a(I122
I170
tp2751
asg27
I200
sba(imain2
Polygon
p2752
(dp2753
g3
(I67
I123
tp2754
sg5
I200
sg6
(I204
I170
I128
I75
tp2755
sg8
(lp2756
(I114
I101
tp2757
a(I112
I148
tp2758
a(I65
I154
tp2759
a(I43
I93
tp2760
a(I96
I92
tp2761
a(I107
I100
tp2762
a(I49
I107
tp2763
a(I115
I104
tp2764
a(I46
I107
tp2765
a(I101
I102
tp2766
asg27
I200
sba(imain2
Polygon
p2767
(dp2768
g3
(I139
I46
tp2769
sg5
I200
sg6
(I2
I111
I83
I85
tp2770
sg8
(lp2771
(I185
I84
tp2772
a(I98
I73
tp2773
a(I164
I79
tp2774
asg27
I200
sba(imain2
Polygon
p2775
(dp2776
g3
(I137
I13
tp2777
sg5
I200
sg6
(I203
I132
I222
I5
tp2778
sg8
(lp2779
(I165
I0
tp2780
a(I179
I43
tp2781
a(I165
I55
tp2782
a(I148
I0
tp2783
a(I139
I19
tp2784
a(I157
I0
tp2785
a(I92
I0
tp2786
a(I100
I0
tp2787
a(I88
I17
tp2788
a(I160
I57
tp2789
asg27
I200
sba(imain2
Polygon
p2790
(dp2791
g3
(I72
I81
tp2792
sg5
I200
sg6
(I239
I109
I83
I0
tp2793
sg8
(lp2794
(I32
I97
tp2795
a(I48
I109
tp2796
a(I26
I64
tp2797
a(I119
I81
tp2798
a(I50
I126
tp2799
a(I81
I126
tp2800
a(I72
I104
tp2801
a(I63
I131
tp2802
asg27
I200
sba(imain2
Polygon
p2803
(dp2804
g3
(I24
I70
tp2805
sg5
I200
sg6
(I7
I225
I10
I16
tp2806
sg8
(lp2807
(I37
I25
tp2808
a(I72
I32
tp2809
a(I2
I21
tp2810
a(I0
I105
tp2811
a(I15
I106
tp2812
a(I38
I101
tp2813
a(I0
I104
tp2814
a(I52
I117
tp2815
a(I46
I40
tp2816
a(I22
I27
tp2817
asg27
I200
sba(imain2
Polygon
p2818
(dp2819
g3
(I144
I200
tp2820
sg5
I200
sg6
(I124
I88
I12
I0
tp2821
sg8
(lp2822
(I119
I183
tp2823
a(I188
I200
tp2824
a(I107
I168
tp2825
a(I185
I200
tp2826
a(I183
I167
tp2827
a(I100
I189
tp2828
a(I179
I200
tp2829
a(I147
I151
tp2830
a(I156
I200
tp2831
a(I186
I200
tp2832
a(I129
I178
tp2833
a(I104
I200
tp2834
a(I131
I200
tp2835
a(I174
I196
tp2836
a(I117
I165
tp2837
a(I105
I200
tp2838
a(I159
I200
tp2839
a(I175
I200
tp2840
a(I114
I189
tp2841
a(I145
I200
tp2842
asg27
I200
sba(imain2
Polygon
p2843
(dp2844
g3
(I63
I64
tp2845
sg5
I200
sg6
(I193
I193
I46
I4
tp2846
sg8
(lp2847
(I112
I33
tp2848
a(I18
I106
tp2849
a(I18
I45
tp2850
a(I97
I38
tp2851
a(I97
I107
tp2852
a(I22
I101
tp2853
asg27
I200
sba(imain2
Polygon
p2854
(dp2855
g3
(I87
I65
tp2856
sg5
I200
sg6
(I217
I57
I100
I0
tp2857
sg8
(lp2858
(I54
I64
tp2859
a(I95
I106
tp2860
a(I74
I35
tp2861
a(I86
I89
tp2862
a(I45
I28
tp2863
a(I39
I69
tp2864
a(I64
I66
tp2865
a(I125
I66
tp2866
a(I136
I93
tp2867
a(I96
I80
tp2868
asg27
I200
sba(imain2
Polygon
p2869
(dp2870
g3
(I110
I191
tp2871
sg5
I200
sg6
(I162
I198
I225
I1
tp2872
sg8
(lp2873
(I150
I191
tp2874
a(I98
I178
tp2875
a(I157
I152
tp2876
a(I83
I180
tp2877
a(I85
I161
tp2878
a(I115
I169
tp2879
a(I78
I200
tp2880
a(I122
I200
tp2881
a(I118
I200
tp2882
asg27
I200
sba(imain2
Polygon
p2883
(dp2884
g3
(I108
I110
tp2885
sg5
I200
sg6
(I99
I179
I166
I0
tp2886
sg8
(lp2887
(I101
I127
tp2888
a(I63
I155
tp2889
a(I132
I160
tp2890
a(I75
I84
tp2891
a(I70
I134
tp2892
a(I116
I124
tp2893
a(I100
I157
tp2894
asg27
I200
sba(imain2
Polygon
p2895
(dp2896
g3
(I112
I52
tp2897
sg5
I200
sg6
(I81
I201
I81
I106
tp2898
sg8
(lp2899
(I158
I54
tp2900
a(I77
I86
tp2901
a(I149
I58
tp2902
asg27
I200
sba.