(lp0
(imain2
Polygon
p1
(dp2
S'origin'
p3
(I39
I29
tp4
sS'h'
p5
I200
sS'color'
p6
(I195
I23
I139
I76
tp7
sS'corner_list'
p8
(lp9
(I0
I0
tp10
a(I33
I71
tp11
a(I71
I41
tp12
a(I83
I36
tp13
a(I71
I0
tp14
a(I0
I70
tp15
a(I0
I33
tp16
a(I18
I16
tp17
a(I0
I37
tp18
a(I83
I19
tp19
a(I58
I39
tp20
a(I4
I54
tp21
a(I0
I33
tp22
a(I60
I37
tp23
a(I39
I30
tp24
a(I64
I0
tp25
asS'w'
p26
I200
sba(imain2
Polygon
p27
(dp28
g3
(I66
I177
tp29
sg5
I200
sg6
(I138
I55
I47
I29
tp30
sg8
(lp31
(I77
I143
tp32
a(I77
I165
tp33
a(I111
I200
tp34
a(I34
I200
tp35
a(I71
I200
tp36
a(I17
I179
tp37
a(I44
I200
tp38
a(I77
I200
tp39
asg26
I200
sba(imain2
Polygon
p40
(dp41
g3
(I59
I53
tp42
sg5
I200
sg6
(I109
I43
I107
I140
tp43
sg8
(lp44
(I106
I10
tp45
a(I26
I102
tp46
a(I9
I53
tp47
a(I73
I26
tp48
a(I41
I9
tp49
a(I45
I35
tp50
a(I40
I72
tp51
a(I32
I51
tp52
a(I38
I88
tp53
a(I97
I87
tp54
a(I109
I84
tp55
a(I91
I22
tp56
a(I92
I46
tp57
a(I76
I61
tp58
a(I97
I29
tp59
a(I50
I59
tp60
a(I53
I45
tp61
a(I57
I67
tp62
asg26
I200
sba(imain2
Polygon
p63
(dp64
g3
(I79
I99
tp65
sg5
I200
sg6
(I71
I89
I68
I88
tp66
sg8
(lp67
(I88
I64
tp68
a(I98
I98
tp69
a(I76
I117
tp70
a(I76
I74
tp71
a(I35
I63
tp72
a(I72
I80
tp73
a(I123
I57
tp74
a(I114
I125
tp75
a(I30
I114
tp76
asg26
I200
sba(imain2
Polygon
p77
(dp78
g3
(I200
I83
tp79
sg5
I200
sg6
(I165
I229
I64
I6
tp80
sg8
(lp81
(I200
I58
tp82
a(I172
I56
tp83
a(I194
I58
tp84
a(I178
I101
tp85
a(I200
I94
tp86
asg26
I200
sba(imain2
Polygon
p87
(dp88
g3
(I48
I136
tp89
sg5
I200
sg6
(I104
I110
I144
I53
tp90
sg8
(lp91
(I74
I106
tp92
a(I87
I127
tp93
a(I94
I141
tp94
a(I43
I102
tp95
a(I5
I168
tp96
a(I60
I171
tp97
a(I89
I93
tp98
a(I16
I112
tp99
a(I78
I105
tp100
a(I86
I178
tp101
a(I47
I126
tp102
a(I46
I109
tp103
a(I2
I151
tp104
a(I64
I175
tp105
a(I58
I161
tp106
a(I45
I165
tp107
a(I87
I144
tp108
a(I84
I97
tp109
a(I79
I93
tp110
a(I69
I164
tp111
asg26
I200
sba(imain2
Polygon
p112
(dp113
g3
(I118
I72
tp114
sg5
I200
sg6
(I132
I137
I59
I48
tp115
sg8
(lp116
(I99
I82
tp117
a(I118
I81
tp118
a(I118
I115
tp119
a(I126
I57
tp120
a(I89
I36
tp121
a(I68
I93
tp122
a(I104
I108
tp123
a(I97
I43
tp124
asg26
I200
sba(imain2
Polygon
p125
(dp126
g3
(I75
I194
tp127
sg5
I200
sg6
(I211
I85
I104
I7
tp128
sg8
(lp129
(I38
I200
tp130
a(I81
I145
tp131
a(I100
I167
tp132
a(I41
I160
tp133
a(I96
I159
tp134
a(I72
I157
tp135
asg26
I200
sba(imain2
Polygon
p136
(dp137
g3
(I7
I180
tp138
sg5
I200
sg6
(I232
I33
I1
I0
tp139
sg8
(lp140
(I28
I179
tp141
a(I0
I200
tp142
a(I0
I200
tp143
a(I0
I158
tp144
a(I0
I192
tp145
a(I41
I140
tp146
a(I15
I200
tp147
a(I9
I194
tp148
a(I0
I200
tp149
a(I0
I188
tp150
a(I5
I200
tp151
a(I47
I179
tp152
a(I15
I137
tp153
asg26
I200
sba(imain2
Polygon
p154
(dp155
g3
(I200
I5
tp156
sg5
I200
sg6
(I172
I75
I111
I29
tp157
sg8
(lp158
(I200
I28
tp159
a(I200
I0
tp160
a(I200
I0
tp161
a(I179
I0
tp162
a(I154
I0
tp163
a(I180
I0
tp164
a(I200
I0
tp165
a(I200
I45
tp166
a(I155
I15
tp167
a(I200
I0
tp168
asg26
I200
sba(imain2
Polygon
p169
(dp170
g3
(I180
I27
tp171
sg5
I200
sg6
(I104
I110
I153
I1
tp172
sg8
(lp173
(I200
I66
tp174
a(I200
I0
tp175
a(I183
I1
tp176
a(I162
I29
tp177
a(I186
I32
tp178
a(I200
I4
tp179
a(I163
I0
tp180
a(I153
I0
tp181
a(I149
I53
tp182
a(I160
I34
tp183
a(I150
I0
tp184
a(I169
I65
tp185
a(I134
I46
tp186
a(I200
I0
tp187
asg26
I200
sba(imain2
Polygon
p188
(dp189
g3
(I59
I197
tp190
sg5
I200
sg6
(I80
I206
I135
I127
tp191
sg8
(lp192
(I98
I200
tp193
a(I93
I157
tp194
a(I71
I197
tp195
a(I54
I200
tp196
a(I24
I200
tp197
asg26
I200
sba(imain2
Polygon
p198
(dp199
g3
(I129
I124
tp200
sg5
I200
sg6
(I169
I187
I96
I60
tp201
sg8
(lp202
(I122
I123
tp203
a(I92
I168
tp204
a(I130
I89
tp205
a(I111
I89
tp206
a(I90
I106
tp207
a(I88
I150
tp208
a(I119
I138
tp209
asg26
I200
sba(imain2
Polygon
p210
(dp211
g3
(I107
I2
tp212
sg5
I200
sg6
(I47
I1
I159
I106
tp213
sg8
(lp214
(I83
I0
tp215
a(I107
I0
tp216
a(I97
I0
tp217
a(I134
I0
tp218
a(I86
I0
tp219
a(I106
I7
tp220
a(I142
I27
tp221
a(I156
I2
tp222
asg26
I200
sba(imain2
Polygon
p223
(dp224
g3
(I25
I107
tp225
sg5
I200
sg6
(I102
I25
I170
I1
tp226
sg8
(lp227
(I30
I146
tp228
a(I12
I69
tp229
a(I0
I123
tp230
a(I0
I68
tp231
a(I47
I76
tp232
a(I63
I86
tp233
a(I32
I154
tp234
a(I47
I83
tp235
a(I56
I62
tp236
a(I0
I59
tp237
a(I3
I58
tp238
a(I0
I103
tp239
a(I9
I75
tp240
a(I7
I139
tp241
a(I58
I86
tp242
a(I18
I134
tp243
asg26
I200
sba(imain2
Polygon
p244
(dp245
g3
(I194
I197
tp246
sg5
I200
sg6
(I7
I195
I62
I86
tp247
sg8
(lp248
(I200
I171
tp249
a(I200
I176
tp250
a(I200
I180
tp251
asg26
I200
sba(imain2
Polygon
p252
(dp253
g3
(I8
I2
tp254
sg5
I200
sg6
(I204
I193
I218
I0
tp255
sg8
(lp256
(I20
I0
tp257
a(I33
I37
tp258
a(I53
I9
tp259
a(I40
I9
tp260
a(I0
I4
tp261
a(I0
I0
tp262
a(I9
I17
tp263
a(I52
I0
tp264
a(I0
I45
tp265
a(I20
I0
tp266
a(I55
I0
tp267
asg26
I200
sba(imain2
Polygon
p268
(dp269
g3
(I171
I144
tp270
sg5
I200
sg6
(I109
I156
I184
I0
tp271
sg8
(lp272
(I136
I112
tp273
a(I126
I156
tp274
a(I165
I102
tp275
a(I132
I120
tp276
a(I176
I147
tp277
a(I141
I188
tp278
a(I198
I129
tp279
a(I200
I153
tp280
asg26
I200
sba(imain2
Polygon
p281
(dp282
g3
(I44
I42
tp283
sg5
I200
sg6
(I78
I127
I73
I1
tp284
sg8
(lp285
(I29
I80
tp286
a(I41
I39
tp287
a(I91
I0
tp288
a(I69
I42
tp289
a(I86
I82
tp290
a(I79
I69
tp291
a(I46
I74
tp292
asg26
I200
sba(imain2
Polygon
p293
(dp294
g3
(I26
I99
tp295
sg5
I200
sg6
(I166
I96
I166
I67
tp296
sg8
(lp297
(I56
I57
tp298
a(I54
I125
tp299
a(I69
I134
tp300
a(I72
I53
tp301
asg26
I200
sba(imain2
Polygon
p302
(dp303
g3
(I114
I46
tp304
sg5
I200
sg6
(I95
I192
I193
I0
tp305
sg8
(lp306
(I79
I0
tp307
a(I126
I34
tp308
a(I145
I56
tp309
a(I90
I66
tp310
a(I64
I42
tp311
a(I104
I20
tp312
asg26
I200
sba(imain2
Polygon
p313
(dp314
g3
(I68
I194
tp315
sg5
I200
sg6
(I85
I192
I149
I0
tp316
sg8
(lp317
(I73
I200
tp318
a(I52
I200
tp319
a(I30
I194
tp320
a(I65
I200
tp321
a(I57
I192
tp322
a(I45
I200
tp323
asg26
I200
sba(imain2
Polygon
p324
(dp325
g3
(I200
I53
tp326
sg5
I200
sg6
(I179
I181
I163
I1
tp327
sg8
(lp328
(I183
I79
tp329
a(I152
I41
tp330
a(I200
I14
tp331
asg26
I200
sba(imain2
Polygon
p332
(dp333
g3
(I172
I155
tp334
sg5
I200
sg6
(I197
I76
I240
I1
tp335
sg8
(lp336
(I156
I193
tp337
a(I186
I112
tp338
a(I135
I150
tp339
a(I144
I130
tp340
a(I139
I119
tp341
a(I158
I120
tp342
a(I138
I123
tp343
a(I137
I184
tp344
a(I166
I121
tp345
a(I154
I196
tp346
a(I200
I135
tp347
a(I197
I144
tp348
a(I200
I146
tp349
asg26
I200
sba(imain2
Polygon
p350
(dp351
g3
(I154
I159
tp352
sg5
I200
sg6
(I53
I205
I32
I0
tp353
sg8
(lp354
(I150
I131
tp355
a(I122
I109
tp356
a(I164
I130
tp357
a(I127
I131
tp358
a(I176
I190
tp359
a(I120
I145
tp360
a(I141
I167
tp361
a(I112
I162
tp362
a(I128
I200
tp363
a(I107
I136
tp364
a(I159
I171
tp365
a(I113
I158
tp366
a(I182
I138
tp367
asg26
I200
sba(imain2
Polygon
p368
(dp369
g3
(I55
I59
tp370
sg5
I200
sg6
(I72
I194
I200
I0
tp371
sg8
(lp372
(I35
I56
tp373
a(I83
I49
tp374
a(I85
I40
tp375
a(I55
I83
tp376
a(I33
I69
tp377
a(I44
I80
tp378
a(I93
I9
tp379
a(I47
I28
tp380
a(I66
I10
tp381
a(I103
I76
tp382
a(I60
I9
tp383
a(I31
I25
tp384
a(I10
I22
tp385
a(I103
I88
tp386
a(I56
I13
tp387
a(I8
I67
tp388
a(I21
I16
tp389
a(I7
I61
tp390
a(I24
I97
tp391
asg26
I200
sba(imain2
Polygon
p392
(dp393
g3
(I127
I147
tp394
sg5
I200
sg6
(I45
I65
I112
I89
tp395
sg8
(lp396
(I109
I194
tp397
a(I79
I101
tp398
a(I97
I160
tp399
a(I161
I191
tp400
asg26
I200
sba(imain2
Polygon
p401
(dp402
g3
(I123
I114
tp403
sg5
I200
sg6
(I115
I0
I5
I1
tp404
sg8
(lp405
(I118
I78
tp406
a(I162
I88
tp407
a(I172
I129
tp408
a(I86
I139
tp409
a(I118
I115
tp410
a(I139
I90
tp411
a(I102
I142
tp412
a(I161
I129
tp413
a(I153
I78
tp414
asg26
I200
sba(imain2
Polygon
p415
(dp416
g3
(I2
I51
tp417
sg5
I200
sg6
(I121
I139
I221
I1
tp418
sg8
(lp419
(I0
I61
tp420
a(I34
I85
tp421
a(I0
I4
tp422
a(I0
I44
tp423
a(I0
I95
tp424
a(I0
I20
tp425
a(I0
I48
tp426
a(I0
I75
tp427
a(I26
I73
tp428
a(I15
I75
tp429
asg26
I200
sba(imain2
Polygon
p430
(dp431
g3
(I166
I21
tp432
sg5
I200
sg6
(I210
I244
I214
I78
tp433
sg8
(lp434
(I200
I0
tp435
a(I200
I59
tp436
a(I169
I70
tp437
a(I131
I0
tp438
a(I153
I0
tp439
a(I131
I6
tp440
a(I135
I0
tp441
a(I200
I0
tp442
a(I195
I27
tp443
asg26
I200
sba(imain2
Polygon
p444
(dp445
g3
(I110
I91
tp446
sg5
I200
sg6
(I127
I32
I28
I0
tp447
sg8
(lp448
(I78
I111
tp449
a(I70
I70
tp450
a(I80
I118
tp451
a(I66
I74
tp452
a(I111
I63
tp453
a(I81
I95
tp454
a(I68
I96
tp455
a(I128
I95
tp456
a(I109
I100
tp457
a(I123
I69
tp458
a(I94
I93
tp459
a(I75
I65
tp460
a(I150
I136
tp461
a(I134
I67
tp462
a(I129
I138
tp463
a(I105
I65
tp464
a(I71
I109
tp465
a(I155
I99
tp466
asg26
I200
sba(imain2
Polygon
p467
(dp468
g3
(I148
I41
tp469
sg5
I200
sg6
(I156
I1
I205
I0
tp470
sg8
(lp471
(I127
I76
tp472
a(I154
I4
tp473
a(I192
I6
tp474
a(I147
I69
tp475
a(I130
I66
tp476
a(I155
I13
tp477
a(I195
I36
tp478
a(I132
I40
tp479
a(I110
I80
tp480
a(I103
I84
tp481
a(I145
I24
tp482
a(I145
I45
tp483
a(I153
I30
tp484
a(I135
I21
tp485
asg26
I200
sba(imain2
Polygon
p486
(dp487
g3
(I188
I159
tp488
sg5
I200
sg6
(I161
I69
I63
I0
tp489
sg8
(lp490
(I200
I159
tp491
a(I164
I115
tp492
a(I200
I197
tp493
a(I200
I137
tp494
a(I200
I118
tp495
a(I197
I200
tp496
a(I156
I170
tp497
asg26
I200
sba(imain2
Polygon
p498
(dp499
g3
(I55
I106
tp500
sg5
I200
sg6
(I54
I89
I39
I1
tp501
sg8
(lp502
(I91
I89
tp503
a(I104
I93
tp504
a(I82
I142
tp505
a(I56
I94
tp506
a(I50
I154
tp507
a(I63
I154
tp508
a(I99
I105
tp509
a(I7
I154
tp510
a(I75
I126
tp511
a(I98
I130
tp512
a(I92
I93
tp513
asg26
I200
sba(imain2
Polygon
p514
(dp515
g3
(I118
I64
tp516
sg5
I200
sg6
(I128
I36
I2
I2
tp517
sg8
(lp518
(I68
I113
tp519
a(I129
I42
tp520
a(I77
I86
tp521
a(I125
I37
tp522
a(I149
I42
tp523
a(I146
I16
tp524
a(I100
I81
tp525
a(I89
I110
tp526
a(I160
I97
tp527
a(I88
I20
tp528
a(I123
I23
tp529
a(I105
I36
tp530
a(I92
I32
tp531
asg26
I200
sba(imain2
Polygon
p532
(dp533
g3
(I101
I127
tp534
sg5
I200
sg6
(I83
I171
I94
I71
tp535
sg8
(lp536
(I82
I132
tp537
a(I66
I119
tp538
a(I83
I154
tp539
a(I132
I81
tp540
a(I63
I110
tp541
asg26
I200
sba(imain2
Polygon
p542
(dp543
g3
(I42
I89
tp544
sg5
I200
sg6
(I17
I90
I177
I1
tp545
sg8
(lp546
(I82
I88
tp547
a(I78
I118
tp548
a(I43
I73
tp549
a(I78
I95
tp550
a(I15
I128
tp551
a(I7
I119
tp552
a(I1
I107
tp553
a(I29
I107
tp554
a(I0
I121
tp555
a(I0
I79
tp556
asg26
I200
sba(imain2
Polygon
p557
(dp558
g3
(I71
I151
tp559
sg5
I200
sg6
(I150
I167
I219
I126
tp560
sg8
(lp561
(I59
I125
tp562
a(I74
I126
tp563
a(I115
I198
tp564
a(I68
I200
tp565
a(I91
I177
tp566
a(I121
I195
tp567
asg26
I200
sba(imain2
Polygon
p568
(dp569
g3
(I13
I141
tp570
sg5
I200
sg6
(I243
I1
I194
I1
tp571
sg8
(lp572
(I0
I181
tp573
a(I0
I181
tp574
a(I0
I119
tp575
a(I28
I147
tp576
a(I53
I153
tp577
a(I7
I133
tp578
a(I0
I112
tp579
a(I30
I173
tp580
a(I38
I142
tp581
a(I47
I102
tp582
a(I52
I124
tp583
a(I0
I110
tp584
asg26
I200
sba(imain2
Polygon
p585
(dp586
g3
(I37
I11
tp587
sg5
I200
sg6
(I113
I18
I9
I88
tp588
sg8
(lp589
(I84
I0
tp590
a(I0
I56
tp591
a(I5
I26
tp592
a(I0
I46
tp593
a(I59
I15
tp594
a(I70
I6
tp595
a(I61
I0
tp596
asg26
I200
sba(imain2
Polygon
p597
(dp598
g3
(I97
I114
tp599
sg5
I200
sg6
(I144
I9
I201
I70
tp600
sg8
(lp601
(I62
I140
tp602
a(I86
I149
tp603
a(I121
I97
tp604
a(I126
I64
tp605
a(I62
I77
tp606
a(I73
I100
tp607
a(I48
I82
tp608
a(I75
I158
tp609
a(I100
I154
tp610
a(I115
I101
tp611
a(I56
I114
tp612
a(I84
I72
tp613
a(I76
I71
tp614
a(I110
I85
tp615
a(I80
I151
tp616
a(I113
I101
tp617
a(I64
I125
tp618
a(I85
I64
tp619
asg26
I200
sba(imain2
Polygon
p620
(dp621
g3
(I77
I12
tp622
sg5
I200
sg6
(I101
I0
I196
I0
tp623
sg8
(lp624
(I97
I0
tp625
a(I85
I0
tp626
a(I42
I0
tp627
a(I46
I41
tp628
a(I50
I51
tp629
a(I99
I49
tp630
a(I69
I0
tp631
a(I114
I19
tp632
a(I51
I42
tp633
asg26
I200
sba(imain2
Polygon
p634
(dp635
g3
(I114
I16
tp636
sg5
I200
sg6
(I1
I100
I177
I139
tp637
sg8
(lp638
(I159
I40
tp639
a(I151
I0
tp640
a(I70
I0
tp641
a(I142
I23
tp642
a(I160
I13
tp643
a(I130
I13
tp644
asg26
I200
sba(imain2
Polygon
p645
(dp646
g3
(I150
I10
tp647
sg5
I200
sg6
(I109
I56
I223
I150
tp648
sg8
(lp649
(I172
I0
tp650
a(I175
I1
tp651
a(I153
I0
tp652
a(I182
I0
tp653
a(I129
I11
tp654
a(I119
I18
tp655
a(I101
I0
tp656
a(I137
I0
tp657
a(I176
I52
tp658
a(I174
I0
tp659
a(I185
I0
tp660
asg26
I200
sba(imain2
Polygon
p661
(dp662
g3
(I41
I10
tp663
sg5
I200
sg6
(I113
I203
I84
I1
tp664
sg8
(lp665
(I28
I17
tp666
a(I23
I53
tp667
a(I0
I4
tp668
a(I72
I21
tp669
a(I30
I0
tp670
a(I60
I0
tp671
asg26
I200
sba(imain2
Polygon
p672
(dp673
g3
(I174
I159
tp674
sg5
I200
sg6
(I169
I106
I84
I89
tp675
sg8
(lp676
(I200
I125
tp677
a(I200
I200
tp678
a(I184
I191
tp679
a(I168
I116
tp680
a(I200
I121
tp681
a(I200
I173
tp682
a(I200
I119
tp683
asg26
I200
sba(imain2
Polygon
p684
(dp685
g3
(I61
I97
tp686
sg5
I200
sg6
(I123
I32
I105
I82
tp687
sg8
(lp688
(I51
I61
tp689
a(I103
I126
tp690
a(I64
I49
tp691
a(I103
I82
tp692
a(I64
I94
tp693
a(I102
I53
tp694
a(I108
I74
tp695
a(I96
I125
tp696
a(I52
I115
tp697
asg26
I200
sba(imain2
Polygon
p698
(dp699
g3
(I180
I97
tp700
sg5
I200
sg6
(I159
I154
I197
I0
tp701
sg8
(lp702
(I200
I88
tp703
a(I200
I108
tp704
a(I196
I110
tp705
a(I172
I65
tp706
a(I200
I145
tp707
a(I137
I86
tp708
a(I181
I70
tp709
asg26
I200
sba(imain2
Polygon
p710
(dp711
g3
(I101
I122
tp712
sg5
I200
sg6
(I163
I83
I0
I65
tp713
sg8
(lp714
(I87
I91
tp715
a(I111
I157
tp716
a(I106
I130
tp717
a(I93
I147
tp718
a(I118
I155
tp719
a(I125
I80
tp720
a(I61
I152
tp721
a(I82
I76
tp722
a(I54
I133
tp723
a(I58
I84
tp724
a(I77
I77
tp725
a(I82
I131
tp726
asg26
I200
sba(imain2
Polygon
p727
(dp728
g3
(I131
I15
tp729
sg5
I200
sg6
(I56
I126
I126
I1
tp730
sg8
(lp731
(I154
I0
tp732
a(I148
I25
tp733
a(I140
I30
tp734
a(I179
I62
tp735
a(I91
I0
tp736
a(I107
I43
tp737
a(I95
I0
tp738
a(I179
I0
tp739
a(I134
I55
tp740
a(I91
I0
tp741
a(I107
I38
tp742
asg26
I200
sba(imain2
Polygon
p743
(dp744
g3
(I113
I24
tp745
sg5
I200
sg6
(I149
I239
I1
I1
tp746
sg8
(lp747
(I163
I0
tp748
a(I88
I27
tp749
a(I103
I36
tp750
a(I155
I17
tp751
a(I125
I3
tp752
a(I115
I8
tp753
a(I117
I66
tp754
a(I110
I46
tp755
a(I138
I18
tp756
a(I122
I0
tp757
a(I77
I58
tp758
a(I110
I0
tp759
a(I82
I0
tp760
asg26
I200
sba(imain2
Polygon
p761
(dp762
g3
(I15
I21
tp763
sg5
I200
sg6
(I42
I40
I25
I1
tp764
sg8
(lp765
(I8
I18
tp766
a(I31
I13
tp767
a(I0
I26
tp768
a(I14
I0
tp769
a(I7
I47
tp770
a(I46
I37
tp771
a(I2
I0
tp772
a(I0
I0
tp773
asg26
I200
sba(imain2
Polygon
p774
(dp775
g3
(I75
I18
tp776
sg5
I200
sg6
(I118
I124
I38
I138
tp777
sg8
(lp778
(I125
I0
tp779
a(I82
I30
tp780
a(I98
I0
tp781
a(I90
I0
tp782
a(I60
I0
tp783
a(I29
I0
tp784
a(I70
I49
tp785
a(I31
I0
tp786
a(I64
I30
tp787
a(I69
I0
tp788
a(I26
I62
tp789
a(I118
I0
tp790
a(I123
I13
tp791
a(I25
I19
tp792
a(I53
I67
tp793
a(I111
I64
tp794
a(I124
I63
tp795
a(I72
I12
tp796
a(I104
I7
tp797
a(I73
I11
tp798
asg26
I200
sba(imain2
Polygon
p799
(dp800
g3
(I147
I31
tp801
sg5
I200
sg6
(I240
I1
I220
I135
tp802
sg8
(lp803
(I189
I0
tp804
a(I196
I42
tp805
a(I180
I38
tp806
a(I168
I65
tp807
a(I153
I34
tp808
a(I193
I77
tp809
a(I183
I0
tp810
a(I187
I24
tp811
a(I176
I51
tp812
a(I126
I17
tp813
a(I116
I7
tp814
a(I130
I0
tp815
asg26
I200
sba(imain2
Polygon
p816
(dp817
g3
(I43
I128
tp818
sg5
I200
sg6
(I89
I21
I103
I114
tp819
sg8
(lp820
(I7
I89
tp821
a(I0
I99
tp822
a(I41
I87
tp823
a(I15
I103
tp824
a(I5
I162
tp825
a(I19
I96
tp826
a(I5
I149
tp827
asg26
I200
sba(imain2
Polygon
p828
(dp829
g3
(I191
I52
tp830
sg5
I200
sg6
(I139
I140
I98
I1
tp831
sg8
(lp832
(I200
I4
tp833
a(I200
I26
tp834
a(I179
I57
tp835
a(I200
I80
tp836
a(I184
I37
tp837
a(I187
I56
tp838
a(I151
I8
tp839
a(I186
I45
tp840
a(I162
I13
tp841
asg26
I200
sba(imain2
Polygon
p842
(dp843
g3
(I124
I96
tp844
sg5
I200
sg6
(I221
I85
I120
I1
tp845
sg8
(lp846
(I156
I93
tp847
a(I131
I88
tp848
a(I106
I89
tp849
a(I140
I135
tp850
a(I87
I134
tp851
a(I91
I110
tp852
a(I151
I68
tp853
a(I138
I110
tp854
a(I109
I135
tp855
a(I167
I93
tp856
a(I87
I114
tp857
a(I123
I118
tp858
asg26
I200
sba(imain2
Polygon
p859
(dp860
g3
(I14
I107
tp861
sg5
I200
sg6
(I54
I1
I216
I122
tp862
sg8
(lp863
(I17
I104
tp864
a(I0
I102
tp865
a(I6
I81
tp866
asg26
I200
sba(imain2
Polygon
p867
(dp868
g3
(I84
I159
tp869
sg5
I200
sg6
(I49
I11
I192
I0
tp870
sg8
(lp871
(I84
I140
tp872
a(I90
I134
tp873
a(I51
I133
tp874
a(I113
I185
tp875
a(I101
I200
tp876
a(I63
I158
tp877
a(I96
I165
tp878
a(I64
I172
tp879
asg26
I200
sba(imain2
Polygon
p880
(dp881
g3
(I141
I115
tp882
sg5
I200
sg6
(I236
I170
I169
I0
tp883
sg8
(lp884
(I95
I66
tp885
a(I152
I78
tp886
a(I126
I104
tp887
asg26
I200
sba(imain2
Polygon
p888
(dp889
g3
(I199
I78
tp890
sg5
I200
sg6
(I204
I201
I82
I122
tp891
sg8
(lp892
(I151
I34
tp893
a(I153
I30
tp894
a(I200
I32
tp895
a(I200
I125
tp896
a(I164
I113
tp897
a(I175
I100
tp898
a(I189
I127
tp899
asg26
I200
sba(imain2
Polygon
p900
(dp901
g3
(I167
I90
tp902
sg5
I200
sg6
(I35
I185
I28
I45
tp903
sg8
(lp904
(I200
I91
tp905
a(I200
I99
tp906
a(I182
I102
tp907
a(I198
I74
tp908
a(I172
I52
tp909
asg26
I200
sba(imain2
Polygon
p910
(dp911
g3
(I17
I14
tp912
sg5
I200
sg6
(I0
I7
I91
I19
tp913
sg8
(lp914
(I12
I21
tp915
a(I58
I8
tp916
a(I24
I22
tp917
a(I0
I31
tp918
a(I8
I0
tp919
a(I59
I5
tp920
a(I0
I17
tp921
a(I0
I29
tp922
a(I55
I54
tp923
a(I54
I3
tp924
a(I0
I50
tp925
a(I42
I60
tp926
a(I16
I31
tp927
a(I44
I37
tp928
asg26
I200
sba(imain2
Polygon
p929
(dp930
g3
(I190
I180
tp931
sg5
I200
sg6
(I224
I103
I46
I0
tp932
sg8
(lp933
(I197
I149
tp934
a(I156
I200
tp935
a(I200
I200
tp936
a(I176
I200
tp937
asg26
I200
sba(imain2
Polygon
p938
(dp939
g3
(I70
I166
tp940
sg5
I200
sg6
(I105
I177
I0
I1
tp941
sg8
(lp942
(I106
I200
tp943
a(I21
I192
tp944
a(I84
I188
tp945
a(I75
I122
tp946
a(I36
I127
tp947
a(I82
I200
tp948
a(I90
I195
tp949
a(I96
I132
tp950
a(I52
I183
tp951
asg26
I200
sba(imain2
Polygon
p952
(dp953
g3
(I196
I185
tp954
sg5
I200
sg6
(I17
I156
I128
I1
tp955
sg8
(lp956
(I200
I166
tp957
a(I198
I140
tp958
a(I150
I141
tp959
a(I167
I191
tp960
a(I151
I200
tp961
a(I150
I137
tp962
asg26
I200
sba(imain2
Polygon
p963
(dp964
g3
(I48
I123
tp965
sg5
I200
sg6
(I164
I42
I17
I89
tp966
sg8
(lp967
(I8
I113
tp968
a(I8
I127
tp969
a(I0
I97
tp970
a(I22
I76
tp971
a(I47
I100
tp972
a(I58
I146
tp973
a(I89
I76
tp974
a(I9
I121
tp975
a(I27
I162
tp976
a(I11
I146
tp977
a(I19
I151
tp978
asg26
I200
sba(imain2
Polygon
p979
(dp980
g3
(I59
I97
tp981
sg5
I200
sg6
(I202
I47
I127
I19
tp982
sg8
(lp983
(I70
I135
tp984
a(I85
I54
tp985
a(I108
I117
tp986
a(I70
I64
tp987
a(I44
I80
tp988
a(I107
I114
tp989
a(I43
I97
tp990
a(I101
I127
tp991
a(I108
I130
tp992
a(I56
I68
tp993
asg26
I200
sba(imain2
Polygon
p994
(dp995
g3
(I17
I149
tp996
sg5
I200
sg6
(I0
I35
I155
I1
tp997
sg8
(lp998
(I26
I188
tp999
a(I0
I184
tp1000
a(I40
I138
tp1001
a(I0
I172
tp1002
a(I5
I196
tp1003
a(I0
I129
tp1004
a(I40
I145
tp1005
a(I44
I176
tp1006
asg26
I200
sba(imain2
Polygon
p1007
(dp1008
g3
(I88
I2
tp1009
sg5
I200
sg6
(I2
I101
I61
I45
tp1010
sg8
(lp1011
(I95
I0
tp1012
a(I76
I0
tp1013
a(I107
I6
tp1014
a(I48
I0
tp1015
a(I105
I20
tp1016
a(I82
I0
tp1017
a(I78
I0
tp1018
a(I85
I0
tp1019
a(I113
I12
tp1020
asg26
I200
sba(imain2
Polygon
p1021
(dp1022
g3
(I3
I161
tp1023
sg5
I200
sg6
(I174
I17
I188
I3
tp1024
sg8
(lp1025
(I0
I125
tp1026
a(I0
I200
tp1027
a(I0
I141
tp1028
a(I0
I194
tp1029
a(I0
I158
tp1030
a(I0
I163
tp1031
a(I0
I168
tp1032
a(I11
I145
tp1033
a(I0
I121
tp1034
a(I0
I200
tp1035
asg26
I200
sba(imain2
Polygon
p1036
(dp1037
g3
(I98
I58
tp1038
sg5
I200
sg6
(I36
I61
I167
I1
tp1039
sg8
(lp1040
(I126
I105
tp1041
a(I54
I55
tp1042
a(I91
I106
tp1043
a(I145
I40
tp1044
a(I74
I104
tp1045
a(I52
I73
tp1046
asg26
I200
sba(imain2
Polygon
p1047
(dp1048
g3
(I109
I111
tp1049
sg5
I200
sg6
(I226
I36
I97
I0
tp1050
sg8
(lp1051
(I91
I100
tp1052
a(I96
I159
tp1053
a(I64
I113
tp1054
a(I109
I97
tp1055
a(I60
I145
tp1056
a(I103
I136
tp1057
a(I130
I91
tp1058
a(I74
I92
tp1059
a(I129
I142
tp1060
asg26
I200
sba(imain2
Polygon
p1061
(dp1062
g3
(I83
I155
tp1063
sg5
I200
sg6
(I201
I42
I180
I6
tp1064
sg8
(lp1065
(I104
I131
tp1066
a(I129
I115
tp1067
a(I132
I200
tp1068
a(I58
I195
tp1069
a(I112
I160
tp1070
a(I60
I111
tp1071
a(I50
I153
tp1072
a(I51
I131
tp1073
a(I87
I167
tp1074
a(I49
I160
tp1075
a(I120
I173
tp1076
a(I116
I131
tp1077
a(I114
I149
tp1078
a(I84
I144
tp1079
a(I73
I167
tp1080
a(I69
I148
tp1081
a(I112
I188
tp1082
a(I43
I119
tp1083
asg26
I200
sba(imain2
Polygon
p1084
(dp1085
g3
(I81
I21
tp1086
sg5
I200
sg6
(I136
I0
I26
I105
tp1087
sg8
(lp1088
(I65
I6
tp1089
a(I110
I0
tp1090
a(I90
I0
tp1091
a(I122
I60
tp1092
a(I103
I58
tp1093
a(I63
I3
tp1094
a(I117
I0
tp1095
a(I80
I0
tp1096
asg26
I200
sba(imain2
Polygon
p1097
(dp1098
g3
(I77
I115
tp1099
sg5
I200
sg6
(I91
I235
I217
I1
tp1100
sg8
(lp1101
(I39
I74
tp1102
a(I65
I128
tp1103
a(I63
I143
tp1104
a(I127
I87
tp1105
a(I32
I139
tp1106
a(I85
I78
tp1107
a(I76
I143
tp1108
asg26
I200
sba(imain2
Polygon
p1109
(dp1110
g3
(I108
I110
tp1111
sg5
I200
sg6
(I142
I114
I143
I1
tp1112
sg8
(lp1113
(I109
I74
tp1114
a(I88
I71
tp1115
a(I76
I135
tp1116
a(I129
I123
tp1117
a(I153
I68
tp1118
a(I129
I106
tp1119
a(I101
I139
tp1120
a(I68
I108
tp1121
a(I110
I143
tp1122
a(I109
I107
tp1123
a(I113
I121
tp1124
a(I137
I64
tp1125
asg26
I200
sba(imain2
Polygon
p1126
(dp1127
g3
(I7
I122
tp1128
sg5
I200
sg6
(I151
I1
I156
I0
tp1129
sg8
(lp1130
(I1
I75
tp1131
a(I26
I136
tp1132
a(I5
I155
tp1133
a(I0
I168
tp1134
a(I0
I113
tp1135
a(I47
I143
tp1136
a(I0
I123
tp1137
a(I0
I77
tp1138
a(I48
I92
tp1139
a(I57
I139
tp1140
a(I15
I79
tp1141
a(I0
I145
tp1142
a(I0
I160
tp1143
a(I0
I145
tp1144
a(I24
I123
tp1145
a(I23
I87
tp1146
asg26
I200
sba(imain2
Polygon
p1147
(dp1148
g3
(I105
I20
tp1149
sg5
I200
sg6
(I211
I26
I227
I0
tp1150
sg8
(lp1151
(I124
I25
tp1152
a(I117
I17
tp1153
a(I81
I44
tp1154
a(I66
I0
tp1155
a(I143
I0
tp1156
asg26
I200
sba(imain2
Polygon
p1157
(dp1158
g3
(I47
I80
tp1159
sg5
I200
sg6
(I106
I46
I113
I13
tp1160
sg8
(lp1161
(I55
I102
tp1162
a(I20
I55
tp1163
a(I24
I107
tp1164
a(I6
I49
tp1165
a(I87
I50
tp1166
a(I26
I77
tp1167
a(I19
I65
tp1168
a(I52
I37
tp1169
a(I11
I37
tp1170
a(I13
I128
tp1171
a(I45
I105
tp1172
a(I23
I50
tp1173
a(I37
I61
tp1174
a(I68
I94
tp1175
a(I82
I49
tp1176
a(I86
I34
tp1177
a(I84
I126
tp1178
a(I68
I74
tp1179
a(I54
I57
tp1180
a(I13
I123
tp1181
asg26
I200
sba(imain2
Polygon
p1182
(dp1183
g3
(I131
I30
tp1184
sg5
I200
sg6
(I203
I121
I168
I0
tp1185
sg8
(lp1186
(I120
I0
tp1187
a(I102
I0
tp1188
a(I162
I8
tp1189
asg26
I200
sba(imain2
Polygon
p1190
(dp1191
g3
(I199
I39
tp1192
sg5
I200
sg6
(I90
I187
I104
I53
tp1193
sg8
(lp1194
(I187
I1
tp1195
a(I150
I0
tp1196
a(I200
I89
tp1197
a(I200
I6
tp1198
asg26
I200
sba(imain2
Polygon
p1199
(dp1200
g3
(I110
I156
tp1201
sg5
I200
sg6
(I188
I90
I124
I1
tp1202
sg8
(lp1203
(I106
I166
tp1204
a(I138
I163
tp1205
a(I97
I173
tp1206
a(I131
I138
tp1207
a(I116
I137
tp1208
a(I160
I151
tp1209
a(I76
I198
tp1210
a(I153
I170
tp1211
a(I133
I146
tp1212
a(I63
I108
tp1213
a(I76
I200
tp1214
a(I138
I148
tp1215
a(I121
I145
tp1216
a(I144
I153
tp1217
a(I152
I115
tp1218
a(I153
I194
tp1219
asg26
I200
sba(imain2
Polygon
p1220
(dp1221
g3
(I14
I89
tp1222
sg5
I200
sg6
(I200
I19
I24
I70
tp1223
sg8
(lp1224
(I0
I61
tp1225
a(I49
I72
tp1226
a(I53
I72
tp1227
a(I55
I44
tp1228
a(I17
I118
tp1229
a(I0
I99
tp1230
a(I5
I50
tp1231
a(I11
I80
tp1232
asg26
I200
sba(imain2
Polygon
p1233
(dp1234
g3
(I124
I127
tp1235
sg5
I200
sg6
(I172
I216
I170
I1
tp1236
sg8
(lp1237
(I154
I110
tp1238
a(I143
I86
tp1239
a(I81
I155
tp1240
a(I111
I115
tp1241
a(I147
I96
tp1242
a(I97
I169
tp1243
a(I170
I95
tp1244
a(I135
I124
tp1245
a(I104
I171
tp1246
a(I92
I110
tp1247
a(I82
I151
tp1248
a(I160
I103
tp1249
a(I154
I141
tp1250
asg26
I200
sba(imain2
Polygon
p1251
(dp1252
g3
(I97
I78
tp1253
sg5
I200
sg6
(I146
I200
I157
I0
tp1254
sg8
(lp1255
(I62
I103
tp1256
a(I66
I110
tp1257
a(I110
I111
tp1258
a(I135
I109
tp1259
a(I118
I78
tp1260
a(I78
I58
tp1261
a(I97
I51
tp1262
a(I84
I107
tp1263
a(I55
I62
tp1264
a(I54
I111
tp1265
a(I77
I65
tp1266
asg26
I200
sba(imain2
Polygon
p1267
(dp1268
g3
(I71
I43
tp1269
sg5
I200
sg6
(I218
I210
I118
I0
tp1270
sg8
(lp1271
(I107
I87
tp1272
a(I75
I22
tp1273
a(I79
I84
tp1274
a(I53
I38
tp1275
a(I62
I36
tp1276
a(I50
I41
tp1277
a(I24
I70
tp1278
a(I75
I14
tp1279
a(I39
I86
tp1280
a(I111
I75
tp1281
asg26
I200
sba(imain2
Polygon
p1282
(dp1283
g3
(I109
I75
tp1284
sg5
I200
sg6
(I108
I159
I66
I122
tp1285
sg8
(lp1286
(I63
I26
tp1287
a(I62
I79
tp1288
a(I120
I76
tp1289
a(I87
I26
tp1290
a(I64
I35
tp1291
a(I71
I69
tp1292
asg26
I200
sba(imain2
Polygon
p1293
(dp1294
g3
(I149
I45
tp1295
sg5
I200
sg6
(I206
I139
I126
I84
tp1296
sg8
(lp1297
(I199
I90
tp1298
a(I165
I70
tp1299
a(I161
I69
tp1300
a(I183
I12
tp1301
a(I128
I0
tp1302
a(I175
I87
tp1303
a(I158
I84
tp1304
a(I187
I0
tp1305
a(I194
I33
tp1306
a(I189
I0
tp1307
a(I130
I0
tp1308
a(I195
I19
tp1309
a(I199
I27
tp1310
asg26
I200
sba(imain2
Polygon
p1311
(dp1312
g3
(I29
I98
tp1313
sg5
I200
sg6
(I6
I134
I169
I35
tp1314
sg8
(lp1315
(I0
I145
tp1316
a(I62
I70
tp1317
a(I0
I73
tp1318
a(I0
I142
tp1319
a(I32
I77
tp1320
a(I67
I79
tp1321
a(I60
I84
tp1322
a(I0
I135
tp1323
a(I28
I90
tp1324
a(I56
I50
tp1325
a(I3
I123
tp1326
asg26
I200
sba(imain2
Polygon
p1327
(dp1328
g3
(I90
I62
tp1329
sg5
I200
sg6
(I176
I117
I130
I1
tp1330
sg8
(lp1331
(I71
I20
tp1332
a(I61
I49
tp1333
a(I54
I78
tp1334
a(I100
I106
tp1335
a(I119
I28
tp1336
a(I87
I21
tp1337
asg26
I200
sba(imain2
Polygon
p1338
(dp1339
g3
(I63
I49
tp1340
sg5
I200
sg6
(I219
I250
I133
I1
tp1341
sg8
(lp1342
(I75
I83
tp1343
a(I30
I15
tp1344
a(I53
I1
tp1345
a(I14
I3
tp1346
a(I93
I64
tp1347
a(I85
I25
tp1348
a(I69
I24
tp1349
a(I99
I65
tp1350
a(I62
I74
tp1351
a(I24
I58
tp1352
a(I97
I41
tp1353
asg26
I200
sba(imain2
Polygon
p1354
(dp1355
g3
(I31
I132
tp1356
sg5
I200
sg6
(I73
I117
I196
I13
tp1357
sg8
(lp1358
(I8
I160
tp1359
a(I35
I167
tp1360
a(I5
I107
tp1361
a(I45
I179
tp1362
a(I53
I134
tp1363
a(I10
I143
tp1364
a(I31
I164
tp1365
a(I9
I172
tp1366
a(I0
I125
tp1367
a(I0
I146
tp1368
a(I14
I172
tp1369
a(I49
I135
tp1370
a(I8
I100
tp1371
a(I12
I140
tp1372
a(I69
I141
tp1373
asg26
I200
sba(imain2
Polygon
p1374
(dp1375
g3
(I80
I158
tp1376
sg5
I200
sg6
(I24
I42
I59
I1
tp1377
sg8
(lp1378
(I62
I145
tp1379
a(I114
I200
tp1380
a(I55
I186
tp1381
a(I94
I151
tp1382
a(I69
I136
tp1383
a(I105
I129
tp1384
a(I74
I194
tp1385
a(I65
I200
tp1386
a(I111
I109
tp1387
a(I67
I151
tp1388
a(I124
I119
tp1389
a(I102
I143
tp1390
a(I126
I180
tp1391
a(I37
I162
tp1392
a(I128
I170
tp1393
a(I82
I200
tp1394
a(I117
I168
tp1395
a(I120
I184
tp1396
a(I85
I183
tp1397
a(I80
I110
tp1398
asg26
I200
sba(imain2
Polygon
p1399
(dp1400
g3
(I168
I51
tp1401
sg5
I200
sg6
(I98
I203
I209
I0
tp1402
sg8
(lp1403
(I123
I53
tp1404
a(I174
I19
tp1405
a(I200
I37
tp1406
a(I195
I54
tp1407
a(I119
I61
tp1408
a(I141
I16
tp1409
asg26
I200
sba(imain2
Polygon
p1410
(dp1411
g3
(I110
I14
tp1412
sg5
I200
sg6
(I156
I137
I49
I144
tp1413
sg8
(lp1414
(I118
I49
tp1415
a(I72
I59
tp1416
a(I101
I0
tp1417
a(I156
I0
tp1418
a(I158
I0
tp1419
a(I157
I28
tp1420
a(I144
I28
tp1421
a(I61
I0
tp1422
a(I67
I58
tp1423
a(I105
I0
tp1424
a(I140
I0
tp1425
a(I61
I0
tp1426
a(I77
I25
tp1427
asg26
I200
sba(imain2
Polygon
p1428
(dp1429
g3
(I85
I94
tp1430
sg5
I200
sg6
(I202
I232
I84
I64
tp1431
sg8
(lp1432
(I43
I56
tp1433
a(I110
I104
tp1434
a(I62
I48
tp1435
a(I105
I45
tp1436
a(I125
I73
tp1437
a(I92
I95
tp1438
a(I79
I138
tp1439
a(I109
I144
tp1440
a(I124
I111
tp1441
a(I62
I45
tp1442
a(I45
I66
tp1443
a(I55
I129
tp1444
a(I107
I102
tp1445
asg26
I200
sba(imain2
Polygon
p1446
(dp1447
g3
(I153
I81
tp1448
sg5
I200
sg6
(I121
I86
I189
I1
tp1449
sg8
(lp1450
(I165
I41
tp1451
a(I121
I118
tp1452
a(I150
I46
tp1453
a(I188
I103
tp1454
a(I163
I70
tp1455
a(I188
I127
tp1456
a(I194
I60
tp1457
a(I154
I91
tp1458
asg26
I200
sba(imain2
Polygon
p1459
(dp1460
g3
(I146
I37
tp1461
sg5
I200
sg6
(I227
I83
I156
I0
tp1462
sg8
(lp1463
(I166
I5
tp1464
a(I120
I58
tp1465
a(I105
I42
tp1466
a(I147
I30
tp1467
a(I170
I57
tp1468
a(I101
I19
tp1469
a(I187
I0
tp1470
asg26
I200
sba(imain2
Polygon
p1471
(dp1472
g3
(I36
I71
tp1473
sg5
I200
sg6
(I178
I119
I134
I0
tp1474
sg8
(lp1475
(I67
I92
tp1476
a(I15
I104
tp1477
a(I71
I32
tp1478
a(I14
I70
tp1479
a(I48
I38
tp1480
a(I0
I51
tp1481
a(I42
I81
tp1482
a(I50
I114
tp1483
a(I29
I32
tp1484
a(I61
I117
tp1485
a(I10
I121
tp1486
asg26
I200
sba(imain2
Polygon
p1487
(dp1488
g3
(I36
I181
tp1489
sg5
I200
sg6
(I143
I212
I96
I75
tp1490
sg8
(lp1491
(I78
I149
tp1492
a(I48
I150
tp1493
a(I81
I147
tp1494
a(I71
I200
tp1495
a(I13
I140
tp1496
a(I43
I172
tp1497
a(I0
I200
tp1498
a(I0
I149
tp1499
a(I66
I188
tp1500
a(I68
I200
tp1501
a(I71
I200
tp1502
asg26
I200
sba(imain2
Polygon
p1503
(dp1504
g3
(I94
I181
tp1505
sg5
I200
sg6
(I112
I48
I36
I0
tp1506
sg8
(lp1507
(I110
I200
tp1508
a(I73
I197
tp1509
a(I108
I160
tp1510
a(I119
I171
tp1511
a(I133
I167
tp1512
a(I44
I131
tp1513
a(I112
I200
tp1514
a(I122
I170
tp1515
asg26
I200
sba(imain2
Polygon
p1516
(dp1517
g3
(I4
I26
tp1518
sg5
I200
sg6
(I27
I104
I59
I43
tp1519
sg8
(lp1520
(I25
I0
tp1521
a(I25
I0
tp1522
a(I1
I19
tp1523
a(I0
I38
tp1524
a(I0
I38
tp1525
a(I9
I3
tp1526
a(I54
I51
tp1527
a(I32
I59
tp1528
a(I0
I27
tp1529
a(I36
I14
tp1530
a(I0
I76
tp1531
a(I0
I0
tp1532
a(I48
I7
tp1533
a(I0
I38
tp1534
a(I30
I39
tp1535
asg26
I200
sba(imain2
Polygon
p1536
(dp1537
g3
(I14
I45
tp1538
sg5
I200
sg6
(I146
I107
I1
I1
tp1539
sg8
(lp1540
(I0
I56
tp1541
a(I57
I11
tp1542
a(I0
I69
tp1543
a(I26
I76
tp1544
a(I0
I21
tp1545
a(I21
I81
tp1546
a(I8
I81
tp1547
a(I0
I21
tp1548
a(I0
I73
tp1549
a(I37
I75
tp1550
asg26
I200
sba(imain2
Polygon
p1551
(dp1552
g3
(I103
I69
tp1553
sg5
I200
sg6
(I231
I218
I1
I40
tp1554
sg8
(lp1555
(I55
I36
tp1556
a(I53
I116
tp1557
a(I125
I109
tp1558
a(I135
I89
tp1559
a(I85
I19
tp1560
asg26
I200
sba(imain2
Polygon
p1561
(dp1562
g3
(I61
I77
tp1563
sg5
I200
sg6
(I60
I120
I190
I126
tp1564
sg8
(lp1565
(I106
I108
tp1566
a(I88
I94
tp1567
a(I89
I87
tp1568
asg26
I200
sba(imain2
Polygon
p1569
(dp1570
g3
(I36
I98
tp1571
sg5
I200
sg6
(I0
I199
I72
I41
tp1572
sg8
(lp1573
(I28
I97
tp1574
a(I4
I90
tp1575
a(I0
I121
tp1576
a(I0
I53
tp1577
a(I80
I75
tp1578
a(I30
I53
tp1579
a(I0
I53
tp1580
a(I18
I50
tp1581
a(I42
I52
tp1582
a(I19
I124
tp1583
asg26
I200
sba(imain2
Polygon
p1584
(dp1585
g3
(I20
I133
tp1586
sg5
I200
sg6
(I198
I238
I132
I80
tp1587
sg8
(lp1588
(I30
I179
tp1589
a(I0
I181
tp1590
a(I0
I175
tp1591
a(I21
I139
tp1592
a(I28
I170
tp1593
asg26
I200
sba(imain2
Polygon
p1594
(dp1595
g3
(I178
I74
tp1596
sg5
I200
sg6
(I31
I119
I26
I1
tp1597
sg8
(lp1598
(I193
I110
tp1599
a(I186
I112
tp1600
a(I200
I57
tp1601
a(I161
I83
tp1602
a(I200
I85
tp1603
a(I200
I79
tp1604
a(I140
I63
tp1605
asg26
I200
sba(imain2
Polygon
p1606
(dp1607
g3
(I191
I151
tp1608
sg5
I200
sg6
(I238
I39
I75
I62
tp1609
sg8
(lp1610
(I190
I106
tp1611
a(I200
I171
tp1612
a(I200
I189
tp1613
asg26
I200
sba(imain2
Polygon
p1614
(dp1615
g3
(I81
I200
tp1616
sg5
I200
sg6
(I41
I59
I159
I32
tp1617
sg8
(lp1618
(I63
I200
tp1619
a(I33
I187
tp1620
a(I38
I191
tp1621
a(I46
I200
tp1622
a(I69
I176
tp1623
a(I46
I200
tp1624
a(I62
I200
tp1625
a(I32
I200
tp1626
a(I95
I195
tp1627
asg26
I200
sba(imain2
Polygon
p1628
(dp1629
g3
(I8
I200
tp1630
sg5
I200
sg6
(I235
I14
I66
I136
tp1631
sg8
(lp1632
(I0
I200
tp1633
a(I0
I200
tp1634
a(I41
I200
tp1635
a(I52
I200
tp1636
a(I23
I200
tp1637
a(I0
I200
tp1638
a(I0
I200
tp1639
a(I0
I200
tp1640
a(I0
I200
tp1641
a(I23
I200
tp1642
asg26
I200
sba(imain2
Polygon
p1643
(dp1644
g3
(I12
I187
tp1645
sg5
I200
sg6
(I223
I0
I177
I0
tp1646
sg8
(lp1647
(I46
I200
tp1648
a(I0
I167
tp1649
a(I22
I200
tp1650
a(I0
I174
tp1651
a(I0
I174
tp1652
a(I0
I200
tp1653
a(I0
I190
tp1654
a(I0
I160
tp1655
a(I25
I200
tp1656
a(I0
I198
tp1657
a(I20
I145
tp1658
a(I16
I198
tp1659
asg26
I200
sba(imain2
Polygon
p1660
(dp1661
g3
(I142
I43
tp1662
sg5
I200
sg6
(I50
I77
I163
I6
tp1663
sg8
(lp1664
(I129
I23
tp1665
a(I149
I90
tp1666
a(I148
I68
tp1667
a(I159
I5
tp1668
a(I118
I49
tp1669
a(I136
I59
tp1670
a(I106
I13
tp1671
a(I123
I43
tp1672
a(I150
I57
tp1673
a(I122
I35
tp1674
a(I124
I30
tp1675
a(I138
I19
tp1676
a(I152
I6
tp1677
a(I121
I37
tp1678
asg26
I200
sba(imain2
Polygon
p1679
(dp1680
g3
(I89
I37
tp1681
sg5
I200
sg6
(I0
I103
I197
I78
tp1682
sg8
(lp1683
(I104
I35
tp1684
a(I54
I51
tp1685
a(I55
I50
tp1686
asg26
I200
sba(imain2
Polygon
p1687
(dp1688
g3
(I43
I51
tp1689
sg5
I200
sg6
(I36
I141
I122
I0
tp1690
sg8
(lp1691
(I15
I67
tp1692
a(I36
I91
tp1693
a(I91
I92
tp1694
a(I54
I93
tp1695
a(I39
I44
tp1696
a(I47
I38
tp1697
a(I50
I77
tp1698
a(I62
I59
tp1699
a(I37
I59
tp1700
a(I76
I99
tp1701
a(I47
I50
tp1702
a(I2
I88
tp1703
a(I39
I83
tp1704
a(I88
I11
tp1705
a(I79
I30
tp1706
a(I52
I83
tp1707
a(I12
I42
tp1708
a(I15
I62
tp1709
asg26
I200
sba(imain2
Polygon
p1710
(dp1711
g3
(I23
I143
tp1712
sg5
I200
sg6
(I72
I246
I171
I44
tp1713
sg8
(lp1714
(I27
I98
tp1715
a(I0
I130
tp1716
a(I0
I188
tp1717
a(I29
I191
tp1718
a(I34
I148
tp1719
a(I0
I157
tp1720
a(I0
I133
tp1721
asg26
I200
sba(imain2
Polygon
p1722
(dp1723
g3
(I32
I143
tp1724
sg5
I200
sg6
(I52
I69
I161
I0
tp1725
sg8
(lp1726
(I61
I156
tp1727
a(I32
I159
tp1728
a(I63
I174
tp1729
a(I52
I121
tp1730
a(I45
I154
tp1731
a(I1
I141
tp1732
a(I71
I116
tp1733
a(I68
I151
tp1734
a(I55
I190
tp1735
a(I63
I118
tp1736
a(I41
I99
tp1737
a(I39
I147
tp1738
a(I55
I193
tp1739
a(I69
I169
tp1740
a(I53
I187
tp1741
a(I63
I145
tp1742
a(I64
I151
tp1743
asg26
I200
sba(imain2
Polygon
p1744
(dp1745
g3
(I69
I107
tp1746
sg5
I200
sg6
(I157
I228
I0
I13
tp1747
sg8
(lp1748
(I95
I66
tp1749
a(I40
I61
tp1750
a(I48
I101
tp1751
a(I45
I119
tp1752
a(I103
I75
tp1753
a(I57
I154
tp1754
a(I49
I120
tp1755
a(I19
I90
tp1756
a(I93
I154
tp1757
a(I47
I112
tp1758
a(I69
I96
tp1759
a(I113
I129
tp1760
a(I73
I153
tp1761
asg26
I200
sba(imain2
Polygon
p1762
(dp1763
g3
(I172
I111
tp1764
sg5
I200
sg6
(I237
I213
I84
I124
tp1765
sg8
(lp1766
(I162
I84
tp1767
a(I200
I88
tp1768
a(I177
I85
tp1769
asg26
I200
sba(imain2
Polygon
p1770
(dp1771
g3
(I150
I91
tp1772
sg5
I200
sg6
(I8
I240
I86
I43
tp1773
sg8
(lp1774
(I174
I136
tp1775
a(I165
I69
tp1776
a(I174
I90
tp1777
a(I192
I141
tp1778
asg26
I200
sba(imain2
Polygon
p1779
(dp1780
g3
(I135
I188
tp1781
sg5
I200
sg6
(I76
I227
I6
I1
tp1782
sg8
(lp1783
(I175
I190
tp1784
a(I119
I200
tp1785
a(I95
I150
tp1786
a(I127
I200
tp1787
a(I141
I192
tp1788
a(I102
I176
tp1789
a(I87
I200
tp1790
a(I174
I200
tp1791
a(I174
I151
tp1792
asg26
I200
sba(imain2
Polygon
p1793
(dp1794
g3
(I127
I113
tp1795
sg5
I200
sg6
(I133
I210
I151
I6
tp1796
sg8
(lp1797
(I116
I100
tp1798
a(I174
I63
tp1799
a(I164
I110
tp1800
a(I158
I139
tp1801
a(I111
I130
tp1802
asg26
I200
sba(imain2
Polygon
p1803
(dp1804
g3
(I173
I20
tp1805
sg5
I200
sg6
(I231
I0
I218
I0
tp1806
sg8
(lp1807
(I147
I47
tp1808
a(I198
I62
tp1809
a(I171
I46
tp1810
a(I200
I0
tp1811
a(I159
I22
tp1812
a(I154
I64
tp1813
a(I137
I18
tp1814
a(I152
I0
tp1815
a(I189
I36
tp1816
a(I123
I0
tp1817
a(I200
I0
tp1818
a(I174
I41
tp1819
a(I163
I0
tp1820
a(I173
I0
tp1821
a(I186
I12
tp1822
a(I200
I35
tp1823
asg26
I200
sba(imain2
Polygon
p1824
(dp1825
g3
(I100
I197
tp1826
sg5
I200
sg6
(I33
I102
I176
I66
tp1827
sg8
(lp1828
(I99
I200
tp1829
a(I118
I200
tp1830
a(I147
I200
tp1831
a(I104
I151
tp1832
a(I135
I187
tp1833
a(I106
I200
tp1834
a(I92
I200
tp1835
a(I85
I200
tp1836
a(I133
I200
tp1837
a(I139
I200
tp1838
a(I55
I200
tp1839
a(I121
I200
tp1840
asg26
I200
sba(imain2
Polygon
p1841
(dp1842
g3
(I70
I0
tp1843
sg5
I200
sg6
(I136
I0
I193
I0
tp1844
sg8
(lp1845
(I62
I0
tp1846
a(I115
I27
tp1847
a(I33
I15
tp1848
a(I90
I0
tp1849
a(I107
I0
tp1850
a(I44
I0
tp1851
a(I34
I24
tp1852
a(I63
I0
tp1853
asg26
I200
sba(imain2
Polygon
p1854
(dp1855
g3
(I106
I152
tp1856
sg5
I200
sg6
(I99
I162
I62
I66
tp1857
sg8
(lp1858
(I133
I114
tp1859
a(I119
I166
tp1860
a(I59
I200
tp1861
a(I140
I199
tp1862
a(I115
I114
tp1863
a(I85
I153
tp1864
a(I124
I140
tp1865
a(I138
I185
tp1866
a(I122
I150
tp1867
a(I68
I141
tp1868
a(I112
I141
tp1869
asg26
I200
sba(imain2
Polygon
p1870
(dp1871
g3
(I11
I38
tp1872
sg5
I200
sg6
(I111
I1
I124
I1
tp1873
sg8
(lp1874
(I11
I45
tp1875
a(I0
I37
tp1876
a(I35
I52
tp1877
a(I0
I12
tp1878
a(I8
I17
tp1879
a(I0
I79
tp1880
a(I52
I31
tp1881
a(I3
I4
tp1882
a(I13
I62
tp1883
a(I53
I84
tp1884
a(I0
I54
tp1885
asg26
I200
sba(imain2
Polygon
p1886
(dp1887
g3
(I23
I68
tp1888
sg5
I200
sg6
(I216
I111
I189
I123
tp1889
sg8
(lp1890
(I35
I109
tp1891
a(I24
I85
tp1892
a(I54
I19
tp1893
a(I25
I33
tp1894
a(I35
I32
tp1895
a(I64
I43
tp1896
a(I0
I19
tp1897
a(I0
I111
tp1898
a(I7
I98
tp1899
a(I38
I112
tp1900
a(I4
I66
tp1901
asg26
I200
sba(imain2
Polygon
p1902
(dp1903
g3
(I73
I8
tp1904
sg5
I200
sg6
(I106
I163
I20
I133
tp1905
sg8
(lp1906
(I33
I0
tp1907
a(I113
I0
tp1908
a(I27
I56
tp1909
a(I23
I45
tp1910
a(I27
I13
tp1911
a(I32
I0
tp1912
a(I39
I6
tp1913
a(I49
I29
tp1914
a(I58
I40
tp1915
asg26
I200
sba(imain2
Polygon
p1916
(dp1917
g3
(I175
I187
tp1918
sg5
I200
sg6
(I118
I193
I198
I53
tp1919
sg8
(lp1920
(I186
I200
tp1921
a(I170
I200
tp1922
a(I146
I200
tp1923
asg26
I200
sba(imain2
Polygon
p1924
(dp1925
g3
(I153
I195
tp1926
sg5
I200
sg6
(I54
I166
I29
I1
tp1927
sg8
(lp1928
(I179
I189
tp1929
a(I164
I149
tp1930
a(I123
I200
tp1931
a(I135
I200
tp1932
a(I158
I200
tp1933
a(I192
I184
tp1934
a(I181
I160
tp1935
a(I125
I147
tp1936
a(I153
I187
tp1937
a(I161
I177
tp1938
asg26
I200
sba(imain2
Polygon
p1939
(dp1940
g3
(I199
I6
tp1941
sg5
I200
sg6
(I144
I40
I87
I1
tp1942
sg8
(lp1943
(I156
I21
tp1944
a(I200
I0
tp1945
a(I200
I0
tp1946
a(I149
I0
tp1947
a(I200
I20
tp1948
a(I200
I0
tp1949
a(I173
I23
tp1950
a(I150
I2
tp1951
asg26
I200
sba(imain2
Polygon
p1952
(dp1953
g3
(I46
I191
tp1954
sg5
I200
sg6
(I91
I15
I8
I115
tp1955
sg8
(lp1956
(I69
I200
tp1957
a(I73
I200
tp1958
a(I89
I167
tp1959
a(I0
I200
tp1960
a(I0
I146
tp1961
a(I27
I155
tp1962
a(I79
I193
tp1963
a(I34
I181
tp1964
a(I35
I167
tp1965
asg26
I200
sba(imain2
Polygon
p1966
(dp1967
g3
(I144
I179
tp1968
sg5
I200
sg6
(I125
I32
I190
I41
tp1969
sg8
(lp1970
(I150
I154
tp1971
a(I153
I186
tp1972
a(I115
I194
tp1973
a(I130
I191
tp1974
a(I102
I180
tp1975
a(I191
I200
tp1976
a(I106
I200
tp1977
a(I113
I200
tp1978
a(I133
I183
tp1979
a(I99
I183
tp1980
a(I164
I155
tp1981
a(I148
I156
tp1982
a(I120
I177
tp1983
a(I154
I153
tp1984
a(I168
I199
tp1985
a(I168
I200
tp1986
asg26
I200
sba(imain2
Polygon
p1987
(dp1988
g3
(I120
I46
tp1989
sg5
I200
sg6
(I83
I82
I101
I52
tp1990
sg8
(lp1991
(I118
I65
tp1992
a(I133
I48
tp1993
a(I126
I24
tp1994
a(I97
I17
tp1995
a(I132
I30
tp1996
a(I113
I91
tp1997
a(I132
I24
tp1998
asg26
I200
sba(imain2
Polygon
p1999
(dp2000
g3
(I100
I144
tp2001
sg5
I200
sg6
(I123
I183
I166
I116
tp2002
sg8
(lp2003
(I112
I95
tp2004
a(I104
I138
tp2005
a(I98
I126
tp2006
a(I74
I100
tp2007
a(I73
I147
tp2008
a(I83
I152
tp2009
a(I125
I151
tp2010
a(I68
I158
tp2011
a(I56
I110
tp2012
a(I69
I97
tp2013
asg26
I200
sba(imain2
Polygon
p2014
(dp2015
g3
(I151
I184
tp2016
sg5
I200
sg6
(I139
I0
I175
I1
tp2017
sg8
(lp2018
(I141
I163
tp2019
a(I169
I169
tp2020
a(I122
I200
tp2021
a(I133
I135
tp2022
asg26
I200
sba(imain2
Polygon
p2023
(dp2024
g3
(I124
I187
tp2025
sg5
I200
sg6
(I25
I27
I210
I0
tp2026
sg8
(lp2027
(I154
I200
tp2028
a(I164
I200
tp2029
a(I90
I200
tp2030
a(I140
I200
tp2031
a(I119
I200
tp2032
a(I80
I200
tp2033
a(I143
I154
tp2034
a(I133
I200
tp2035
asg26
I200
sba(imain2
Polygon
p2036
(dp2037
g3
(I48
I52
tp2038
sg5
I200
sg6
(I247
I132
I160
I141
tp2039
sg8
(lp2040
(I58
I94
tp2041
a(I79
I94
tp2042
a(I97
I60
tp2043
a(I67
I7
tp2044
a(I35
I65
tp2045
a(I31
I93
tp2046
a(I88
I8
tp2047
a(I0
I3
tp2048
a(I0
I82
tp2049
a(I2
I102
tp2050
a(I65
I76
tp2051
a(I18
I85
tp2052
a(I75
I83
tp2053
asg26
I200
sba(imain2
Polygon
p2054
(dp2055
g3
(I139
I74
tp2056
sg5
I200
sg6
(I151
I190
I236
I87
tp2057
sg8
(lp2058
(I174
I48
tp2059
a(I189
I47
tp2060
a(I185
I26
tp2061
a(I157
I30
tp2062
a(I169
I88
tp2063
a(I187
I48
tp2064
asg26
I200
sba(imain2
Polygon
p2065
(dp2066
g3
(I161
I83
tp2067
sg5
I200
sg6
(I202
I148
I103
I29
tp2068
sg8
(lp2069
(I114
I113
tp2070
a(I114
I49
tp2071
a(I178
I77
tp2072
a(I155
I98
tp2073
a(I177
I113
tp2074
a(I199
I106
tp2075
a(I200
I106
tp2076
a(I200
I49
tp2077
a(I140
I35
tp2078
a(I197
I72
tp2079
a(I199
I71
tp2080
a(I145
I53
tp2081
a(I124
I126
tp2082
asg26
I200
sba(imain2
Polygon
p2083
(dp2084
g3
(I88
I36
tp2085
sg5
I200
sg6
(I1
I30
I71
I112
tp2086
sg8
(lp2087
(I80
I10
tp2088
a(I49
I39
tp2089
a(I102
I37
tp2090
a(I120
I27
tp2091
a(I125
I14
tp2092
a(I135
I16
tp2093
a(I71
I9
tp2094
a(I83
I9
tp2095
a(I58
I13
tp2096
asg26
I200
sba(imain2
Polygon
p2097
(dp2098
g3
(I12
I36
tp2099
sg5
I200
sg6
(I167
I102
I213
I0
tp2100
sg8
(lp2101
(I11
I65
tp2102
a(I29
I70
tp2103
a(I0
I69
tp2104
a(I21
I2
tp2105
a(I0
I79
tp2106
a(I0
I34
tp2107
asg26
I200
sba(imain2
Polygon
p2108
(dp2109
g3
(I79
I176
tp2110
sg5
I200
sg6
(I199
I84
I169
I102
tp2111
sg8
(lp2112
(I129
I200
tp2113
a(I119
I162
tp2114
a(I69
I200
tp2115
a(I128
I200
tp2116
a(I96
I200
tp2117
asg26
I200
sba(imain2
Polygon
p2118
(dp2119
g3
(I159
I193
tp2120
sg5
I200
sg6
(I189
I173
I62
I1
tp2121
sg8
(lp2122
(I118
I200
tp2123
a(I136
I181
tp2124
a(I185
I200
tp2125
a(I149
I200
tp2126
a(I111
I200
tp2127
a(I200
I196
tp2128
a(I192
I188
tp2129
a(I157
I200
tp2130
a(I129
I169
tp2131
a(I129
I200
tp2132
a(I176
I178
tp2133
a(I110
I181
tp2134
asg26
I200
sba(imain2
Polygon
p2135
(dp2136
g3
(I52
I197
tp2137
sg5
I200
sg6
(I164
I147
I228
I0
tp2138
sg8
(lp2139
(I87
I182
tp2140
a(I60
I200
tp2141
a(I29
I200
tp2142
a(I49
I200
tp2143
a(I14
I199
tp2144
a(I22
I181
tp2145
a(I16
I153
tp2146
a(I46
I170
tp2147
asg26
I200
sba(imain2
Polygon
p2148
(dp2149
g3
(I96
I168
tp2150
sg5
I200
sg6
(I81
I155
I164
I0
tp2151
sg8
(lp2152
(I105
I151
tp2153
a(I128
I200
tp2154
a(I56
I193
tp2155
a(I68
I178
tp2156
a(I72
I127
tp2157
a(I116
I141
tp2158
a(I145
I191
tp2159
a(I125
I166
tp2160
asg26
I200
sba(imain2
Polygon
p2161
(dp2162
g3
(I148
I67
tp2163
sg5
I200
sg6
(I211
I29
I21
I0
tp2164
sg8
(lp2165
(I132
I62
tp2166
a(I162
I93
tp2167
a(I120
I55
tp2168
a(I181
I47
tp2169
a(I165
I109
tp2170
a(I105
I34
tp2171
a(I106
I68
tp2172
a(I165
I74
tp2173
a(I102
I67
tp2174
a(I100
I97
tp2175
a(I106
I33
tp2176
a(I191
I88
tp2177
a(I159
I41
tp2178
a(I198
I101
tp2179
asg26
I200
sba(imain2
Polygon
p2180
(dp2181
g3
(I185
I29
tp2182
sg5
I200
sg6
(I139
I164
I77
I82
tp2183
sg8
(lp2184
(I136
I0
tp2185
a(I199
I0
tp2186
a(I200
I25
tp2187
a(I174
I43
tp2188
a(I138
I31
tp2189
asg26
I200
sba(imain2
Polygon
p2190
(dp2191
g3
(I77
I185
tp2192
sg5
I200
sg6
(I28
I24
I96
I97
tp2193
sg8
(lp2194
(I77
I165
tp2195
a(I63
I154
tp2196
a(I110
I156
tp2197
a(I124
I169
tp2198
a(I40
I180
tp2199
a(I42
I200
tp2200
a(I35
I180
tp2201
a(I81
I200
tp2202
a(I64
I192
tp2203
a(I49
I200
tp2204
a(I102
I143
tp2205
asg26
I200
sba(imain2
Polygon
p2206
(dp2207
g3
(I183
I173
tp2208
sg5
I200
sg6
(I108
I215
I86
I45
tp2209
sg8
(lp2210
(I200
I200
tp2211
a(I146
I200
tp2212
a(I200
I200
tp2213
a(I200
I125
tp2214
a(I137
I200
tp2215
asg26
I200
sba(imain2
Polygon
p2216
(dp2217
g3
(I141
I78
tp2218
sg5
I200
sg6
(I231
I87
I165
I0
tp2219
sg8
(lp2220
(I99
I101
tp2221
a(I182
I64
tp2222
a(I94
I70
tp2223
a(I162
I119
tp2224
a(I185
I74
tp2225
a(I120
I98
tp2226
a(I177
I35
tp2227
asg26
I200
sba(imain2
Polygon
p2228
(dp2229
g3
(I8
I10
tp2230
sg5
I200
sg6
(I61
I43
I73
I102
tp2231
sg8
(lp2232
(I33
I4
tp2233
a(I0
I0
tp2234
a(I30
I6
tp2235
a(I0
I0
tp2236
a(I30
I0
tp2237
asg26
I200
sba(imain2
Polygon
p2238
(dp2239
g3
(I37
I13
tp2240
sg5
I200
sg6
(I0
I114
I18
I118
tp2241
sg8
(lp2242
(I36
I0
tp2243
a(I16
I0
tp2244
a(I2
I0
tp2245
a(I19
I8
tp2246
a(I47
I4
tp2247
a(I33
I0
tp2248
a(I37
I0
tp2249
a(I53
I0
tp2250
a(I28
I0
tp2251
a(I38
I0
tp2252
a(I23
I13
tp2253
a(I41
I0
tp2254
asg26
I200
sba(imain2
Polygon
p2255
(dp2256
g3
(I168
I175
tp2257
sg5
I200
sg6
(I96
I55
I24
I0
tp2258
sg8
(lp2259
(I152
I200
tp2260
a(I120
I181
tp2261
a(I195
I166
tp2262
a(I189
I168
tp2263
a(I200
I200
tp2264
a(I200
I169
tp2265
a(I118
I182
tp2266
a(I158
I174
tp2267
a(I200
I200
tp2268
a(I122
I174
tp2269
asg26
I200
sba(imain2
Polygon
p2270
(dp2271
g3
(I75
I83
tp2272
sg5
I200
sg6
(I27
I33
I20
I0
tp2273
sg8
(lp2274
(I114
I59
tp2275
a(I50
I113
tp2276
a(I118
I51
tp2277
a(I81
I33
tp2278
a(I36
I53
tp2279
a(I51
I69
tp2280
a(I28
I131
tp2281
a(I93
I78
tp2282
a(I87
I115
tp2283
a(I115
I36
tp2284
a(I101
I82
tp2285
a(I71
I42
tp2286
a(I47
I59
tp2287
a(I89
I66
tp2288
asg26
I200
sba(imain2
Polygon
p2289
(dp2290
g3
(I18
I79
tp2291
sg5
I200
sg6
(I81
I1
I175
I107
tp2292
sg8
(lp2293
(I36
I125
tp2294
a(I51
I115
tp2295
a(I18
I107
tp2296
a(I43
I101
tp2297
a(I25
I110
tp2298
a(I12
I123
tp2299
a(I0
I103
tp2300
a(I0
I117
tp2301
a(I39
I119
tp2302
asg26
I200
sba(imain2
Polygon
p2303
(dp2304
g3
(I27
I28
tp2305
sg5
I200
sg6
(I221
I145
I39
I1
tp2306
sg8
(lp2307
(I68
I12
tp2308
a(I28
I26
tp2309
a(I19
I0
tp2310
a(I42
I0
tp2311
a(I71
I0
tp2312
a(I65
I38
tp2313
a(I19
I2
tp2314
a(I9
I62
tp2315
a(I0
I42
tp2316
a(I0
I0
tp2317
a(I49
I6
tp2318
a(I68
I73
tp2319
a(I16
I59
tp2320
a(I1
I0
tp2321
asg26
I200
sba(imain2
Polygon
p2322
(dp2323
g3
(I85
I60
tp2324
sg5
I200
sg6
(I84
I114
I12
I107
tp2325
sg8
(lp2326
(I115
I60
tp2327
a(I134
I87
tp2328
a(I55
I107
tp2329
a(I36
I62
tp2330
a(I72
I90
tp2331
a(I131
I73
tp2332
a(I117
I52
tp2333
a(I123
I32
tp2334
a(I108
I57
tp2335
asg26
I200
sba(imain2
Polygon
p2336
(dp2337
g3
(I45
I110
tp2338
sg5
I200
sg6
(I42
I240
I179
I51
tp2339
sg8
(lp2340
(I68
I158
tp2341
a(I45
I112
tp2342
a(I72
I109
tp2343
asg26
I200
sba(imain2
Polygon
p2344
(dp2345
g3
(I54
I138
tp2346
sg5
I200
sg6
(I117
I64
I186
I1
tp2347
sg8
(lp2348
(I99
I90
tp2349
a(I21
I111
tp2350
a(I69
I90
tp2351
a(I27
I135
tp2352
a(I95
I108
tp2353
a(I41
I128
tp2354
a(I72
I137
tp2355
a(I84
I118
tp2356
asg26
I200
sba(imain2
Polygon
p2357
(dp2358
g3
(I162
I123
tp2359
sg5
I200
sg6
(I45
I58
I71
I13
tp2360
sg8
(lp2361
(I175
I164
tp2362
a(I131
I118
tp2363
a(I200
I137
tp2364
a(I152
I138
tp2365
a(I125
I137
tp2366
a(I200
I106
tp2367
a(I180
I124
tp2368
a(I188
I77
tp2369
a(I123
I93
tp2370
a(I154
I146
tp2371
a(I185
I169
tp2372
a(I124
I157
tp2373
a(I147
I147
tp2374
a(I156
I80
tp2375
a(I161
I109
tp2376
a(I196
I165
tp2377
a(I177
I99
tp2378
a(I200
I97
tp2379
a(I122
I121
tp2380
asg26
I200
sba(imain2
Polygon
p2381
(dp2382
g3
(I144
I70
tp2383
sg5
I200
sg6
(I192
I40
I118
I35
tp2384
sg8
(lp2385
(I170
I95
tp2386
a(I169
I95
tp2387
a(I149
I71
tp2388
asg26
I200
sba(imain2
Polygon
p2389
(dp2390
g3
(I11
I36
tp2391
sg5
I200
sg6
(I145
I32
I78
I27
tp2392
sg8
(lp2393
(I0
I24
tp2394
a(I0
I45
tp2395
a(I0
I0
tp2396
a(I0
I0
tp2397
a(I0
I57
tp2398
a(I0
I31
tp2399
a(I0
I0
tp2400
a(I0
I35
tp2401
a(I1
I41
tp2402
asg26
I200
sba(imain2
Polygon
p2403
(dp2404
g3
(I85
I175
tp2405
sg5
I200
sg6
(I240
I52
I44
I1
tp2406
sg8
(lp2407
(I60
I200
tp2408
a(I112
I137
tp2409
a(I100
I133
tp2410
a(I108
I186
tp2411
a(I42
I200
tp2412
a(I66
I189
tp2413
a(I114
I192
tp2414
a(I100
I188
tp2415
a(I38
I152
tp2416
a(I116
I138
tp2417
a(I61
I131
tp2418
a(I89
I176
tp2419
a(I80
I162
tp2420
a(I116
I200
tp2421
asg26
I200
sba(imain2
Polygon
p2422
(dp2423
g3
(I78
I22
tp2424
sg5
I200
sg6
(I0
I239
I66
I1
tp2425
sg8
(lp2426
(I80
I54
tp2427
a(I47
I0
tp2428
a(I28
I18
tp2429
a(I112
I49
tp2430
a(I107
I0
tp2431
a(I80
I0
tp2432
a(I127
I21
tp2433
a(I88
I0
tp2434
a(I97
I0
tp2435
asg26
I200
sba(imain2
Polygon
p2436
(dp2437
g3
(I58
I165
tp2438
sg5
I200
sg6
(I74
I1
I134
I91
tp2439
sg8
(lp2440
(I40
I160
tp2441
a(I10
I120
tp2442
a(I46
I164
tp2443
a(I43
I143
tp2444
asg26
I200
sba(imain2
Polygon
p2445
(dp2446
g3
(I98
I69
tp2447
sg5
I200
sg6
(I73
I213
I127
I34
tp2448
sg8
(lp2449
(I111
I113
tp2450
a(I126
I99
tp2451
a(I78
I90
tp2452
asg26
I200
sba(imain2
Polygon
p2453
(dp2454
g3
(I184
I193
tp2455
sg5
I200
sg6
(I17
I62
I68
I1
tp2456
sg8
(lp2457
(I200
I177
tp2458
a(I185
I200
tp2459
a(I200
I163
tp2460
a(I200
I200
tp2461
a(I200
I200
tp2462
a(I159
I200
tp2463
asg26
I200
sba(imain2
Polygon
p2464
(dp2465
g3
(I136
I181
tp2466
sg5
I200
sg6
(I120
I127
I190
I0
tp2467
sg8
(lp2468
(I148
I200
tp2469
a(I87
I180
tp2470
a(I129
I164
tp2471
a(I115
I142
tp2472
a(I145
I199
tp2473
a(I127
I139
tp2474
a(I141
I181
tp2475
asg26
I200
sba(imain2
Polygon
p2476
(dp2477
g3
(I65
I69
tp2478
sg5
I200
sg6
(I101
I92
I153
I2
tp2479
sg8
(lp2480
(I24
I101
tp2481
a(I37
I51
tp2482
a(I89
I104
tp2483
a(I37
I106
tp2484
a(I63
I93
tp2485
a(I16
I47
tp2486
a(I26
I115
tp2487
a(I73
I48
tp2488
asg26
I200
sba(imain2
Polygon
p2489
(dp2490
g3
(I146
I60
tp2491
sg5
I200
sg6
(I1
I1
I200
I0
tp2492
sg8
(lp2493
(I167
I55
tp2494
a(I196
I53
tp2495
a(I126
I28
tp2496
a(I193
I89
tp2497
a(I135
I34
tp2498
asg26
I200
sba(imain2
Polygon
p2499
(dp2500
g3
(I7
I191
tp2501
sg5
I200
sg6
(I0
I165
I63
I1
tp2502
sg8
(lp2503
(I10
I188
tp2504
a(I0
I194
tp2505
a(I27
I178
tp2506
a(I0
I200
tp2507
a(I36
I192
tp2508
a(I0
I200
tp2509
a(I24
I148
tp2510
a(I56
I177
tp2511
a(I0
I143
tp2512
a(I0
I180
tp2513
a(I0
I200
tp2514
a(I32
I200
tp2515
a(I0
I200
tp2516
asg26
I200
sba(imain2
Polygon
p2517
(dp2518
g3
(I177
I12
tp2519
sg5
I200
sg6
(I0
I126
I137
I0
tp2520
sg8
(lp2521
(I179
I47
tp2522
a(I173
I36
tp2523
a(I131
I0
tp2524
a(I173
I62
tp2525
a(I181
I36
tp2526
a(I200
I50
tp2527
a(I200
I50
tp2528
a(I200
I4
tp2529
a(I132
I54
tp2530
asg26
I200
sba(imain2
Polygon
p2531
(dp2532
g3
(I98
I60
tp2533
sg5
I200
sg6
(I142
I36
I47
I0
tp2534
sg8
(lp2535
(I138
I25
tp2536
a(I98
I26
tp2537
a(I104
I32
tp2538
a(I147
I11
tp2539
a(I125
I68
tp2540
a(I77
I21
tp2541
a(I87
I90
tp2542
asg26
I200
sba(imain2
Polygon
p2543
(dp2544
g3
(I26
I121
tp2545
sg5
I200
sg6
(I19
I112
I2
I83
tp2546
sg8
(lp2547
(I5
I167
tp2548
a(I39
I85
tp2549
a(I0
I101
tp2550
a(I0
I166
tp2551
a(I30
I111
tp2552
a(I14
I135
tp2553
a(I45
I83
tp2554
a(I52
I113
tp2555
a(I0
I157
tp2556
a(I37
I137
tp2557
asg26
I200
sba(imain2
Polygon
p2558
(dp2559
g3
(I59
I10
tp2560
sg5
I200
sg6
(I179
I55
I106
I127
tp2561
sg8
(lp2562
(I13
I0
tp2563
a(I70
I0
tp2564
a(I73
I6
tp2565
a(I69
I0
tp2566
a(I109
I0
tp2567
a(I101
I15
tp2568
a(I10
I0
tp2569
a(I17
I23
tp2570
asg26
I200
sba(imain2
Polygon
p2571
(dp2572
g3
(I171
I141
tp2573
sg5
I200
sg6
(I36
I196
I138
I1
tp2574
sg8
(lp2575
(I200
I170
tp2576
a(I145
I150
tp2577
a(I175
I116
tp2578
a(I198
I129
tp2579
a(I186
I151
tp2580
a(I190
I148
tp2581
a(I187
I97
tp2582
a(I200
I94
tp2583
asg26
I200
sba(imain2
Polygon
p2584
(dp2585
g3
(I80
I143
tp2586
sg5
I200
sg6
(I73
I75
I10
I114
tp2587
sg8
(lp2588
(I66
I140
tp2589
a(I70
I145
tp2590
a(I93
I192
tp2591
a(I130
I187
tp2592
a(I120
I141
tp2593
a(I69
I128
tp2594
a(I62
I133
tp2595
a(I71
I170
tp2596
a(I111
I114
tp2597
a(I86
I147
tp2598
asg26
I200
sba(imain2
Polygon
p2599
(dp2600
g3
(I191
I199
tp2601
sg5
I200
sg6
(I0
I223
I23
I0
tp2602
sg8
(lp2603
(I169
I200
tp2604
a(I177
I200
tp2605
a(I150
I150
tp2606
a(I193
I156
tp2607
a(I200
I200
tp2608
a(I200
I200
tp2609
a(I148
I149
tp2610
a(I141
I160
tp2611
asg26
I200
sba(imain2
Polygon
p2612
(dp2613
g3
(I6
I112
tp2614
sg5
I200
sg6
(I132
I70
I127
I62
tp2615
sg8
(lp2616
(I0
I137
tp2617
a(I0
I140
tp2618
a(I25
I84
tp2619
a(I0
I100
tp2620
a(I0
I158
tp2621
a(I15
I79
tp2622
asg26
I200
sba(imain2
Polygon
p2623
(dp2624
g3
(I189
I37
tp2625
sg5
I200
sg6
(I31
I237
I163
I51
tp2626
sg8
(lp2627
(I200
I41
tp2628
a(I191
I37
tp2629
a(I188
I0
tp2630
a(I199
I1
tp2631
asg26
I200
sba(imain2
Polygon
p2632
(dp2633
g3
(I121
I50
tp2634
sg5
I200
sg6
(I4
I72
I0
I1
tp2635
sg8
(lp2636
(I136
I45
tp2637
a(I142
I7
tp2638
a(I160
I54
tp2639
asg26
I200
sba(imain2
Polygon
p2640
(dp2641
g3
(I58
I165
tp2642
sg5
I200
sg6
(I142
I99
I2
I0
tp2643
sg8
(lp2644
(I22
I161
tp2645
a(I59
I187
tp2646
a(I9
I168
tp2647
a(I97
I177
tp2648
a(I20
I139
tp2649
a(I35
I200
tp2650
a(I99
I183
tp2651
a(I107
I152
tp2652
a(I56
I151
tp2653
a(I33
I161
tp2654
a(I83
I175
tp2655
asg26
I200
sba(imain2
Polygon
p2656
(dp2657
g3
(I155
I38
tp2658
sg5
I200
sg6
(I100
I107
I236
I92
tp2659
sg8
(lp2660
(I160
I2
tp2661
a(I162
I13
tp2662
a(I165
I27
tp2663
asg26
I200
sba(imain2
Polygon
p2664
(dp2665
g3
(I80
I130
tp2666
sg5
I200
sg6
(I223
I90
I0
I119
tp2667
sg8
(lp2668
(I90
I107
tp2669
a(I38
I91
tp2670
a(I127
I91
tp2671
a(I86
I180
tp2672
a(I90
I97
tp2673
a(I42
I107
tp2674
a(I57
I140
tp2675
a(I81
I161
tp2676
a(I95
I173
tp2677
a(I77
I124
tp2678
a(I91
I85
tp2679
a(I88
I146
tp2680
asg26
I200
sba(imain2
Polygon
p2681
(dp2682
g3
(I182
I31
tp2683
sg5
I200
sg6
(I111
I85
I112
I0
tp2684
sg8
(lp2685
(I200
I65
tp2686
a(I198
I51
tp2687
a(I135
I9
tp2688
a(I186
I37
tp2689
a(I164
I0
tp2690
a(I175
I40
tp2691
a(I151
I81
tp2692
a(I200
I11
tp2693
a(I200
I57
tp2694
a(I152
I25
tp2695
a(I200
I0
tp2696
a(I162
I2
tp2697
a(I154
I80
tp2698
a(I174
I47
tp2699
a(I195
I67
tp2700
a(I188
I45
tp2701
a(I182
I80
tp2702
a(I157
I72
tp2703
a(I148
I66
tp2704
a(I190
I38
tp2705
a(I200
I28
tp2706
a(I146
I24
tp2707
a(I133
I0
tp2708
asg26
I200
sba(imain2
Polygon
p2709
(dp2710
g3
(I164
I132
tp2711
sg5
I200
sg6
(I50
I68
I1
I0
tp2712
sg8
(lp2713
(I160
I87
tp2714
a(I136
I113
tp2715
a(I152
I112
tp2716
a(I158
I139
tp2717
a(I168
I173
tp2718
a(I180
I136
tp2719
a(I190
I82
tp2720
a(I138
I162
tp2721
a(I122
I127
tp2722
a(I152
I121
tp2723
a(I199
I84
tp2724
a(I175
I98
tp2725
a(I157
I141
tp2726
a(I185
I112
tp2727
asg26
I200
sba(imain2
Polygon
p2728
(dp2729
g3
(I67
I123
tp2730
sg5
I200
sg6
(I203
I168
I127
I71
tp2731
sg8
(lp2732
(I114
I101
tp2733
a(I112
I148
tp2734
a(I65
I154
tp2735
a(I43
I93
tp2736
a(I96
I92
tp2737
a(I107
I100
tp2738
a(I49
I107
tp2739
a(I115
I104
tp2740
a(I46
I107
tp2741
a(I101
I102
tp2742
a(I61
I96
tp2743
asg26
I200
sba(imain2
Polygon
p2744
(dp2745
g3
(I139
I46
tp2746
sg5
I200
sg6
(I2
I111
I83
I74
tp2747
sg8
(lp2748
(I185
I84
tp2749
a(I137
I74
tp2750
a(I164
I79
tp2751
asg26
I200
sba(imain2
Polygon
p2752
(dp2753
g3
(I137
I13
tp2754
sg5
I200
sg6
(I203
I131
I220
I5
tp2755
sg8
(lp2756
(I165
I0
tp2757
a(I180
I37
tp2758
a(I165
I55
tp2759
a(I139
I19
tp2760
a(I157
I0
tp2761
a(I100
I0
tp2762
a(I88
I17
tp2763
a(I160
I57
tp2764
a(I126
I14
tp2765
asg26
I200
sba(imain2
Polygon
p2766
(dp2767
g3
(I72
I81
tp2768
sg5
I200
sg6
(I239
I108
I82
I0
tp2769
sg8
(lp2770
(I113
I53
tp2771
a(I60
I76
tp2772
a(I26
I64
tp2773
a(I41
I126
tp2774
a(I57
I104
tp2775
a(I81
I126
tp2776
a(I104
I114
tp2777
a(I63
I131
tp2778
asg26
I200
sba(imain2
Polygon
p2779
(dp2780
g3
(I24
I70
tp2781
sg5
I200
sg6
(I6
I224
I9
I12
tp2782
sg8
(lp2783
(I37
I25
tp2784
a(I72
I32
tp2785
a(I2
I21
tp2786
a(I0
I105
tp2787
a(I15
I106
tp2788
a(I45
I114
tp2789
a(I46
I40
tp2790
asg26
I200
sba(imain2
Polygon
p2791
(dp2792
g3
(I144
I200
tp2793
sg5
I200
sg6
(I123
I88
I11
I1
tp2794
sg8
(lp2795
(I164
I200
tp2796
a(I121
I196
tp2797
a(I107
I168
tp2798
a(I185
I200
tp2799
a(I183
I167
tp2800
a(I105
I200
tp2801
a(I147
I151
tp2802
a(I181
I194
tp2803
a(I119
I181
tp2804
a(I98
I181
tp2805
a(I168
I183
tp2806
a(I103
I200
tp2807
a(I174
I196
tp2808
a(I104
I200
tp2809
a(I128
I200
tp2810
a(I162
I183
tp2811
a(I146
I200
tp2812
a(I145
I200
tp2813
a(I142
I200
tp2814
asg26
I200
sba(imain2
Polygon
p2815
(dp2816
g3
(I63
I64
tp2817
sg5
I200
sg6
(I192
I193
I44
I4
tp2818
sg8
(lp2819
(I103
I55
tp2820
a(I18
I106
tp2821
a(I18
I45
tp2822
a(I97
I38
tp2823
a(I97
I107
tp2824
a(I48
I88
tp2825
a(I43
I112
tp2826
asg26
I200
sba(imain2
Polygon
p2827
(dp2828
g3
(I87
I65
tp2829
sg5
I200
sg6
(I216
I56
I98
I1
tp2830
sg8
(lp2831
(I136
I80
tp2832
a(I52
I99
tp2833
a(I86
I83
tp2834
a(I123
I74
tp2835
a(I60
I111
tp2836
a(I137
I35
tp2837
a(I46
I106
tp2838
a(I47
I39
tp2839
a(I103
I111
tp2840
a(I96
I80
tp2841
asg26
I200
sba(imain2
Polygon
p2842
(dp2843
g3
(I110
I191
tp2844
sg5
I200
sg6
(I161
I197
I225
I1
tp2845
sg8
(lp2846
(I132
I182
tp2847
a(I98
I178
tp2848
a(I157
I152
tp2849
a(I83
I180
tp2850
a(I122
I150
tp2851
a(I111
I200
tp2852
a(I151
I182
tp2853
a(I118
I200
tp2854
a(I78
I200
tp2855
a(I146
I200
tp2856
asg26
I200
sba(imain2
Polygon
p2857
(dp2858
g3
(I108
I110
tp2859
sg5
I200
sg6
(I98
I178
I164
I0
tp2860
sg8
(lp2861
(I101
I127
tp2862
a(I117
I114
tp2863
a(I112
I93
tp2864
a(I76
I126
tp2865
a(I100
I157
tp2866
a(I158
I88
tp2867
asg26
I200
sba(imain2
Polygon
p2868
(dp2869
g3
(I112
I52
tp2870
sg5
I200
sg6
(I81
I201
I80
I100
tp2871
sg8
(lp2872
(I158
I54
tp2873
a(I152
I56
tp2874
a(I149
I58
tp2875
asg26
I200
sba.