(lp0
(imain2
Polygon
p1
(dp2
S'origin'
p3
(I39
I29
tp4
sS'h'
p5
I200
sS'color'
p6
(I196
I23
I139
I82
tp7
sS'corner_list'
p8
(lp9
(I0
I0
tp10
a(I33
I71
tp11
a(I71
I41
tp12
a(I83
I36
tp13
a(I53
I0
tp14
a(I18
I34
tp15
a(I0
I33
tp16
a(I18
I16
tp17
a(I0
I37
tp18
a(I83
I19
tp19
a(I58
I39
tp20
a(I4
I54
tp21
a(I21
I30
tp22
a(I13
I20
tp23
a(I39
I30
tp24
a(I64
I0
tp25
asS'w'
p26
I200
sba(imain2
Polygon
p27
(dp28
g3
(I66
I177
tp29
sg5
I200
sg6
(I138
I56
I47
I34
tp30
sg8
(lp31
(I77
I143
tp32
a(I82
I135
tp33
a(I89
I186
tp34
a(I34
I200
tp35
a(I71
I200
tp36
a(I102
I200
tp37
a(I95
I156
tp38
a(I77
I200
tp39
asg26
I200
sba(imain2
Polygon
p40
(dp41
g3
(I59
I53
tp42
sg5
I200
sg6
(I110
I43
I109
I146
tp43
sg8
(lp44
(I106
I10
tp45
a(I26
I102
tp46
a(I9
I53
tp47
a(I59
I26
tp48
a(I63
I3
tp49
a(I15
I3
tp50
a(I40
I72
tp51
a(I32
I51
tp52
a(I38
I88
tp53
a(I94
I64
tp54
a(I109
I84
tp55
a(I91
I22
tp56
a(I92
I46
tp57
a(I76
I61
tp58
a(I97
I29
tp59
a(I79
I46
tp60
a(I53
I45
tp61
a(I57
I67
tp62
asg26
I200
sba(imain2
Polygon
p63
(dp64
g3
(I79
I99
tp65
sg5
I200
sg6
(I72
I89
I69
I95
tp66
sg8
(lp67
(I88
I64
tp68
a(I98
I98
tp69
a(I105
I125
tp70
a(I71
I51
tp71
a(I35
I63
tp72
a(I72
I80
tp73
a(I123
I57
tp74
a(I114
I125
tp75
a(I30
I114
tp76
asg26
I200
sba(imain2
Polygon
p77
(dp78
g3
(I200
I83
tp79
sg5
I200
sg6
(I166
I229
I64
I9
tp80
sg8
(lp81
(I200
I58
tp82
a(I172
I56
tp83
a(I191
I129
tp84
a(I200
I100
tp85
a(I200
I53
tp86
a(I170
I131
tp87
asg26
I200
sba(imain2
Polygon
p88
(dp89
g3
(I48
I136
tp90
sg5
I200
sg6
(I104
I110
I146
I63
tp91
sg8
(lp92
(I74
I106
tp93
a(I87
I127
tp94
a(I94
I141
tp95
a(I43
I102
tp96
a(I5
I168
tp97
a(I82
I166
tp98
a(I89
I93
tp99
a(I7
I140
tp100
a(I68
I100
tp101
a(I87
I101
tp102
a(I86
I178
tp103
a(I46
I130
tp104
a(I46
I109
tp105
a(I2
I151
tp106
a(I64
I175
tp107
a(I58
I161
tp108
a(I45
I165
tp109
a(I87
I144
tp110
a(I84
I92
tp111
a(I79
I93
tp112
a(I56
I161
tp113
asg26
I200
sba(imain2
Polygon
p114
(dp115
g3
(I118
I72
tp116
sg5
I200
sg6
(I133
I138
I60
I54
tp117
sg8
(lp118
(I105
I74
tp119
a(I99
I82
tp120
a(I118
I81
tp121
a(I118
I115
tp122
a(I126
I57
tp123
a(I89
I36
tp124
a(I68
I93
tp125
a(I104
I108
tp126
a(I97
I43
tp127
asg26
I200
sba(imain2
Polygon
p128
(dp129
g3
(I75
I194
tp130
sg5
I200
sg6
(I212
I85
I106
I12
tp131
sg8
(lp132
(I118
I184
tp133
a(I107
I200
tp134
a(I100
I167
tp135
a(I71
I200
tp136
asg26
I200
sba(imain2
Polygon
p137
(dp138
g3
(I7
I180
tp139
sg5
I200
sg6
(I233
I34
I1
I1
tp140
sg8
(lp141
(I10
I200
tp142
a(I0
I197
tp143
a(I0
I200
tp144
a(I0
I158
tp145
a(I0
I168
tp146
a(I0
I173
tp147
a(I39
I200
tp148
a(I38
I151
tp149
a(I0
I200
tp150
a(I0
I138
tp151
a(I5
I200
tp152
asg26
I200
sba(imain2
Polygon
p153
(dp154
g3
(I200
I5
tp155
sg5
I200
sg6
(I172
I75
I111
I32
tp156
sg8
(lp157
(I200
I28
tp158
a(I200
I0
tp159
a(I200
I0
tp160
a(I174
I38
tp161
a(I154
I0
tp162
a(I180
I0
tp163
a(I162
I46
tp164
a(I200
I0
tp165
a(I200
I45
tp166
a(I155
I15
tp167
a(I200
I0
tp168
asg26
I200
sba(imain2
Polygon
p169
(dp170
g3
(I180
I27
tp171
sg5
I200
sg6
(I104
I111
I153
I0
tp172
sg8
(lp173
(I200
I66
tp174
a(I200
I76
tp175
a(I189
I19
tp176
a(I200
I0
tp177
a(I177
I21
tp178
a(I174
I1
tp179
a(I163
I0
tp180
a(I184
I25
tp181
a(I172
I54
tp182
a(I160
I34
tp183
a(I150
I0
tp184
a(I169
I65
tp185
asg26
I200
sba(imain2
Polygon
p186
(dp187
g3
(I59
I197
tp188
sg5
I200
sg6
(I81
I206
I135
I133
tp189
sg8
(lp190
(I98
I200
tp191
a(I93
I157
tp192
a(I71
I197
tp193
a(I54
I200
tp194
asg26
I200
sba(imain2
Polygon
p195
(dp196
g3
(I129
I124
tp197
sg5
I200
sg6
(I169
I187
I96
I66
tp198
sg8
(lp199
(I122
I123
tp200
a(I92
I168
tp201
a(I130
I89
tp202
a(I111
I89
tp203
a(I90
I106
tp204
a(I88
I150
tp205
a(I133
I128
tp206
asg26
I200
sba(imain2
Polygon
p207
(dp208
g3
(I107
I2
tp209
sg5
I200
sg6
(I47
I0
I159
I111
tp210
sg8
(lp211
(I83
I0
tp212
a(I65
I3
tp213
a(I94
I0
tp214
a(I134
I0
tp215
a(I86
I0
tp216
a(I106
I7
tp217
a(I142
I27
tp218
asg26
I200
sba(imain2
Polygon
p219
(dp220
g3
(I25
I107
tp221
sg5
I200
sg6
(I102
I25
I170
I1
tp222
sg8
(lp223
(I30
I146
tp224
a(I12
I69
tp225
a(I0
I123
tp226
a(I0
I68
tp227
a(I47
I130
tp228
a(I58
I62
tp229
a(I4
I147
tp230
a(I47
I83
tp231
a(I47
I135
tp232
a(I22
I124
tp233
a(I0
I59
tp234
a(I3
I58
tp235
a(I0
I103
tp236
a(I0
I98
tp237
a(I9
I75
tp238
a(I13
I133
tp239
a(I58
I86
tp240
asg26
I200
sba(imain2
Polygon
p241
(dp242
g3
(I194
I197
tp243
sg5
I200
sg6
(I7
I196
I62
I94
tp244
sg8
(lp245
(I200
I153
tp246
a(I176
I171
tp247
a(I200
I180
tp248
asg26
I200
sba(imain2
Polygon
p249
(dp250
g3
(I8
I2
tp251
sg5
I200
sg6
(I204
I194
I218
I1
tp252
sg8
(lp253
(I30
I0
tp254
a(I33
I37
tp255
a(I0
I46
tp256
a(I40
I9
tp257
a(I17
I28
tp258
a(I0
I0
tp259
a(I19
I6
tp260
a(I16
I0
tp261
a(I0
I0
tp262
a(I0
I3
tp263
a(I24
I41
tp264
a(I0
I43
tp265
a(I55
I0
tp266
asg26
I200
sba(imain2
Polygon
p267
(dp268
g3
(I171
I144
tp269
sg5
I200
sg6
(I110
I156
I185
I0
tp270
sg8
(lp271
(I144
I176
tp272
a(I126
I156
tp273
a(I165
I102
tp274
a(I132
I141
tp275
a(I132
I120
tp276
a(I145
I154
tp277
a(I123
I111
tp278
a(I200
I119
tp279
asg26
I200
sba(imain2
Polygon
p280
(dp281
g3
(I44
I42
tp282
sg5
I200
sg6
(I78
I129
I74
I1
tp283
sg8
(lp284
(I29
I80
tp285
a(I41
I39
tp286
a(I91
I0
tp287
a(I87
I51
tp288
a(I28
I58
tp289
a(I18
I19
tp290
a(I17
I57
tp291
asg26
I200
sba(imain2
Polygon
p292
(dp293
g3
(I26
I99
tp294
sg5
I200
sg6
(I167
I97
I167
I70
tp295
sg8
(lp296
(I71
I87
tp297
a(I54
I125
tp298
a(I75
I72
tp299
asg26
I200
sba(imain2
Polygon
p300
(dp301
g3
(I114
I46
tp302
sg5
I200
sg6
(I95
I192
I193
I0
tp303
sg8
(lp304
(I79
I0
tp305
a(I126
I34
tp306
a(I145
I56
tp307
a(I90
I66
tp308
asg26
I200
sba(imain2
Polygon
p309
(dp310
g3
(I68
I194
tp311
sg5
I200
sg6
(I85
I192
I149
I1
tp312
sg8
(lp313
(I73
I200
tp314
a(I63
I182
tp315
a(I30
I194
tp316
a(I115
I200
tp317
a(I65
I200
tp318
a(I57
I192
tp319
asg26
I200
sba(imain2
Polygon
p320
(dp321
g3
(I200
I53
tp322
sg5
I200
sg6
(I179
I181
I163
I1
tp323
sg8
(lp324
(I183
I79
tp325
a(I152
I41
tp326
a(I200
I16
tp327
asg26
I200
sba(imain2
Polygon
p328
(dp329
g3
(I172
I155
tp330
sg5
I200
sg6
(I197
I78
I242
I0
tp331
sg8
(lp332
(I200
I118
tp333
a(I186
I112
tp334
a(I135
I150
tp335
a(I167
I200
tp336
a(I139
I119
tp337
a(I158
I120
tp338
a(I200
I179
tp339
a(I177
I185
tp340
a(I166
I121
tp341
a(I200
I139
tp342
a(I200
I135
tp343
a(I198
I190
tp344
a(I200
I163
tp345
asg26
I200
sba(imain2
Polygon
p346
(dp347
g3
(I154
I159
tp348
sg5
I200
sg6
(I53
I205
I33
I0
tp349
sg8
(lp350
(I150
I131
tp351
a(I122
I109
tp352
a(I107
I147
tp353
a(I127
I131
tp354
a(I190
I169
tp355
a(I108
I117
tp356
a(I124
I177
tp357
a(I129
I170
tp358
a(I158
I198
tp359
a(I128
I200
tp360
a(I172
I155
tp361
a(I159
I171
tp362
a(I113
I158
tp363
a(I108
I200
tp364
asg26
I200
sba(imain2
Polygon
p365
(dp366
g3
(I55
I59
tp367
sg5
I200
sg6
(I73
I195
I202
I1
tp368
sg8
(lp369
(I35
I56
tp370
a(I83
I49
tp371
a(I28
I19
tp372
a(I70
I68
tp373
a(I32
I20
tp374
a(I44
I80
tp375
a(I93
I9
tp376
a(I47
I28
tp377
a(I81
I9
tp378
a(I78
I21
tp379
a(I60
I9
tp380
a(I31
I25
tp381
a(I102
I49
tp382
a(I30
I79
tp383
a(I35
I108
tp384
a(I41
I35
tp385
a(I21
I16
tp386
asg26
I200
sba(imain2
Polygon
p387
(dp388
g3
(I127
I147
tp389
sg5
I200
sg6
(I46
I67
I112
I98
tp390
sg8
(lp391
(I109
I194
tp392
a(I79
I101
tp393
a(I97
I160
tp394
a(I161
I191
tp395
asg26
I200
sba(imain2
Polygon
p396
(dp397
g3
(I123
I114
tp398
sg5
I200
sg6
(I116
I1
I6
I0
tp399
sg8
(lp400
(I118
I78
tp401
a(I80
I136
tp402
a(I164
I68
tp403
a(I86
I139
tp404
a(I144
I118
tp405
a(I139
I90
tp406
a(I100
I148
tp407
a(I161
I129
tp408
asg26
I200
sba(imain2
Polygon
p409
(dp410
g3
(I2
I51
tp411
sg5
I200
sg6
(I121
I140
I221
I1
tp412
sg8
(lp413
(I34
I88
tp414
a(I34
I85
tp415
a(I0
I4
tp416
a(I5
I59
tp417
a(I0
I95
tp418
a(I11
I81
tp419
a(I0
I16
tp420
a(I0
I46
tp421
a(I45
I76
tp422
a(I15
I75
tp423
asg26
I200
sba(imain2
Polygon
p424
(dp425
g3
(I166
I21
tp426
sg5
I200
sg6
(I210
I244
I214
I79
tp427
sg8
(lp428
(I200
I0
tp429
a(I200
I59
tp430
a(I169
I70
tp431
a(I131
I0
tp432
a(I153
I0
tp433
a(I142
I0
tp434
a(I135
I0
tp435
a(I200
I0
tp436
a(I141
I29
tp437
asg26
I200
sba(imain2
Polygon
p438
(dp439
g3
(I110
I91
tp440
sg5
I200
sg6
(I127
I32
I29
I1
tp441
sg8
(lp442
(I112
I141
tp443
a(I90
I64
tp444
a(I116
I46
tp445
a(I135
I89
tp446
a(I111
I63
tp447
a(I81
I95
tp448
a(I119
I112
tp449
a(I147
I105
tp450
a(I129
I93
tp451
a(I123
I69
tp452
a(I94
I93
tp453
a(I75
I65
tp454
a(I74
I100
tp455
a(I134
I67
tp456
a(I80
I45
tp457
a(I105
I65
tp458
a(I126
I48
tp459
asg26
I200
sba(imain2
Polygon
p460
(dp461
g3
(I148
I41
tp462
sg5
I200
sg6
(I156
I0
I206
I1
tp463
sg8
(lp464
(I119
I7
tp465
a(I127
I76
tp466
a(I195
I72
tp467
a(I125
I27
tp468
a(I167
I84
tp469
a(I130
I66
tp470
a(I155
I13
tp471
a(I195
I36
tp472
a(I134
I5
tp473
a(I110
I80
tp474
a(I103
I84
tp475
a(I122
I1
tp476
a(I145
I45
tp477
asg26
I200
sba(imain2
Polygon
p478
(dp479
g3
(I188
I159
tp480
sg5
I200
sg6
(I161
I69
I65
I0
tp481
sg8
(lp482
(I200
I159
tp483
a(I166
I141
tp484
a(I172
I180
tp485
a(I200
I144
tp486
a(I200
I137
tp487
a(I200
I118
tp488
a(I197
I200
tp489
a(I156
I170
tp490
asg26
I200
sba(imain2
Polygon
p491
(dp492
g3
(I55
I106
tp493
sg5
I200
sg6
(I54
I89
I41
I0
tp494
sg8
(lp495
(I33
I100
tp496
a(I89
I61
tp497
a(I85
I102
tp498
a(I56
I94
tp499
a(I82
I124
tp500
a(I63
I66
tp501
a(I21
I156
tp502
a(I7
I154
tp503
a(I75
I126
tp504
a(I98
I130
tp505
asg26
I200
sba(imain2
Polygon
p506
(dp507
g3
(I118
I64
tp508
sg5
I200
sg6
(I128
I37
I2
I10
tp509
sg8
(lp510
(I68
I113
tp511
a(I79
I63
tp512
a(I77
I86
tp513
a(I74
I55
tp514
a(I125
I37
tp515
a(I149
I42
tp516
a(I146
I16
tp517
a(I122
I15
tp518
a(I89
I110
tp519
a(I123
I29
tp520
a(I88
I20
tp521
a(I123
I23
tp522
a(I160
I71
tp523
a(I105
I36
tp524
a(I147
I109
tp525
a(I168
I101
tp526
asg26
I200
sba(imain2
Polygon
p527
(dp528
g3
(I101
I127
tp529
sg5
I200
sg6
(I83
I171
I95
I76
tp530
sg8
(lp531
(I82
I132
tp532
a(I125
I83
tp533
a(I83
I154
tp534
a(I69
I123
tp535
a(I63
I110
tp536
asg26
I200
sba(imain2
Polygon
p537
(dp538
g3
(I42
I89
tp539
sg5
I200
sg6
(I17
I90
I178
I1
tp540
sg8
(lp541
(I76
I43
tp542
a(I0
I126
tp543
a(I43
I73
tp544
a(I78
I95
tp545
a(I51
I59
tp546
a(I7
I119
tp547
a(I1
I107
tp548
a(I77
I119
tp549
a(I0
I121
tp550
a(I0
I79
tp551
asg26
I200
sba(imain2
Polygon
p552
(dp553
g3
(I71
I151
tp554
sg5
I200
sg6
(I150
I168
I219
I130
tp555
sg8
(lp556
(I59
I125
tp557
a(I74
I126
tp558
a(I115
I198
tp559
a(I68
I200
tp560
a(I77
I200
tp561
a(I91
I177
tp562
a(I89
I164
tp563
asg26
I200
sba(imain2
Polygon
p564
(dp565
g3
(I13
I141
tp566
sg5
I200
sg6
(I244
I0
I196
I1
tp567
sg8
(lp568
(I30
I167
tp569
a(I0
I181
tp570
a(I9
I106
tp571
a(I0
I166
tp572
a(I11
I131
tp573
a(I8
I155
tp574
a(I53
I153
tp575
a(I39
I152
tp576
a(I0
I167
tp577
a(I30
I173
tp578
a(I38
I142
tp579
a(I47
I102
tp580
a(I28
I117
tp581
asg26
I200
sba(imain2
Polygon
p582
(dp583
g3
(I37
I11
tp584
sg5
I200
sg6
(I114
I18
I9
I93
tp585
sg8
(lp586
(I84
I0
tp587
a(I1
I7
tp588
a(I5
I26
tp589
a(I22
I34
tp590
a(I59
I15
tp591
a(I70
I6
tp592
asg26
I200
sba(imain2
Polygon
p593
(dp594
g3
(I97
I114
tp595
sg5
I200
sg6
(I145
I9
I201
I79
tp596
sg8
(lp597
(I62
I140
tp598
a(I62
I147
tp599
a(I121
I97
tp600
a(I126
I66
tp601
a(I62
I77
tp602
a(I73
I100
tp603
a(I48
I82
tp604
a(I94
I93
tp605
a(I100
I154
tp606
a(I83
I130
tp607
a(I61
I69
tp608
a(I56
I114
tp609
a(I77
I138
tp610
a(I76
I71
tp611
a(I110
I85
tp612
a(I80
I151
tp613
a(I113
I101
tp614
a(I48
I130
tp615
asg26
I200
sba(imain2
Polygon
p616
(dp617
g3
(I77
I12
tp618
sg5
I200
sg6
(I103
I0
I197
I1
tp619
sg8
(lp620
(I54
I0
tp621
a(I92
I1
tp622
a(I42
I0
tp623
a(I30
I23
tp624
a(I41
I0
tp625
a(I66
I0
tp626
a(I69
I0
tp627
a(I33
I5
tp628
a(I51
I42
tp629
asg26
I200
sba(imain2
Polygon
p630
(dp631
g3
(I114
I16
tp632
sg5
I200
sg6
(I0
I100
I178
I143
tp633
sg8
(lp634
(I164
I18
tp635
a(I151
I0
tp636
a(I70
I0
tp637
a(I142
I23
tp638
a(I160
I13
tp639
a(I135
I0
tp640
asg26
I200
sba(imain2
Polygon
p641
(dp642
g3
(I150
I10
tp643
sg5
I200
sg6
(I109
I57
I223
I157
tp644
sg8
(lp645
(I172
I0
tp646
a(I175
I1
tp647
a(I190
I0
tp648
a(I182
I0
tp649
a(I156
I0
tp650
a(I119
I18
tp651
a(I101
I0
tp652
a(I137
I0
tp653
a(I176
I52
tp654
a(I125
I0
tp655
a(I185
I0
tp656
asg26
I200
sba(imain2
Polygon
p657
(dp658
g3
(I41
I10
tp659
sg5
I200
sg6
(I113
I203
I84
I0
tp660
sg8
(lp661
(I28
I17
tp662
a(I23
I53
tp663
a(I74
I26
tp664
a(I86
I0
tp665
a(I32
I29
tp666
asg26
I200
sba(imain2
Polygon
p667
(dp668
g3
(I174
I159
tp669
sg5
I200
sg6
(I169
I107
I84
I97
tp670
sg8
(lp671
(I200
I125
tp672
a(I200
I200
tp673
a(I184
I191
tp674
a(I168
I116
tp675
a(I200
I121
tp676
a(I200
I173
tp677
a(I200
I119
tp678
asg26
I200
sba(imain2
Polygon
p679
(dp680
g3
(I61
I97
tp681
sg5
I200
sg6
(I123
I35
I106
I87
tp682
sg8
(lp683
(I45
I82
tp684
a(I76
I70
tp685
a(I64
I49
tp686
a(I103
I82
tp687
a(I64
I94
tp688
a(I102
I53
tp689
a(I108
I74
tp690
a(I96
I125
tp691
a(I52
I115
tp692
asg26
I200
sba(imain2
Polygon
p693
(dp694
g3
(I180
I97
tp695
sg5
I200
sg6
(I161
I154
I198
I1
tp696
sg8
(lp697
(I200
I88
tp698
a(I200
I108
tp699
a(I200
I138
tp700
a(I172
I65
tp701
a(I200
I145
tp702
a(I137
I86
tp703
a(I181
I70
tp704
asg26
I200
sba(imain2
Polygon
p705
(dp706
g3
(I101
I122
tp707
sg5
I200
sg6
(I163
I84
I0
I70
tp708
sg8
(lp709
(I87
I91
tp710
a(I111
I157
tp711
a(I106
I130
tp712
a(I93
I147
tp713
a(I118
I155
tp714
a(I135
I76
tp715
a(I61
I152
tp716
a(I83
I142
tp717
a(I54
I133
tp718
a(I123
I74
tp719
a(I77
I77
tp720
asg26
I200
sba(imain2
Polygon
p721
(dp722
g3
(I131
I15
tp723
sg5
I200
sg6
(I56
I126
I126
I0
tp724
sg8
(lp725
(I99
I0
tp726
a(I148
I25
tp727
a(I140
I30
tp728
a(I179
I62
tp729
a(I177
I17
tp730
a(I100
I0
tp731
a(I128
I0
tp732
a(I85
I52
tp733
a(I134
I55
tp734
a(I86
I62
tp735
a(I100
I58
tp736
asg26
I200
sba(imain2
Polygon
p737
(dp738
g3
(I113
I24
tp739
sg5
I200
sg6
(I150
I239
I1
I1
tp740
sg8
(lp741
(I163
I0
tp742
a(I88
I27
tp743
a(I125
I69
tp744
a(I154
I20
tp745
a(I125
I3
tp746
a(I140
I0
tp747
a(I117
I66
tp748
a(I110
I46
tp749
a(I84
I32
tp750
a(I122
I0
tp751
a(I77
I58
tp752
a(I140
I72
tp753
a(I128
I59
tp754
asg26
I200
sba(imain2
Polygon
p755
(dp756
g3
(I15
I21
tp757
sg5
I200
sg6
(I43
I42
I25
I0
tp758
sg8
(lp759
(I40
I54
tp760
a(I7
I0
tp761
a(I37
I64
tp762
a(I42
I34
tp763
a(I36
I65
tp764
a(I32
I0
tp765
a(I2
I0
tp766
asg26
I200
sba(imain2
Polygon
p767
(dp768
g3
(I75
I18
tp769
sg5
I200
sg6
(I118
I124
I39
I141
tp770
sg8
(lp771
(I125
I0
tp772
a(I82
I30
tp773
a(I98
I0
tp774
a(I90
I0
tp775
a(I64
I0
tp776
a(I29
I0
tp777
a(I86
I51
tp778
a(I54
I14
tp779
a(I64
I30
tp780
a(I69
I0
tp781
a(I26
I62
tp782
a(I118
I0
tp783
a(I74
I16
tp784
a(I25
I19
tp785
a(I53
I67
tp786
a(I111
I64
tp787
a(I97
I0
tp788
a(I84
I38
tp789
a(I72
I12
tp790
a(I104
I7
tp791
a(I73
I11
tp792
asg26
I200
sba(imain2
Polygon
p793
(dp794
g3
(I147
I31
tp795
sg5
I200
sg6
(I240
I1
I220
I141
tp796
sg8
(lp797
(I189
I0
tp798
a(I196
I42
tp799
a(I180
I38
tp800
a(I168
I65
tp801
a(I153
I34
tp802
a(I193
I77
tp803
a(I183
I0
tp804
a(I187
I24
tp805
a(I176
I51
tp806
a(I126
I17
tp807
a(I116
I7
tp808
a(I129
I0
tp809
asg26
I200
sba(imain2
Polygon
p810
(dp811
g3
(I43
I128
tp812
sg5
I200
sg6
(I89
I21
I104
I119
tp813
sg8
(lp814
(I7
I89
tp815
a(I0
I99
tp816
a(I21
I114
tp817
a(I15
I103
tp818
a(I5
I162
tp819
a(I19
I96
tp820
a(I39
I102
tp821
asg26
I200
sba(imain2
Polygon
p822
(dp823
g3
(I191
I52
tp824
sg5
I200
sg6
(I139
I142
I100
I0
tp825
sg8
(lp826
(I200
I4
tp827
a(I200
I26
tp828
a(I163
I6
tp829
a(I200
I80
tp830
a(I184
I37
tp831
a(I198
I60
tp832
a(I200
I28
tp833
a(I200
I17
tp834
a(I186
I45
tp835
asg26
I200
sba(imain2
Polygon
p836
(dp837
g3
(I124
I96
tp838
sg5
I200
sg6
(I222
I86
I120
I1
tp839
sg8
(lp840
(I156
I93
tp841
a(I154
I145
tp842
a(I106
I89
tp843
a(I156
I121
tp844
a(I90
I146
tp845
a(I91
I110
tp846
a(I151
I68
tp847
a(I138
I110
tp848
a(I109
I135
tp849
a(I167
I93
tp850
a(I128
I121
tp851
a(I123
I118
tp852
asg26
I200
sba(imain2
Polygon
p853
(dp854
g3
(I14
I107
tp855
sg5
I200
sg6
(I55
I0
I217
I128
tp856
sg8
(lp857
(I17
I104
tp858
a(I0
I102
tp859
a(I59
I117
tp860
asg26
I200
sba(imain2
Polygon
p861
(dp862
g3
(I84
I159
tp863
sg5
I200
sg6
(I51
I12
I192
I0
tp864
sg8
(lp865
(I90
I168
tp866
a(I84
I140
tp867
a(I90
I134
tp868
a(I98
I180
tp869
a(I113
I185
tp870
a(I87
I159
tp871
a(I63
I158
tp872
a(I40
I150
tp873
a(I45
I112
tp874
a(I64
I172
tp875
asg26
I200
sba(imain2
Polygon
p876
(dp877
g3
(I141
I115
tp878
sg5
I200
sg6
(I236
I170
I169
I1
tp879
sg8
(lp880
(I178
I152
tp881
a(I152
I78
tp882
a(I116
I140
tp883
asg26
I200
sba(imain2
Polygon
p884
(dp885
g3
(I199
I78
tp886
sg5
I200
sg6
(I204
I201
I84
I125
tp887
sg8
(lp888
(I151
I34
tp889
a(I200
I32
tp890
a(I200
I32
tp891
a(I200
I125
tp892
a(I164
I113
tp893
a(I175
I100
tp894
a(I189
I127
tp895
asg26
I200
sba(imain2
Polygon
p896
(dp897
g3
(I167
I90
tp898
sg5
I200
sg6
(I35
I188
I28
I50
tp899
sg8
(lp900
(I200
I91
tp901
a(I200
I41
tp902
a(I182
I102
tp903
a(I164
I106
tp904
a(I198
I74
tp905
a(I172
I52
tp906
asg26
I200
sba(imain2
Polygon
p907
(dp908
g3
(I17
I14
tp909
sg5
I200
sg6
(I1
I9
I92
I24
tp910
sg8
(lp911
(I12
I21
tp912
a(I58
I8
tp913
a(I51
I50
tp914
a(I59
I20
tp915
a(I8
I0
tp916
a(I28
I11
tp917
a(I0
I17
tp918
a(I0
I29
tp919
a(I55
I54
tp920
a(I54
I3
tp921
a(I0
I50
tp922
a(I22
I0
tp923
a(I16
I31
tp924
a(I44
I37
tp925
asg26
I200
sba(imain2
Polygon
p926
(dp927
g3
(I190
I180
tp928
sg5
I200
sg6
(I225
I104
I47
I0
tp929
sg8
(lp930
(I197
I149
tp931
a(I149
I200
tp932
a(I200
I200
tp933
a(I176
I200
tp934
asg26
I200
sba(imain2
Polygon
p935
(dp936
g3
(I70
I166
tp937
sg5
I200
sg6
(I105
I177
I2
I1
tp938
sg8
(lp939
(I76
I134
tp940
a(I117
I200
tp941
a(I56
I127
tp942
a(I72
I200
tp943
a(I36
I127
tp944
a(I29
I194
tp945
a(I48
I123
tp946
a(I34
I190
tp947
a(I52
I183
tp948
asg26
I200
sba(imain2
Polygon
p949
(dp950
g3
(I196
I185
tp951
sg5
I200
sg6
(I18
I157
I128
I1
tp952
sg8
(lp953
(I200
I191
tp954
a(I153
I136
tp955
a(I186
I150
tp956
a(I171
I192
tp957
a(I151
I200
tp958
a(I186
I148
tp959
a(I200
I200
tp960
asg26
I200
sba(imain2
Polygon
p961
(dp962
g3
(I48
I123
tp963
sg5
I200
sg6
(I164
I45
I17
I92
tp964
sg8
(lp965
(I8
I113
tp966
a(I8
I127
tp967
a(I0
I97
tp968
a(I48
I105
tp969
a(I47
I100
tp970
a(I58
I146
tp971
a(I89
I76
tp972
a(I9
I121
tp973
a(I27
I162
tp974
a(I11
I146
tp975
a(I19
I151
tp976
asg26
I200
sba(imain2
Polygon
p977
(dp978
g3
(I59
I97
tp979
sg5
I200
sg6
(I202
I47
I127
I24
tp980
sg8
(lp981
(I70
I135
tp982
a(I85
I54
tp983
a(I51
I58
tp984
a(I70
I64
tp985
a(I44
I80
tp986
a(I107
I114
tp987
a(I74
I82
tp988
a(I89
I99
tp989
a(I92
I57
tp990
a(I56
I68
tp991
asg26
I200
sba(imain2
Polygon
p992
(dp993
g3
(I17
I149
tp994
sg5
I200
sg6
(I1
I35
I156
I1
tp995
sg8
(lp996
(I0
I160
tp997
a(I0
I101
tp998
a(I0
I181
tp999
a(I0
I172
tp1000
a(I5
I196
tp1001
a(I56
I156
tp1002
a(I40
I145
tp1003
a(I44
I176
tp1004
asg26
I200
sba(imain2
Polygon
p1005
(dp1006
g3
(I88
I2
tp1007
sg5
I200
sg6
(I2
I101
I62
I51
tp1008
sg8
(lp1009
(I95
I0
tp1010
a(I115
I0
tp1011
a(I107
I6
tp1012
a(I48
I0
tp1013
a(I79
I0
tp1014
a(I105
I20
tp1015
a(I117
I0
tp1016
a(I82
I0
tp1017
a(I78
I0
tp1018
a(I129
I0
tp1019
a(I90
I52
tp1020
asg26
I200
sba(imain2
Polygon
p1021
(dp1022
g3
(I3
I161
tp1023
sg5
I200
sg6
(I174
I17
I190
I8
tp1024
sg8
(lp1025
(I24
I146
tp1026
a(I0
I200
tp1027
a(I0
I141
tp1028
a(I29
I156
tp1029
a(I0
I194
tp1030
a(I41
I138
tp1031
a(I0
I170
tp1032
a(I0
I168
tp1033
a(I11
I145
tp1034
a(I0
I121
tp1035
a(I0
I114
tp1036
asg26
I200
sba(imain2
Polygon
p1037
(dp1038
g3
(I98
I58
tp1039
sg5
I200
sg6
(I36
I61
I167
I1
tp1040
sg8
(lp1041
(I126
I105
tp1042
a(I54
I55
tp1043
a(I71
I63
tp1044
a(I145
I40
tp1045
a(I74
I104
tp1046
asg26
I200
sba(imain2
Polygon
p1047
(dp1048
g3
(I109
I111
tp1049
sg5
I200
sg6
(I227
I37
I97
I0
tp1050
sg8
(lp1051
(I65
I139
tp1052
a(I96
I159
tp1053
a(I64
I113
tp1054
a(I109
I97
tp1055
a(I112
I80
tp1056
a(I103
I136
tp1057
a(I143
I127
tp1058
a(I124
I122
tp1059
a(I79
I147
tp1060
asg26
I200
sba(imain2
Polygon
p1061
(dp1062
g3
(I83
I155
tp1063
sg5
I200
sg6
(I202
I43
I183
I14
tp1064
sg8
(lp1065
(I81
I142
tp1066
a(I129
I115
tp1067
a(I132
I200
tp1068
a(I58
I195
tp1069
a(I112
I160
tp1070
a(I69
I123
tp1071
a(I50
I153
tp1072
a(I51
I131
tp1073
a(I66
I137
tp1074
a(I131
I190
tp1075
a(I120
I173
tp1076
a(I59
I155
tp1077
a(I114
I149
tp1078
a(I84
I144
tp1079
a(I73
I167
tp1080
a(I102
I105
tp1081
a(I109
I186
tp1082
asg26
I200
sba(imain2
Polygon
p1083
(dp1084
g3
(I81
I21
tp1085
sg5
I200
sg6
(I136
I1
I26
I113
tp1086
sg8
(lp1087
(I69
I0
tp1088
a(I65
I6
tp1089
a(I43
I48
tp1090
a(I90
I0
tp1091
a(I122
I60
tp1092
a(I103
I58
tp1093
a(I63
I3
tp1094
a(I117
I0
tp1095
asg26
I200
sba(imain2
Polygon
p1096
(dp1097
g3
(I77
I115
tp1098
sg5
I200
sg6
(I92
I238
I217
I1
tp1099
sg8
(lp1100
(I99
I164
tp1101
a(I65
I128
tp1102
a(I35
I77
tp1103
a(I101
I94
tp1104
a(I34
I83
tp1105
a(I85
I78
tp1106
a(I76
I143
tp1107
asg26
I200
sba(imain2
Polygon
p1108
(dp1109
g3
(I108
I110
tp1110
sg5
I200
sg6
(I144
I114
I144
I1
tp1111
sg8
(lp1112
(I109
I74
tp1113
a(I154
I119
tp1114
a(I76
I135
tp1115
a(I115
I134
tp1116
a(I153
I68
tp1117
a(I88
I60
tp1118
a(I101
I139
tp1119
a(I80
I113
tp1120
a(I110
I143
tp1121
a(I129
I139
tp1122
a(I124
I94
tp1123
asg26
I200
sba(imain2
Polygon
p1124
(dp1125
g3
(I7
I122
tp1126
sg5
I200
sg6
(I152
I0
I156
I0
tp1127
sg8
(lp1128
(I53
I94
tp1129
a(I0
I122
tp1130
a(I5
I155
tp1131
a(I35
I73
tp1132
a(I0
I113
tp1133
a(I3
I152
tp1134
a(I0
I123
tp1135
a(I0
I77
tp1136
a(I48
I92
tp1137
a(I0
I121
tp1138
a(I0
I165
tp1139
a(I0
I145
tp1140
a(I44
I153
tp1141
a(I0
I145
tp1142
a(I0
I114
tp1143
asg26
I200
sba(imain2
Polygon
p1144
(dp1145
g3
(I105
I20
tp1146
sg5
I200
sg6
(I211
I27
I228
I1
tp1147
sg8
(lp1148
(I124
I25
tp1149
a(I153
I35
tp1150
a(I81
I44
tp1151
a(I100
I10
tp1152
a(I96
I0
tp1153
a(I143
I0
tp1154
asg26
I200
sba(imain2
Polygon
p1155
(dp1156
g3
(I47
I80
tp1157
sg5
I200
sg6
(I108
I47
I113
I21
tp1158
sg8
(lp1159
(I55
I102
tp1160
a(I20
I55
tp1161
a(I24
I107
tp1162
a(I21
I62
tp1163
a(I87
I50
tp1164
a(I35
I42
tp1165
a(I94
I123
tp1166
a(I52
I37
tp1167
a(I38
I43
tp1168
a(I13
I128
tp1169
a(I45
I105
tp1170
a(I40
I86
tp1171
a(I37
I61
tp1172
a(I19
I101
tp1173
a(I19
I59
tp1174
a(I86
I34
tp1175
a(I7
I60
tp1176
a(I68
I74
tp1177
a(I54
I57
tp1178
a(I13
I123
tp1179
asg26
I200
sba(imain2
Polygon
p1180
(dp1181
g3
(I131
I30
tp1182
sg5
I200
sg6
(I203
I122
I169
I0
tp1183
sg8
(lp1184
(I108
I74
tp1185
a(I122
I24
tp1186
a(I162
I8
tp1187
asg26
I200
sba(imain2
Polygon
p1188
(dp1189
g3
(I199
I39
tp1190
sg5
I200
sg6
(I92
I189
I105
I55
tp1191
sg8
(lp1192
(I187
I1
tp1193
a(I150
I0
tp1194
a(I200
I89
tp1195
a(I200
I6
tp1196
a(I178
I0
tp1197
asg26
I200
sba(imain2
Polygon
p1198
(dp1199
g3
(I110
I156
tp1200
sg5
I200
sg6
(I189
I91
I124
I1
tp1201
sg8
(lp1202
(I72
I138
tp1203
a(I138
I163
tp1204
a(I97
I173
tp1205
a(I131
I138
tp1206
a(I116
I137
tp1207
a(I160
I151
tp1208
a(I76
I198
tp1209
a(I123
I125
tp1210
a(I133
I146
tp1211
a(I154
I193
tp1212
a(I76
I200
tp1213
a(I138
I148
tp1214
a(I100
I170
tp1215
a(I108
I174
tp1216
a(I152
I115
tp1217
asg26
I200
sba(imain2
Polygon
p1218
(dp1219
g3
(I14
I89
tp1220
sg5
I200
sg6
(I200
I19
I25
I77
tp1221
sg8
(lp1222
(I0
I70
tp1223
a(I49
I72
tp1224
a(I53
I72
tp1225
a(I55
I44
tp1226
a(I17
I118
tp1227
a(I0
I99
tp1228
a(I5
I50
tp1229
asg26
I200
sba(imain2
Polygon
p1230
(dp1231
g3
(I124
I127
tp1232
sg5
I200
sg6
(I172
I217
I171
I1
tp1233
sg8
(lp1234
(I114
I145
tp1235
a(I129
I138
tp1236
a(I81
I155
tp1237
a(I111
I115
tp1238
a(I147
I96
tp1239
a(I124
I85
tp1240
a(I170
I95
tp1241
a(I135
I124
tp1242
a(I104
I171
tp1243
a(I92
I110
tp1244
a(I133
I80
tp1245
asg26
I200
sba(imain2
Polygon
p1246
(dp1247
g3
(I97
I78
tp1248
sg5
I200
sg6
(I146
I200
I158
I0
tp1249
sg8
(lp1250
(I113
I61
tp1251
a(I62
I103
tp1252
a(I66
I110
tp1253
a(I110
I111
tp1254
a(I135
I109
tp1255
a(I91
I125
tp1256
a(I78
I58
tp1257
a(I97
I51
tp1258
a(I69
I107
tp1259
a(I55
I62
tp1260
a(I54
I111
tp1261
a(I77
I65
tp1262
asg26
I200
sba(imain2
Polygon
p1263
(dp1264
g3
(I71
I43
tp1265
sg5
I200
sg6
(I218
I210
I119
I0
tp1266
sg8
(lp1267
(I107
I87
tp1268
a(I99
I17
tp1269
a(I83
I54
tp1270
a(I84
I79
tp1271
a(I92
I40
tp1272
a(I77
I18
tp1273
a(I50
I41
tp1274
a(I47
I52
tp1275
a(I75
I14
tp1276
asg26
I200
sba(imain2
Polygon
p1277
(dp1278
g3
(I109
I75
tp1279
sg5
I200
sg6
(I108
I161
I66
I127
tp1280
sg8
(lp1281
(I63
I26
tp1282
a(I62
I79
tp1283
a(I120
I76
tp1284
a(I87
I26
tp1285
a(I64
I35
tp1286
a(I71
I69
tp1287
asg26
I200
sba(imain2
Polygon
p1288
(dp1289
g3
(I149
I45
tp1290
sg5
I200
sg6
(I206
I141
I127
I85
tp1291
sg8
(lp1292
(I199
I90
tp1293
a(I165
I70
tp1294
a(I161
I69
tp1295
a(I183
I12
tp1296
a(I128
I0
tp1297
a(I175
I87
tp1298
a(I158
I84
tp1299
a(I187
I0
tp1300
a(I121
I6
tp1301
a(I189
I0
tp1302
a(I130
I0
tp1303
a(I187
I18
tp1304
a(I199
I27
tp1305
asg26
I200
sba(imain2
Polygon
p1306
(dp1307
g3
(I29
I98
tp1308
sg5
I200
sg6
(I6
I134
I169
I40
tp1309
sg8
(lp1310
(I0
I145
tp1311
a(I62
I70
tp1312
a(I0
I73
tp1313
a(I0
I113
tp1314
a(I32
I77
tp1315
a(I40
I82
tp1316
a(I7
I82
tp1317
a(I10
I53
tp1318
a(I60
I84
tp1319
a(I0
I135
tp1320
a(I28
I90
tp1321
a(I31
I80
tp1322
a(I24
I105
tp1323
asg26
I200
sba(imain2
Polygon
p1324
(dp1325
g3
(I90
I62
tp1326
sg5
I200
sg6
(I177
I118
I130
I1
tp1327
sg8
(lp1328
(I97
I26
tp1329
a(I124
I39
tp1330
a(I98
I15
tp1331
a(I61
I49
tp1332
a(I54
I78
tp1333
a(I100
I106
tp1334
a(I119
I28
tp1335
a(I47
I81
tp1336
asg26
I200
sba(imain2
Polygon
p1337
(dp1338
g3
(I63
I49
tp1339
sg5
I200
sg6
(I219
I251
I133
I0
tp1340
sg8
(lp1341
(I75
I83
tp1342
a(I30
I15
tp1343
a(I53
I1
tp1344
a(I93
I34
tp1345
a(I93
I64
tp1346
a(I113
I14
tp1347
a(I69
I24
tp1348
a(I82
I92
tp1349
a(I94
I60
tp1350
a(I24
I58
tp1351
asg26
I200
sba(imain2
Polygon
p1352
(dp1353
g3
(I31
I132
tp1354
sg5
I200
sg6
(I73
I118
I196
I21
tp1355
sg8
(lp1356
(I16
I171
tp1357
a(I35
I167
tp1358
a(I5
I181
tp1359
a(I0
I120
tp1360
a(I30
I175
tp1361
a(I10
I143
tp1362
a(I31
I164
tp1363
a(I70
I85
tp1364
a(I9
I172
tp1365
a(I0
I125
tp1366
a(I0
I146
tp1367
a(I14
I172
tp1368
a(I49
I135
tp1369
a(I69
I92
tp1370
asg26
I200
sba(imain2
Polygon
p1371
(dp1372
g3
(I80
I158
tp1373
sg5
I200
sg6
(I24
I43
I59
I1
tp1374
sg8
(lp1375
(I62
I145
tp1376
a(I86
I150
tp1377
a(I114
I200
tp1378
a(I55
I186
tp1379
a(I94
I151
tp1380
a(I111
I110
tp1381
a(I105
I129
tp1382
a(I74
I194
tp1383
a(I65
I200
tp1384
a(I111
I109
tp1385
a(I64
I184
tp1386
a(I124
I119
tp1387
a(I112
I146
tp1388
a(I47
I154
tp1389
a(I37
I162
tp1390
a(I128
I170
tp1391
a(I82
I200
tp1392
a(I117
I168
tp1393
a(I120
I184
tp1394
a(I52
I182
tp1395
asg26
I200
sba(imain2
Polygon
p1396
(dp1397
g3
(I168
I51
tp1398
sg5
I200
sg6
(I100
I203
I209
I1
tp1399
sg8
(lp1400
(I123
I53
tp1401
a(I174
I19
tp1402
a(I153
I39
tp1403
a(I137
I13
tp1404
a(I119
I61
tp1405
a(I156
I89
tp1406
asg26
I200
sba(imain2
Polygon
p1407
(dp1408
g3
(I110
I14
tp1409
sg5
I200
sg6
(I156
I137
I49
I148
tp1410
sg8
(lp1411
(I118
I49
tp1412
a(I72
I59
tp1413
a(I101
I0
tp1414
a(I156
I0
tp1415
a(I158
I0
tp1416
a(I157
I28
tp1417
a(I144
I28
tp1418
a(I61
I0
tp1419
a(I67
I58
tp1420
a(I105
I0
tp1421
a(I79
I0
tp1422
a(I61
I0
tp1423
a(I77
I25
tp1424
asg26
I200
sba(imain2
Polygon
p1425
(dp1426
g3
(I85
I94
tp1427
sg5
I200
sg6
(I202
I232
I84
I64
tp1428
sg8
(lp1429
(I43
I56
tp1430
a(I110
I104
tp1431
a(I62
I48
tp1432
a(I105
I45
tp1433
a(I125
I73
tp1434
a(I93
I111
tp1435
a(I79
I138
tp1436
a(I109
I144
tp1437
a(I124
I111
tp1438
a(I62
I45
tp1439
a(I45
I66
tp1440
a(I55
I129
tp1441
a(I126
I96
tp1442
asg26
I200
sba(imain2
Polygon
p1443
(dp1444
g3
(I153
I81
tp1445
sg5
I200
sg6
(I122
I86
I190
I0
tp1446
sg8
(lp1447
(I112
I62
tp1448
a(I121
I118
tp1449
a(I150
I46
tp1450
a(I188
I103
tp1451
asg26
I200
sba(imain2
Polygon
p1452
(dp1453
g3
(I146
I37
tp1454
sg5
I200
sg6
(I227
I83
I157
I1
tp1455
sg8
(lp1456
(I166
I5
tp1457
a(I140
I78
tp1458
a(I111
I12
tp1459
a(I106
I32
tp1460
a(I185
I9
tp1461
a(I135
I2
tp1462
a(I101
I19
tp1463
asg26
I200
sba(imain2
Polygon
p1464
(dp1465
g3
(I36
I71
tp1466
sg5
I200
sg6
(I178
I120
I134
I0
tp1467
sg8
(lp1468
(I86
I118
tp1469
a(I15
I104
tp1470
a(I60
I30
tp1471
a(I14
I70
tp1472
a(I0
I81
tp1473
a(I48
I38
tp1474
a(I27
I63
tp1475
a(I13
I40
tp1476
a(I50
I114
tp1477
a(I0
I88
tp1478
a(I61
I117
tp1479
a(I10
I121
tp1480
asg26
I200
sba(imain2
Polygon
p1481
(dp1482
g3
(I36
I181
tp1483
sg5
I200
sg6
(I143
I212
I96
I81
tp1484
sg8
(lp1485
(I78
I149
tp1486
a(I48
I150
tp1487
a(I52
I149
tp1488
a(I81
I147
tp1489
a(I71
I200
tp1490
a(I13
I140
tp1491
a(I43
I172
tp1492
a(I80
I200
tp1493
a(I55
I200
tp1494
a(I66
I188
tp1495
a(I68
I200
tp1496
a(I71
I200
tp1497
asg26
I200
sba(imain2
Polygon
p1498
(dp1499
g3
(I94
I181
tp1500
sg5
I200
sg6
(I112
I50
I36
I1
tp1501
sg8
(lp1502
(I110
I200
tp1503
a(I73
I197
tp1504
a(I108
I160
tp1505
a(I89
I200
tp1506
a(I111
I200
tp1507
a(I130
I200
tp1508
a(I44
I131
tp1509
a(I88
I191
tp1510
a(I122
I170
tp1511
asg26
I200
sba(imain2
Polygon
p1512
(dp1513
g3
(I4
I26
tp1514
sg5
I200
sg6
(I28
I105
I61
I46
tp1515
sg8
(lp1516
(I25
I0
tp1517
a(I25
I0
tp1518
a(I0
I6
tp1519
a(I21
I31
tp1520
a(I0
I38
tp1521
a(I9
I3
tp1522
a(I54
I51
tp1523
a(I32
I59
tp1524
a(I0
I27
tp1525
a(I10
I24
tp1526
a(I17
I0
tp1527
a(I0
I0
tp1528
a(I0
I52
tp1529
a(I0
I38
tp1530
asg26
I200
sba(imain2
Polygon
p1531
(dp1532
g3
(I14
I45
tp1533
sg5
I200
sg6
(I146
I107
I1
I0
tp1534
sg8
(lp1535
(I0
I56
tp1536
a(I0
I0
tp1537
a(I0
I64
tp1538
a(I0
I69
tp1539
a(I26
I76
tp1540
a(I0
I21
tp1541
a(I21
I81
tp1542
a(I8
I81
tp1543
a(I0
I21
tp1544
a(I63
I84
tp1545
asg26
I200
sba(imain2
Polygon
p1546
(dp1547
g3
(I103
I69
tp1548
sg5
I200
sg6
(I231
I218
I1
I42
tp1549
sg8
(lp1550
(I55
I36
tp1551
a(I53
I116
tp1552
a(I127
I84
tp1553
a(I135
I89
tp1554
a(I85
I19
tp1555
asg26
I200
sba(imain2
Polygon
p1556
(dp1557
g3
(I61
I77
tp1558
sg5
I200
sg6
(I60
I121
I192
I131
tp1559
sg8
(lp1560
(I106
I108
tp1561
a(I88
I94
tp1562
a(I89
I87
tp1563
asg26
I200
sba(imain2
Polygon
p1564
(dp1565
g3
(I36
I98
tp1566
sg5
I200
sg6
(I1
I200
I74
I47
tp1567
sg8
(lp1568
(I28
I97
tp1569
a(I4
I90
tp1570
a(I0
I121
tp1571
a(I0
I53
tp1572
a(I80
I75
tp1573
a(I30
I53
tp1574
a(I0
I53
tp1575
a(I18
I50
tp1576
a(I42
I52
tp1577
asg26
I200
sba(imain2
Polygon
p1578
(dp1579
g3
(I20
I133
tp1580
sg5
I200
sg6
(I199
I239
I132
I84
tp1581
sg8
(lp1582
(I30
I179
tp1583
a(I0
I181
tp1584
a(I0
I175
tp1585
a(I21
I139
tp1586
a(I28
I170
tp1587
asg26
I200
sba(imain2
Polygon
p1588
(dp1589
g3
(I178
I74
tp1590
sg5
I200
sg6
(I31
I121
I29
I0
tp1591
sg8
(lp1592
(I198
I80
tp1593
a(I128
I75
tp1594
a(I200
I57
tp1595
a(I161
I83
tp1596
a(I149
I92
tp1597
a(I175
I32
tp1598
a(I176
I34
tp1599
a(I200
I79
tp1600
a(I140
I63
tp1601
asg26
I200
sba(imain2
Polygon
p1602
(dp1603
g3
(I191
I151
tp1604
sg5
I200
sg6
(I239
I39
I77
I67
tp1605
sg8
(lp1606
(I190
I106
tp1607
a(I189
I120
tp1608
a(I175
I104
tp1609
asg26
I200
sba(imain2
Polygon
p1610
(dp1611
g3
(I81
I200
tp1612
sg5
I200
sg6
(I41
I59
I159
I36
tp1613
sg8
(lp1614
(I63
I200
tp1615
a(I33
I187
tp1616
a(I38
I191
tp1617
a(I59
I200
tp1618
a(I46
I200
tp1619
a(I72
I200
tp1620
a(I46
I200
tp1621
a(I62
I200
tp1622
a(I32
I200
tp1623
asg26
I200
sba(imain2
Polygon
p1624
(dp1625
g3
(I8
I200
tp1626
sg5
I200
sg6
(I236
I14
I66
I141
tp1627
sg8
(lp1628
(I0
I200
tp1629
a(I0
I200
tp1630
a(I2
I200
tp1631
a(I41
I200
tp1632
a(I52
I200
tp1633
a(I23
I200
tp1634
a(I0
I200
tp1635
a(I0
I200
tp1636
a(I17
I195
tp1637
a(I0
I200
tp1638
a(I0
I200
tp1639
asg26
I200
sba(imain2
Polygon
p1640
(dp1641
g3
(I12
I187
tp1642
sg5
I200
sg6
(I224
I0
I178
I0
tp1643
sg8
(lp1644
(I46
I200
tp1645
a(I0
I167
tp1646
a(I22
I200
tp1647
a(I0
I174
tp1648
a(I0
I174
tp1649
a(I0
I200
tp1650
a(I0
I190
tp1651
a(I50
I200
tp1652
a(I25
I200
tp1653
a(I13
I200
tp1654
a(I20
I145
tp1655
a(I16
I198
tp1656
asg26
I200
sba(imain2
Polygon
p1657
(dp1658
g3
(I142
I43
tp1659
sg5
I200
sg6
(I50
I78
I163
I11
tp1660
sg8
(lp1661
(I132
I26
tp1662
a(I149
I90
tp1663
a(I148
I68
tp1664
a(I135
I64
tp1665
a(I100
I67
tp1666
a(I136
I59
tp1667
a(I138
I14
tp1668
a(I123
I43
tp1669
a(I106
I40
tp1670
a(I122
I35
tp1671
a(I126
I28
tp1672
a(I138
I19
tp1673
a(I122
I27
tp1674
a(I101
I36
tp1675
asg26
I200
sba(imain2
Polygon
p1676
(dp1677
g3
(I89
I37
tp1678
sg5
I200
sg6
(I1
I104
I197
I82
tp1679
sg8
(lp1680
(I104
I35
tp1681
a(I54
I51
tp1682
a(I55
I50
tp1683
asg26
I200
sba(imain2
Polygon
p1684
(dp1685
g3
(I43
I51
tp1686
sg5
I200
sg6
(I37
I141
I122
I0
tp1687
sg8
(lp1688
(I15
I67
tp1689
a(I36
I91
tp1690
a(I91
I92
tp1691
a(I58
I29
tp1692
a(I39
I44
tp1693
a(I47
I38
tp1694
a(I39
I44
tp1695
a(I62
I59
tp1696
a(I51
I66
tp1697
a(I11
I86
tp1698
a(I47
I50
tp1699
a(I40
I49
tp1700
a(I39
I83
tp1701
a(I88
I11
tp1702
a(I68
I65
tp1703
a(I25
I83
tp1704
a(I19
I83
tp1705
a(I15
I62
tp1706
asg26
I200
sba(imain2
Polygon
p1707
(dp1708
g3
(I23
I143
tp1709
sg5
I200
sg6
(I74
I246
I171
I55
tp1710
sg8
(lp1711
(I0
I144
tp1712
a(I0
I130
tp1713
a(I0
I188
tp1714
a(I29
I191
tp1715
a(I34
I148
tp1716
a(I0
I157
tp1717
a(I0
I133
tp1718
asg26
I200
sba(imain2
Polygon
p1719
(dp1720
g3
(I32
I143
tp1721
sg5
I200
sg6
(I52
I70
I162
I0
tp1722
sg8
(lp1723
(I61
I156
tp1724
a(I32
I159
tp1725
a(I2
I166
tp1726
a(I50
I122
tp1727
a(I0
I105
tp1728
a(I0
I175
tp1729
a(I54
I104
tp1730
a(I68
I151
tp1731
a(I34
I106
tp1732
a(I82
I112
tp1733
a(I39
I126
tp1734
a(I39
I147
tp1735
a(I55
I193
tp1736
a(I45
I108
tp1737
a(I53
I187
tp1738
a(I41
I126
tp1739
asg26
I200
sba(imain2
Polygon
p1740
(dp1741
g3
(I69
I107
tp1742
sg5
I200
sg6
(I160
I229
I0
I17
tp1743
sg8
(lp1744
(I92
I73
tp1745
a(I40
I61
tp1746
a(I48
I101
tp1747
a(I58
I92
tp1748
a(I103
I75
tp1749
a(I57
I154
tp1750
a(I29
I60
tp1751
a(I19
I90
tp1752
a(I93
I154
tp1753
a(I47
I112
tp1754
a(I69
I96
tp1755
a(I113
I129
tp1756
a(I73
I153
tp1757
asg26
I200
sba(imain2
Polygon
p1758
(dp1759
g3
(I172
I111
tp1760
sg5
I200
sg6
(I237
I214
I84
I132
tp1761
sg8
(lp1762
(I162
I84
tp1763
a(I200
I88
tp1764
a(I177
I85
tp1765
asg26
I200
sba(imain2
Polygon
p1766
(dp1767
g3
(I150
I91
tp1768
sg5
I200
sg6
(I8
I242
I87
I47
tp1769
sg8
(lp1770
(I191
I127
tp1771
a(I165
I85
tp1772
a(I174
I90
tp1773
a(I192
I141
tp1774
asg26
I200
sba(imain2
Polygon
p1775
(dp1776
g3
(I135
I188
tp1777
sg5
I200
sg6
(I78
I227
I8
I1
tp1778
sg8
(lp1779
(I161
I187
tp1780
a(I174
I200
tp1781
a(I94
I154
tp1782
a(I97
I156
tp1783
a(I141
I192
tp1784
a(I102
I176
tp1785
a(I87
I200
tp1786
a(I174
I200
tp1787
a(I90
I200
tp1788
a(I124
I200
tp1789
asg26
I200
sba(imain2
Polygon
p1790
(dp1791
g3
(I127
I113
tp1792
sg5
I200
sg6
(I133
I211
I151
I14
tp1793
sg8
(lp1794
(I116
I100
tp1795
a(I148
I82
tp1796
a(I164
I110
tp1797
a(I94
I89
tp1798
asg26
I200
sba(imain2
Polygon
p1799
(dp1800
g3
(I173
I20
tp1801
sg5
I200
sg6
(I231
I0
I218
I1
tp1802
sg8
(lp1803
(I147
I47
tp1804
a(I145
I56
tp1805
a(I171
I46
tp1806
a(I200
I0
tp1807
a(I182
I0
tp1808
a(I147
I0
tp1809
a(I137
I18
tp1810
a(I200
I0
tp1811
a(I189
I36
tp1812
a(I185
I0
tp1813
a(I200
I0
tp1814
a(I174
I41
tp1815
a(I163
I0
tp1816
a(I190
I0
tp1817
a(I186
I12
tp1818
a(I155
I17
tp1819
asg26
I200
sba(imain2
Polygon
p1820
(dp1821
g3
(I100
I197
tp1822
sg5
I200
sg6
(I34
I102
I177
I73
tp1823
sg8
(lp1824
(I99
I200
tp1825
a(I118
I200
tp1826
a(I147
I200
tp1827
a(I104
I151
tp1828
a(I135
I187
tp1829
a(I106
I200
tp1830
a(I137
I200
tp1831
a(I92
I200
tp1832
a(I135
I200
tp1833
a(I85
I200
tp1834
a(I133
I200
tp1835
a(I51
I200
tp1836
a(I55
I200
tp1837
a(I121
I200
tp1838
asg26
I200
sba(imain2
Polygon
p1839
(dp1840
g3
(I70
I0
tp1841
sg5
I200
sg6
(I136
I1
I195
I1
tp1842
sg8
(lp1843
(I62
I0
tp1844
a(I35
I15
tp1845
a(I115
I27
tp1846
a(I33
I15
tp1847
a(I90
I0
tp1848
a(I107
I16
tp1849
a(I44
I0
tp1850
a(I56
I0
tp1851
asg26
I200
sba(imain2
Polygon
p1852
(dp1853
g3
(I106
I152
tp1854
sg5
I200
sg6
(I99
I163
I62
I66
tp1855
sg8
(lp1856
(I133
I114
tp1857
a(I119
I166
tp1858
a(I59
I200
tp1859
a(I140
I199
tp1860
a(I115
I114
tp1861
a(I85
I153
tp1862
a(I124
I140
tp1863
a(I138
I185
tp1864
a(I122
I150
tp1865
a(I68
I141
tp1866
a(I128
I144
tp1867
asg26
I200
sba(imain2
Polygon
p1868
(dp1869
g3
(I11
I38
tp1870
sg5
I200
sg6
(I111
I0
I125
I5
tp1871
sg8
(lp1872
(I61
I76
tp1873
a(I0
I37
tp1874
a(I35
I52
tp1875
a(I0
I12
tp1876
a(I8
I17
tp1877
a(I0
I37
tp1878
a(I47
I24
tp1879
a(I51
I63
tp1880
a(I13
I62
tp1881
a(I53
I84
tp1882
a(I0
I54
tp1883
asg26
I200
sba(imain2
Polygon
p1884
(dp1885
g3
(I23
I68
tp1886
sg5
I200
sg6
(I217
I111
I190
I126
tp1887
sg8
(lp1888
(I35
I109
tp1889
a(I24
I85
tp1890
a(I54
I19
tp1891
a(I25
I33
tp1892
a(I35
I32
tp1893
a(I36
I40
tp1894
a(I0
I19
tp1895
a(I0
I111
tp1896
a(I7
I98
tp1897
a(I38
I112
tp1898
a(I4
I66
tp1899
asg26
I200
sba(imain2
Polygon
p1900
(dp1901
g3
(I73
I8
tp1902
sg5
I200
sg6
(I107
I163
I20
I138
tp1903
sg8
(lp1904
(I33
I0
tp1905
a(I116
I0
tp1906
a(I113
I0
tp1907
a(I27
I56
tp1908
a(I23
I45
tp1909
a(I24
I0
tp1910
a(I84
I33
tp1911
a(I39
I6
tp1912
a(I49
I29
tp1913
a(I58
I40
tp1914
asg26
I200
sba(imain2
Polygon
p1915
(dp1916
g3
(I175
I187
tp1917
sg5
I200
sg6
(I120
I193
I199
I60
tp1918
sg8
(lp1919
(I186
I200
tp1920
a(I170
I200
tp1921
a(I146
I200
tp1922
asg26
I200
sba(imain2
Polygon
p1923
(dp1924
g3
(I153
I195
tp1925
sg5
I200
sg6
(I54
I167
I29
I0
tp1926
sg8
(lp1927
(I154
I200
tp1928
a(I172
I184
tp1929
a(I144
I196
tp1930
a(I167
I153
tp1931
a(I129
I157
tp1932
a(I158
I200
tp1933
a(I192
I184
tp1934
a(I140
I198
tp1935
a(I125
I147
tp1936
asg26
I200
sba(imain2
Polygon
p1937
(dp1938
g3
(I199
I6
tp1939
sg5
I200
sg6
(I144
I41
I87
I1
tp1940
sg8
(lp1941
(I156
I21
tp1942
a(I200
I0
tp1943
a(I200
I0
tp1944
a(I149
I0
tp1945
a(I200
I20
tp1946
a(I200
I0
tp1947
a(I200
I0
tp1948
a(I200
I0
tp1949
asg26
I200
sba(imain2
Polygon
p1950
(dp1951
g3
(I46
I191
tp1952
sg5
I200
sg6
(I91
I16
I8
I121
tp1953
sg8
(lp1954
(I69
I200
tp1955
a(I73
I200
tp1956
a(I94
I165
tp1957
a(I0
I200
tp1958
a(I0
I146
tp1959
a(I27
I155
tp1960
a(I45
I200
tp1961
a(I34
I181
tp1962
a(I35
I167
tp1963
asg26
I200
sba(imain2
Polygon
p1964
(dp1965
g3
(I144
I179
tp1966
sg5
I200
sg6
(I125
I32
I190
I48
tp1967
sg8
(lp1968
(I165
I180
tp1969
a(I161
I152
tp1970
a(I115
I194
tp1971
a(I130
I191
tp1972
a(I133
I187
tp1973
a(I191
I200
tp1974
a(I106
I200
tp1975
a(I113
I200
tp1976
a(I159
I164
tp1977
a(I159
I200
tp1978
a(I164
I155
tp1979
a(I120
I200
tp1980
a(I105
I180
tp1981
a(I154
I153
tp1982
a(I168
I199
tp1983
a(I168
I200
tp1984
asg26
I200
sba(imain2
Polygon
p1985
(dp1986
g3
(I120
I46
tp1987
sg5
I200
sg6
(I83
I82
I102
I58
tp1988
sg8
(lp1989
(I118
I65
tp1990
a(I95
I18
tp1991
a(I126
I24
tp1992
a(I97
I17
tp1993
a(I112
I27
tp1994
a(I132
I30
tp1995
a(I113
I91
tp1996
asg26
I200
sba(imain2
Polygon
p1997
(dp1998
g3
(I100
I144
tp1999
sg5
I200
sg6
(I123
I184
I166
I121
tp2000
sg8
(lp2001
(I112
I95
tp2002
a(I104
I138
tp2003
a(I98
I126
tp2004
a(I74
I100
tp2005
a(I78
I118
tp2006
a(I83
I152
tp2007
a(I125
I151
tp2008
a(I68
I158
tp2009
a(I56
I110
tp2010
asg26
I200
sba(imain2
Polygon
p2011
(dp2012
g3
(I151
I184
tp2013
sg5
I200
sg6
(I139
I1
I175
I4
tp2014
sg8
(lp2015
(I190
I200
tp2016
a(I185
I183
tp2017
a(I169
I169
tp2018
a(I122
I200
tp2019
a(I133
I135
tp2020
asg26
I200
sba(imain2
Polygon
p2021
(dp2022
g3
(I124
I187
tp2023
sg5
I200
sg6
(I26
I27
I211
I0
tp2024
sg8
(lp2025
(I154
I200
tp2026
a(I164
I200
tp2027
a(I90
I200
tp2028
a(I140
I200
tp2029
a(I119
I200
tp2030
a(I80
I200
tp2031
a(I143
I154
tp2032
asg26
I200
sba(imain2
Polygon
p2033
(dp2034
g3
(I48
I52
tp2035
sg5
I200
sg6
(I247
I132
I163
I141
tp2036
sg8
(lp2037
(I58
I94
tp2038
a(I79
I94
tp2039
a(I97
I60
tp2040
a(I67
I7
tp2041
a(I35
I65
tp2042
a(I31
I93
tp2043
a(I88
I8
tp2044
a(I0
I3
tp2045
a(I0
I82
tp2046
a(I2
I102
tp2047
a(I65
I76
tp2048
a(I18
I85
tp2049
a(I75
I83
tp2050
asg26
I200
sba(imain2
Polygon
p2051
(dp2052
g3
(I139
I74
tp2053
sg5
I200
sg6
(I152
I190
I238
I92
tp2054
sg8
(lp2055
(I174
I48
tp2056
a(I189
I47
tp2057
a(I185
I26
tp2058
a(I157
I30
tp2059
a(I169
I88
tp2060
a(I187
I48
tp2061
asg26
I200
sba(imain2
Polygon
p2062
(dp2063
g3
(I161
I83
tp2064
sg5
I200
sg6
(I203
I149
I103
I31
tp2065
sg8
(lp2066
(I114
I113
tp2067
a(I114
I49
tp2068
a(I178
I77
tp2069
a(I185
I60
tp2070
a(I155
I98
tp2071
a(I177
I113
tp2072
a(I199
I106
tp2073
a(I139
I45
tp2074
a(I200
I106
tp2075
a(I200
I49
tp2076
a(I140
I35
tp2077
a(I197
I72
tp2078
a(I120
I118
tp2079
a(I199
I71
tp2080
a(I145
I53
tp2081
a(I124
I126
tp2082
asg26
I200
sba(imain2
Polygon
p2083
(dp2084
g3
(I88
I36
tp2085
sg5
I200
sg6
(I1
I31
I72
I117
tp2086
sg8
(lp2087
(I82
I0
tp2088
a(I49
I39
tp2089
a(I102
I37
tp2090
a(I120
I27
tp2091
a(I125
I14
tp2092
a(I135
I16
tp2093
a(I71
I9
tp2094
a(I42
I13
tp2095
a(I58
I13
tp2096
asg26
I200
sba(imain2
Polygon
p2097
(dp2098
g3
(I12
I36
tp2099
sg5
I200
sg6
(I169
I102
I213
I0
tp2100
sg8
(lp2101
(I0
I57
tp2102
a(I4
I56
tp2103
a(I30
I24
tp2104
a(I39
I56
tp2105
a(I50
I5
tp2106
a(I9
I54
tp2107
asg26
I200
sba(imain2
Polygon
p2108
(dp2109
g3
(I79
I176
tp2110
sg5
I200
sg6
(I199
I84
I173
I102
tp2111
sg8
(lp2112
(I129
I200
tp2113
a(I119
I162
tp2114
a(I69
I200
tp2115
a(I128
I200
tp2116
a(I113
I200
tp2117
asg26
I200
sba(imain2
Polygon
p2118
(dp2119
g3
(I159
I193
tp2120
sg5
I200
sg6
(I189
I174
I62
I1
tp2121
sg8
(lp2122
(I200
I175
tp2123
a(I156
I151
tp2124
a(I179
I191
tp2125
a(I200
I161
tp2126
a(I200
I200
tp2127
a(I200
I196
tp2128
a(I192
I188
tp2129
a(I140
I155
tp2130
a(I129
I169
tp2131
a(I129
I200
tp2132
a(I176
I178
tp2133
a(I110
I181
tp2134
asg26
I200
sba(imain2
Polygon
p2135
(dp2136
g3
(I52
I197
tp2137
sg5
I200
sg6
(I164
I148
I230
I1
tp2138
sg8
(lp2139
(I30
I200
tp2140
a(I60
I200
tp2141
a(I29
I200
tp2142
a(I49
I200
tp2143
a(I14
I199
tp2144
a(I22
I181
tp2145
a(I37
I200
tp2146
asg26
I200
sba(imain2
Polygon
p2147
(dp2148
g3
(I96
I168
tp2149
sg5
I200
sg6
(I83
I155
I165
I0
tp2150
sg8
(lp2151
(I105
I151
tp2152
a(I128
I200
tp2153
a(I100
I180
tp2154
a(I123
I200
tp2155
a(I94
I172
tp2156
a(I116
I141
tp2157
a(I145
I191
tp2158
asg26
I200
sba(imain2
Polygon
p2159
(dp2160
g3
(I148
I67
tp2161
sg5
I200
sg6
(I211
I29
I21
I0
tp2162
sg8
(lp2163
(I174
I47
tp2164
a(I110
I44
tp2165
a(I120
I55
tp2166
a(I156
I36
tp2167
a(I164
I58
tp2168
a(I105
I34
tp2169
a(I166
I61
tp2170
a(I165
I74
tp2171
a(I102
I67
tp2172
a(I186
I84
tp2173
a(I106
I33
tp2174
a(I191
I88
tp2175
a(I173
I104
tp2176
asg26
I200
sba(imain2
Polygon
p2177
(dp2178
g3
(I185
I29
tp2179
sg5
I200
sg6
(I139
I164
I77
I84
tp2180
sg8
(lp2181
(I136
I0
tp2182
a(I199
I0
tp2183
a(I200
I25
tp2184
a(I174
I43
tp2185
a(I138
I31
tp2186
asg26
I200
sba(imain2
Polygon
p2187
(dp2188
g3
(I77
I185
tp2189
sg5
I200
sg6
(I28
I25
I97
I106
tp2190
sg8
(lp2191
(I61
I200
tp2192
a(I63
I154
tp2193
a(I39
I143
tp2194
a(I124
I169
tp2195
a(I40
I180
tp2196
a(I42
I200
tp2197
a(I35
I180
tp2198
a(I81
I200
tp2199
a(I64
I192
tp2200
a(I49
I200
tp2201
asg26
I200
sba(imain2
Polygon
p2202
(dp2203
g3
(I183
I173
tp2204
sg5
I200
sg6
(I108
I215
I89
I49
tp2205
sg8
(lp2206
(I200
I200
tp2207
a(I175
I200
tp2208
a(I200
I200
tp2209
a(I200
I125
tp2210
a(I137
I200
tp2211
asg26
I200
sba(imain2
Polygon
p2212
(dp2213
g3
(I141
I78
tp2214
sg5
I200
sg6
(I232
I87
I167
I1
tp2215
sg8
(lp2216
(I99
I101
tp2217
a(I170
I93
tp2218
a(I134
I66
tp2219
a(I172
I128
tp2220
a(I113
I54
tp2221
a(I182
I84
tp2222
a(I156
I78
tp2223
a(I120
I98
tp2224
a(I177
I35
tp2225
asg26
I200
sba(imain2
Polygon
p2226
(dp2227
g3
(I8
I10
tp2228
sg5
I200
sg6
(I62
I43
I74
I111
tp2229
sg8
(lp2230
(I0
I5
tp2231
a(I0
I0
tp2232
a(I30
I6
tp2233
a(I32
I6
tp2234
a(I0
I0
tp2235
a(I0
I0
tp2236
asg26
I200
sba(imain2
Polygon
p2237
(dp2238
g3
(I37
I13
tp2239
sg5
I200
sg6
(I1
I115
I18
I124
tp2240
sg8
(lp2241
(I36
I0
tp2242
a(I16
I0
tp2243
a(I17
I0
tp2244
a(I19
I8
tp2245
a(I0
I0
tp2246
a(I47
I12
tp2247
a(I37
I0
tp2248
a(I2
I12
tp2249
a(I28
I0
tp2250
a(I38
I0
tp2251
a(I23
I13
tp2252
asg26
I200
sba(imain2
Polygon
p2253
(dp2254
g3
(I168
I175
tp2255
sg5
I200
sg6
(I97
I55
I24
I4
tp2256
sg8
(lp2257
(I152
I200
tp2258
a(I120
I181
tp2259
a(I146
I200
tp2260
a(I136
I167
tp2261
a(I200
I200
tp2262
a(I193
I183
tp2263
a(I142
I174
tp2264
a(I170
I133
tp2265
a(I163
I144
tp2266
a(I122
I174
tp2267
asg26
I200
sba(imain2
Polygon
p2268
(dp2269
g3
(I75
I83
tp2270
sg5
I200
sg6
(I27
I33
I20
I0
tp2271
sg8
(lp2272
(I114
I59
tp2273
a(I50
I113
tp2274
a(I120
I50
tp2275
a(I37
I102
tp2276
a(I36
I53
tp2277
a(I51
I69
tp2278
a(I64
I50
tp2279
a(I51
I61
tp2280
a(I106
I101
tp2281
a(I115
I36
tp2282
a(I101
I82
tp2283
a(I34
I44
tp2284
a(I53
I122
tp2285
a(I42
I130
tp2286
asg26
I200
sba(imain2
Polygon
p2287
(dp2288
g3
(I18
I79
tp2289
sg5
I200
sg6
(I81
I1
I176
I117
tp2290
sg8
(lp2291
(I61
I110
tp2292
a(I51
I115
tp2293
a(I44
I52
tp2294
a(I43
I101
tp2295
a(I25
I110
tp2296
a(I12
I123
tp2297
a(I0
I103
tp2298
a(I0
I117
tp2299
a(I39
I119
tp2300
asg26
I200
sba(imain2
Polygon
p2301
(dp2302
g3
(I27
I28
tp2303
sg5
I200
sg6
(I222
I145
I40
I1
tp2304
sg8
(lp2305
(I50
I74
tp2306
a(I58
I68
tp2307
a(I0
I0
tp2308
a(I26
I37
tp2309
a(I32
I0
tp2310
a(I0
I0
tp2311
a(I19
I2
tp2312
a(I9
I62
tp2313
a(I0
I42
tp2314
a(I0
I23
tp2315
a(I49
I6
tp2316
a(I68
I73
tp2317
a(I16
I76
tp2318
asg26
I200
sba(imain2
Polygon
p2319
(dp2320
g3
(I85
I60
tp2321
sg5
I200
sg6
(I84
I115
I12
I111
tp2322
sg8
(lp2323
(I115
I60
tp2324
a(I134
I87
tp2325
a(I55
I107
tp2326
a(I36
I62
tp2327
a(I72
I90
tp2328
a(I131
I73
tp2329
a(I117
I52
tp2330
a(I123
I32
tp2331
asg26
I200
sba(imain2
Polygon
p2332
(dp2333
g3
(I45
I110
tp2334
sg5
I200
sg6
(I42
I242
I179
I57
tp2335
sg8
(lp2336
(I68
I158
tp2337
a(I45
I112
tp2338
a(I72
I109
tp2339
asg26
I200
sba(imain2
Polygon
p2340
(dp2341
g3
(I54
I138
tp2342
sg5
I200
sg6
(I117
I64
I186
I1
tp2343
sg8
(lp2344
(I41
I139
tp2345
a(I99
I90
tp2346
a(I21
I111
tp2347
a(I88
I174
tp2348
a(I91
I117
tp2349
a(I77
I110
tp2350
a(I14
I186
tp2351
a(I72
I137
tp2352
a(I101
I147
tp2353
asg26
I200
sba(imain2
Polygon
p2354
(dp2355
g3
(I162
I123
tp2356
sg5
I200
sg6
(I46
I60
I73
I18
tp2357
sg8
(lp2358
(I175
I164
tp2359
a(I153
I85
tp2360
a(I200
I137
tp2361
a(I200
I144
tp2362
a(I125
I137
tp2363
a(I200
I106
tp2364
a(I180
I124
tp2365
a(I188
I77
tp2366
a(I123
I93
tp2367
a(I158
I73
tp2368
a(I184
I95
tp2369
a(I158
I164
tp2370
a(I116
I146
tp2371
a(I156
I80
tp2372
a(I161
I109
tp2373
a(I197
I100
tp2374
a(I154
I106
tp2375
a(I171
I82
tp2376
a(I125
I109
tp2377
asg26
I200
sba(imain2
Polygon
p2378
(dp2379
g3
(I144
I70
tp2380
sg5
I200
sg6
(I194
I40
I118
I42
tp2381
sg8
(lp2382
(I149
I30
tp2383
a(I169
I95
tp2384
a(I168
I100
tp2385
asg26
I200
sba(imain2
Polygon
p2386
(dp2387
g3
(I11
I36
tp2388
sg5
I200
sg6
(I146
I33
I79
I32
tp2389
sg8
(lp2390
(I0
I24
tp2391
a(I32
I31
tp2392
a(I0
I45
tp2393
a(I0
I0
tp2394
a(I0
I0
tp2395
a(I0
I57
tp2396
a(I0
I47
tp2397
a(I29
I0
tp2398
a(I0
I35
tp2399
a(I1
I41
tp2400
asg26
I200
sba(imain2
Polygon
p2401
(dp2402
g3
(I85
I175
tp2403
sg5
I200
sg6
(I240
I53
I44
I2
tp2404
sg8
(lp2405
(I122
I200
tp2406
a(I89
I168
tp2407
a(I112
I137
tp2408
a(I129
I200
tp2409
a(I108
I186
tp2410
a(I42
I200
tp2411
a(I66
I189
tp2412
a(I114
I192
tp2413
a(I100
I188
tp2414
a(I63
I200
tp2415
a(I91
I200
tp2416
a(I109
I150
tp2417
a(I61
I131
tp2418
a(I89
I176
tp2419
a(I80
I162
tp2420
a(I116
I200
tp2421
asg26
I200
sba(imain2
Polygon
p2422
(dp2423
g3
(I78
I22
tp2424
sg5
I200
sg6
(I0
I239
I66
I0
tp2425
sg8
(lp2426
(I80
I54
tp2427
a(I86
I25
tp2428
a(I74
I10
tp2429
a(I109
I0
tp2430
a(I112
I49
tp2431
a(I70
I29
tp2432
a(I90
I30
tp2433
a(I80
I0
tp2434
a(I127
I21
tp2435
a(I97
I0
tp2436
a(I97
I0
tp2437
asg26
I200
sba(imain2
Polygon
p2438
(dp2439
g3
(I58
I165
tp2440
sg5
I200
sg6
(I74
I1
I135
I96
tp2441
sg8
(lp2442
(I40
I160
tp2443
a(I19
I159
tp2444
a(I46
I164
tp2445
a(I43
I143
tp2446
asg26
I200
sba(imain2
Polygon
p2447
(dp2448
g3
(I98
I69
tp2449
sg5
I200
sg6
(I73
I214
I127
I39
tp2450
sg8
(lp2451
(I111
I113
tp2452
a(I126
I99
tp2453
a(I78
I90
tp2454
asg26
I200
sba(imain2
Polygon
p2455
(dp2456
g3
(I184
I193
tp2457
sg5
I200
sg6
(I18
I63
I70
I0
tp2458
sg8
(lp2459
(I197
I200
tp2460
a(I185
I200
tp2461
a(I200
I163
tp2462
a(I200
I200
tp2463
a(I159
I167
tp2464
a(I159
I200
tp2465
asg26
I200
sba(imain2
Polygon
p2466
(dp2467
g3
(I136
I181
tp2468
sg5
I200
sg6
(I120
I127
I190
I0
tp2469
sg8
(lp2470
(I148
I200
tp2471
a(I87
I180
tp2472
a(I129
I164
tp2473
a(I115
I142
tp2474
a(I116
I139
tp2475
a(I177
I146
tp2476
a(I127
I139
tp2477
a(I178
I200
tp2478
asg26
I200
sba(imain2
Polygon
p2479
(dp2480
g3
(I65
I69
tp2481
sg5
I200
sg6
(I101
I92
I153
I14
tp2482
sg8
(lp2483
(I24
I101
tp2484
a(I42
I83
tp2485
a(I89
I104
tp2486
a(I37
I106
tp2487
a(I63
I93
tp2488
a(I24
I110
tp2489
a(I37
I81
tp2490
a(I73
I48
tp2491
asg26
I200
sba(imain2
Polygon
p2492
(dp2493
g3
(I146
I60
tp2494
sg5
I200
sg6
(I1
I2
I200
I0
tp2495
sg8
(lp2496
(I167
I55
tp2497
a(I165
I71
tp2498
a(I126
I28
tp2499
a(I193
I89
tp2500
a(I176
I95
tp2501
asg26
I200
sba(imain2
Polygon
p2502
(dp2503
g3
(I7
I191
tp2504
sg5
I200
sg6
(I0
I165
I63
I0
tp2505
sg8
(lp2506
(I14
I198
tp2507
a(I53
I198
tp2508
a(I35
I200
tp2509
a(I0
I200
tp2510
a(I37
I200
tp2511
a(I0
I200
tp2512
a(I0
I195
tp2513
a(I56
I177
tp2514
a(I0
I187
tp2515
a(I0
I180
tp2516
asg26
I200
sba(imain2
Polygon
p2517
(dp2518
g3
(I177
I12
tp2519
sg5
I200
sg6
(I0
I128
I138
I1
tp2520
sg8
(lp2521
(I179
I47
tp2522
a(I200
I31
tp2523
a(I131
I0
tp2524
a(I173
I62
tp2525
a(I181
I36
tp2526
a(I200
I50
tp2527
a(I148
I56
tp2528
a(I198
I11
tp2529
a(I200
I4
tp2530
asg26
I200
sba(imain2
Polygon
p2531
(dp2532
g3
(I98
I60
tp2533
sg5
I200
sg6
(I143
I36
I48
I0
tp2534
sg8
(lp2535
(I87
I83
tp2536
a(I57
I39
tp2537
a(I138
I25
tp2538
a(I80
I91
tp2539
a(I61
I79
tp2540
a(I147
I11
tp2541
a(I125
I68
tp2542
a(I120
I18
tp2543
asg26
I200
sba(imain2
Polygon
p2544
(dp2545
g3
(I26
I121
tp2546
sg5
I200
sg6
(I19
I114
I3
I91
tp2547
sg8
(lp2548
(I5
I167
tp2549
a(I39
I85
tp2550
a(I0
I101
tp2551
a(I0
I166
tp2552
a(I30
I111
tp2553
a(I14
I135
tp2554
a(I45
I83
tp2555
a(I52
I113
tp2556
a(I0
I157
tp2557
a(I37
I137
tp2558
asg26
I200
sba(imain2
Polygon
p2559
(dp2560
g3
(I59
I10
tp2561
sg5
I200
sg6
(I179
I55
I106
I134
tp2562
sg8
(lp2563
(I13
I0
tp2564
a(I70
I0
tp2565
a(I73
I6
tp2566
a(I69
I0
tp2567
a(I109
I0
tp2568
a(I63
I23
tp2569
a(I10
I0
tp2570
a(I17
I23
tp2571
asg26
I200
sba(imain2
Polygon
p2572
(dp2573
g3
(I171
I141
tp2574
sg5
I200
sg6
(I37
I196
I138
I5
tp2575
sg8
(lp2576
(I200
I170
tp2577
a(I145
I150
tp2578
a(I175
I116
tp2579
a(I198
I129
tp2580
a(I159
I188
tp2581
a(I190
I148
tp2582
a(I187
I97
tp2583
asg26
I200
sba(imain2
Polygon
p2584
(dp2585
g3
(I80
I143
tp2586
sg5
I200
sg6
(I73
I75
I11
I118
tp2587
sg8
(lp2588
(I106
I144
tp2589
a(I70
I145
tp2590
a(I93
I192
tp2591
a(I130
I187
tp2592
a(I107
I140
tp2593
a(I69
I128
tp2594
a(I62
I133
tp2595
a(I71
I170
tp2596
a(I89
I141
tp2597
a(I111
I114
tp2598
a(I86
I147
tp2599
asg26
I200
sba(imain2
Polygon
p2600
(dp2601
g3
(I191
I199
tp2602
sg5
I200
sg6
(I0
I224
I24
I0
tp2603
sg8
(lp2604
(I200
I185
tp2605
a(I156
I200
tp2606
a(I150
I150
tp2607
a(I191
I200
tp2608
a(I151
I170
tp2609
a(I200
I200
tp2610
a(I148
I149
tp2611
a(I141
I160
tp2612
asg26
I200
sba(imain2
Polygon
p2613
(dp2614
g3
(I6
I112
tp2615
sg5
I200
sg6
(I132
I70
I129
I68
tp2616
sg8
(lp2617
(I0
I137
tp2618
a(I0
I140
tp2619
a(I25
I84
tp2620
a(I0
I123
tp2621
a(I0
I106
tp2622
a(I0
I161
tp2623
a(I15
I79
tp2624
asg26
I200
sba(imain2
Polygon
p2625
(dp2626
g3
(I189
I37
tp2627
sg5
I200
sg6
(I31
I238
I163
I58
tp2628
sg8
(lp2629
(I200
I41
tp2630
a(I177
I46
tp2631
a(I200
I40
tp2632
a(I199
I1
tp2633
asg26
I200
sba(imain2
Polygon
p2634
(dp2635
g3
(I121
I50
tp2636
sg5
I200
sg6
(I5
I72
I0
I1
tp2637
sg8
(lp2638
(I94
I28
tp2639
a(I142
I7
tp2640
a(I160
I54
tp2641
asg26
I200
sba(imain2
Polygon
p2642
(dp2643
g3
(I58
I165
tp2644
sg5
I200
sg6
(I143
I99
I2
I0
tp2645
sg8
(lp2646
(I53
I140
tp2647
a(I36
I158
tp2648
a(I59
I187
tp2649
a(I95
I181
tp2650
a(I97
I177
tp2651
a(I50
I165
tp2652
a(I17
I134
tp2653
a(I99
I183
tp2654
a(I88
I129
tp2655
a(I56
I151
tp2656
a(I33
I161
tp2657
asg26
I200
sba(imain2
Polygon
p2658
(dp2659
g3
(I155
I38
tp2660
sg5
I200
sg6
(I100
I108
I236
I100
tp2661
sg8
(lp2662
(I160
I2
tp2663
a(I162
I13
tp2664
a(I165
I27
tp2665
asg26
I200
sba(imain2
Polygon
p2666
(dp2667
g3
(I80
I130
tp2668
sg5
I200
sg6
(I224
I90
I0
I123
tp2669
sg8
(lp2670
(I90
I107
tp2671
a(I38
I91
tp2672
a(I127
I91
tp2673
a(I86
I180
tp2674
a(I90
I97
tp2675
a(I42
I107
tp2676
a(I57
I140
tp2677
a(I81
I161
tp2678
a(I95
I173
tp2679
a(I77
I124
tp2680
a(I91
I85
tp2681
a(I88
I146
tp2682
asg26
I200
sba(imain2
Polygon
p2683
(dp2684
g3
(I182
I31
tp2685
sg5
I200
sg6
(I112
I85
I112
I0
tp2686
sg8
(lp2687
(I200
I3
tp2688
a(I198
I51
tp2689
a(I135
I9
tp2690
a(I195
I0
tp2691
a(I164
I0
tp2692
a(I200
I47
tp2693
a(I151
I81
tp2694
a(I200
I11
tp2695
a(I190
I40
tp2696
a(I200
I13
tp2697
a(I191
I0
tp2698
a(I187
I0
tp2699
a(I200
I15
tp2700
a(I143
I33
tp2701
a(I195
I67
tp2702
a(I196
I17
tp2703
a(I192
I0
tp2704
a(I200
I72
tp2705
a(I171
I0
tp2706
a(I190
I38
tp2707
a(I200
I28
tp2708
asg26
I200
sba(imain2
Polygon
p2709
(dp2710
g3
(I164
I132
tp2711
sg5
I200
sg6
(I50
I69
I1
I1
tp2712
sg8
(lp2713
(I162
I178
tp2714
a(I168
I181
tp2715
a(I125
I177
tp2716
a(I158
I139
tp2717
a(I146
I102
tp2718
a(I128
I98
tp2719
a(I144
I129
tp2720
a(I181
I85
tp2721
a(I127
I166
tp2722
a(I122
I127
tp2723
a(I152
I121
tp2724
a(I122
I170
tp2725
a(I184
I174
tp2726
a(I165
I119
tp2727
asg26
I200
sba(imain2
Polygon
p2728
(dp2729
g3
(I67
I123
tp2730
sg5
I200
sg6
(I203
I169
I128
I74
tp2731
sg8
(lp2732
(I114
I101
tp2733
a(I112
I148
tp2734
a(I65
I154
tp2735
a(I43
I93
tp2736
a(I96
I92
tp2737
a(I107
I100
tp2738
a(I49
I107
tp2739
a(I115
I104
tp2740
a(I46
I107
tp2741
a(I101
I102
tp2742
asg26
I200
sba(imain2
Polygon
p2743
(dp2744
g3
(I139
I46
tp2745
sg5
I200
sg6
(I2
I111
I83
I82
tp2746
sg8
(lp2747
(I185
I84
tp2748
a(I137
I74
tp2749
a(I164
I79
tp2750
asg26
I200
sba(imain2
Polygon
p2751
(dp2752
g3
(I137
I13
tp2753
sg5
I200
sg6
(I203
I131
I222
I5
tp2754
sg8
(lp2755
(I165
I0
tp2756
a(I179
I43
tp2757
a(I165
I55
tp2758
a(I117
I0
tp2759
a(I139
I19
tp2760
a(I157
I0
tp2761
a(I100
I0
tp2762
a(I88
I17
tp2763
a(I160
I57
tp2764
a(I126
I14
tp2765
asg26
I200
sba(imain2
Polygon
p2766
(dp2767
g3
(I72
I81
tp2768
sg5
I200
sg6
(I239
I109
I82
I0
tp2769
sg8
(lp2770
(I113
I53
tp2771
a(I48
I109
tp2772
a(I26
I64
tp2773
a(I41
I126
tp2774
a(I50
I126
tp2775
a(I81
I126
tp2776
a(I72
I104
tp2777
a(I63
I131
tp2778
asg26
I200
sba(imain2
Polygon
p2779
(dp2780
g3
(I24
I70
tp2781
sg5
I200
sg6
(I6
I225
I10
I14
tp2782
sg8
(lp2783
(I37
I25
tp2784
a(I72
I32
tp2785
a(I2
I21
tp2786
a(I0
I105
tp2787
a(I15
I106
tp2788
a(I0
I94
tp2789
a(I52
I117
tp2790
a(I46
I40
tp2791
a(I22
I27
tp2792
asg26
I200
sba(imain2
Polygon
p2793
(dp2794
g3
(I144
I200
tp2795
sg5
I200
sg6
(I123
I88
I11
I1
tp2796
sg8
(lp2797
(I150
I159
tp2798
a(I188
I200
tp2799
a(I107
I168
tp2800
a(I185
I200
tp2801
a(I183
I167
tp2802
a(I157
I158
tp2803
a(I147
I151
tp2804
a(I181
I194
tp2805
a(I186
I200
tp2806
a(I129
I178
tp2807
a(I168
I183
tp2808
a(I124
I200
tp2809
a(I174
I196
tp2810
a(I117
I165
tp2811
a(I105
I200
tp2812
a(I162
I183
tp2813
a(I175
I200
tp2814
a(I114
I189
tp2815
a(I145
I200
tp2816
a(I142
I200
tp2817
asg26
I200
sba(imain2
Polygon
p2818
(dp2819
g3
(I63
I64
tp2820
sg5
I200
sg6
(I193
I193
I45
I4
tp2821
sg8
(lp2822
(I100
I49
tp2823
a(I18
I106
tp2824
a(I18
I45
tp2825
a(I97
I38
tp2826
a(I97
I107
tp2827
a(I35
I89
tp2828
asg26
I200
sba(imain2
Polygon
p2829
(dp2830
g3
(I87
I65
tp2831
sg5
I200
sg6
(I217
I57
I100
I0
tp2832
sg8
(lp2833
(I54
I64
tp2834
a(I52
I99
tp2835
a(I86
I83
tp2836
a(I86
I89
tp2837
a(I77
I94
tp2838
a(I137
I35
tp2839
a(I46
I106
tp2840
a(I75
I94
tp2841
a(I103
I111
tp2842
a(I96
I80
tp2843
asg26
I200
sba(imain2
Polygon
p2844
(dp2845
g3
(I110
I191
tp2846
sg5
I200
sg6
(I162
I198
I225
I1
tp2847
sg8
(lp2848
(I150
I191
tp2849
a(I98
I178
tp2850
a(I157
I152
tp2851
a(I83
I180
tp2852
a(I85
I161
tp2853
a(I111
I200
tp2854
a(I78
I200
tp2855
a(I151
I182
tp2856
a(I118
I200
tp2857
a(I62
I200
tp2858
asg26
I200
sba(imain2
Polygon
p2859
(dp2860
g3
(I108
I110
tp2861
sg5
I200
sg6
(I99
I179
I165
I1
tp2862
sg8
(lp2863
(I101
I127
tp2864
a(I104
I96
tp2865
a(I75
I84
tp2866
a(I112
I93
tp2867
a(I76
I126
tp2868
a(I100
I157
tp2869
asg26
I200
sba(imain2
Polygon
p2870
(dp2871
g3
(I112
I52
tp2872
sg5
I200
sg6
(I81
I201
I81
I104
tp2873
sg8
(lp2874
(I158
I54
tp2875
a(I118
I63
tp2876
a(I149
I58
tp2877
asg26
I200
sba.