(lp0
(imain2
Polygon
p1
(dp2
S'origin'
p3
(I39
I29
tp4
sS'h'
p5
I200
sS'color'
p6
(I193
I23
I138
I73
tp7
sS'corner_list'
p8
(lp9
(I0
I0
tp10
a(I33
I71
tp11
a(I71
I41
tp12
a(I83
I36
tp13
a(I71
I0
tp14
a(I11
I74
tp15
a(I0
I33
tp16
a(I70
I7
tp17
a(I0
I37
tp18
a(I83
I19
tp19
a(I17
I62
tp20
a(I4
I54
tp21
a(I0
I33
tp22
a(I60
I37
tp23
a(I39
I30
tp24
a(I64
I0
tp25
asS'w'
p26
I200
sba(imain2
Polygon
p27
(dp28
g3
(I66
I177
tp29
sg5
I200
sg6
(I138
I54
I47
I24
tp30
sg8
(lp31
(I77
I143
tp32
a(I77
I165
tp33
a(I111
I200
tp34
a(I34
I200
tp35
a(I30
I166
tp36
a(I17
I179
tp37
a(I44
I200
tp38
a(I77
I200
tp39
asg26
I200
sba(imain2
Polygon
p40
(dp41
g3
(I59
I53
tp42
sg5
I200
sg6
(I109
I42
I107
I137
tp43
sg8
(lp44
(I106
I10
tp45
a(I26
I102
tp46
a(I9
I53
tp47
a(I89
I14
tp48
a(I41
I9
tp49
a(I45
I35
tp50
a(I40
I72
tp51
a(I32
I51
tp52
a(I38
I88
tp53
a(I97
I87
tp54
a(I109
I84
tp55
a(I91
I22
tp56
a(I92
I46
tp57
a(I76
I61
tp58
a(I103
I97
tp59
a(I50
I59
tp60
a(I53
I45
tp61
a(I58
I40
tp62
asg26
I200
sba(imain2
Polygon
p63
(dp64
g3
(I79
I99
tp65
sg5
I200
sg6
(I71
I89
I67
I85
tp66
sg8
(lp67
(I115
I133
tp68
a(I98
I98
tp69
a(I76
I117
tp70
a(I76
I74
tp71
a(I35
I63
tp72
a(I123
I57
tp73
a(I114
I125
tp74
a(I63
I146
tp75
asg26
I200
sba(imain2
Polygon
p76
(dp77
g3
(I200
I83
tp78
sg5
I200
sg6
(I165
I228
I63
I5
tp79
sg8
(lp80
(I200
I58
tp81
a(I172
I56
tp82
a(I200
I37
tp83
a(I178
I101
tp84
a(I200
I128
tp85
asg26
I200
sba(imain2
Polygon
p86
(dp87
g3
(I48
I136
tp88
sg5
I200
sg6
(I104
I110
I143
I52
tp89
sg8
(lp90
(I82
I141
tp91
a(I87
I127
tp92
a(I94
I141
tp93
a(I43
I102
tp94
a(I5
I168
tp95
a(I60
I171
tp96
a(I89
I93
tp97
a(I16
I112
tp98
a(I78
I105
tp99
a(I86
I178
tp100
a(I47
I126
tp101
a(I46
I109
tp102
a(I2
I151
tp103
a(I64
I175
tp104
a(I58
I161
tp105
a(I45
I165
tp106
a(I87
I144
tp107
a(I84
I97
tp108
a(I79
I93
tp109
a(I69
I164
tp110
a(I78
I145
tp111
asg26
I200
sba(imain2
Polygon
p112
(dp113
g3
(I118
I72
tp114
sg5
I200
sg6
(I132
I137
I59
I46
tp115
sg8
(lp116
(I99
I82
tp117
a(I118
I81
tp118
a(I118
I115
tp119
a(I126
I57
tp120
a(I89
I36
tp121
a(I68
I93
tp122
a(I104
I108
tp123
a(I97
I43
tp124
a(I109
I71
tp125
asg26
I200
sba(imain2
Polygon
p126
(dp127
g3
(I75
I194
tp128
sg5
I200
sg6
(I210
I85
I104
I4
tp129
sg8
(lp130
(I38
I200
tp131
a(I81
I145
tp132
a(I100
I167
tp133
a(I64
I200
tp134
a(I92
I188
tp135
a(I72
I157
tp136
asg26
I200
sba(imain2
Polygon
p137
(dp138
g3
(I7
I180
tp139
sg5
I200
sg6
(I232
I33
I1
I0
tp140
sg8
(lp141
(I24
I177
tp142
a(I0
I200
tp143
a(I0
I200
tp144
a(I8
I136
tp145
a(I0
I192
tp146
a(I41
I140
tp147
a(I15
I200
tp148
a(I0
I200
tp149
a(I0
I163
tp150
a(I0
I188
tp151
a(I0
I161
tp152
a(I47
I179
tp153
a(I15
I137
tp154
asg26
I200
sba(imain2
Polygon
p155
(dp156
g3
(I200
I5
tp157
sg5
I200
sg6
(I172
I75
I111
I27
tp158
sg8
(lp159
(I200
I28
tp160
a(I200
I0
tp161
a(I172
I0
tp162
a(I179
I0
tp163
a(I155
I28
tp164
a(I180
I0
tp165
a(I200
I7
tp166
a(I200
I45
tp167
a(I155
I15
tp168
a(I200
I0
tp169
asg26
I200
sba(imain2
Polygon
p170
(dp171
g3
(I180
I27
tp172
sg5
I200
sg6
(I104
I110
I153
I0
tp173
sg8
(lp174
(I200
I66
tp175
a(I200
I0
tp176
a(I183
I1
tp177
a(I162
I29
tp178
a(I186
I32
tp179
a(I200
I4
tp180
a(I138
I4
tp181
a(I147
I0
tp182
a(I160
I38
tp183
a(I160
I34
tp184
a(I150
I0
tp185
a(I169
I65
tp186
a(I145
I15
tp187
a(I200
I67
tp188
a(I161
I58
tp189
a(I179
I0
tp190
asg26
I200
sba(imain2
Polygon
p191
(dp192
g3
(I59
I197
tp193
sg5
I200
sg6
(I80
I205
I135
I125
tp194
sg8
(lp195
(I98
I200
tp196
a(I93
I157
tp197
a(I71
I197
tp198
a(I54
I200
tp199
a(I24
I200
tp200
asg26
I200
sba(imain2
Polygon
p201
(dp202
g3
(I129
I124
tp203
sg5
I200
sg6
(I169
I187
I95
I57
tp204
sg8
(lp205
(I122
I123
tp206
a(I92
I168
tp207
a(I130
I89
tp208
a(I111
I89
tp209
a(I104
I118
tp210
a(I88
I150
tp211
a(I119
I138
tp212
a(I82
I90
tp213
asg26
I200
sba(imain2
Polygon
p214
(dp215
g3
(I107
I2
tp216
sg5
I200
sg6
(I47
I1
I159
I104
tp217
sg8
(lp218
(I83
I0
tp219
a(I107
I0
tp220
a(I97
I0
tp221
a(I134
I0
tp222
a(I134
I0
tp223
a(I106
I7
tp224
a(I142
I27
tp225
a(I156
I2
tp226
asg26
I200
sba(imain2
Polygon
p227
(dp228
g3
(I25
I107
tp229
sg5
I200
sg6
(I102
I25
I168
I1
tp230
sg8
(lp231
(I30
I146
tp232
a(I12
I69
tp233
a(I72
I82
tp234
a(I0
I68
tp235
a(I47
I76
tp236
a(I63
I86
tp237
a(I32
I154
tp238
a(I47
I83
tp239
a(I56
I62
tp240
a(I0
I59
tp241
a(I3
I58
tp242
a(I0
I103
tp243
a(I9
I75
tp244
a(I69
I74
tp245
a(I7
I57
tp246
a(I52
I137
tp247
asg26
I200
sba(imain2
Polygon
p248
(dp249
g3
(I194
I197
tp250
sg5
I200
sg6
(I7
I195
I62
I84
tp251
sg8
(lp252
(I200
I171
tp253
a(I200
I200
tp254
a(I200
I180
tp255
asg26
I200
sba(imain2
Polygon
p256
(dp257
g3
(I8
I2
tp258
sg5
I200
sg6
(I204
I193
I217
I1
tp259
sg8
(lp260
(I20
I0
tp261
a(I36
I0
tp262
a(I25
I20
tp263
a(I8
I0
tp264
a(I0
I0
tp265
a(I0
I0
tp266
a(I9
I17
tp267
a(I52
I0
tp268
a(I0
I45
tp269
a(I20
I0
tp270
a(I55
I0
tp271
a(I0
I0
tp272
asg26
I200
sba(imain2
Polygon
p273
(dp274
g3
(I171
I144
tp275
sg5
I200
sg6
(I109
I155
I184
I0
tp276
sg8
(lp277
(I178
I114
tp278
a(I126
I156
tp279
a(I200
I110
tp280
a(I132
I120
tp281
a(I176
I147
tp282
a(I178
I125
tp283
a(I126
I121
tp284
a(I145
I130
tp285
asg26
I200
sba(imain2
Polygon
p286
(dp287
g3
(I44
I42
tp288
sg5
I200
sg6
(I77
I126
I71
I0
tp289
sg8
(lp290
(I29
I80
tp291
a(I41
I39
tp292
a(I91
I0
tp293
a(I69
I42
tp294
a(I86
I82
tp295
a(I79
I69
tp296
asg26
I200
sba(imain2
Polygon
p297
(dp298
g3
(I26
I99
tp299
sg5
I200
sg6
(I166
I96
I166
I66
tp300
sg8
(lp301
(I56
I57
tp302
a(I54
I125
tp303
a(I69
I134
tp304
a(I72
I53
tp305
asg26
I200
sba(imain2
Polygon
p306
(dp307
g3
(I114
I46
tp308
sg5
I200
sg6
(I95
I192
I193
I0
tp309
sg8
(lp310
(I79
I0
tp311
a(I126
I34
tp312
a(I145
I56
tp313
a(I90
I66
tp314
a(I111
I68
tp315
a(I104
I20
tp316
asg26
I200
sba(imain2
Polygon
p317
(dp318
g3
(I68
I194
tp319
sg5
I200
sg6
(I85
I192
I148
I0
tp320
sg8
(lp321
(I73
I200
tp322
a(I52
I200
tp323
a(I30
I194
tp324
a(I65
I200
tp325
a(I57
I192
tp326
asg26
I200
sba(imain2
Polygon
p327
(dp328
g3
(I200
I53
tp329
sg5
I200
sg6
(I178
I181
I163
I1
tp330
sg8
(lp331
(I183
I79
tp332
a(I152
I41
tp333
a(I200
I14
tp334
asg26
I200
sba(imain2
Polygon
p335
(dp336
g3
(I172
I155
tp337
sg5
I200
sg6
(I197
I75
I240
I1
tp338
sg8
(lp339
(I156
I193
tp340
a(I186
I112
tp341
a(I159
I155
tp342
a(I152
I194
tp343
a(I177
I157
tp344
a(I158
I120
tp345
a(I138
I123
tp346
a(I137
I184
tp347
a(I166
I121
tp348
a(I154
I196
tp349
a(I139
I154
tp350
a(I197
I144
tp351
a(I200
I146
tp352
asg26
I200
sba(imain2
Polygon
p353
(dp354
g3
(I154
I159
tp355
sg5
I200
sg6
(I52
I205
I31
I0
tp356
sg8
(lp357
(I150
I131
tp358
a(I122
I109
tp359
a(I164
I130
tp360
a(I127
I131
tp361
a(I176
I190
tp362
a(I120
I145
tp363
a(I141
I167
tp364
a(I171
I135
tp365
a(I128
I200
tp366
a(I160
I110
tp367
a(I159
I171
tp368
a(I147
I168
tp369
asg26
I200
sba(imain2
Polygon
p370
(dp371
g3
(I55
I59
tp372
sg5
I200
sg6
(I72
I192
I200
I1
tp373
sg8
(lp374
(I35
I56
tp375
a(I83
I49
tp376
a(I85
I40
tp377
a(I55
I88
tp378
a(I19
I68
tp379
a(I22
I16
tp380
a(I82
I44
tp381
a(I47
I28
tp382
a(I66
I10
tp383
a(I103
I76
tp384
a(I60
I9
tp385
a(I31
I25
tp386
a(I10
I22
tp387
a(I103
I88
tp388
a(I56
I13
tp389
a(I89
I41
tp390
a(I21
I16
tp391
a(I7
I61
tp392
a(I17
I70
tp393
a(I12
I21
tp394
asg26
I200
sba(imain2
Polygon
p395
(dp396
g3
(I127
I147
tp397
sg5
I200
sg6
(I45
I65
I112
I88
tp398
sg8
(lp399
(I109
I194
tp400
a(I79
I101
tp401
a(I97
I160
tp402
a(I161
I191
tp403
asg26
I200
sba(imain2
Polygon
p404
(dp405
g3
(I123
I114
tp406
sg5
I200
sg6
(I115
I0
I5
I0
tp407
sg8
(lp408
(I118
I78
tp409
a(I162
I88
tp410
a(I167
I90
tp411
a(I86
I139
tp412
a(I118
I115
tp413
a(I102
I142
tp414
a(I161
I129
tp415
asg26
I200
sba(imain2
Polygon
p416
(dp417
g3
(I2
I51
tp418
sg5
I200
sg6
(I121
I137
I221
I1
tp419
sg8
(lp420
(I0
I85
tp421
a(I0
I10
tp422
a(I0
I4
tp423
a(I0
I44
tp424
a(I0
I4
tp425
a(I0
I20
tp426
a(I0
I87
tp427
a(I0
I75
tp428
a(I30
I19
tp429
a(I15
I75
tp430
asg26
I200
sba(imain2
Polygon
p431
(dp432
g3
(I166
I21
tp433
sg5
I200
sg6
(I210
I244
I213
I77
tp434
sg8
(lp435
(I200
I0
tp436
a(I200
I59
tp437
a(I169
I70
tp438
a(I131
I0
tp439
a(I153
I0
tp440
a(I131
I6
tp441
a(I135
I0
tp442
a(I200
I0
tp443
a(I178
I26
tp444
asg26
I200
sba(imain2
Polygon
p445
(dp446
g3
(I110
I91
tp447
sg5
I200
sg6
(I126
I32
I28
I0
tp448
sg8
(lp449
(I78
I111
tp450
a(I70
I70
tp451
a(I80
I118
tp452
a(I153
I89
tp453
a(I111
I63
tp454
a(I81
I95
tp455
a(I68
I96
tp456
a(I128
I95
tp457
a(I109
I100
tp458
a(I147
I46
tp459
a(I94
I93
tp460
a(I75
I65
tp461
a(I150
I136
tp462
a(I130
I41
tp463
a(I144
I139
tp464
a(I92
I48
tp465
a(I110
I82
tp466
a(I63
I55
tp467
a(I134
I101
tp468
asg26
I200
sba(imain2
Polygon
p469
(dp470
g3
(I148
I41
tp471
sg5
I200
sg6
(I156
I1
I204
I1
tp472
sg8
(lp473
(I103
I13
tp474
a(I127
I19
tp475
a(I192
I6
tp476
a(I147
I69
tp477
a(I130
I54
tp478
a(I155
I13
tp479
a(I138
I62
tp480
a(I160
I9
tp481
a(I110
I80
tp482
a(I103
I84
tp483
a(I145
I24
tp484
a(I114
I14
tp485
a(I153
I30
tp486
a(I135
I21
tp487
a(I149
I41
tp488
asg26
I200
sba(imain2
Polygon
p489
(dp490
g3
(I188
I159
tp491
sg5
I200
sg6
(I160
I68
I63
I1
tp492
sg8
(lp493
(I153
I158
tp494
a(I164
I115
tp495
a(I200
I197
tp496
a(I200
I137
tp497
a(I158
I121
tp498
a(I200
I111
tp499
a(I156
I170
tp500
asg26
I200
sba(imain2
Polygon
p501
(dp502
g3
(I55
I106
tp503
sg5
I200
sg6
(I54
I89
I39
I1
tp504
sg8
(lp505
(I91
I89
tp506
a(I104
I93
tp507
a(I82
I142
tp508
a(I83
I88
tp509
a(I12
I98
tp510
a(I46
I114
tp511
a(I99
I105
tp512
a(I7
I154
tp513
a(I75
I126
tp514
a(I31
I130
tp515
a(I92
I93
tp516
asg26
I200
sba(imain2
Polygon
p517
(dp518
g3
(I118
I64
tp519
sg5
I200
sg6
(I127
I36
I2
I0
tp520
sg8
(lp521
(I68
I113
tp522
a(I91
I27
tp523
a(I149
I49
tp524
a(I125
I37
tp525
a(I149
I42
tp526
a(I146
I16
tp527
a(I100
I81
tp528
a(I89
I110
tp529
a(I160
I97
tp530
a(I88
I20
tp531
a(I123
I23
tp532
a(I105
I36
tp533
a(I92
I32
tp534
asg26
I200
sba(imain2
Polygon
p535
(dp536
g3
(I101
I127
tp537
sg5
I200
sg6
(I83
I171
I94
I64
tp538
sg8
(lp539
(I82
I132
tp540
a(I60
I130
tp541
a(I83
I154
tp542
a(I132
I81
tp543
a(I63
I110
tp544
a(I62
I133
tp545
asg26
I200
sba(imain2
Polygon
p546
(dp547
g3
(I42
I89
tp548
sg5
I200
sg6
(I16
I90
I177
I0
tp549
sg8
(lp550
(I82
I88
tp551
a(I53
I58
tp552
a(I79
I129
tp553
a(I78
I95
tp554
a(I15
I128
tp555
a(I61
I62
tp556
a(I0
I131
tp557
a(I29
I107
tp558
a(I53
I130
tp559
a(I0
I79
tp560
asg26
I200
sba(imain2
Polygon
p561
(dp562
g3
(I71
I151
tp563
sg5
I200
sg6
(I150
I167
I219
I123
tp564
sg8
(lp565
(I59
I125
tp566
a(I74
I126
tp567
a(I115
I198
tp568
a(I68
I200
tp569
a(I91
I177
tp570
a(I121
I195
tp571
asg26
I200
sba(imain2
Polygon
p572
(dp573
g3
(I13
I141
tp574
sg5
I200
sg6
(I242
I1
I193
I0
tp575
sg8
(lp576
(I0
I134
tp577
a(I0
I181
tp578
a(I0
I119
tp579
a(I28
I147
tp580
a(I53
I153
tp581
a(I7
I133
tp582
a(I0
I112
tp583
a(I30
I173
tp584
a(I38
I142
tp585
a(I47
I102
tp586
a(I52
I124
tp587
a(I0
I110
tp588
asg26
I200
sba(imain2
Polygon
p589
(dp590
g3
(I37
I11
tp591
sg5
I200
sg6
(I113
I18
I9
I86
tp592
sg8
(lp593
(I77
I0
tp594
a(I0
I56
tp595
a(I11
I53
tp596
a(I6
I0
tp597
a(I3
I0
tp598
a(I70
I6
tp599
a(I61
I0
tp600
asg26
I200
sba(imain2
Polygon
p601
(dp602
g3
(I97
I114
tp603
sg5
I200
sg6
(I144
I9
I201
I68
tp604
sg8
(lp605
(I62
I140
tp606
a(I86
I149
tp607
a(I121
I97
tp608
a(I126
I64
tp609
a(I62
I77
tp610
a(I73
I100
tp611
a(I48
I82
tp612
a(I75
I158
tp613
a(I100
I154
tp614
a(I115
I101
tp615
a(I51
I65
tp616
a(I84
I72
tp617
a(I76
I71
tp618
a(I110
I85
tp619
a(I80
I151
tp620
a(I113
I101
tp621
a(I64
I125
tp622
a(I85
I64
tp623
a(I57
I142
tp624
asg26
I200
sba(imain2
Polygon
p625
(dp626
g3
(I77
I12
tp627
sg5
I200
sg6
(I100
I0
I195
I1
tp628
sg8
(lp629
(I97
I0
tp630
a(I85
I0
tp631
a(I42
I0
tp632
a(I46
I41
tp633
a(I50
I51
tp634
a(I77
I25
tp635
a(I69
I0
tp636
a(I47
I40
tp637
a(I51
I42
tp638
asg26
I200
sba(imain2
Polygon
p639
(dp640
g3
(I114
I16
tp641
sg5
I200
sg6
(I1
I99
I176
I137
tp642
sg8
(lp643
(I159
I40
tp644
a(I151
I0
tp645
a(I71
I2
tp646
a(I142
I23
tp647
a(I160
I13
tp648
a(I130
I13
tp649
asg26
I200
sba(imain2
Polygon
p650
(dp651
g3
(I150
I10
tp652
sg5
I200
sg6
(I109
I56
I223
I147
tp653
sg8
(lp654
(I119
I0
tp655
a(I175
I1
tp656
a(I149
I0
tp657
a(I182
I0
tp658
a(I129
I11
tp659
a(I119
I18
tp660
a(I101
I0
tp661
a(I137
I0
tp662
a(I174
I0
tp663
a(I185
I0
tp664
a(I150
I0
tp665
asg26
I200
sba(imain2
Polygon
p666
(dp667
g3
(I41
I10
tp668
sg5
I200
sg6
(I112
I202
I83
I0
tp669
sg8
(lp670
(I28
I17
tp671
a(I23
I53
tp672
a(I0
I4
tp673
a(I72
I21
tp674
a(I30
I0
tp675
a(I60
I0
tp676
asg26
I200
sba(imain2
Polygon
p677
(dp678
g3
(I174
I159
tp679
sg5
I200
sg6
(I168
I106
I84
I87
tp680
sg8
(lp681
(I200
I125
tp682
a(I200
I200
tp683
a(I184
I191
tp684
a(I168
I116
tp685
a(I200
I121
tp686
a(I200
I173
tp687
a(I200
I119
tp688
asg26
I200
sba(imain2
Polygon
p689
(dp690
g3
(I61
I97
tp691
sg5
I200
sg6
(I123
I32
I105
I82
tp692
sg8
(lp693
(I51
I61
tp694
a(I94
I137
tp695
a(I64
I49
tp696
a(I103
I82
tp697
a(I64
I94
tp698
a(I102
I53
tp699
a(I108
I74
tp700
a(I96
I125
tp701
a(I52
I115
tp702
asg26
I200
sba(imain2
Polygon
p703
(dp704
g3
(I180
I97
tp705
sg5
I200
sg6
(I158
I154
I197
I1
tp706
sg8
(lp707
(I200
I88
tp708
a(I200
I108
tp709
a(I196
I110
tp710
a(I172
I65
tp711
a(I200
I145
tp712
a(I196
I133
tp713
a(I181
I70
tp714
a(I200
I63
tp715
asg26
I200
sba(imain2
Polygon
p716
(dp717
g3
(I101
I122
tp718
sg5
I200
sg6
(I163
I83
I1
I60
tp719
sg8
(lp720
(I87
I91
tp721
a(I111
I157
tp722
a(I106
I130
tp723
a(I93
I147
tp724
a(I118
I155
tp725
a(I125
I80
tp726
a(I61
I152
tp727
a(I86
I102
tp728
a(I147
I140
tp729
a(I58
I84
tp730
a(I77
I77
tp731
a(I124
I77
tp732
asg26
I200
sba(imain2
Polygon
p733
(dp734
g3
(I131
I15
tp735
sg5
I200
sg6
(I56
I126
I126
I1
tp736
sg8
(lp737
(I154
I0
tp738
a(I140
I8
tp739
a(I140
I30
tp740
a(I179
I62
tp741
a(I91
I0
tp742
a(I107
I43
tp743
a(I95
I0
tp744
a(I81
I62
tp745
a(I134
I55
tp746
a(I91
I0
tp747
a(I102
I0
tp748
asg26
I200
sba(imain2
Polygon
p749
(dp750
g3
(I113
I24
tp751
sg5
I200
sg6
(I147
I239
I0
I0
tp752
sg8
(lp753
(I163
I0
tp754
a(I88
I27
tp755
a(I105
I13
tp756
a(I123
I70
tp757
a(I125
I3
tp758
a(I115
I8
tp759
a(I117
I66
tp760
a(I110
I46
tp761
a(I138
I18
tp762
a(I122
I0
tp763
a(I77
I58
tp764
a(I110
I0
tp765
a(I163
I41
tp766
asg26
I200
sba(imain2
Polygon
p767
(dp768
g3
(I15
I21
tp769
sg5
I200
sg6
(I42
I40
I25
I0
tp770
sg8
(lp771
(I8
I18
tp772
a(I31
I13
tp773
a(I59
I59
tp774
a(I51
I26
tp775
a(I46
I6
tp776
a(I46
I37
tp777
a(I2
I0
tp778
a(I15
I36
tp779
asg26
I200
sba(imain2
Polygon
p780
(dp781
g3
(I75
I18
tp782
sg5
I200
sg6
(I118
I124
I38
I137
tp783
sg8
(lp784
(I98
I0
tp785
a(I82
I30
tp786
a(I76
I17
tp787
a(I90
I0
tp788
a(I60
I0
tp789
a(I29
I0
tp790
a(I70
I49
tp791
a(I31
I0
tp792
a(I64
I30
tp793
a(I69
I0
tp794
a(I26
I62
tp795
a(I118
I0
tp796
a(I123
I13
tp797
a(I25
I19
tp798
a(I53
I67
tp799
a(I111
I64
tp800
a(I124
I63
tp801
a(I72
I12
tp802
a(I104
I7
tp803
a(I73
I11
tp804
a(I30
I38
tp805
asg26
I200
sba(imain2
Polygon
p806
(dp807
g3
(I147
I31
tp808
sg5
I200
sg6
(I240
I1
I220
I133
tp809
sg8
(lp810
(I189
I0
tp811
a(I196
I42
tp812
a(I180
I38
tp813
a(I168
I65
tp814
a(I153
I34
tp815
a(I193
I77
tp816
a(I187
I24
tp817
a(I176
I51
tp818
a(I126
I17
tp819
a(I97
I10
tp820
a(I130
I0
tp821
asg26
I200
sba(imain2
Polygon
p822
(dp823
g3
(I43
I128
tp824
sg5
I200
sg6
(I89
I21
I103
I113
tp825
sg8
(lp826
(I6
I108
tp827
a(I0
I99
tp828
a(I41
I87
tp829
a(I15
I103
tp830
a(I5
I162
tp831
a(I19
I96
tp832
a(I5
I149
tp833
asg26
I200
sba(imain2
Polygon
p834
(dp835
g3
(I191
I52
tp836
sg5
I200
sg6
(I139
I139
I97
I1
tp837
sg8
(lp838
(I200
I4
tp839
a(I200
I26
tp840
a(I179
I57
tp841
a(I160
I85
tp842
a(I200
I9
tp843
a(I187
I56
tp844
a(I151
I8
tp845
a(I186
I45
tp846
a(I162
I13
tp847
asg26
I200
sba(imain2
Polygon
p848
(dp849
g3
(I124
I96
tp850
sg5
I200
sg6
(I220
I84
I120
I1
tp851
sg8
(lp852
(I156
I93
tp853
a(I142
I107
tp854
a(I106
I89
tp855
a(I140
I135
tp856
a(I100
I144
tp857
a(I91
I110
tp858
a(I138
I110
tp859
a(I109
I135
tp860
a(I87
I114
tp861
a(I81
I129
tp862
a(I124
I144
tp863
asg26
I200
sba(imain2
Polygon
p864
(dp865
g3
(I14
I107
tp866
sg5
I200
sg6
(I54
I1
I216
I119
tp867
sg8
(lp868
(I0
I120
tp869
a(I0
I102
tp870
a(I6
I81
tp871
a(I0
I109
tp872
asg26
I200
sba(imain2
Polygon
p873
(dp874
g3
(I84
I159
tp875
sg5
I200
sg6
(I49
I11
I192
I0
tp876
sg8
(lp877
(I84
I140
tp878
a(I90
I134
tp879
a(I51
I133
tp880
a(I113
I185
tp881
a(I101
I200
tp882
a(I63
I158
tp883
a(I83
I136
tp884
a(I64
I172
tp885
a(I99
I119
tp886
asg26
I200
sba(imain2
Polygon
p887
(dp888
g3
(I141
I115
tp889
sg5
I200
sg6
(I236
I170
I168
I1
tp890
sg8
(lp891
(I180
I117
tp892
a(I152
I78
tp893
a(I126
I104
tp894
asg26
I200
sba(imain2
Polygon
p895
(dp896
g3
(I199
I78
tp897
sg5
I200
sg6
(I204
I200
I82
I119
tp898
sg8
(lp899
(I151
I34
tp900
a(I153
I30
tp901
a(I200
I28
tp902
a(I200
I125
tp903
a(I164
I113
tp904
a(I175
I100
tp905
a(I171
I79
tp906
asg26
I200
sba(imain2
Polygon
p907
(dp908
g3
(I167
I90
tp909
sg5
I200
sg6
(I33
I185
I28
I39
tp910
sg8
(lp911
(I200
I91
tp912
a(I200
I99
tp913
a(I182
I102
tp914
a(I200
I110
tp915
a(I155
I50
tp916
asg26
I200
sba(imain2
Polygon
p917
(dp918
g3
(I17
I14
tp919
sg5
I200
sg6
(I1
I7
I90
I17
tp920
sg8
(lp921
(I37
I26
tp922
a(I58
I8
tp923
a(I30
I27
tp924
a(I0
I8
tp925
a(I21
I0
tp926
a(I0
I0
tp927
a(I0
I17
tp928
a(I0
I29
tp929
a(I0
I0
tp930
a(I54
I3
tp931
a(I0
I50
tp932
a(I44
I1
tp933
a(I0
I2
tp934
a(I8
I0
tp935
a(I17
I0
tp936
asg26
I200
sba(imain2
Polygon
p937
(dp938
g3
(I190
I180
tp939
sg5
I200
sg6
(I224
I101
I46
I0
tp940
sg8
(lp941
(I197
I149
tp942
a(I156
I200
tp943
a(I200
I200
tp944
a(I176
I200
tp945
a(I181
I178
tp946
asg26
I200
sba(imain2
Polygon
p947
(dp948
g3
(I70
I166
tp949
sg5
I200
sg6
(I105
I177
I0
I1
tp950
sg8
(lp951
(I106
I200
tp952
a(I112
I200
tp953
a(I84
I188
tp954
a(I77
I128
tp955
a(I36
I127
tp956
a(I82
I200
tp957
a(I90
I195
tp958
a(I43
I137
tp959
a(I52
I183
tp960
asg26
I200
sba(imain2
Polygon
p961
(dp962
g3
(I196
I185
tp963
sg5
I200
sg6
(I17
I155
I128
I0
tp964
sg8
(lp965
(I200
I166
tp966
a(I200
I163
tp967
a(I150
I141
tp968
a(I200
I200
tp969
a(I151
I200
tp970
a(I150
I137
tp971
asg26
I200
sba(imain2
Polygon
p972
(dp973
g3
(I48
I123
tp974
sg5
I200
sg6
(I164
I42
I15
I87
tp975
sg8
(lp976
(I8
I113
tp977
a(I8
I127
tp978
a(I0
I97
tp979
a(I22
I76
tp980
a(I46
I104
tp981
a(I58
I146
tp982
a(I89
I76
tp983
a(I9
I121
tp984
a(I27
I162
tp985
a(I11
I146
tp986
asg26
I200
sba(imain2
Polygon
p987
(dp988
g3
(I59
I97
tp989
sg5
I200
sg6
(I202
I47
I125
I17
tp990
sg8
(lp991
(I70
I135
tp992
a(I85
I54
tp993
a(I108
I117
tp994
a(I58
I140
tp995
a(I44
I80
tp996
a(I78
I137
tp997
a(I67
I65
tp998
a(I101
I127
tp999
a(I108
I130
tp1000
a(I56
I68
tp1001
asg26
I200
sba(imain2
Polygon
p1002
(dp1003
g3
(I17
I149
tp1004
sg5
I200
sg6
(I0
I35
I154
I0
tp1005
sg8
(lp1006
(I26
I188
tp1007
a(I0
I184
tp1008
a(I40
I138
tp1009
a(I0
I172
tp1010
a(I5
I196
tp1011
a(I0
I129
tp1012
a(I0
I171
tp1013
a(I44
I176
tp1014
asg26
I200
sba(imain2
Polygon
p1015
(dp1016
g3
(I88
I2
tp1017
sg5
I200
sg6
(I2
I101
I60
I42
tp1018
sg8
(lp1019
(I95
I0
tp1020
a(I76
I0
tp1021
a(I122
I0
tp1022
a(I48
I0
tp1023
a(I105
I20
tp1024
a(I82
I0
tp1025
a(I78
I0
tp1026
a(I55
I0
tp1027
a(I113
I12
tp1028
asg26
I200
sba(imain2
Polygon
p1029
(dp1030
g3
(I3
I161
tp1031
sg5
I200
sg6
(I174
I17
I188
I0
tp1032
sg8
(lp1033
(I46
I119
tp1034
a(I0
I169
tp1035
a(I0
I141
tp1036
a(I0
I194
tp1037
a(I0
I158
tp1038
a(I0
I163
tp1039
a(I0
I168
tp1040
a(I11
I145
tp1041
a(I0
I121
tp1042
a(I0
I200
tp1043
asg26
I200
sba(imain2
Polygon
p1044
(dp1045
g3
(I98
I58
tp1046
sg5
I200
sg6
(I36
I61
I167
I1
tp1047
sg8
(lp1048
(I126
I105
tp1049
a(I54
I55
tp1050
a(I145
I40
tp1051
a(I74
I104
tp1052
a(I52
I73
tp1053
asg26
I200
sba(imain2
Polygon
p1054
(dp1055
g3
(I109
I111
tp1056
sg5
I200
sg6
(I226
I35
I97
I1
tp1057
sg8
(lp1058
(I91
I100
tp1059
a(I96
I159
tp1060
a(I64
I113
tp1061
a(I109
I97
tp1062
a(I60
I145
tp1063
a(I103
I136
tp1064
a(I122
I76
tp1065
a(I83
I82
tp1066
a(I126
I115
tp1067
asg26
I200
sba(imain2
Polygon
p1068
(dp1069
g3
(I83
I155
tp1070
sg5
I200
sg6
(I201
I41
I179
I6
tp1071
sg8
(lp1072
(I67
I145
tp1073
a(I129
I115
tp1074
a(I132
I200
tp1075
a(I58
I195
tp1076
a(I112
I160
tp1077
a(I60
I111
tp1078
a(I50
I153
tp1079
a(I51
I131
tp1080
a(I87
I167
tp1081
a(I49
I160
tp1082
a(I78
I123
tp1083
a(I116
I131
tp1084
a(I76
I160
tp1085
a(I84
I144
tp1086
a(I33
I118
tp1087
a(I69
I148
tp1088
a(I112
I109
tp1089
a(I43
I119
tp1090
asg26
I200
sba(imain2
Polygon
p1091
(dp1092
g3
(I81
I21
tp1093
sg5
I200
sg6
(I136
I0
I24
I98
tp1094
sg8
(lp1095
(I65
I6
tp1096
a(I110
I0
tp1097
a(I90
I0
tp1098
a(I122
I60
tp1099
a(I103
I58
tp1100
a(I63
I3
tp1101
a(I117
I0
tp1102
a(I80
I0
tp1103
asg26
I200
sba(imain2
Polygon
p1104
(dp1105
g3
(I77
I115
tp1106
sg5
I200
sg6
(I90
I235
I217
I1
tp1107
sg8
(lp1108
(I39
I74
tp1109
a(I45
I102
tp1110
a(I59
I149
tp1111
a(I81
I144
tp1112
a(I32
I139
tp1113
a(I85
I78
tp1114
a(I126
I153
tp1115
a(I34
I138
tp1116
asg26
I200
sba(imain2
Polygon
p1117
(dp1118
g3
(I108
I110
tp1119
sg5
I200
sg6
(I141
I114
I143
I1
tp1120
sg8
(lp1121
(I128
I152
tp1122
a(I143
I78
tp1123
a(I76
I135
tp1124
a(I129
I123
tp1125
a(I153
I68
tp1126
a(I129
I106
tp1127
a(I101
I139
tp1128
a(I68
I108
tp1129
a(I110
I143
tp1130
a(I109
I107
tp1131
a(I113
I121
tp1132
asg26
I200
sba(imain2
Polygon
p1133
(dp1134
g3
(I7
I122
tp1135
sg5
I200
sg6
(I150
I1
I155
I0
tp1136
sg8
(lp1137
(I1
I75
tp1138
a(I26
I136
tp1139
a(I40
I82
tp1140
a(I0
I168
tp1141
a(I15
I147
tp1142
a(I47
I143
tp1143
a(I0
I123
tp1144
a(I0
I77
tp1145
a(I48
I92
tp1146
a(I46
I97
tp1147
a(I15
I79
tp1148
a(I0
I145
tp1149
a(I0
I160
tp1150
a(I6
I142
tp1151
a(I24
I123
tp1152
a(I23
I87
tp1153
asg26
I200
sba(imain2
Polygon
p1154
(dp1155
g3
(I105
I20
tp1156
sg5
I200
sg6
(I211
I24
I227
I0
tp1157
sg8
(lp1158
(I124
I25
tp1159
a(I73
I0
tp1160
a(I81
I44
tp1161
a(I66
I0
tp1162
a(I138
I42
tp1163
a(I57
I22
tp1164
a(I142
I57
tp1165
asg26
I200
sba(imain2
Polygon
p1166
(dp1167
g3
(I47
I80
tp1168
sg5
I200
sg6
(I105
I46
I113
I8
tp1169
sg8
(lp1170
(I55
I102
tp1171
a(I68
I127
tp1172
a(I24
I107
tp1173
a(I6
I49
tp1174
a(I87
I50
tp1175
a(I26
I77
tp1176
a(I19
I65
tp1177
a(I52
I37
tp1178
a(I11
I37
tp1179
a(I13
I128
tp1180
a(I45
I105
tp1181
a(I23
I50
tp1182
a(I85
I58
tp1183
a(I68
I94
tp1184
a(I82
I49
tp1185
a(I8
I102
tp1186
a(I84
I126
tp1187
a(I68
I74
tp1188
a(I54
I57
tp1189
a(I13
I123
tp1190
asg26
I200
sba(imain2
Polygon
p1191
(dp1192
g3
(I131
I30
tp1193
sg5
I200
sg6
(I202
I121
I167
I1
tp1194
sg8
(lp1195
(I120
I0
tp1196
a(I102
I0
tp1197
a(I162
I8
tp1198
asg26
I200
sba(imain2
Polygon
p1199
(dp1200
g3
(I199
I39
tp1201
sg5
I200
sg6
(I90
I187
I104
I53
tp1202
sg8
(lp1203
(I187
I1
tp1204
a(I150
I0
tp1205
a(I200
I89
tp1206
a(I200
I14
tp1207
asg26
I200
sba(imain2
Polygon
p1208
(dp1209
g3
(I110
I156
tp1210
sg5
I200
sg6
(I187
I90
I123
I1
tp1211
sg8
(lp1212
(I106
I166
tp1213
a(I97
I173
tp1214
a(I116
I155
tp1215
a(I72
I178
tp1216
a(I160
I151
tp1217
a(I133
I138
tp1218
a(I153
I170
tp1219
a(I133
I146
tp1220
a(I103
I170
tp1221
a(I76
I200
tp1222
a(I138
I148
tp1223
a(I121
I145
tp1224
a(I144
I153
tp1225
a(I127
I174
tp1226
a(I153
I194
tp1227
asg26
I200
sba(imain2
Polygon
p1228
(dp1229
g3
(I14
I89
tp1230
sg5
I200
sg6
(I199
I19
I24
I67
tp1231
sg8
(lp1232
(I0
I61
tp1233
a(I49
I72
tp1234
a(I53
I72
tp1235
a(I55
I44
tp1236
a(I17
I118
tp1237
a(I0
I99
tp1238
a(I5
I50
tp1239
a(I11
I80
tp1240
a(I34
I109
tp1241
asg26
I200
sba(imain2
Polygon
p1242
(dp1243
g3
(I124
I127
tp1244
sg5
I200
sg6
(I171
I215
I170
I1
tp1245
sg8
(lp1246
(I119
I158
tp1247
a(I99
I92
tp1248
a(I81
I155
tp1249
a(I111
I115
tp1250
a(I147
I96
tp1251
a(I97
I169
tp1252
a(I170
I95
tp1253
a(I135
I124
tp1254
a(I104
I171
tp1255
a(I92
I110
tp1256
a(I100
I124
tp1257
a(I101
I170
tp1258
a(I154
I141
tp1259
asg26
I200
sba(imain2
Polygon
p1260
(dp1261
g3
(I97
I78
tp1262
sg5
I200
sg6
(I146
I200
I157
I1
tp1263
sg8
(lp1264
(I62
I103
tp1265
a(I66
I110
tp1266
a(I110
I111
tp1267
a(I135
I109
tp1268
a(I118
I78
tp1269
a(I78
I58
tp1270
a(I55
I84
tp1271
a(I108
I101
tp1272
a(I55
I62
tp1273
a(I54
I111
tp1274
a(I77
I65
tp1275
asg26
I200
sba(imain2
Polygon
p1276
(dp1277
g3
(I71
I43
tp1278
sg5
I200
sg6
(I218
I209
I118
I1
tp1279
sg8
(lp1280
(I85
I54
tp1281
a(I60
I0
tp1282
a(I53
I38
tp1283
a(I49
I45
tp1284
a(I50
I41
tp1285
a(I24
I70
tp1286
a(I75
I14
tp1287
a(I39
I86
tp1288
a(I111
I75
tp1289
asg26
I200
sba(imain2
Polygon
p1290
(dp1291
g3
(I109
I75
tp1292
sg5
I200
sg6
(I108
I159
I66
I119
tp1293
sg8
(lp1294
(I63
I26
tp1295
a(I62
I79
tp1296
a(I120
I76
tp1297
a(I87
I26
tp1298
a(I64
I35
tp1299
a(I71
I69
tp1300
a(I62
I35
tp1301
asg26
I200
sba(imain2
Polygon
p1302
(dp1303
g3
(I149
I45
tp1304
sg5
I200
sg6
(I205
I139
I126
I84
tp1305
sg8
(lp1306
(I199
I90
tp1307
a(I165
I70
tp1308
a(I161
I69
tp1309
a(I183
I12
tp1310
a(I128
I0
tp1311
a(I175
I87
tp1312
a(I158
I84
tp1313
a(I187
I0
tp1314
a(I194
I33
tp1315
a(I189
I0
tp1316
a(I130
I0
tp1317
a(I195
I19
tp1318
a(I199
I27
tp1319
asg26
I200
sba(imain2
Polygon
p1320
(dp1321
g3
(I29
I98
tp1322
sg5
I200
sg6
(I6
I134
I169
I35
tp1323
sg8
(lp1324
(I0
I145
tp1325
a(I62
I70
tp1326
a(I0
I73
tp1327
a(I0
I142
tp1328
a(I32
I77
tp1329
a(I67
I79
tp1330
a(I60
I84
tp1331
a(I0
I135
tp1332
a(I28
I90
tp1333
a(I56
I50
tp1334
a(I0
I116
tp1335
asg26
I200
sba(imain2
Polygon
p1336
(dp1337
g3
(I90
I62
tp1338
sg5
I200
sg6
(I176
I117
I130
I1
tp1339
sg8
(lp1340
(I71
I20
tp1341
a(I61
I49
tp1342
a(I54
I78
tp1343
a(I100
I106
tp1344
a(I117
I52
tp1345
a(I57
I26
tp1346
asg26
I200
sba(imain2
Polygon
p1347
(dp1348
g3
(I63
I49
tp1349
sg5
I200
sg6
(I218
I250
I133
I1
tp1350
sg8
(lp1351
(I83
I99
tp1352
a(I30
I15
tp1353
a(I53
I1
tp1354
a(I14
I3
tp1355
a(I16
I27
tp1356
a(I85
I25
tp1357
a(I36
I61
tp1358
a(I99
I65
tp1359
a(I24
I58
tp1360
a(I97
I41
tp1361
asg26
I200
sba(imain2
Polygon
p1362
(dp1363
g3
(I31
I132
tp1364
sg5
I200
sg6
(I73
I117
I195
I9
tp1365
sg8
(lp1366
(I8
I160
tp1367
a(I35
I167
tp1368
a(I5
I107
tp1369
a(I45
I179
tp1370
a(I53
I134
tp1371
a(I10
I143
tp1372
a(I0
I113
tp1373
a(I9
I172
tp1374
a(I0
I125
tp1375
a(I0
I146
tp1376
a(I14
I172
tp1377
a(I51
I169
tp1378
a(I28
I154
tp1379
a(I12
I140
tp1380
a(I69
I141
tp1381
a(I5
I164
tp1382
asg26
I200
sba(imain2
Polygon
p1383
(dp1384
g3
(I80
I158
tp1385
sg5
I200
sg6
(I24
I41
I58
I0
tp1386
sg8
(lp1387
(I60
I161
tp1388
a(I114
I200
tp1389
a(I55
I186
tp1390
a(I94
I151
tp1391
a(I69
I136
tp1392
a(I105
I129
tp1393
a(I74
I194
tp1394
a(I65
I200
tp1395
a(I111
I109
tp1396
a(I55
I186
tp1397
a(I124
I119
tp1398
a(I58
I172
tp1399
a(I126
I180
tp1400
a(I37
I162
tp1401
a(I128
I170
tp1402
a(I82
I200
tp1403
a(I120
I184
tp1404
a(I30
I146
tp1405
a(I80
I110
tp1406
a(I64
I164
tp1407
asg26
I200
sba(imain2
Polygon
p1408
(dp1409
g3
(I168
I51
tp1410
sg5
I200
sg6
(I98
I202
I209
I1
tp1411
sg8
(lp1412
(I120
I98
tp1413
a(I174
I19
tp1414
a(I200
I37
tp1415
a(I182
I57
tp1416
a(I196
I9
tp1417
a(I141
I16
tp1418
asg26
I200
sba(imain2
Polygon
p1419
(dp1420
g3
(I110
I14
tp1421
sg5
I200
sg6
(I156
I137
I49
I141
tp1422
sg8
(lp1423
(I118
I49
tp1424
a(I72
I59
tp1425
a(I101
I0
tp1426
a(I156
I0
tp1427
a(I158
I0
tp1428
a(I157
I28
tp1429
a(I70
I14
tp1430
a(I61
I0
tp1431
a(I67
I58
tp1432
a(I105
I0
tp1433
a(I135
I0
tp1434
a(I61
I0
tp1435
a(I77
I25
tp1436
asg26
I200
sba(imain2
Polygon
p1437
(dp1438
g3
(I85
I94
tp1439
sg5
I200
sg6
(I202
I232
I84
I64
tp1440
sg8
(lp1441
(I43
I56
tp1442
a(I110
I104
tp1443
a(I62
I48
tp1444
a(I105
I45
tp1445
a(I125
I73
tp1446
a(I92
I95
tp1447
a(I79
I138
tp1448
a(I109
I144
tp1449
a(I124
I111
tp1450
a(I62
I45
tp1451
a(I45
I66
tp1452
a(I55
I140
tp1453
a(I103
I103
tp1454
asg26
I200
sba(imain2
Polygon
p1455
(dp1456
g3
(I153
I81
tp1457
sg5
I200
sg6
(I121
I86
I189
I1
tp1458
sg8
(lp1459
(I197
I49
tp1460
a(I121
I118
tp1461
a(I150
I46
tp1462
a(I188
I103
tp1463
a(I163
I70
tp1464
a(I188
I127
tp1465
a(I194
I60
tp1466
a(I154
I91
tp1467
asg26
I200
sba(imain2
Polygon
p1468
(dp1469
g3
(I146
I37
tp1470
sg5
I200
sg6
(I227
I81
I155
I0
tp1471
sg8
(lp1472
(I166
I5
tp1473
a(I120
I58
tp1474
a(I105
I42
tp1475
a(I147
I30
tp1476
a(I170
I57
tp1477
a(I168
I0
tp1478
a(I178
I36
tp1479
asg26
I200
sba(imain2
Polygon
p1480
(dp1481
g3
(I36
I71
tp1482
sg5
I200
sg6
(I177
I119
I133
I0
tp1483
sg8
(lp1484
(I67
I92
tp1485
a(I0
I69
tp1486
a(I71
I32
tp1487
a(I68
I78
tp1488
a(I48
I38
tp1489
a(I0
I51
tp1490
a(I42
I81
tp1491
a(I50
I114
tp1492
a(I29
I32
tp1493
a(I61
I117
tp1494
a(I2
I109
tp1495
asg26
I200
sba(imain2
Polygon
p1496
(dp1497
g3
(I36
I181
tp1498
sg5
I200
sg6
(I143
I212
I96
I70
tp1499
sg8
(lp1500
(I78
I149
tp1501
a(I48
I150
tp1502
a(I81
I147
tp1503
a(I71
I200
tp1504
a(I43
I172
tp1505
a(I0
I200
tp1506
a(I0
I149
tp1507
a(I66
I188
tp1508
a(I68
I200
tp1509
a(I71
I200
tp1510
asg26
I200
sba(imain2
Polygon
p1511
(dp1512
g3
(I94
I181
tp1513
sg5
I200
sg6
(I112
I48
I36
I1
tp1514
sg8
(lp1515
(I110
I200
tp1516
a(I73
I197
tp1517
a(I100
I142
tp1518
a(I119
I171
tp1519
a(I133
I167
tp1520
a(I44
I131
tp1521
a(I112
I200
tp1522
a(I73
I176
tp1523
a(I81
I200
tp1524
asg26
I200
sba(imain2
Polygon
p1525
(dp1526
g3
(I4
I26
tp1527
sg5
I200
sg6
(I27
I104
I59
I41
tp1528
sg8
(lp1529
(I0
I19
tp1530
a(I25
I0
tp1531
a(I1
I19
tp1532
a(I0
I38
tp1533
a(I0
I29
tp1534
a(I9
I3
tp1535
a(I54
I51
tp1536
a(I32
I59
tp1537
a(I0
I36
tp1538
a(I0
I0
tp1539
a(I0
I76
tp1540
a(I0
I0
tp1541
a(I48
I7
tp1542
a(I0
I38
tp1543
a(I30
I39
tp1544
a(I12
I0
tp1545
asg26
I200
sba(imain2
Polygon
p1546
(dp1547
g3
(I14
I45
tp1548
sg5
I200
sg6
(I145
I107
I0
I1
tp1549
sg8
(lp1550
(I0
I56
tp1551
a(I28
I1
tp1552
a(I34
I81
tp1553
a(I26
I76
tp1554
a(I0
I32
tp1555
a(I21
I81
tp1556
a(I8
I81
tp1557
a(I0
I21
tp1558
a(I0
I73
tp1559
a(I37
I75
tp1560
asg26
I200
sba(imain2
Polygon
p1561
(dp1562
g3
(I103
I69
tp1563
sg5
I200
sg6
(I231
I218
I0
I39
tp1564
sg8
(lp1565
(I55
I36
tp1566
a(I53
I116
tp1567
a(I125
I109
tp1568
a(I135
I89
tp1569
a(I85
I19
tp1570
asg26
I200
sba(imain2
Polygon
p1571
(dp1572
g3
(I61
I77
tp1573
sg5
I200
sg6
(I60
I120
I190
I123
tp1574
sg8
(lp1575
(I45
I115
tp1576
a(I88
I94
tp1577
a(I89
I87
tp1578
asg26
I200
sba(imain2
Polygon
p1579
(dp1580
g3
(I36
I98
tp1581
sg5
I200
sg6
(I0
I197
I72
I40
tp1582
sg8
(lp1583
(I28
I97
tp1584
a(I4
I90
tp1585
a(I0
I121
tp1586
a(I0
I53
tp1587
a(I80
I75
tp1588
a(I30
I53
tp1589
a(I13
I129
tp1590
a(I38
I79
tp1591
a(I42
I52
tp1592
a(I19
I124
tp1593
asg26
I200
sba(imain2
Polygon
p1594
(dp1595
g3
(I20
I133
tp1596
sg5
I200
sg6
(I196
I237
I132
I73
tp1597
sg8
(lp1598
(I30
I179
tp1599
a(I0
I181
tp1600
a(I0
I175
tp1601
a(I21
I139
tp1602
a(I28
I170
tp1603
asg26
I200
sba(imain2
Polygon
p1604
(dp1605
g3
(I178
I74
tp1606
sg5
I200
sg6
(I30
I119
I24
I1
tp1607
sg8
(lp1608
(I193
I110
tp1609
a(I186
I112
tp1610
a(I200
I57
tp1611
a(I161
I83
tp1612
a(I200
I85
tp1613
a(I200
I79
tp1614
a(I140
I63
tp1615
asg26
I200
sba(imain2
Polygon
p1616
(dp1617
g3
(I191
I151
tp1618
sg5
I200
sg6
(I237
I38
I74
I56
tp1619
sg8
(lp1620
(I168
I135
tp1621
a(I200
I123
tp1622
a(I200
I189
tp1623
asg26
I200
sba(imain2
Polygon
p1624
(dp1625
g3
(I81
I200
tp1626
sg5
I200
sg6
(I41
I58
I159
I27
tp1627
sg8
(lp1628
(I63
I200
tp1629
a(I33
I187
tp1630
a(I38
I191
tp1631
a(I46
I200
tp1632
a(I108
I200
tp1633
a(I46
I200
tp1634
a(I103
I198
tp1635
a(I103
I200
tp1636
a(I49
I200
tp1637
asg26
I200
sba(imain2
Polygon
p1638
(dp1639
g3
(I8
I200
tp1640
sg5
I200
sg6
(I235
I14
I66
I133
tp1641
sg8
(lp1642
(I0
I200
tp1643
a(I0
I200
tp1644
a(I41
I200
tp1645
a(I52
I200
tp1646
a(I0
I200
tp1647
a(I0
I200
tp1648
a(I0
I200
tp1649
a(I0
I200
tp1650
a(I23
I200
tp1651
a(I40
I200
tp1652
asg26
I200
sba(imain2
Polygon
p1653
(dp1654
g3
(I12
I187
tp1655
sg5
I200
sg6
(I222
I0
I177
I0
tp1656
sg8
(lp1657
(I0
I172
tp1658
a(I0
I167
tp1659
a(I22
I200
tp1660
a(I0
I174
tp1661
a(I0
I174
tp1662
a(I49
I147
tp1663
a(I3
I200
tp1664
a(I0
I160
tp1665
a(I54
I200
tp1666
a(I0
I173
tp1667
a(I20
I145
tp1668
a(I16
I198
tp1669
a(I0
I200
tp1670
asg26
I200
sba(imain2
Polygon
p1671
(dp1672
g3
(I142
I43
tp1673
sg5
I200
sg6
(I49
I76
I163
I2
tp1674
sg8
(lp1675
(I129
I23
tp1676
a(I149
I90
tp1677
a(I148
I68
tp1678
a(I120
I69
tp1679
a(I118
I49
tp1680
a(I136
I59
tp1681
a(I106
I13
tp1682
a(I123
I43
tp1683
a(I95
I15
tp1684
a(I122
I35
tp1685
a(I124
I30
tp1686
a(I138
I19
tp1687
a(I152
I6
tp1688
a(I103
I43
tp1689
a(I146
I16
tp1690
asg26
I200
sba(imain2
Polygon
p1691
(dp1692
g3
(I89
I37
tp1693
sg5
I200
sg6
(I0
I102
I197
I73
tp1694
sg8
(lp1695
(I104
I35
tp1696
a(I54
I51
tp1697
a(I55
I50
tp1698
asg26
I200
sba(imain2
Polygon
p1699
(dp1700
g3
(I43
I51
tp1701
sg5
I200
sg6
(I34
I140
I121
I1
tp1702
sg8
(lp1703
(I15
I67
tp1704
a(I39
I8
tp1705
a(I54
I93
tp1706
a(I0
I85
tp1707
a(I29
I5
tp1708
a(I50
I77
tp1709
a(I62
I59
tp1710
a(I37
I59
tp1711
a(I76
I99
tp1712
a(I47
I50
tp1713
a(I2
I88
tp1714
a(I39
I83
tp1715
a(I88
I11
tp1716
a(I79
I30
tp1717
a(I52
I83
tp1718
a(I12
I42
tp1719
a(I15
I62
tp1720
asg26
I200
sba(imain2
Polygon
p1721
(dp1722
g3
(I23
I143
tp1723
sg5
I200
sg6
(I72
I246
I171
I41
tp1724
sg8
(lp1725
(I44
I186
tp1726
a(I0
I130
tp1727
a(I0
I188
tp1728
a(I29
I191
tp1729
a(I34
I148
tp1730
a(I0
I157
tp1731
a(I0
I133
tp1732
asg26
I200
sba(imain2
Polygon
p1733
(dp1734
g3
(I32
I143
tp1735
sg5
I200
sg6
(I52
I69
I161
I1
tp1736
sg8
(lp1737
(I61
I156
tp1738
a(I0
I110
tp1739
a(I63
I174
tp1740
a(I52
I121
tp1741
a(I45
I154
tp1742
a(I1
I141
tp1743
a(I0
I102
tp1744
a(I68
I151
tp1745
a(I55
I190
tp1746
a(I18
I166
tp1747
a(I41
I99
tp1748
a(I39
I147
tp1749
a(I32
I170
tp1750
a(I0
I152
tp1751
a(I53
I187
tp1752
a(I22
I122
tp1753
a(I64
I151
tp1754
asg26
I200
sba(imain2
Polygon
p1755
(dp1756
g3
(I69
I107
tp1757
sg5
I200
sg6
(I156
I228
I1
I7
tp1758
sg8
(lp1759
(I95
I66
tp1760
a(I48
I101
tp1761
a(I45
I119
tp1762
a(I103
I75
tp1763
a(I57
I154
tp1764
a(I49
I120
tp1765
a(I19
I90
tp1766
a(I93
I154
tp1767
a(I47
I112
tp1768
a(I69
I96
tp1769
a(I113
I129
tp1770
a(I73
I153
tp1771
a(I89
I154
tp1772
asg26
I200
sba(imain2
Polygon
p1773
(dp1774
g3
(I172
I111
tp1775
sg5
I200
sg6
(I237
I212
I83
I123
tp1776
sg8
(lp1777
(I200
I62
tp1778
a(I200
I94
tp1779
a(I177
I85
tp1780
asg26
I200
sba(imain2
Polygon
p1781
(dp1782
g3
(I150
I91
tp1783
sg5
I200
sg6
(I8
I240
I85
I40
tp1784
sg8
(lp1785
(I174
I136
tp1786
a(I165
I69
tp1787
a(I174
I90
tp1788
a(I199
I68
tp1789
a(I197
I130
tp1790
asg26
I200
sba(imain2
Polygon
p1791
(dp1792
g3
(I135
I188
tp1793
sg5
I200
sg6
(I76
I226
I5
I1
tp1794
sg8
(lp1795
(I175
I190
tp1796
a(I184
I181
tp1797
a(I127
I200
tp1798
a(I104
I200
tp1799
a(I161
I166
tp1800
a(I174
I151
tp1801
asg26
I200
sba(imain2
Polygon
p1802
(dp1803
g3
(I127
I113
tp1804
sg5
I200
sg6
(I133
I210
I151
I5
tp1805
sg8
(lp1806
(I116
I100
tp1807
a(I174
I63
tp1808
a(I164
I110
tp1809
a(I158
I139
tp1810
a(I111
I130
tp1811
asg26
I200
sba(imain2
Polygon
p1812
(dp1813
g3
(I173
I20
tp1814
sg5
I200
sg6
(I231
I1
I218
I0
tp1815
sg8
(lp1816
(I147
I47
tp1817
a(I198
I62
tp1818
a(I171
I46
tp1819
a(I200
I0
tp1820
a(I145
I26
tp1821
a(I200
I50
tp1822
a(I152
I0
tp1823
a(I189
I36
tp1824
a(I123
I0
tp1825
a(I200
I0
tp1826
a(I172
I44
tp1827
a(I163
I0
tp1828
a(I173
I0
tp1829
a(I186
I12
tp1830
a(I200
I35
tp1831
asg26
I200
sba(imain2
Polygon
p1832
(dp1833
g3
(I100
I197
tp1834
sg5
I200
sg6
(I33
I102
I176
I64
tp1835
sg8
(lp1836
(I99
I200
tp1837
a(I118
I200
tp1838
a(I147
I200
tp1839
a(I104
I151
tp1840
a(I135
I187
tp1841
a(I105
I200
tp1842
a(I92
I200
tp1843
a(I85
I200
tp1844
a(I133
I200
tp1845
a(I139
I200
tp1846
a(I55
I200
tp1847
a(I121
I200
tp1848
asg26
I200
sba(imain2
Polygon
p1849
(dp1850
g3
(I70
I0
tp1851
sg5
I200
sg6
(I135
I1
I193
I0
tp1852
sg8
(lp1853
(I62
I0
tp1854
a(I115
I27
tp1855
a(I49
I28
tp1856
a(I90
I0
tp1857
a(I107
I0
tp1858
a(I109
I36
tp1859
a(I20
I0
tp1860
a(I92
I0
tp1861
asg26
I200
sba(imain2
Polygon
p1862
(dp1863
g3
(I106
I152
tp1864
sg5
I200
sg6
(I99
I162
I61
I66
tp1865
sg8
(lp1866
(I133
I114
tp1867
a(I119
I166
tp1868
a(I59
I200
tp1869
a(I140
I199
tp1870
a(I115
I114
tp1871
a(I85
I153
tp1872
a(I124
I140
tp1873
a(I138
I185
tp1874
a(I122
I150
tp1875
a(I68
I141
tp1876
a(I112
I141
tp1877
asg26
I200
sba(imain2
Polygon
p1878
(dp1879
g3
(I11
I38
tp1880
sg5
I200
sg6
(I110
I1
I123
I1
tp1881
sg8
(lp1882
(I11
I45
tp1883
a(I16
I6
tp1884
a(I35
I52
tp1885
a(I0
I12
tp1886
a(I8
I17
tp1887
a(I0
I79
tp1888
a(I52
I31
tp1889
a(I3
I4
tp1890
a(I13
I62
tp1891
a(I53
I84
tp1892
asg26
I200
sba(imain2
Polygon
p1893
(dp1894
g3
(I23
I68
tp1895
sg5
I200
sg6
(I216
I111
I189
I122
tp1896
sg8
(lp1897
(I35
I109
tp1898
a(I24
I85
tp1899
a(I54
I19
tp1900
a(I25
I33
tp1901
a(I35
I32
tp1902
a(I64
I43
tp1903
a(I0
I19
tp1904
a(I0
I111
tp1905
a(I7
I98
tp1906
a(I38
I112
tp1907
a(I10
I74
tp1908
asg26
I200
sba(imain2
Polygon
p1909
(dp1910
g3
(I73
I8
tp1911
sg5
I200
sg6
(I106
I163
I20
I132
tp1912
sg8
(lp1913
(I33
I0
tp1914
a(I113
I0
tp1915
a(I27
I56
tp1916
a(I23
I45
tp1917
a(I27
I13
tp1918
a(I32
I0
tp1919
a(I44
I19
tp1920
a(I49
I29
tp1921
a(I58
I40
tp1922
asg26
I200
sba(imain2
Polygon
p1923
(dp1924
g3
(I175
I187
tp1925
sg5
I200
sg6
(I117
I193
I198
I52
tp1926
sg8
(lp1927
(I186
I200
tp1928
a(I170
I200
tp1929
a(I146
I200
tp1930
asg26
I200
sba(imain2
Polygon
p1931
(dp1932
g3
(I153
I195
tp1933
sg5
I200
sg6
(I54
I165
I29
I0
tp1934
sg8
(lp1935
(I179
I189
tp1936
a(I192
I147
tp1937
a(I123
I200
tp1938
a(I135
I200
tp1939
a(I158
I200
tp1940
a(I192
I184
tp1941
a(I196
I200
tp1942
a(I125
I147
tp1943
a(I200
I170
tp1944
a(I103
I196
tp1945
asg26
I200
sba(imain2
Polygon
p1946
(dp1947
g3
(I199
I6
tp1948
sg5
I200
sg6
(I143
I40
I87
I1
tp1949
sg8
(lp1950
(I200
I20
tp1951
a(I194
I0
tp1952
a(I156
I0
tp1953
a(I149
I0
tp1954
a(I200
I20
tp1955
a(I200
I0
tp1956
a(I173
I23
tp1957
a(I150
I2
tp1958
asg26
I200
sba(imain2
Polygon
p1959
(dp1960
g3
(I46
I191
tp1961
sg5
I200
sg6
(I91
I15
I8
I108
tp1962
sg8
(lp1963
(I69
I200
tp1964
a(I84
I189
tp1965
a(I89
I167
tp1966
a(I0
I200
tp1967
a(I0
I146
tp1968
a(I27
I155
tp1969
a(I79
I193
tp1970
a(I34
I181
tp1971
a(I35
I167
tp1972
asg26
I200
sba(imain2
Polygon
p1973
(dp1974
g3
(I144
I179
tp1975
sg5
I200
sg6
(I125
I32
I189
I36
tp1976
sg8
(lp1977
(I150
I154
tp1978
a(I153
I186
tp1979
a(I136
I182
tp1980
a(I130
I191
tp1981
a(I102
I180
tp1982
a(I191
I200
tp1983
a(I105
I200
tp1984
a(I133
I183
tp1985
a(I99
I183
tp1986
a(I164
I155
tp1987
a(I148
I156
tp1988
a(I120
I177
tp1989
a(I154
I153
tp1990
a(I168
I199
tp1991
a(I168
I200
tp1992
asg26
I200
sba(imain2
Polygon
p1993
(dp1994
g3
(I120
I46
tp1995
sg5
I200
sg6
(I83
I82
I101
I51
tp1996
sg8
(lp1997
(I133
I48
tp1998
a(I126
I24
tp1999
a(I97
I17
tp2000
a(I132
I30
tp2001
a(I113
I91
tp2002
a(I132
I24
tp2003
asg26
I200
sba(imain2
Polygon
p2004
(dp2005
g3
(I100
I144
tp2006
sg5
I200
sg6
(I123
I183
I165
I113
tp2007
sg8
(lp2008
(I112
I95
tp2009
a(I104
I138
tp2010
a(I98
I126
tp2011
a(I74
I100
tp2012
a(I73
I147
tp2013
a(I83
I152
tp2014
a(I125
I151
tp2015
a(I68
I158
tp2016
a(I56
I110
tp2017
a(I69
I97
tp2018
asg26
I200
sba(imain2
Polygon
p2019
(dp2020
g3
(I151
I184
tp2021
sg5
I200
sg6
(I139
I0
I175
I1
tp2022
sg8
(lp2023
(I141
I163
tp2024
a(I169
I169
tp2025
a(I122
I200
tp2026
a(I162
I159
tp2027
asg26
I200
sba(imain2
Polygon
p2028
(dp2029
g3
(I124
I187
tp2030
sg5
I200
sg6
(I25
I27
I210
I0
tp2031
sg8
(lp2032
(I135
I158
tp2033
a(I164
I200
tp2034
a(I131
I200
tp2035
a(I140
I200
tp2036
a(I119
I200
tp2037
a(I80
I200
tp2038
a(I113
I200
tp2039
a(I133
I200
tp2040
a(I128
I165
tp2041
asg26
I200
sba(imain2
Polygon
p2042
(dp2043
g3
(I48
I52
tp2044
sg5
I200
sg6
(I247
I132
I158
I141
tp2045
sg8
(lp2046
(I58
I94
tp2047
a(I79
I94
tp2048
a(I97
I60
tp2049
a(I67
I7
tp2050
a(I35
I65
tp2051
a(I31
I93
tp2052
a(I88
I8
tp2053
a(I0
I3
tp2054
a(I0
I82
tp2055
a(I2
I102
tp2056
a(I65
I76
tp2057
a(I18
I85
tp2058
a(I75
I83
tp2059
asg26
I200
sba(imain2
Polygon
p2060
(dp2061
g3
(I139
I74
tp2062
sg5
I200
sg6
(I151
I190
I236
I82
tp2063
sg8
(lp2064
(I174
I48
tp2065
a(I189
I47
tp2066
a(I185
I26
tp2067
a(I157
I30
tp2068
a(I169
I88
tp2069
a(I187
I48
tp2070
asg26
I200
sba(imain2
Polygon
p2071
(dp2072
g3
(I161
I83
tp2073
sg5
I200
sg6
(I202
I148
I103
I29
tp2074
sg8
(lp2075
(I114
I113
tp2076
a(I114
I49
tp2077
a(I178
I77
tp2078
a(I155
I98
tp2079
a(I177
I113
tp2080
a(I199
I106
tp2081
a(I200
I106
tp2082
a(I200
I49
tp2083
a(I140
I35
tp2084
a(I197
I72
tp2085
a(I199
I71
tp2086
a(I145
I53
tp2087
a(I124
I126
tp2088
asg26
I200
sba(imain2
Polygon
p2089
(dp2090
g3
(I88
I36
tp2091
sg5
I200
sg6
(I1
I30
I71
I109
tp2092
sg8
(lp2093
(I80
I10
tp2094
a(I49
I39
tp2095
a(I102
I37
tp2096
a(I120
I27
tp2097
a(I125
I14
tp2098
a(I135
I16
tp2099
a(I71
I9
tp2100
a(I89
I8
tp2101
a(I58
I13
tp2102
asg26
I200
sba(imain2
Polygon
p2103
(dp2104
g3
(I12
I36
tp2105
sg5
I200
sg6
(I166
I102
I213
I1
tp2106
sg8
(lp2107
(I11
I65
tp2108
a(I29
I70
tp2109
a(I0
I69
tp2110
a(I21
I2
tp2111
a(I0
I79
tp2112
a(I0
I54
tp2113
asg26
I200
sba(imain2
Polygon
p2114
(dp2115
g3
(I79
I176
tp2116
sg5
I200
sg6
(I198
I84
I168
I99
tp2117
sg8
(lp2118
(I129
I200
tp2119
a(I119
I162
tp2120
a(I69
I200
tp2121
a(I91
I200
tp2122
a(I96
I200
tp2123
asg26
I200
sba(imain2
Polygon
p2124
(dp2125
g3
(I159
I193
tp2126
sg5
I200
sg6
(I188
I172
I61
I1
tp2127
sg8
(lp2128
(I118
I200
tp2129
a(I136
I181
tp2130
a(I185
I200
tp2131
a(I149
I200
tp2132
a(I153
I151
tp2133
a(I200
I196
tp2134
a(I192
I188
tp2135
a(I157
I200
tp2136
a(I129
I169
tp2137
a(I129
I200
tp2138
a(I176
I178
tp2139
a(I157
I195
tp2140
asg26
I200
sba(imain2
Polygon
p2141
(dp2142
g3
(I52
I197
tp2143
sg5
I200
sg6
(I164
I146
I228
I1
tp2144
sg8
(lp2145
(I87
I182
tp2146
a(I66
I195
tp2147
a(I29
I200
tp2148
a(I49
I200
tp2149
a(I10
I147
tp2150
a(I22
I181
tp2151
a(I16
I153
tp2152
a(I46
I170
tp2153
asg26
I200
sba(imain2
Polygon
p2154
(dp2155
g3
(I96
I168
tp2156
sg5
I200
sg6
(I81
I155
I162
I0
tp2157
sg8
(lp2158
(I105
I151
tp2159
a(I128
I200
tp2160
a(I97
I200
tp2161
a(I68
I178
tp2162
a(I144
I177
tp2163
a(I146
I166
tp2164
a(I85
I168
tp2165
a(I125
I166
tp2166
a(I139
I177
tp2167
asg26
I200
sba(imain2
Polygon
p2168
(dp2169
g3
(I148
I67
tp2170
sg5
I200
sg6
(I210
I29
I21
I0
tp2171
sg8
(lp2172
(I172
I28
tp2173
a(I162
I93
tp2174
a(I136
I96
tp2175
a(I181
I47
tp2176
a(I165
I109
tp2177
a(I105
I34
tp2178
a(I99
I75
tp2179
a(I152
I25
tp2180
a(I145
I38
tp2181
a(I100
I97
tp2182
a(I106
I33
tp2183
a(I118
I56
tp2184
a(I159
I41
tp2185
a(I198
I101
tp2186
a(I117
I89
tp2187
asg26
I200
sba(imain2
Polygon
p2188
(dp2189
g3
(I185
I29
tp2190
sg5
I200
sg6
(I139
I164
I77
I79
tp2191
sg8
(lp2192
(I136
I0
tp2193
a(I199
I0
tp2194
a(I200
I25
tp2195
a(I174
I43
tp2196
a(I138
I31
tp2197
asg26
I200
sba(imain2
Polygon
p2198
(dp2199
g3
(I77
I185
tp2200
sg5
I200
sg6
(I27
I24
I96
I94
tp2201
sg8
(lp2202
(I122
I163
tp2203
a(I63
I154
tp2204
a(I110
I156
tp2205
a(I124
I169
tp2206
a(I40
I180
tp2207
a(I101
I162
tp2208
a(I35
I180
tp2209
a(I81
I200
tp2210
a(I64
I192
tp2211
a(I49
I200
tp2212
a(I102
I143
tp2213
a(I115
I140
tp2214
asg26
I200
sba(imain2
Polygon
p2215
(dp2216
g3
(I183
I173
tp2217
sg5
I200
sg6
(I108
I214
I86
I44
tp2218
sg8
(lp2219
(I200
I200
tp2220
a(I146
I200
tp2221
a(I200
I200
tp2222
a(I200
I125
tp2223
a(I137
I200
tp2224
asg26
I200
sba(imain2
Polygon
p2225
(dp2226
g3
(I141
I78
tp2227
sg5
I200
sg6
(I231
I87
I165
I1
tp2228
sg8
(lp2229
(I99
I101
tp2230
a(I182
I64
tp2231
a(I176
I100
tp2232
a(I162
I119
tp2233
a(I185
I74
tp2234
a(I139
I116
tp2235
a(I153
I109
tp2236
asg26
I200
sba(imain2
Polygon
p2237
(dp2238
g3
(I8
I10
tp2239
sg5
I200
sg6
(I61
I42
I73
I98
tp2240
sg8
(lp2241
(I33
I4
tp2242
a(I0
I0
tp2243
a(I30
I6
tp2244
a(I0
I0
tp2245
a(I30
I0
tp2246
asg26
I200
sba(imain2
Polygon
p2247
(dp2248
g3
(I37
I13
tp2249
sg5
I200
sg6
(I0
I114
I18
I111
tp2250
sg8
(lp2251
(I36
I0
tp2252
a(I16
I0
tp2253
a(I2
I0
tp2254
a(I0
I6
tp2255
a(I47
I4
tp2256
a(I33
I0
tp2257
a(I37
I0
tp2258
a(I53
I0
tp2259
a(I1
I0
tp2260
a(I38
I0
tp2261
a(I54
I0
tp2262
a(I41
I0
tp2263
asg26
I200
sba(imain2
Polygon
p2264
(dp2265
g3
(I168
I175
tp2266
sg5
I200
sg6
(I95
I54
I24
I0
tp2267
sg8
(lp2268
(I152
I200
tp2269
a(I179
I200
tp2270
a(I195
I166
tp2271
a(I189
I168
tp2272
a(I146
I200
tp2273
a(I200
I169
tp2274
a(I118
I182
tp2275
a(I158
I174
tp2276
a(I200
I200
tp2277
a(I122
I174
tp2278
asg26
I200
sba(imain2
Polygon
p2279
(dp2280
g3
(I75
I83
tp2281
sg5
I200
sg6
(I27
I33
I18
I0
tp2282
sg8
(lp2283
(I64
I83
tp2284
a(I50
I113
tp2285
a(I118
I51
tp2286
a(I103
I96
tp2287
a(I36
I53
tp2288
a(I51
I69
tp2289
a(I28
I131
tp2290
a(I93
I78
tp2291
a(I87
I115
tp2292
a(I115
I36
tp2293
a(I101
I82
tp2294
a(I74
I104
tp2295
a(I92
I54
tp2296
a(I89
I66
tp2297
asg26
I200
sba(imain2
Polygon
p2298
(dp2299
g3
(I18
I79
tp2300
sg5
I200
sg6
(I80
I1
I175
I103
tp2301
sg8
(lp2302
(I36
I125
tp2303
a(I43
I109
tp2304
a(I18
I107
tp2305
a(I43
I101
tp2306
a(I25
I110
tp2307
a(I12
I123
tp2308
a(I0
I103
tp2309
a(I0
I117
tp2310
a(I39
I119
tp2311
asg26
I200
sba(imain2
Polygon
p2312
(dp2313
g3
(I27
I28
tp2314
sg5
I200
sg6
(I221
I145
I39
I1
tp2315
sg8
(lp2316
(I68
I12
tp2317
a(I28
I26
tp2318
a(I19
I0
tp2319
a(I75
I77
tp2320
a(I71
I0
tp2321
a(I65
I38
tp2322
a(I19
I2
tp2323
a(I9
I62
tp2324
a(I0
I42
tp2325
a(I0
I0
tp2326
a(I49
I6
tp2327
a(I16
I59
tp2328
a(I42
I0
tp2329
asg26
I200
sba(imain2
Polygon
p2330
(dp2331
g3
(I85
I60
tp2332
sg5
I200
sg6
(I84
I113
I12
I105
tp2333
sg8
(lp2334
(I115
I60
tp2335
a(I134
I87
tp2336
a(I55
I107
tp2337
a(I36
I62
tp2338
a(I72
I90
tp2339
a(I131
I73
tp2340
a(I117
I52
tp2341
a(I123
I32
tp2342
a(I108
I57
tp2343
asg26
I200
sba(imain2
Polygon
p2344
(dp2345
g3
(I45
I110
tp2346
sg5
I200
sg6
(I41
I239
I179
I47
tp2347
sg8
(lp2348
(I68
I158
tp2349
a(I45
I112
tp2350
a(I72
I109
tp2351
asg26
I200
sba(imain2
Polygon
p2352
(dp2353
g3
(I54
I138
tp2354
sg5
I200
sg6
(I117
I64
I186
I0
tp2355
sg8
(lp2356
(I18
I163
tp2357
a(I21
I111
tp2358
a(I69
I90
tp2359
a(I25
I165
tp2360
a(I95
I108
tp2361
a(I42
I160
tp2362
a(I15
I156
tp2363
a(I84
I118
tp2364
asg26
I200
sba(imain2
Polygon
p2365
(dp2366
g3
(I162
I123
tp2367
sg5
I200
sg6
(I43
I58
I71
I10
tp2368
sg8
(lp2369
(I175
I164
tp2370
a(I131
I118
tp2371
a(I200
I137
tp2372
a(I119
I112
tp2373
a(I180
I78
tp2374
a(I200
I106
tp2375
a(I180
I124
tp2376
a(I188
I77
tp2377
a(I192
I98
tp2378
a(I194
I111
tp2379
a(I139
I167
tp2380
a(I124
I157
tp2381
a(I147
I147
tp2382
a(I156
I80
tp2383
a(I161
I109
tp2384
a(I196
I165
tp2385
a(I177
I99
tp2386
a(I177
I114
tp2387
a(I122
I121
tp2388
asg26
I200
sba(imain2
Polygon
p2389
(dp2390
g3
(I144
I70
tp2391
sg5
I200
sg6
(I191
I39
I117
I30
tp2392
sg8
(lp2393
(I170
I95
tp2394
a(I169
I95
tp2395
a(I149
I71
tp2396
asg26
I200
sba(imain2
Polygon
p2397
(dp2398
g3
(I11
I36
tp2399
sg5
I200
sg6
(I144
I32
I76
I25
tp2400
sg8
(lp2401
(I0
I42
tp2402
a(I0
I45
tp2403
a(I0
I0
tp2404
a(I7
I66
tp2405
a(I0
I78
tp2406
a(I0
I31
tp2407
a(I0
I0
tp2408
a(I0
I35
tp2409
asg26
I200
sba(imain2
Polygon
p2410
(dp2411
g3
(I85
I175
tp2412
sg5
I200
sg6
(I240
I52
I43
I0
tp2413
sg8
(lp2414
(I42
I130
tp2415
a(I112
I137
tp2416
a(I100
I133
tp2417
a(I108
I186
tp2418
a(I42
I200
tp2419
a(I111
I200
tp2420
a(I114
I192
tp2421
a(I100
I188
tp2422
a(I38
I152
tp2423
a(I116
I138
tp2424
a(I61
I131
tp2425
a(I69
I177
tp2426
a(I80
I162
tp2427
a(I116
I200
tp2428
asg26
I200
sba(imain2
Polygon
p2429
(dp2430
g3
(I78
I22
tp2431
sg5
I200
sg6
(I0
I239
I65
I1
tp2432
sg8
(lp2433
(I38
I0
tp2434
a(I47
I0
tp2435
a(I28
I18
tp2436
a(I112
I49
tp2437
a(I107
I0
tp2438
a(I80
I0
tp2439
a(I127
I21
tp2440
a(I88
I0
tp2441
asg26
I200
sba(imain2
Polygon
p2442
(dp2443
g3
(I58
I165
tp2444
sg5
I200
sg6
(I73
I0
I134
I90
tp2445
sg8
(lp2446
(I40
I160
tp2447
a(I10
I120
tp2448
a(I46
I164
tp2449
a(I43
I143
tp2450
asg26
I200
sba(imain2
Polygon
p2451
(dp2452
g3
(I98
I69
tp2453
sg5
I200
sg6
(I72
I213
I126
I30
tp2454
sg8
(lp2455
(I111
I113
tp2456
a(I126
I99
tp2457
a(I78
I90
tp2458
asg26
I200
sba(imain2
Polygon
p2459
(dp2460
g3
(I184
I193
tp2461
sg5
I200
sg6
(I17
I62
I68
I1
tp2462
sg8
(lp2463
(I200
I177
tp2464
a(I182
I198
tp2465
a(I200
I163
tp2466
a(I200
I200
tp2467
a(I151
I200
tp2468
a(I159
I200
tp2469
asg26
I200
sba(imain2
Polygon
p2470
(dp2471
g3
(I136
I181
tp2472
sg5
I200
sg6
(I120
I127
I189
I0
tp2473
sg8
(lp2474
(I148
I200
tp2475
a(I87
I180
tp2476
a(I129
I164
tp2477
a(I115
I142
tp2478
a(I138
I200
tp2479
a(I127
I139
tp2480
a(I141
I181
tp2481
asg26
I200
sba(imain2
Polygon
p2482
(dp2483
g3
(I65
I69
tp2484
sg5
I200
sg6
(I101
I91
I153
I2
tp2485
sg8
(lp2486
(I24
I101
tp2487
a(I37
I51
tp2488
a(I89
I104
tp2489
a(I37
I106
tp2490
a(I63
I93
tp2491
a(I16
I47
tp2492
a(I26
I115
tp2493
a(I73
I48
tp2494
a(I38
I37
tp2495
asg26
I200
sba(imain2
Polygon
p2496
(dp2497
g3
(I146
I60
tp2498
sg5
I200
sg6
(I1
I1
I199
I0
tp2499
sg8
(lp2500
(I167
I55
tp2501
a(I196
I53
tp2502
a(I126
I28
tp2503
a(I193
I89
tp2504
a(I135
I34
tp2505
asg26
I200
sba(imain2
Polygon
p2506
(dp2507
g3
(I7
I191
tp2508
sg5
I200
sg6
(I1
I165
I63
I1
tp2509
sg8
(lp2510
(I10
I188
tp2511
a(I0
I194
tp2512
a(I27
I178
tp2513
a(I0
I200
tp2514
a(I36
I192
tp2515
a(I0
I200
tp2516
a(I24
I148
tp2517
a(I51
I182
tp2518
a(I0
I143
tp2519
a(I46
I173
tp2520
a(I0
I200
tp2521
a(I32
I200
tp2522
a(I0
I200
tp2523
a(I0
I181
tp2524
asg26
I200
sba(imain2
Polygon
p2525
(dp2526
g3
(I177
I12
tp2527
sg5
I200
sg6
(I0
I126
I137
I0
tp2528
sg8
(lp2529
(I179
I47
tp2530
a(I173
I36
tp2531
a(I131
I0
tp2532
a(I173
I62
tp2533
a(I192
I0
tp2534
a(I155
I59
tp2535
a(I200
I50
tp2536
a(I172
I22
tp2537
a(I132
I54
tp2538
a(I188
I6
tp2539
asg26
I200
sba(imain2
Polygon
p2540
(dp2541
g3
(I98
I60
tp2542
sg5
I200
sg6
(I142
I36
I47
I1
tp2543
sg8
(lp2544
(I138
I25
tp2545
a(I98
I26
tp2546
a(I104
I32
tp2547
a(I147
I11
tp2548
a(I125
I68
tp2549
a(I77
I21
tp2550
asg26
I200
sba(imain2
Polygon
p2551
(dp2552
g3
(I26
I121
tp2553
sg5
I200
sg6
(I19
I111
I2
I81
tp2554
sg8
(lp2555
(I5
I167
tp2556
a(I39
I85
tp2557
a(I0
I101
tp2558
a(I0
I166
tp2559
a(I30
I111
tp2560
a(I14
I135
tp2561
a(I45
I83
tp2562
a(I52
I113
tp2563
a(I37
I137
tp2564
a(I47
I156
tp2565
asg26
I200
sba(imain2
Polygon
p2566
(dp2567
g3
(I59
I10
tp2568
sg5
I200
sg6
(I179
I55
I106
I126
tp2569
sg8
(lp2570
(I13
I0
tp2571
a(I70
I0
tp2572
a(I73
I6
tp2573
a(I69
I0
tp2574
a(I109
I0
tp2575
a(I101
I15
tp2576
a(I10
I0
tp2577
a(I17
I23
tp2578
asg26
I200
sba(imain2
Polygon
p2579
(dp2580
g3
(I171
I141
tp2581
sg5
I200
sg6
(I36
I196
I138
I1
tp2582
sg8
(lp2583
(I200
I170
tp2584
a(I145
I150
tp2585
a(I153
I146
tp2586
a(I198
I129
tp2587
a(I200
I145
tp2588
a(I157
I111
tp2589
a(I187
I97
tp2590
a(I200
I94
tp2591
asg26
I200
sba(imain2
Polygon
p2592
(dp2593
g3
(I80
I143
tp2594
sg5
I200
sg6
(I72
I75
I10
I112
tp2595
sg8
(lp2596
(I66
I140
tp2597
a(I70
I145
tp2598
a(I93
I192
tp2599
a(I130
I187
tp2600
a(I120
I141
tp2601
a(I69
I128
tp2602
a(I62
I133
tp2603
a(I71
I170
tp2604
a(I111
I114
tp2605
a(I86
I147
tp2606
asg26
I200
sba(imain2
Polygon
p2607
(dp2608
g3
(I191
I199
tp2609
sg5
I200
sg6
(I0
I223
I23
I0
tp2610
sg8
(lp2611
(I169
I200
tp2612
a(I177
I200
tp2613
a(I150
I150
tp2614
a(I193
I156
tp2615
a(I200
I200
tp2616
a(I200
I200
tp2617
a(I163
I187
tp2618
a(I141
I160
tp2619
asg26
I200
sba(imain2
Polygon
p2620
(dp2621
g3
(I6
I112
tp2622
sg5
I200
sg6
(I132
I70
I127
I58
tp2623
sg8
(lp2624
(I0
I137
tp2625
a(I0
I140
tp2626
a(I25
I84
tp2627
a(I0
I100
tp2628
a(I0
I158
tp2629
a(I0
I109
tp2630
a(I0
I159
tp2631
asg26
I200
sba(imain2
Polygon
p2632
(dp2633
g3
(I189
I37
tp2634
sg5
I200
sg6
(I31
I237
I163
I48
tp2635
sg8
(lp2636
(I200
I46
tp2637
a(I191
I37
tp2638
a(I188
I0
tp2639
a(I199
I1
tp2640
asg26
I200
sba(imain2
Polygon
p2641
(dp2642
g3
(I121
I50
tp2643
sg5
I200
sg6
(I3
I72
I1
I0
tp2644
sg8
(lp2645
(I136
I45
tp2646
a(I142
I7
tp2647
a(I90
I40
tp2648
asg26
I200
sba(imain2
Polygon
p2649
(dp2650
g3
(I58
I165
tp2651
sg5
I200
sg6
(I142
I99
I2
I1
tp2652
sg8
(lp2653
(I40
I176
tp2654
a(I59
I187
tp2655
a(I9
I168
tp2656
a(I97
I177
tp2657
a(I20
I139
tp2658
a(I35
I200
tp2659
a(I99
I183
tp2660
a(I107
I152
tp2661
a(I56
I151
tp2662
a(I33
I161
tp2663
a(I83
I175
tp2664
a(I30
I147
tp2665
asg26
I200
sba(imain2
Polygon
p2666
(dp2667
g3
(I155
I38
tp2668
sg5
I200
sg6
(I99
I107
I235
I87
tp2669
sg8
(lp2670
(I160
I2
tp2671
a(I162
I13
tp2672
a(I165
I27
tp2673
asg26
I200
sba(imain2
Polygon
p2674
(dp2675
g3
(I80
I130
tp2676
sg5
I200
sg6
(I223
I90
I1
I115
tp2677
sg8
(lp2678
(I90
I107
tp2679
a(I38
I91
tp2680
a(I127
I91
tp2681
a(I86
I180
tp2682
a(I90
I97
tp2683
a(I42
I107
tp2684
a(I57
I140
tp2685
a(I81
I161
tp2686
a(I95
I173
tp2687
a(I77
I124
tp2688
a(I91
I85
tp2689
a(I88
I146
tp2690
asg26
I200
sba(imain2
Polygon
p2691
(dp2692
g3
(I182
I31
tp2693
sg5
I200
sg6
(I110
I85
I112
I0
tp2694
sg8
(lp2695
(I139
I63
tp2696
a(I198
I51
tp2697
a(I135
I9
tp2698
a(I186
I37
tp2699
a(I164
I0
tp2700
a(I175
I40
tp2701
a(I151
I81
tp2702
a(I200
I11
tp2703
a(I200
I57
tp2704
a(I152
I25
tp2705
a(I188
I0
tp2706
a(I162
I2
tp2707
a(I154
I80
tp2708
a(I174
I47
tp2709
a(I195
I67
tp2710
a(I188
I45
tp2711
a(I182
I80
tp2712
a(I157
I72
tp2713
a(I145
I0
tp2714
a(I190
I38
tp2715
a(I200
I28
tp2716
a(I200
I0
tp2717
a(I133
I0
tp2718
asg26
I200
sba(imain2
Polygon
p2719
(dp2720
g3
(I164
I132
tp2721
sg5
I200
sg6
(I50
I68
I0
I0
tp2722
sg8
(lp2723
(I160
I87
tp2724
a(I136
I113
tp2725
a(I152
I112
tp2726
a(I158
I139
tp2727
a(I168
I173
tp2728
a(I180
I136
tp2729
a(I190
I82
tp2730
a(I138
I162
tp2731
a(I186
I136
tp2732
a(I199
I84
tp2733
a(I122
I135
tp2734
a(I157
I141
tp2735
a(I185
I112
tp2736
asg26
I200
sba(imain2
Polygon
p2737
(dp2738
g3
(I67
I123
tp2739
sg5
I200
sg6
(I203
I168
I127
I71
tp2740
sg8
(lp2741
(I114
I101
tp2742
a(I112
I148
tp2743
a(I67
I158
tp2744
a(I43
I93
tp2745
a(I96
I92
tp2746
a(I107
I100
tp2747
a(I49
I107
tp2748
a(I115
I104
tp2749
a(I46
I107
tp2750
a(I101
I102
tp2751
a(I87
I99
tp2752
asg26
I200
sba(imain2
Polygon
p2753
(dp2754
g3
(I139
I46
tp2755
sg5
I200
sg6
(I1
I111
I82
I73
tp2756
sg8
(lp2757
(I185
I84
tp2758
a(I137
I74
tp2759
a(I164
I79
tp2760
asg26
I200
sba(imain2
Polygon
p2761
(dp2762
g3
(I137
I13
tp2763
sg5
I200
sg6
(I203
I131
I219
I5
tp2764
sg8
(lp2765
(I146
I0
tp2766
a(I180
I37
tp2767
a(I165
I55
tp2768
a(I139
I19
tp2769
a(I157
I0
tp2770
a(I100
I0
tp2771
a(I88
I17
tp2772
a(I160
I57
tp2773
a(I126
I14
tp2774
asg26
I200
sba(imain2
Polygon
p2775
(dp2776
g3
(I72
I81
tp2777
sg5
I200
sg6
(I239
I108
I81
I1
tp2778
sg8
(lp2779
(I113
I53
tp2780
a(I60
I76
tp2781
a(I26
I64
tp2782
a(I41
I126
tp2783
a(I57
I104
tp2784
a(I59
I58
tp2785
a(I120
I57
tp2786
asg26
I200
sba(imain2
Polygon
p2787
(dp2788
g3
(I24
I70
tp2789
sg5
I200
sg6
(I6
I224
I8
I12
tp2790
sg8
(lp2791
(I37
I25
tp2792
a(I72
I32
tp2793
a(I2
I21
tp2794
a(I0
I105
tp2795
a(I15
I106
tp2796
a(I45
I114
tp2797
a(I46
I40
tp2798
asg26
I200
sba(imain2
Polygon
p2799
(dp2800
g3
(I144
I200
tp2801
sg5
I200
sg6
(I123
I88
I11
I1
tp2802
sg8
(lp2803
(I164
I200
tp2804
a(I121
I196
tp2805
a(I107
I168
tp2806
a(I185
I200
tp2807
a(I177
I200
tp2808
a(I111
I200
tp2809
a(I147
I151
tp2810
a(I181
I194
tp2811
a(I158
I200
tp2812
a(I98
I181
tp2813
a(I107
I153
tp2814
a(I103
I200
tp2815
a(I174
I196
tp2816
a(I175
I183
tp2817
a(I128
I200
tp2818
a(I98
I186
tp2819
a(I146
I200
tp2820
a(I145
I200
tp2821
a(I142
I200
tp2822
asg26
I200
sba(imain2
Polygon
p2823
(dp2824
g3
(I63
I64
tp2825
sg5
I200
sg6
(I192
I193
I44
I4
tp2826
sg8
(lp2827
(I103
I55
tp2828
a(I18
I106
tp2829
a(I18
I45
tp2830
a(I97
I38
tp2831
a(I97
I107
tp2832
a(I48
I88
tp2833
a(I43
I112
tp2834
a(I106
I109
tp2835
a(I52
I111
tp2836
asg26
I200
sba(imain2
Polygon
p2837
(dp2838
g3
(I87
I65
tp2839
sg5
I200
sg6
(I216
I55
I98
I0
tp2840
sg8
(lp2841
(I136
I80
tp2842
a(I106
I35
tp2843
a(I86
I83
tp2844
a(I52
I59
tp2845
a(I60
I111
tp2846
a(I53
I95
tp2847
a(I46
I88
tp2848
a(I47
I39
tp2849
a(I103
I111
tp2850
a(I96
I80
tp2851
a(I124
I65
tp2852
asg26
I200
sba(imain2
Polygon
p2853
(dp2854
g3
(I110
I191
tp2855
sg5
I200
sg6
(I160
I196
I225
I1
tp2856
sg8
(lp2857
(I132
I182
tp2858
a(I118
I143
tp2859
a(I116
I163
tp2860
a(I83
I180
tp2861
a(I122
I150
tp2862
a(I60
I163
tp2863
a(I116
I200
tp2864
a(I118
I200
tp2865
a(I78
I200
tp2866
a(I146
I200
tp2867
asg26
I200
sba(imain2
Polygon
p2868
(dp2869
g3
(I108
I110
tp2870
sg5
I200
sg6
(I98
I178
I164
I1
tp2871
sg8
(lp2872
(I101
I127
tp2873
a(I117
I114
tp2874
a(I87
I125
tp2875
a(I76
I126
tp2876
a(I71
I129
tp2877
a(I121
I150
tp2878
asg26
I200
sba(imain2
Polygon
p2879
(dp2880
g3
(I112
I52
tp2881
sg5
I200
sg6
(I81
I200
I79
I94
tp2882
sg8
(lp2883
(I158
I54
tp2884
a(I152
I56
tp2885
a(I149
I58
tp2886
asg26
I200
sba.