(lp0
(imain2
Polygon
p1
(dp2
S'origin'
p3
(I100
I102
tp4
sS'h'
p5
I200
sS'color'
p6
(I132
I173
I192
I0
tp7
sS'corner_list'
p8
(lp9
(I64
I88
tp10
a(I131
I112
tp11
a(I102
I68
tp12
a(I90
I128
tp13
a(I59
I95
tp14
a(I129
I142
tp15
asS'w'
p16
I200
sba(imain2
Polygon
p17
(dp18
g3
(I142
I122
tp19
sg5
I200
sg6
(I20
I220
I130
I37
tp20
sg8
(lp21
(I132
I116
tp22
a(I95
I104
tp23
a(I106
I160
tp24
a(I177
I137
tp25
a(I109
I157
tp26
a(I93
I95
tp27
a(I119
I85
tp28
a(I188
I130
tp29
a(I166
I82
tp30
a(I192
I113
tp31
a(I136
I104
tp32
a(I134
I86
tp33
a(I102
I138
tp34
asg16
I200
sba(imain2
Polygon
p35
(dp36
g3
(I39
I24
tp37
sg5
I200
sg6
(I241
I164
I200
I0
tp38
sg8
(lp39
(I88
I73
tp40
a(I20
I46
tp41
a(I61
I39
tp42
a(I4
I0
tp43
a(I55
I7
tp44
a(I66
I60
tp45
a(I0
I0
tp46
a(I62
I0
tp47
a(I57
I0
tp48
asg16
I200
sba(imain2
Polygon
p49
(dp50
g3
(I87
I73
tp51
sg5
I200
sg6
(I160
I19
I198
I99
tp52
sg8
(lp53
(I103
I121
tp54
a(I130
I63
tp55
a(I82
I102
tp56
a(I62
I79
tp57
a(I68
I47
tp58
a(I56
I110
tp59
a(I91
I112
tp60
a(I64
I117
tp61
a(I47
I56
tp62
a(I77
I37
tp63
a(I131
I68
tp64
a(I84
I59
tp65
a(I128
I91
tp66
a(I37
I92
tp67
asg16
I200
sba(imain2
Polygon
p68
(dp69
g3
(I75
I185
tp70
sg5
I200
sg6
(I70
I0
I90
I90
tp71
sg8
(lp72
(I90
I200
tp73
a(I125
I163
tp74
a(I123
I140
tp75
a(I120
I200
tp76
a(I72
I200
tp77
a(I68
I195
tp78
a(I98
I174
tp79
asg16
I200
sba(imain2
Polygon
p80
(dp81
g3
(I51
I161
tp82
sg5
I200
sg6
(I131
I134
I16
I102
tp83
sg8
(lp84
(I86
I200
tp85
a(I55
I200
tp86
a(I96
I190
tp87
a(I67
I140
tp88
asg16
I200
sba(imain2
Polygon
p89
(dp90
g3
(I76
I107
tp91
sg5
I200
sg6
(I159
I40
I202
I121
tp92
sg8
(lp93
(I113
I136
tp94
a(I40
I71
tp95
a(I37
I76
tp96
a(I55
I67
tp97
a(I106
I86
tp98
a(I107
I154
tp99
a(I53
I141
tp100
a(I48
I92
tp101
a(I101
I62
tp102
a(I76
I59
tp103
a(I113
I77
tp104
a(I87
I117
tp105
asg16
I200
sba(imain2
Polygon
p106
(dp107
g3
(I79
I45
tp108
sg5
I200
sg6
(I222
I3
I243
I1
tp109
sg8
(lp110
(I52
I93
tp111
a(I121
I88
tp112
a(I37
I47
tp113
a(I39
I66
tp114
a(I102
I24
tp115
asg16
I200
sba(imain2
Polygon
p116
(dp117
g3
(I123
I186
tp118
sg5
I200
sg6
(I49
I15
I43
I1
tp119
sg8
(lp120
(I167
I200
tp121
a(I148
I200
tp122
a(I113
I143
tp123
a(I153
I138
tp124
a(I124
I200
tp125
asg16
I200
sba(imain2
Polygon
p126
(dp127
g3
(I74
I162
tp128
sg5
I200
sg6
(I155
I95
I212
I0
tp129
sg8
(lp130
(I47
I197
tp131
a(I100
I168
tp132
a(I64
I169
tp133
a(I37
I128
tp134
a(I79
I200
tp135
a(I48
I137
tp136
a(I44
I183
tp137
a(I112
I160
tp138
a(I45
I191
tp139
a(I46
I162
tp140
a(I95
I167
tp141
a(I110
I141
tp142
a(I105
I152
tp143
asg16
I200
sba(imain2
Polygon
p144
(dp145
g3
(I64
I120
tp146
sg5
I200
sg6
(I235
I41
I172
I1
tp147
sg8
(lp148
(I113
I141
tp149
a(I65
I100
tp150
a(I92
I162
tp151
a(I105
I141
tp152
asg16
I200
sba(imain2
Polygon
p153
(dp154
g3
(I2
I37
tp155
sg5
I200
sg6
(I135
I135
I101
I115
tp156
sg8
(lp157
(I0
I0
tp158
a(I36
I34
tp159
a(I4
I47
tp160
a(I20
I35
tp161
a(I0
I66
tp162
a(I41
I3
tp163
a(I36
I68
tp164
a(I33
I21
tp165
a(I39
I86
tp166
a(I0
I85
tp167
asg16
I200
sba(imain2
Polygon
p168
(dp169
g3
(I161
I116
tp170
sg5
I200
sg6
(I152
I94
I114
I63
tp171
sg8
(lp172
(I113
I144
tp173
a(I200
I152
tp174
a(I168
I90
tp175
a(I170
I71
tp176
a(I163
I108
tp177
a(I194
I136
tp178
a(I176
I87
tp179
a(I182
I147
tp180
asg16
I200
sba(imain2
Polygon
p181
(dp182
g3
(I171
I44
tp183
sg5
I200
sg6
(I134
I237
I105
I116
tp184
sg8
(lp185
(I200
I15
tp186
a(I157
I22
tp187
a(I200
I89
tp188
a(I200
I0
tp189
a(I132
I0
tp190
a(I134
I87
tp191
a(I133
I52
tp192
a(I161
I77
tp193
a(I200
I93
tp194
a(I143
I0
tp195
a(I170
I71
tp196
a(I148
I77
tp197
a(I125
I35
tp198
asg16
I200
sba(imain2
Polygon
p199
(dp200
g3
(I196
I163
tp201
sg5
I200
sg6
(I38
I167
I6
I35
tp202
sg8
(lp203
(I200
I176
tp204
a(I200
I197
tp205
a(I200
I133
tp206
a(I200
I134
tp207
a(I193
I170
tp208
a(I200
I141
tp209
a(I155
I170
tp210
a(I200
I182
tp211
a(I198
I171
tp212
a(I200
I143
tp213
a(I170
I173
tp214
a(I179
I115
tp215
a(I171
I129
tp216
asg16
I200
sba(imain2
Polygon
p217
(dp218
g3
(I123
I35
tp219
sg5
I200
sg6
(I144
I61
I71
I0
tp220
sg8
(lp221
(I150
I83
tp222
a(I173
I33
tp223
a(I145
I0
tp224
a(I98
I0
tp225
a(I158
I15
tp226
a(I90
I72
tp227
a(I93
I22
tp228
a(I94
I0
tp229
a(I172
I74
tp230
asg16
I200
sba(imain2
Polygon
p231
(dp232
g3
(I38
I152
tp233
sg5
I200
sg6
(I95
I165
I34
I134
tp234
sg8
(lp235
(I87
I136
tp236
a(I53
I103
tp237
a(I49
I126
tp238
a(I73
I158
tp239
asg16
I200
sba(imain2
Polygon
p240
(dp241
g3
(I118
I157
tp242
sg5
I200
sg6
(I87
I63
I44
I0
tp243
sg8
(lp244
(I152
I159
tp245
a(I115
I173
tp246
a(I150
I150
tp247
asg16
I200
sba(imain2
Polygon
p248
(dp249
g3
(I10
I175
tp250
sg5
I200
sg6
(I175
I54
I61
I19
tp251
sg8
(lp252
(I0
I200
tp253
a(I0
I134
tp254
a(I0
I200
tp255
a(I0
I168
tp256
a(I0
I183
tp257
a(I0
I200
tp258
asg16
I200
sba(imain2
Polygon
p259
(dp260
g3
(I4
I131
tp261
sg5
I200
sg6
(I124
I53
I62
I0
tp262
sg8
(lp263
(I25
I135
tp264
a(I41
I127
tp265
a(I29
I157
tp266
a(I0
I148
tp267
a(I0
I167
tp268
a(I18
I159
tp269
a(I0
I176
tp270
a(I0
I119
tp271
a(I37
I152
tp272
a(I0
I164
tp273
a(I0
I97
tp274
a(I15
I132
tp275
asg16
I200
sba(imain2
Polygon
p276
(dp277
g3
(I75
I51
tp278
sg5
I200
sg6
(I104
I198
I1
I15
tp279
sg8
(lp280
(I92
I83
tp281
a(I27
I68
tp282
a(I121
I74
tp283
a(I102
I1
tp284
a(I105
I56
tp285
a(I115
I39
tp286
a(I32
I21
tp287
asg16
I200
sba(imain2
Polygon
p288
(dp289
g3
(I18
I101
tp290
sg5
I200
sg6
(I0
I11
I70
I56
tp291
sg8
(lp292
(I28
I94
tp293
a(I15
I116
tp294
a(I0
I56
tp295
a(I5
I78
tp296
a(I4
I107
tp297
a(I0
I79
tp298
a(I0
I130
tp299
a(I45
I64
tp300
asg16
I200
sba(imain2
Polygon
p301
(dp302
g3
(I97
I199
tp303
sg5
I200
sg6
(I0
I109
I46
I119
tp304
sg8
(lp305
(I133
I197
tp306
a(I104
I199
tp307
a(I131
I200
tp308
a(I104
I200
tp309
a(I77
I191
tp310
a(I146
I200
tp311
a(I121
I200
tp312
a(I103
I160
tp313
a(I97
I158
tp314
a(I87
I180
tp315
a(I69
I200
tp316
a(I87
I171
tp317
a(I99
I160
tp318
asg16
I200
sba(imain2
Polygon
p319
(dp320
g3
(I102
I104
tp321
sg5
I200
sg6
(I220
I124
I128
I75
tp322
sg8
(lp323
(I105
I151
tp324
a(I105
I63
tp325
a(I59
I58
tp326
a(I57
I131
tp327
a(I74
I153
tp328
asg16
I200
sba(imain2
Polygon
p329
(dp330
g3
(I177
I176
tp331
sg5
I200
sg6
(I112
I207
I217
I46
tp332
sg8
(lp333
(I200
I138
tp334
a(I167
I145
tp335
a(I200
I200
tp336
asg16
I200
sba(imain2
Polygon
p337
(dp338
g3
(I99
I27
tp339
sg5
I200
sg6
(I74
I84
I1
I111
tp340
sg8
(lp341
(I143
I0
tp342
a(I53
I0
tp343
a(I97
I73
tp344
a(I139
I50
tp345
asg16
I200
sba(imain2
Polygon
p346
(dp347
g3
(I138
I156
tp348
sg5
I200
sg6
(I19
I58
I187
I1
tp349
sg8
(lp350
(I134
I187
tp351
a(I141
I197
tp352
a(I111
I148
tp353
asg16
I200
sba(imain2
Polygon
p354
(dp355
g3
(I100
I129
tp356
sg5
I200
sg6
(I113
I215
I220
I1
tp357
sg8
(lp358
(I64
I131
tp359
a(I85
I161
tp360
a(I102
I174
tp361
asg16
I200
sba(imain2
Polygon
p362
(dp363
g3
(I90
I2
tp364
sg5
I200
sg6
(I195
I195
I2
I1
tp365
sg8
(lp366
(I116
I0
tp367
a(I84
I39
tp368
a(I122
I0
tp369
a(I49
I48
tp370
a(I90
I51
tp371
a(I89
I45
tp372
a(I60
I1
tp373
a(I89
I0
tp374
a(I107
I0
tp375
asg16
I200
sba(imain2
Polygon
p376
(dp377
g3
(I76
I49
tp378
sg5
I200
sg6
(I246
I164
I178
I101
tp379
sg8
(lp380
(I52
I54
tp381
a(I62
I34
tp382
a(I99
I36
tp383
a(I124
I78
tp384
a(I91
I88
tp385
a(I47
I82
tp386
asg16
I200
sba(imain2
Polygon
p387
(dp388
g3
(I135
I193
tp389
sg5
I200
sg6
(I204
I201
I63
I0
tp390
sg8
(lp391
(I150
I200
tp392
a(I124
I200
tp393
a(I132
I166
tp394
a(I91
I200
tp395
a(I178
I191
tp396
a(I113
I200
tp397
a(I129
I171
tp398
a(I119
I183
tp399
a(I149
I200
tp400
asg16
I200
sba(imain2
Polygon
p401
(dp402
g3
(I156
I197
tp403
sg5
I200
sg6
(I79
I234
I80
I11
tp404
sg8
(lp405
(I183
I162
tp406
a(I198
I200
tp407
a(I122
I200
tp408
a(I108
I171
tp409
a(I167
I158
tp410
asg16
I200
sba(imain2
Polygon
p411
(dp412
g3
(I159
I95
tp413
sg5
I200
sg6
(I163
I24
I16
I0
tp414
sg8
(lp415
(I176
I110
tp416
a(I142
I142
tp417
a(I114
I45
tp418
a(I200
I98
tp419
a(I116
I98
tp420
a(I158
I80
tp421
a(I153
I85
tp422
a(I163
I133
tp423
a(I111
I61
tp424
asg16
I200
sba(imain2
Polygon
p425
(dp426
g3
(I130
I187
tp427
sg5
I200
sg6
(I177
I73
I86
I73
tp428
sg8
(lp429
(I138
I200
tp430
a(I152
I194
tp431
a(I100
I200
tp432
a(I168
I192
tp433
a(I164
I200
tp434
a(I97
I159
tp435
a(I90
I200
tp436
asg16
I200
sba(imain2
Polygon
p437
(dp438
g3
(I56
I194
tp439
sg5
I200
sg6
(I191
I173
I1
I36
tp440
sg8
(lp441
(I6
I200
tp442
a(I26
I200
tp443
a(I15
I171
tp444
a(I36
I176
tp445
a(I17
I200
tp446
a(I23
I200
tp447
a(I6
I200
tp448
a(I75
I169
tp449
asg16
I200
sba(imain2
Polygon
p450
(dp451
g3
(I180
I160
tp452
sg5
I200
sg6
(I30
I40
I108
I60
tp453
sg8
(lp454
(I192
I143
tp455
a(I162
I139
tp456
a(I182
I184
tp457
a(I200
I167
tp458
a(I196
I176
tp459
a(I200
I161
tp460
a(I197
I200
tp461
a(I161
I136
tp462
a(I200
I128
tp463
asg16
I200
sba(imain2
Polygon
p464
(dp465
g3
(I12
I87
tp466
sg5
I200
sg6
(I49
I131
I182
I10
tp467
sg8
(lp468
(I0
I89
tp469
a(I0
I54
tp470
a(I22
I67
tp471
a(I36
I59
tp472
a(I18
I37
tp473
a(I8
I123
tp474
a(I1
I124
tp475
asg16
I200
sba(imain2
Polygon
p476
(dp477
g3
(I123
I91
tp478
sg5
I200
sg6
(I231
I0
I184
I64
tp479
sg8
(lp480
(I93
I69
tp481
a(I99
I140
tp482
a(I124
I58
tp483
a(I77
I102
tp484
a(I122
I119
tp485
asg16
I200
sba(imain2
Polygon
p486
(dp487
g3
(I80
I122
tp488
sg5
I200
sg6
(I220
I176
I139
I78
tp489
sg8
(lp490
(I116
I143
tp491
a(I129
I85
tp492
a(I44
I101
tp493
a(I75
I158
tp494
asg16
I200
sba(imain2
Polygon
p495
(dp496
g3
(I119
I156
tp497
sg5
I200
sg6
(I125
I214
I195
I46
tp498
sg8
(lp499
(I96
I178
tp500
a(I141
I200
tp501
a(I121
I144
tp502
a(I90
I178
tp503
a(I70
I199
tp504
a(I133
I200
tp505
a(I69
I119
tp506
a(I111
I144
tp507
a(I69
I110
tp508
a(I132
I145
tp509
asg16
I200
sba(imain2
Polygon
p510
(dp511
g3
(I66
I96
tp512
sg5
I200
sg6
(I109
I72
I64
I108
tp513
sg8
(lp514
(I24
I133
tp515
a(I20
I88
tp516
a(I24
I60
tp517
a(I64
I124
tp518
a(I72
I129
tp519
a(I100
I145
tp520
a(I30
I82
tp521
a(I36
I114
tp522
asg16
I200
sba(imain2
Polygon
p523
(dp524
g3
(I17
I178
tp525
sg5
I200
sg6
(I82
I65
I13
I0
tp526
sg8
(lp527
(I0
I175
tp528
a(I1
I200
tp529
a(I0
I174
tp530
a(I0
I200
tp531
a(I34
I135
tp532
a(I20
I150
tp533
a(I0
I128
tp534
a(I24
I133
tp535
asg16
I200
sba(imain2
Polygon
p536
(dp537
g3
(I196
I157
tp538
sg5
I200
sg6
(I27
I207
I68
I0
tp539
sg8
(lp540
(I200
I151
tp541
a(I200
I130
tp542
a(I200
I114
tp543
a(I200
I161
tp544
a(I200
I170
tp545
a(I200
I120
tp546
a(I152
I198
tp547
a(I200
I169
tp548
a(I189
I185
tp549
a(I165
I144
tp550
a(I168
I182
tp551
a(I183
I146
tp552
a(I200
I174
tp553
a(I200
I134
tp554
a(I200
I166
tp555
a(I163
I117
tp556
a(I155
I146
tp557
a(I161
I119
tp558
a(I200
I151
tp559
asg16
I200
sba(imain2
Polygon
p560
(dp561
g3
(I7
I138
tp562
sg5
I200
sg6
(I209
I109
I10
I0
tp563
sg8
(lp564
(I51
I90
tp565
a(I47
I188
tp566
a(I30
I114
tp567
a(I0
I163
tp568
a(I11
I151
tp569
a(I0
I88
tp570
a(I0
I180
tp571
a(I37
I159
tp572
a(I0
I157
tp573
a(I2
I141
tp574
a(I29
I156
tp575
a(I15
I108
tp576
a(I0
I141
tp577
asg16
I200
sba(imain2
Polygon
p578
(dp579
g3
(I49
I75
tp580
sg5
I200
sg6
(I117
I229
I15
I26
tp581
sg8
(lp582
(I97
I31
tp583
a(I96
I95
tp584
a(I60
I123
tp585
a(I38
I118
tp586
a(I35
I74
tp587
a(I91
I46
tp588
a(I35
I64
tp589
a(I75
I88
tp590
a(I0
I118
tp591
a(I3
I64
tp592
a(I8
I49
tp593
a(I41
I49
tp594
a(I47
I83
tp595
a(I67
I65
tp596
a(I41
I61
tp597
asg16
I200
sba(imain2
Polygon
p598
(dp599
g3
(I75
I73
tp600
sg5
I200
sg6
(I161
I134
I136
I138
tp601
sg8
(lp602
(I108
I39
tp603
a(I122
I103
tp604
a(I47
I117
tp605
a(I62
I34
tp606
asg16
I200
sba(imain2
Polygon
p607
(dp608
g3
(I82
I103
tp609
sg5
I200
sg6
(I96
I97
I59
I1
tp610
sg8
(lp611
(I120
I107
tp612
a(I86
I105
tp613
a(I53
I131
tp614
a(I124
I68
tp615
a(I36
I91
tp616
a(I67
I133
tp617
a(I113
I64
tp618
a(I72
I75
tp619
a(I131
I64
tp620
a(I118
I113
tp621
a(I60
I69
tp622
a(I59
I57
tp623
a(I114
I87
tp624
a(I41
I99
tp625
a(I93
I107
tp626
a(I132
I116
tp627
a(I72
I77
tp628
a(I33
I114
tp629
a(I54
I64
tp630
a(I105
I131
tp631
asg16
I200
sba(imain2
Polygon
p632
(dp633
g3
(I126
I26
tp634
sg5
I200
sg6
(I238
I182
I126
I112
tp635
sg8
(lp636
(I138
I12
tp637
a(I156
I0
tp638
a(I122
I21
tp639
a(I87
I0
tp640
a(I148
I0
tp641
a(I77
I0
tp642
a(I162
I0
tp643
a(I175
I33
tp644
a(I168
I75
tp645
asg16
I200
sba(imain2
Polygon
p646
(dp647
g3
(I128
I23
tp648
sg5
I200
sg6
(I106
I1
I85
I0
tp649
sg8
(lp650
(I106
I31
tp651
a(I156
I0
tp652
a(I137
I0
tp653
a(I147
I0
tp654
a(I102
I0
tp655
a(I172
I68
tp656
a(I142
I0
tp657
a(I153
I43
tp658
a(I116
I0
tp659
a(I87
I56
tp660
a(I84
I0
tp661
a(I153
I0
tp662
a(I144
I0
tp663
a(I92
I33
tp664
asg16
I200
sba(imain2
Polygon
p665
(dp666
g3
(I147
I59
tp667
sg5
I200
sg6
(I0
I240
I189
I70
tp668
sg8
(lp669
(I164
I32
tp670
a(I155
I19
tp671
a(I167
I25
tp672
asg16
I200
sba(imain2
Polygon
p673
(dp674
g3
(I105
I192
tp675
sg5
I200
sg6
(I178
I21
I174
I0
tp676
sg8
(lp677
(I150
I178
tp678
a(I76
I200
tp679
a(I97
I200
tp680
a(I101
I200
tp681
asg16
I200
sba(imain2
Polygon
p682
(dp683
g3
(I144
I60
tp684
sg5
I200
sg6
(I60
I234
I8
I0
tp685
sg8
(lp686
(I100
I77
tp687
a(I160
I42
tp688
a(I131
I18
tp689
a(I136
I52
tp690
a(I148
I15
tp691
a(I192
I14
tp692
asg16
I200
sba(imain2
Polygon
p693
(dp694
g3
(I177
I86
tp695
sg5
I200
sg6
(I168
I33
I16
I0
tp696
sg8
(lp697
(I152
I97
tp698
a(I179
I46
tp699
a(I165
I74
tp700
a(I192
I40
tp701
a(I200
I88
tp702
a(I200
I55
tp703
a(I141
I67
tp704
asg16
I200
sba(imain2
Polygon
p705
(dp706
g3
(I157
I117
tp707
sg5
I200
sg6
(I43
I29
I0
I71
tp708
sg8
(lp709
(I188
I133
tp710
a(I200
I147
tp711
a(I128
I75
tp712
a(I142
I67
tp713
a(I200
I80
tp714
a(I183
I145
tp715
a(I200
I151
tp716
a(I189
I84
tp717
asg16
I200
sba(imain2
Polygon
p718
(dp719
g3
(I155
I192
tp720
sg5
I200
sg6
(I0
I37
I195
I1
tp721
sg8
(lp722
(I200
I165
tp723
a(I145
I200
tp724
a(I137
I160
tp725
a(I111
I200
tp726
a(I187
I169
tp727
a(I176
I183
tp728
a(I120
I188
tp729
a(I153
I200
tp730
asg16
I200
sba(imain2
Polygon
p731
(dp732
g3
(I103
I158
tp733
sg5
I200
sg6
(I13
I45
I119
I70
tp734
sg8
(lp735
(I107
I154
tp736
a(I87
I181
tp737
a(I57
I174
tp738
a(I121
I144
tp739
a(I99
I154
tp740
a(I131
I117
tp741
a(I66
I200
tp742
a(I96
I148
tp743
asg16
I200
sba(imain2
Polygon
p744
(dp745
g3
(I9
I151
tp746
sg5
I200
sg6
(I123
I83
I57
I37
tp747
sg8
(lp748
(I0
I173
tp749
a(I0
I189
tp750
a(I0
I126
tp751
a(I21
I130
tp752
a(I0
I157
tp753
a(I6
I192
tp754
a(I44
I122
tp755
a(I0
I159
tp756
asg16
I200
sba(imain2
Polygon
p757
(dp758
g3
(I114
I115
tp759
sg5
I200
sg6
(I168
I159
I140
I9
tp760
sg8
(lp761
(I66
I160
tp762
a(I76
I66
tp763
a(I64
I113
tp764
a(I74
I70
tp765
a(I89
I155
tp766
a(I64
I162
tp767
asg16
I200
sba(imain2
Polygon
p768
(dp769
g3
(I114
I99
tp770
sg5
I200
sg6
(I61
I240
I9
I53
tp771
sg8
(lp772
(I69
I138
tp773
a(I128
I108
tp774
a(I126
I70
tp775
a(I104
I71
tp776
a(I150
I79
tp777
a(I95
I94
tp778
a(I72
I108
tp779
a(I82
I55
tp780
a(I70
I56
tp781
a(I67
I105
tp782
a(I103
I135
tp783
a(I65
I93
tp784
a(I139
I67
tp785
asg16
I200
sba(imain2
Polygon
p786
(dp787
g3
(I173
I62
tp788
sg5
I200
sg6
(I1
I42
I168
I108
tp789
sg8
(lp790
(I200
I82
tp791
a(I200
I84
tp792
a(I153
I79
tp793
a(I192
I90
tp794
a(I146
I61
tp795
asg16
I200
sba(imain2
Polygon
p796
(dp797
g3
(I199
I171
tp798
sg5
I200
sg6
(I1
I236
I13
I32
tp799
sg8
(lp800
(I200
I200
tp801
a(I200
I186
tp802
a(I199
I149
tp803
asg16
I200
sba(imain2
Polygon
p804
(dp805
g3
(I195
I126
tp806
sg5
I200
sg6
(I211
I219
I28
I0
tp807
sg8
(lp808
(I146
I99
tp809
a(I199
I161
tp810
a(I200
I114
tp811
a(I200
I164
tp812
a(I196
I163
tp813
a(I200
I114
tp814
a(I175
I79
tp815
a(I200
I91
tp816
a(I188
I145
tp817
a(I179
I163
tp818
a(I183
I169
tp819
a(I199
I106
tp820
asg16
I200
sba(imain2
Polygon
p821
(dp822
g3
(I51
I190
tp823
sg5
I200
sg6
(I126
I173
I100
I71
tp824
sg8
(lp825
(I40
I200
tp826
a(I11
I200
tp827
a(I36
I200
tp828
a(I60
I200
tp829
a(I96
I168
tp830
a(I97
I200
tp831
a(I55
I200
tp832
a(I3
I200
tp833
a(I35
I200
tp834
a(I70
I200
tp835
asg16
I200
sba(imain2
Polygon
p836
(dp837
g3
(I200
I5
tp838
sg5
I200
sg6
(I187
I108
I44
I1
tp839
sg8
(lp840
(I200
I50
tp841
a(I165
I53
tp842
a(I165
I28
tp843
a(I200
I17
tp844
a(I185
I0
tp845
a(I167
I0
tp846
a(I179
I16
tp847
a(I200
I24
tp848
asg16
I200
sba(imain2
Polygon
p849
(dp850
g3
(I147
I166
tp851
sg5
I200
sg6
(I116
I241
I224
I18
tp852
sg8
(lp853
(I127
I142
tp854
a(I108
I131
tp855
a(I136
I187
tp856
a(I107
I165
tp857
a(I123
I166
tp858
a(I132
I125
tp859
a(I103
I176
tp860
a(I124
I199
tp861
asg16
I200
sba(imain2
Polygon
p862
(dp863
g3
(I16
I191
tp864
sg5
I200
sg6
(I129
I47
I223
I1
tp865
sg8
(lp866
(I0
I200
tp867
a(I0
I154
tp868
a(I59
I200
tp869
a(I55
I168
tp870
asg16
I200
sba(imain2
Polygon
p871
(dp872
g3
(I94
I9
tp873
sg5
I200
sg6
(I200
I52
I21
I1
tp874
sg8
(lp875
(I134
I41
tp876
a(I52
I39
tp877
a(I93
I29
tp878
a(I64
I48
tp879
a(I105
I0
tp880
a(I101
I37
tp881
a(I46
I24
tp882
a(I116
I28
tp883
a(I109
I0
tp884
a(I137
I18
tp885
asg16
I200
sba(imain2
Polygon
p886
(dp887
g3
(I111
I113
tp888
sg5
I200
sg6
(I90
I31
I146
I0
tp889
sg8
(lp890
(I83
I120
tp891
a(I85
I110
tp892
a(I161
I131
tp893
a(I74
I126
tp894
asg16
I200
sba(imain2
Polygon
p895
(dp896
g3
(I10
I81
tp897
sg5
I200
sg6
(I220
I163
I194
I1
tp898
sg8
(lp899
(I60
I131
tp900
a(I0
I33
tp901
a(I0
I62
tp902
a(I12
I107
tp903
a(I0
I101
tp904
a(I60
I111
tp905
a(I0
I116
tp906
a(I0
I111
tp907
a(I0
I105
tp908
a(I46
I129
tp909
asg16
I200
sba(imain2
Polygon
p910
(dp911
g3
(I10
I22
tp912
sg5
I200
sg6
(I218
I206
I108
I75
tp913
sg8
(lp914
(I13
I31
tp915
a(I41
I0
tp916
a(I47
I58
tp917
a(I8
I71
tp918
a(I0
I70
tp919
a(I12
I0
tp920
a(I0
I0
tp921
a(I0
I66
tp922
a(I13
I7
tp923
a(I0
I14
tp924
a(I26
I4
tp925
asg16
I200
sba(imain2
Polygon
p926
(dp927
g3
(I19
I169
tp928
sg5
I200
sg6
(I90
I217
I81
I0
tp929
sg8
(lp930
(I49
I128
tp931
a(I44
I183
tp932
a(I20
I192
tp933
asg16
I200
sba(imain2
Polygon
p934
(dp935
g3
(I194
I7
tp936
sg5
I200
sg6
(I165
I92
I134
I11
tp937
sg8
(lp938
(I200
I0
tp939
a(I200
I0
tp940
a(I200
I29
tp941
a(I160
I25
tp942
a(I200
I5
tp943
a(I200
I55
tp944
a(I200
I0
tp945
a(I172
I55
tp946
a(I180
I0
tp947
a(I153
I25
tp948
asg16
I200
sba(imain2
Polygon
p949
(dp950
g3
(I42
I15
tp951
sg5
I200
sg6
(I148
I137
I165
I1
tp952
sg8
(lp953
(I42
I56
tp954
a(I43
I0
tp955
a(I74
I10
tp956
a(I0
I65
tp957
a(I0
I8
tp958
a(I63
I19
tp959
a(I53
I38
tp960
a(I0
I10
tp961
a(I68
I0
tp962
a(I17
I0
tp963
asg16
I200
sba(imain2
Polygon
p964
(dp965
g3
(I183
I77
tp966
sg5
I200
sg6
(I25
I142
I28
I39
tp967
sg8
(lp968
(I176
I77
tp969
a(I200
I75
tp970
a(I200
I86
tp971
a(I156
I32
tp972
a(I200
I40
tp973
a(I190
I28
tp974
a(I191
I96
tp975
asg16
I200
sba(imain2
Polygon
p976
(dp977
g3
(I190
I45
tp978
sg5
I200
sg6
(I178
I46
I185
I1
tp979
sg8
(lp980
(I200
I43
tp981
a(I200
I26
tp982
a(I152
I86
tp983
a(I200
I14
tp984
a(I200
I31
tp985
a(I179
I86
tp986
a(I200
I7
tp987
a(I200
I81
tp988
a(I158
I35
tp989
a(I200
I70
tp990
asg16
I200
sba(imain2
Polygon
p991
(dp992
g3
(I115
I69
tp993
sg5
I200
sg6
(I0
I121
I192
I0
tp994
sg8
(lp995
(I77
I118
tp996
a(I67
I86
tp997
a(I84
I62
tp998
a(I109
I36
tp999
a(I128
I106
tp1000
asg16
I200
sba(imain2
Polygon
p1001
(dp1002
g3
(I173
I121
tp1003
sg5
I200
sg6
(I243
I56
I22
I1
tp1004
sg8
(lp1005
(I164
I100
tp1006
a(I161
I155
tp1007
a(I185
I134
tp1008
a(I164
I125
tp1009
a(I200
I144
tp1010
a(I200
I89
tp1011
a(I192
I111
tp1012
a(I182
I154
tp1013
a(I142
I141
tp1014
asg16
I200
sba(imain2
Polygon
p1015
(dp1016
g3
(I45
I135
tp1017
sg5
I200
sg6
(I150
I127
I179
I51
tp1018
sg8
(lp1019
(I7
I177
tp1020
a(I21
I178
tp1021
a(I23
I86
tp1022
a(I0
I183
tp1023
a(I35
I86
tp1024
a(I9
I89
tp1025
a(I10
I100
tp1026
asg16
I200
sba(imain2
Polygon
p1027
(dp1028
g3
(I61
I48
tp1029
sg5
I200
sg6
(I77
I35
I123
I127
tp1030
sg8
(lp1031
(I71
I86
tp1032
a(I81
I91
tp1033
a(I73
I78
tp1034
a(I47
I85
tp1035
a(I68
I93
tp1036
a(I86
I72
tp1037
a(I85
I73
tp1038
a(I53
I98
tp1039
asg16
I200
sba(imain2
Polygon
p1040
(dp1041
g3
(I96
I154
tp1042
sg5
I200
sg6
(I149
I185
I186
I66
tp1043
sg8
(lp1044
(I51
I113
tp1045
a(I57
I106
tp1046
a(I90
I200
tp1047
a(I142
I200
tp1048
a(I53
I114
tp1049
a(I124
I143
tp1050
asg16
I200
sba(imain2
Polygon
p1051
(dp1052
g3
(I32
I146
tp1053
sg5
I200
sg6
(I62
I240
I71
I112
tp1054
sg8
(lp1055
(I0
I157
tp1056
a(I0
I165
tp1057
a(I0
I132
tp1058
asg16
I200
sba(imain2
Polygon
p1059
(dp1060
g3
(I3
I120
tp1061
sg5
I200
sg6
(I186
I177
I17
I56
tp1062
sg8
(lp1063
(I38
I71
tp1064
a(I0
I72
tp1065
a(I0
I90
tp1066
a(I0
I104
tp1067
a(I0
I132
tp1068
a(I20
I116
tp1069
asg16
I200
sba(imain2
Polygon
p1070
(dp1071
g3
(I74
I152
tp1072
sg5
I200
sg6
(I59
I80
I126
I0
tp1073
sg8
(lp1074
(I76
I114
tp1075
a(I80
I138
tp1076
a(I96
I106
tp1077
a(I119
I167
tp1078
a(I81
I127
tp1079
a(I67
I141
tp1080
a(I58
I155
tp1081
a(I118
I127
tp1082
a(I81
I105
tp1083
a(I88
I139
tp1084
a(I87
I200
tp1085
asg16
I200
sba(imain2
Polygon
p1086
(dp1087
g3
(I31
I192
tp1088
sg5
I200
sg6
(I154
I33
I135
I1
tp1089
sg8
(lp1090
(I0
I173
tp1091
a(I8
I189
tp1092
a(I0
I200
tp1093
a(I5
I196
tp1094
a(I36
I200
tp1095
a(I80
I200
tp1096
a(I50
I144
tp1097
a(I25
I200
tp1098
a(I51
I189
tp1099
a(I41
I172
tp1100
a(I22
I162
tp1101
a(I17
I200
tp1102
a(I7
I200
tp1103
a(I79
I157
tp1104
a(I34
I200
tp1105
a(I31
I164
tp1106
a(I0
I200
tp1107
asg16
I200
sba(imain2
Polygon
p1108
(dp1109
g3
(I99
I149
tp1110
sg5
I200
sg6
(I190
I32
I204
I0
tp1111
sg8
(lp1112
(I110
I116
tp1113
a(I98
I199
tp1114
a(I140
I139
tp1115
a(I124
I139
tp1116
a(I114
I142
tp1117
a(I79
I154
tp1118
a(I115
I191
tp1119
a(I49
I180
tp1120
a(I149
I178
tp1121
a(I124
I194
tp1122
a(I133
I121
tp1123
a(I103
I151
tp1124
a(I123
I124
tp1125
asg16
I200
sba(imain2
Polygon
p1126
(dp1127
g3
(I183
I115
tp1128
sg5
I200
sg6
(I20
I109
I179
I151
tp1129
sg8
(lp1130
(I200
I102
tp1131
a(I200
I98
tp1132
a(I200
I102
tp1133
a(I193
I132
tp1134
a(I181
I84
tp1135
a(I200
I87
tp1136
a(I178
I134
tp1137
asg16
I200
sba(imain2
Polygon
p1138
(dp1139
g3
(I141
I107
tp1140
sg5
I200
sg6
(I79
I146
I85
I151
tp1141
sg8
(lp1142
(I115
I124
tp1143
a(I95
I75
tp1144
a(I111
I152
tp1145
asg16
I200
sba(imain2
Polygon
p1146
(dp1147
g3
(I149
I72
tp1148
sg5
I200
sg6
(I64
I107
I165
I36
tp1149
sg8
(lp1150
(I160
I35
tp1151
a(I195
I56
tp1152
a(I155
I38
tp1153
a(I99
I25
tp1154
a(I173
I40
tp1155
a(I128
I80
tp1156
a(I150
I68
tp1157
a(I99
I71
tp1158
a(I150
I68
tp1159
a(I153
I27
tp1160
a(I107
I42
tp1161
asg16
I200
sba(imain2
Polygon
p1162
(dp1163
g3
(I67
I128
tp1164
sg5
I200
sg6
(I212
I148
I54
I37
tp1165
sg8
(lp1166
(I106
I157
tp1167
a(I63
I86
tp1168
a(I108
I113
tp1169
a(I115
I152
tp1170
a(I62
I84
tp1171
a(I27
I94
tp1172
a(I55
I110
tp1173
a(I44
I110
tp1174
asg16
I200
sba(imain2
Polygon
p1175
(dp1176
g3
(I183
I44
tp1177
sg5
I200
sg6
(I81
I11
I172
I0
tp1178
sg8
(lp1179
(I200
I4
tp1180
a(I200
I50
tp1181
a(I184
I85
tp1182
a(I167
I15
tp1183
a(I190
I1
tp1184
asg16
I200
sba(imain2
Polygon
p1185
(dp1186
g3
(I100
I61
tp1187
sg5
I200
sg6
(I201
I97
I42
I48
tp1188
sg8
(lp1189
(I56
I38
tp1190
a(I99
I64
tp1191
a(I91
I106
tp1192
a(I96
I24
tp1193
a(I95
I52
tp1194
a(I85
I86
tp1195
a(I74
I24
tp1196
a(I135
I84
tp1197
a(I53
I108
tp1198
a(I109
I45
tp1199
a(I143
I70
tp1200
asg16
I200
sba(imain2
Polygon
p1201
(dp1202
g3
(I52
I190
tp1203
sg5
I200
sg6
(I175
I148
I50
I87
tp1204
sg8
(lp1205
(I71
I200
tp1206
a(I89
I171
tp1207
a(I102
I200
tp1208
a(I94
I200
tp1209
a(I95
I200
tp1210
a(I42
I200
tp1211
asg16
I200
sba(imain2
Polygon
p1212
(dp1213
g3
(I151
I65
tp1214
sg5
I200
sg6
(I64
I180
I1
I106
tp1215
sg8
(lp1216
(I176
I54
tp1217
a(I179
I51
tp1218
a(I192
I90
tp1219
a(I176
I89
tp1220
a(I165
I61
tp1221
a(I111
I63
tp1222
a(I119
I77
tp1223
a(I169
I47
tp1224
a(I152
I61
tp1225
asg16
I200
sba(imain2
Polygon
p1226
(dp1227
g3
(I67
I20
tp1228
sg5
I200
sg6
(I165
I93
I189
I112
tp1229
sg8
(lp1230
(I17
I0
tp1231
a(I29
I39
tp1232
a(I114
I0
tp1233
a(I27
I0
tp1234
a(I55
I0
tp1235
a(I113
I0
tp1236
asg16
I200
sba(imain2
Polygon
p1237
(dp1238
g3
(I199
I56
tp1239
sg5
I200
sg6
(I160
I0
I108
I0
tp1240
sg8
(lp1241
(I200
I61
tp1242
a(I165
I70
tp1243
a(I200
I88
tp1244
a(I200
I83
tp1245
a(I181
I100
tp1246
a(I188
I9
tp1247
a(I198
I104
tp1248
a(I188
I15
tp1249
a(I200
I90
tp1250
a(I200
I16
tp1251
asg16
I200
sba(imain2
Polygon
p1252
(dp1253
g3
(I185
I38
tp1254
sg5
I200
sg6
(I128
I218
I68
I163
tp1255
sg8
(lp1256
(I200
I69
tp1257
a(I200
I0
tp1258
a(I196
I0
tp1259
a(I154
I0
tp1260
a(I146
I42
tp1261
a(I200
I5
tp1262
a(I168
I28
tp1263
a(I142
I46
tp1264
a(I155
I22
tp1265
a(I181
I67
tp1266
a(I187
I70
tp1267
a(I138
I0
tp1268
a(I200
I50
tp1269
a(I141
I1
tp1270
a(I171
I85
tp1271
a(I189
I82
tp1272
asg16
I200
sba(imain2
Polygon
p1273
(dp1274
g3
(I67
I149
tp1275
sg5
I200
sg6
(I92
I206
I214
I47
tp1276
sg8
(lp1277
(I111
I118
tp1278
a(I92
I149
tp1279
a(I45
I104
tp1280
a(I59
I150
tp1281
a(I47
I101
tp1282
a(I64
I107
tp1283
a(I75
I131
tp1284
a(I69
I155
tp1285
asg16
I200
sba(imain2
Polygon
p1286
(dp1287
g3
(I21
I182
tp1288
sg5
I200
sg6
(I112
I116
I0
I90
tp1289
sg8
(lp1290
(I67
I200
tp1291
a(I0
I160
tp1292
a(I59
I164
tp1293
a(I20
I169
tp1294
a(I35
I196
tp1295
a(I41
I200
tp1296
a(I0
I181
tp1297
a(I19
I200
tp1298
a(I0
I143
tp1299
a(I13
I200
tp1300
a(I0
I144
tp1301
a(I0
I194
tp1302
a(I27
I167
tp1303
a(I13
I195
tp1304
a(I28
I152
tp1305
a(I0
I133
tp1306
a(I47
I191
tp1307
asg16
I200
sba(imain2
Polygon
p1308
(dp1309
g3
(I145
I176
tp1310
sg5
I200
sg6
(I185
I171
I0
I40
tp1311
sg8
(lp1312
(I109
I200
tp1313
a(I101
I200
tp1314
a(I138
I200
tp1315
a(I120
I137
tp1316
a(I98
I200
tp1317
a(I105
I200
tp1318
asg16
I200
sba(imain2
Polygon
p1319
(dp1320
g3
(I102
I21
tp1321
sg5
I200
sg6
(I181
I178
I187
I60
tp1322
sg8
(lp1323
(I129
I69
tp1324
a(I61
I26
tp1325
a(I53
I14
tp1326
a(I104
I12
tp1327
a(I146
I25
tp1328
a(I143
I7
tp1329
a(I142
I0
tp1330
a(I59
I0
tp1331
a(I54
I68
tp1332
asg16
I200
sba(imain2
Polygon
p1333
(dp1334
g3
(I154
I30
tp1335
sg5
I200
sg6
(I49
I96
I60
I0
tp1336
sg8
(lp1337
(I145
I6
tp1338
a(I198
I0
tp1339
a(I124
I34
tp1340
a(I200
I56
tp1341
a(I169
I73
tp1342
a(I162
I48
tp1343
a(I140
I39
tp1344
a(I195
I27
tp1345
a(I155
I0
tp1346
asg16
I200
sba(imain2
Polygon
p1347
(dp1348
g3
(I171
I178
tp1349
sg5
I200
sg6
(I94
I229
I32
I10
tp1350
sg8
(lp1351
(I151
I200
tp1352
a(I200
I176
tp1353
a(I200
I200
tp1354
a(I200
I195
tp1355
a(I200
I135
tp1356
a(I150
I187
tp1357
a(I133
I189
tp1358
asg16
I200
sba(imain2
Polygon
p1359
(dp1360
g3
(I189
I152
tp1361
sg5
I200
sg6
(I248
I70
I182
I1
tp1362
sg8
(lp1363
(I199
I159
tp1364
a(I173
I117
tp1365
a(I200
I166
tp1366
a(I200
I155
tp1367
a(I176
I108
tp1368
a(I182
I182
tp1369
a(I200
I166
tp1370
a(I162
I141
tp1371
a(I181
I110
tp1372
asg16
I200
sba(imain2
Polygon
p1373
(dp1374
g3
(I158
I122
tp1375
sg5
I200
sg6
(I43
I1
I156
I44
tp1376
sg8
(lp1377
(I182
I80
tp1378
a(I180
I97
tp1379
a(I200
I145
tp1380
a(I199
I82
tp1381
a(I166
I100
tp1382
a(I200
I140
tp1383
a(I200
I99
tp1384
a(I190
I85
tp1385
a(I131
I110
tp1386
a(I139
I107
tp1387
a(I200
I74
tp1388
asg16
I200
sba(imain2
Polygon
p1389
(dp1390
g3
(I89
I194
tp1391
sg5
I200
sg6
(I227
I76
I38
I1
tp1392
sg8
(lp1393
(I121
I200
tp1394
a(I61
I194
tp1395
a(I129
I168
tp1396
a(I124
I176
tp1397
a(I130
I164
tp1398
a(I129
I200
tp1399
a(I104
I200
tp1400
a(I84
I196
tp1401
a(I108
I183
tp1402
a(I64
I164
tp1403
a(I93
I163
tp1404
a(I121
I186
tp1405
asg16
I200
sba(imain2
Polygon
p1406
(dp1407
g3
(I185
I89
tp1408
sg5
I200
sg6
(I164
I1
I220
I1
tp1409
sg8
(lp1410
(I178
I125
tp1411
a(I197
I67
tp1412
a(I190
I122
tp1413
a(I200
I70
tp1414
a(I200
I43
tp1415
a(I200
I118
tp1416
a(I200
I94
tp1417
a(I200
I128
tp1418
a(I200
I84
tp1419
a(I154
I50
tp1420
a(I138
I104
tp1421
a(I187
I87
tp1422
asg16
I200
sba(imain2
Polygon
p1423
(dp1424
g3
(I67
I129
tp1425
sg5
I200
sg6
(I72
I192
I59
I130
tp1426
sg8
(lp1427
(I96
I97
tp1428
a(I112
I141
tp1429
a(I78
I170
tp1430
a(I114
I112
tp1431
a(I112
I100
tp1432
a(I49
I126
tp1433
a(I93
I98
tp1434
a(I71
I138
tp1435
a(I61
I148
tp1436
a(I109
I141
tp1437
a(I87
I119
tp1438
a(I87
I107
tp1439
a(I75
I92
tp1440
a(I84
I146
tp1441
a(I52
I135
tp1442
a(I91
I173
tp1443
asg16
I200
sba(imain2
Polygon
p1444
(dp1445
g3
(I95
I80
tp1446
sg5
I200
sg6
(I219
I89
I22
I131
tp1447
sg8
(lp1448
(I121
I57
tp1449
a(I47
I53
tp1450
a(I58
I130
tp1451
a(I113
I109
tp1452
a(I61
I47
tp1453
a(I144
I120
tp1454
a(I133
I109
tp1455
a(I129
I87
tp1456
asg16
I200
sba(imain2
Polygon
p1457
(dp1458
g3
(I14
I45
tp1459
sg5
I200
sg6
(I224
I0
I43
I110
tp1460
sg8
(lp1461
(I2
I89
tp1462
a(I0
I82
tp1463
a(I58
I24
tp1464
a(I17
I21
tp1465
a(I38
I90
tp1466
a(I10
I95
tp1467
asg16
I200
sba(imain2
Polygon
p1468
(dp1469
g3
(I34
I35
tp1470
sg5
I200
sg6
(I108
I9
I201
I28
tp1471
sg8
(lp1472
(I2
I0
tp1473
a(I0
I84
tp1474
a(I51
I56
tp1475
a(I42
I28
tp1476
a(I53
I81
tp1477
a(I39
I34
tp1478
a(I34
I0
tp1479
asg16
I200
sba(imain2
Polygon
p1480
(dp1481
g3
(I127
I147
tp1482
sg5
I200
sg6
(I118
I173
I188
I80
tp1483
sg8
(lp1484
(I102
I146
tp1485
a(I112
I167
tp1486
a(I161
I125
tp1487
a(I99
I100
tp1488
a(I112
I159
tp1489
a(I126
I158
tp1490
a(I164
I118
tp1491
a(I80
I133
tp1492
a(I125
I141
tp1493
a(I106
I116
tp1494
a(I85
I144
tp1495
a(I105
I137
tp1496
a(I148
I117
tp1497
a(I108
I109
tp1498
a(I88
I127
tp1499
a(I120
I132
tp1500
asg16
I200
sba(imain2
Polygon
p1501
(dp1502
g3
(I88
I106
tp1503
sg5
I200
sg6
(I189
I12
I60
I119
tp1504
sg8
(lp1505
(I127
I64
tp1506
a(I90
I146
tp1507
a(I117
I112
tp1508
asg16
I200
sba(imain2
Polygon
p1509
(dp1510
g3
(I11
I134
tp1511
sg5
I200
sg6
(I75
I179
I94
I101
tp1512
sg8
(lp1513
(I0
I183
tp1514
a(I0
I95
tp1515
a(I0
I108
tp1516
a(I0
I157
tp1517
a(I0
I145
tp1518
a(I12
I180
tp1519
a(I18
I183
tp1520
asg16
I200
sba(imain2
Polygon
p1521
(dp1522
g3
(I174
I141
tp1523
sg5
I200
sg6
(I114
I238
I93
I85
tp1524
sg8
(lp1525
(I200
I172
tp1526
a(I200
I120
tp1527
a(I192
I135
tp1528
a(I175
I139
tp1529
asg16
I200
sba(imain2
Polygon
p1530
(dp1531
g3
(I68
I44
tp1532
sg5
I200
sg6
(I3
I229
I128
I51
tp1533
sg8
(lp1534
(I40
I52
tp1535
a(I19
I82
tp1536
a(I62
I45
tp1537
a(I75
I72
tp1538
asg16
I200
sba(imain2
Polygon
p1539
(dp1540
g3
(I80
I68
tp1541
sg5
I200
sg6
(I77
I16
I16
I43
tp1542
sg8
(lp1543
(I35
I25
tp1544
a(I52
I50
tp1545
a(I34
I66
tp1546
a(I53
I18
tp1547
a(I117
I21
tp1548
a(I103
I35
tp1549
a(I40
I26
tp1550
a(I52
I99
tp1551
a(I43
I18
tp1552
a(I106
I28
tp1553
a(I97
I30
tp1554
a(I37
I35
tp1555
a(I66
I42
tp1556
a(I83
I18
tp1557
asg16
I200
sba(imain2
Polygon
p1558
(dp1559
g3
(I120
I143
tp1560
sg5
I200
sg6
(I152
I159
I83
I0
tp1561
sg8
(lp1562
(I157
I118
tp1563
a(I157
I180
tp1564
a(I104
I174
tp1565
a(I143
I95
tp1566
a(I91
I139
tp1567
a(I154
I138
tp1568
a(I91
I159
tp1569
a(I161
I105
tp1570
a(I110
I93
tp1571
a(I111
I169
tp1572
a(I99
I158
tp1573
a(I141
I96
tp1574
a(I86
I100
tp1575
a(I157
I112
tp1576
asg16
I200
sba(imain2
Polygon
p1577
(dp1578
g3
(I47
I43
tp1579
sg5
I200
sg6
(I224
I145
I62
I45
tp1580
sg8
(lp1581
(I94
I47
tp1582
a(I85
I78
tp1583
a(I7
I93
tp1584
a(I8
I45
tp1585
a(I5
I0
tp1586
a(I26
I10
tp1587
a(I20
I39
tp1588
a(I21
I40
tp1589
a(I74
I3
tp1590
a(I39
I37
tp1591
a(I68
I40
tp1592
a(I49
I4
tp1593
a(I96
I0
tp1594
asg16
I200
sba(imain2
Polygon
p1595
(dp1596
g3
(I6
I165
tp1597
sg5
I200
sg6
(I194
I51
I158
I69
tp1598
sg8
(lp1599
(I0
I168
tp1600
a(I0
I123
tp1601
a(I0
I200
tp1602
asg16
I200
sba(imain2
Polygon
p1603
(dp1604
g3
(I125
I173
tp1605
sg5
I200
sg6
(I91
I30
I33
I128
tp1606
sg8
(lp1607
(I145
I181
tp1608
a(I132
I145
tp1609
a(I105
I138
tp1610
a(I125
I138
tp1611
a(I143
I200
tp1612
a(I165
I200
tp1613
a(I85
I166
tp1614
a(I93
I145
tp1615
a(I79
I141
tp1616
a(I139
I163
tp1617
a(I157
I200
tp1618
a(I143
I189
tp1619
asg16
I200
sba(imain2
Polygon
p1620
(dp1621
g3
(I63
I154
tp1622
sg5
I200
sg6
(I122
I160
I3
I0
tp1623
sg8
(lp1624
(I96
I189
tp1625
a(I79
I108
tp1626
a(I64
I124
tp1627
a(I70
I140
tp1628
a(I13
I125
tp1629
a(I27
I140
tp1630
a(I66
I149
tp1631
a(I45
I194
tp1632
a(I109
I112
tp1633
asg16
I200
sba(imain2
Polygon
p1634
(dp1635
g3
(I152
I171
tp1636
sg5
I200
sg6
(I192
I4
I227
I1
tp1637
sg8
(lp1638
(I175
I186
tp1639
a(I142
I132
tp1640
a(I143
I159
tp1641
a(I167
I200
tp1642
a(I158
I122
tp1643
a(I190
I161
tp1644
a(I139
I139
tp1645
a(I180
I200
tp1646
a(I171
I163
tp1647
asg16
I200
sba(imain2
Polygon
p1648
(dp1649
g3
(I67
I143
tp1650
sg5
I200
sg6
(I71
I72
I132
I124
tp1651
sg8
(lp1652
(I100
I175
tp1653
a(I102
I173
tp1654
a(I113
I130
tp1655
asg16
I200
sba(imain2
Polygon
p1656
(dp1657
g3
(I153
I79
tp1658
sg5
I200
sg6
(I135
I30
I162
I0
tp1659
sg8
(lp1660
(I140
I47
tp1661
a(I146
I107
tp1662
a(I163
I87
tp1663
a(I105
I69
tp1664
a(I175
I77
tp1665
a(I178
I72
tp1666
a(I151
I121
tp1667
a(I148
I111
tp1668
a(I132
I57
tp1669
asg16
I200
sba(imain2
Polygon
p1670
(dp1671
g3
(I142
I192
tp1672
sg5
I200
sg6
(I51
I237
I2
I5
tp1673
sg8
(lp1674
(I175
I159
tp1675
a(I94
I200
tp1676
a(I151
I200
tp1677
a(I170
I191
tp1678
a(I159
I195
tp1679
a(I123
I197
tp1680
a(I115
I176
tp1681
a(I170
I144
tp1682
asg16
I200
sba(imain2
Polygon
p1683
(dp1684
g3
(I144
I12
tp1685
sg5
I200
sg6
(I189
I74
I99
I1
tp1686
sg8
(lp1687
(I142
I44
tp1688
a(I176
I0
tp1689
a(I104
I0
tp1690
a(I143
I52
tp1691
a(I127
I44
tp1692
a(I178
I0
tp1693
a(I176
I62
tp1694
a(I147
I12
tp1695
a(I190
I2
tp1696
a(I107
I0
tp1697
a(I108
I0
tp1698
a(I111
I37
tp1699
asg16
I200
sba(imain2
Polygon
p1700
(dp1701
g3
(I144
I92
tp1702
sg5
I200
sg6
(I224
I44
I149
I153
tp1703
sg8
(lp1704
(I165
I66
tp1705
a(I181
I55
tp1706
a(I188
I72
tp1707
a(I171
I70
tp1708
asg16
I200
sba(imain2
Polygon
p1709
(dp1710
g3
(I167
I23
tp1711
sg5
I200
sg6
(I171
I31
I242
I12
tp1712
sg8
(lp1713
(I170
I58
tp1714
a(I142
I0
tp1715
a(I200
I70
tp1716
a(I200
I14
tp1717
a(I155
I0
tp1718
a(I191
I17
tp1719
a(I177
I46
tp1720
a(I166
I58
tp1721
a(I200
I0
tp1722
a(I190
I67
tp1723
a(I200
I10
tp1724
a(I191
I30
tp1725
asg16
I200
sba(imain2
Polygon
p1726
(dp1727
g3
(I200
I102
tp1728
sg5
I200
sg6
(I50
I232
I149
I55
tp1729
sg8
(lp1730
(I161
I70
tp1731
a(I178
I55
tp1732
a(I200
I103
tp1733
a(I200
I120
tp1734
a(I200
I145
tp1735
a(I181
I124
tp1736
a(I200
I66
tp1737
a(I200
I76
tp1738
a(I175
I81
tp1739
a(I200
I61
tp1740
a(I200
I99
tp1741
a(I180
I53
tp1742
asg16
I200
sba(imain2
Polygon
p1743
(dp1744
g3
(I20
I176
tp1745
sg5
I200
sg6
(I11
I203
I1
I1
tp1746
sg8
(lp1747
(I26
I196
tp1748
a(I28
I200
tp1749
a(I0
I200
tp1750
a(I65
I153
tp1751
a(I0
I196
tp1752
a(I0
I200
tp1753
a(I43
I145
tp1754
a(I68
I181
tp1755
a(I48
I148
tp1756
a(I0
I189
tp1757
a(I31
I140
tp1758
a(I59
I184
tp1759
a(I45
I161
tp1760
a(I53
I147
tp1761
asg16
I200
sba(imain2
Polygon
p1762
(dp1763
g3
(I51
I87
tp1764
sg5
I200
sg6
(I98
I177
I47
I75
tp1765
sg8
(lp1766
(I68
I80
tp1767
a(I34
I48
tp1768
a(I30
I71
tp1769
a(I59
I118
tp1770
a(I60
I82
tp1771
a(I3
I114
tp1772
a(I4
I50
tp1773
a(I85
I81
tp1774
a(I40
I55
tp1775
a(I72
I112
tp1776
a(I94
I79
tp1777
a(I73
I95
tp1778
a(I90
I82
tp1779
asg16
I200
sba(imain2
Polygon
p1780
(dp1781
g3
(I124
I18
tp1782
sg5
I200
sg6
(I59
I202
I233
I1
tp1783
sg8
(lp1784
(I104
I18
tp1785
a(I112
I30
tp1786
a(I74
I0
tp1787
a(I103
I0
tp1788
a(I162
I0
tp1789
asg16
I200
sba(imain2
Polygon
p1790
(dp1791
g3
(I170
I179
tp1792
sg5
I200
sg6
(I139
I190
I58
I16
tp1793
sg8
(lp1794
(I170
I150
tp1795
a(I140
I155
tp1796
a(I146
I200
tp1797
a(I200
I129
tp1798
a(I200
I200
tp1799
a(I200
I200
tp1800
a(I129
I168
tp1801
a(I156
I140
tp1802
asg16
I200
sba(imain2
Polygon
p1803
(dp1804
g3
(I93
I4
tp1805
sg5
I200
sg6
(I125
I127
I0
I139
tp1806
sg8
(lp1807
(I78
I36
tp1808
a(I51
I53
tp1809
a(I63
I0
tp1810
a(I57
I28
tp1811
a(I47
I35
tp1812
a(I62
I48
tp1813
a(I51
I52
tp1814
asg16
I200
sba(imain2
Polygon
p1815
(dp1816
g3
(I33
I157
tp1817
sg5
I200
sg6
(I38
I119
I127
I0
tp1818
sg8
(lp1819
(I46
I107
tp1820
a(I36
I149
tp1821
a(I67
I128
tp1822
a(I68
I171
tp1823
a(I66
I120
tp1824
a(I55
I190
tp1825
a(I43
I145
tp1826
a(I9
I140
tp1827
a(I1
I120
tp1828
a(I69
I135
tp1829
asg16
I200
sba(imain2
Polygon
p1830
(dp1831
g3
(I91
I9
tp1832
sg5
I200
sg6
(I68
I184
I13
I0
tp1833
sg8
(lp1834
(I117
I56
tp1835
a(I135
I0
tp1836
a(I84
I0
tp1837
a(I135
I0
tp1838
a(I120
I0
tp1839
a(I54
I0
tp1840
a(I138
I30
tp1841
a(I132
I0
tp1842
a(I122
I0
tp1843
a(I103
I52
tp1844
a(I93
I27
tp1845
asg16
I200
sba(imain2
Polygon
p1846
(dp1847
g3
(I50
I13
tp1848
sg5
I200
sg6
(I92
I178
I162
I126
tp1849
sg8
(lp1850
(I31
I61
tp1851
a(I18
I56
tp1852
a(I8
I0
tp1853
a(I11
I0
tp1854
a(I7
I0
tp1855
a(I82
I0
tp1856
asg16
I200
sba(imain2
Polygon
p1857
(dp1858
g3
(I157
I108
tp1859
sg5
I200
sg6
(I128
I118
I2
I96
tp1860
sg8
(lp1861
(I168
I137
tp1862
a(I108
I127
tp1863
a(I123
I82
tp1864
a(I135
I90
tp1865
a(I108
I149
tp1866
a(I172
I125
tp1867
a(I193
I83
tp1868
a(I200
I120
tp1869
a(I184
I155
tp1870
a(I184
I147
tp1871
a(I188
I141
tp1872
asg16
I200
sba(imain2
Polygon
p1873
(dp1874
g3
(I7
I150
tp1875
sg5
I200
sg6
(I178
I11
I57
I25
tp1876
sg8
(lp1877
(I20
I124
tp1878
a(I0
I142
tp1879
a(I57
I154
tp1880
a(I0
I115
tp1881
a(I0
I123
tp1882
a(I45
I176
tp1883
a(I0
I184
tp1884
a(I0
I137
tp1885
a(I0
I158
tp1886
a(I0
I157
tp1887
a(I0
I118
tp1888
a(I0
I147
tp1889
a(I51
I116
tp1890
asg16
I200
sba(imain2
Polygon
p1891
(dp1892
g3
(I89
I125
tp1893
sg5
I200
sg6
(I43
I0
I215
I21
tp1894
sg8
(lp1895
(I82
I163
tp1896
a(I51
I118
tp1897
a(I89
I136
tp1898
a(I58
I104
tp1899
a(I76
I125
tp1900
a(I45
I157
tp1901
a(I54
I146
tp1902
asg16
I200
sba(imain2
Polygon
p1903
(dp1904
g3
(I18
I178
tp1905
sg5
I200
sg6
(I88
I164
I42
I107
tp1906
sg8
(lp1907
(I0
I148
tp1908
a(I43
I193
tp1909
a(I10
I175
tp1910
a(I0
I137
tp1911
a(I4
I137
tp1912
a(I23
I175
tp1913
asg16
I200
sba(imain2
Polygon
p1914
(dp1915
g3
(I81
I53
tp1916
sg5
I200
sg6
(I217
I84
I80
I0
tp1917
sg8
(lp1918
(I89
I81
tp1919
a(I80
I7
tp1920
a(I89
I58
tp1921
a(I129
I88
tp1922
a(I130
I38
tp1923
a(I60
I86
tp1924
a(I62
I57
tp1925
a(I38
I32
tp1926
a(I73
I54
tp1927
a(I31
I48
tp1928
a(I65
I35
tp1929
asg16
I200
sba(imain2
Polygon
p1930
(dp1931
g3
(I117
I32
tp1932
sg5
I200
sg6
(I167
I186
I83
I1
tp1933
sg8
(lp1934
(I71
I5
tp1935
a(I154
I0
tp1936
a(I110
I15
tp1937
asg16
I200
sba(imain2
Polygon
p1938
(dp1939
g3
(I79
I140
tp1940
sg5
I200
sg6
(I227
I1
I161
I46
tp1941
sg8
(lp1942
(I108
I95
tp1943
a(I107
I173
tp1944
a(I52
I148
tp1945
a(I123
I97
tp1946
a(I103
I173
tp1947
a(I75
I159
tp1948
a(I115
I149
tp1949
a(I80
I158
tp1950
asg16
I200
sba(imain2
Polygon
p1951
(dp1952
g3
(I26
I4
tp1953
sg5
I200
sg6
(I197
I74
I70
I1
tp1954
sg8
(lp1955
(I49
I0
tp1956
a(I23
I0
tp1957
a(I7
I0
tp1958
a(I70
I0
tp1959
a(I0
I0
tp1960
a(I24
I39
tp1961
a(I60
I17
tp1962
a(I0
I33
tp1963
asg16
I200
sba(imain2
Polygon
p1964
(dp1965
g3
(I15
I121
tp1966
sg5
I200
sg6
(I1
I223
I150
I1
tp1967
sg8
(lp1968
(I58
I148
tp1969
a(I33
I98
tp1970
a(I0
I90
tp1971
a(I48
I154
tp1972
a(I0
I74
tp1973
a(I0
I135
tp1974
a(I46
I142
tp1975
a(I57
I155
tp1976
a(I59
I105
tp1977
a(I65
I135
tp1978
a(I0
I154
tp1979
a(I0
I107
tp1980
asg16
I200
sba(imain2
Polygon
p1981
(dp1982
g3
(I163
I195
tp1983
sg5
I200
sg6
(I11
I151
I193
I20
tp1984
sg8
(lp1985
(I127
I200
tp1986
a(I125
I198
tp1987
a(I169
I200
tp1988
a(I178
I174
tp1989
a(I157
I200
tp1990
a(I144
I174
tp1991
a(I147
I164
tp1992
a(I127
I200
tp1993
a(I196
I200
tp1994
a(I200
I200
tp1995
asg16
I200
sba(imain2
Polygon
p1996
(dp1997
g3
(I118
I106
tp1998
sg5
I200
sg6
(I7
I134
I123
I125
tp1999
sg8
(lp2000
(I132
I104
tp2001
a(I163
I65
tp2002
a(I102
I87
tp2003
a(I125
I104
tp2004
a(I139
I123
tp2005
a(I123
I91
tp2006
a(I151
I66
tp2007
a(I130
I116
tp2008
a(I127
I105
tp2009
a(I140
I99
tp2010
asg16
I200
sba(imain2
Polygon
p2011
(dp2012
g3
(I56
I6
tp2013
sg5
I200
sg6
(I199
I2
I176
I1
tp2014
sg8
(lp2015
(I101
I52
tp2016
a(I9
I0
tp2017
a(I10
I3
tp2018
a(I16
I0
tp2019
a(I49
I0
tp2020
asg16
I200
sba(imain2
Polygon
p2021
(dp2022
g3
(I174
I69
tp2023
sg5
I200
sg6
(I120
I39
I48
I114
tp2024
sg8
(lp2025
(I167
I52
tp2026
a(I200
I29
tp2027
a(I160
I53
tp2028
a(I200
I119
tp2029
a(I196
I88
tp2030
a(I200
I90
tp2031
a(I151
I40
tp2032
a(I126
I41
tp2033
a(I140
I30
tp2034
a(I128
I48
tp2035
a(I130
I47
tp2036
a(I191
I41
tp2037
a(I183
I53
tp2038
asg16
I200
sba(imain2
Polygon
p2039
(dp2040
g3
(I0
I30
tp2041
sg5
I200
sg6
(I173
I42
I102
I0
tp2042
sg8
(lp2043
(I0
I38
tp2044
a(I8
I59
tp2045
a(I0
I48
tp2046
a(I0
I79
tp2047
a(I0
I25
tp2048
a(I0
I19
tp2049
asg16
I200
sba(imain2
Polygon
p2050
(dp2051
g3
(I134
I58
tp2052
sg5
I200
sg6
(I242
I179
I117
I117
tp2053
sg8
(lp2054
(I179
I47
tp2055
a(I110
I8
tp2056
a(I156
I8
tp2057
a(I179
I9
tp2058
asg16
I200
sba(imain2
Polygon
p2059
(dp2060
g3
(I142
I75
tp2061
sg5
I200
sg6
(I201
I61
I194
I93
tp2062
sg8
(lp2063
(I191
I83
tp2064
a(I154
I36
tp2065
a(I185
I48
tp2066
asg16
I200
sba(imain2
Polygon
p2067
(dp2068
g3
(I129
I65
tp2069
sg5
I200
sg6
(I89
I1
I165
I142
tp2070
sg8
(lp2071
(I155
I65
tp2072
a(I159
I69
tp2073
a(I151
I68
tp2074
asg16
I200
sba(imain2
Polygon
p2075
(dp2076
g3
(I163
I171
tp2077
sg5
I200
sg6
(I199
I12
I132
I1
tp2078
sg8
(lp2079
(I176
I200
tp2080
a(I127
I183
tp2081
a(I164
I123
tp2082
a(I125
I138
tp2083
a(I193
I148
tp2084
a(I200
I169
tp2085
a(I170
I142
tp2086
a(I130
I173
tp2087
a(I129
I187
tp2088
a(I189
I200
tp2089
a(I200
I191
tp2090
a(I128
I180
tp2091
a(I137
I184
tp2092
a(I165
I200
tp2093
a(I128
I200
tp2094
asg16
I200
sba(imain2
Polygon
p2095
(dp2096
g3
(I184
I20
tp2097
sg5
I200
sg6
(I214
I93
I228
I83
tp2098
sg8
(lp2099
(I196
I58
tp2100
a(I200
I0
tp2101
a(I200
I69
tp2102
a(I152
I52
tp2103
a(I166
I14
tp2104
a(I144
I0
tp2105
a(I200
I0
tp2106
a(I200
I0
tp2107
asg16
I200
sba(imain2
Polygon
p2108
(dp2109
g3
(I145
I135
tp2110
sg5
I200
sg6
(I31
I42
I59
I50
tp2111
sg8
(lp2112
(I160
I178
tp2113
a(I183
I129
tp2114
a(I135
I88
tp2115
a(I110
I168
tp2116
a(I166
I183
tp2117
asg16
I200
sba(imain2
Polygon
p2118
(dp2119
g3
(I64
I74
tp2120
sg5
I200
sg6
(I138
I209
I150
I1
tp2121
sg8
(lp2122
(I111
I67
tp2123
a(I74
I124
tp2124
a(I19
I47
tp2125
a(I101
I34
tp2126
asg16
I200
sba(imain2
Polygon
p2127
(dp2128
g3
(I82
I104
tp2129
sg5
I200
sg6
(I48
I155
I199
I1
tp2130
sg8
(lp2131
(I68
I123
tp2132
a(I112
I114
tp2133
a(I80
I128
tp2134
a(I121
I69
tp2135
a(I87
I71
tp2136
a(I92
I82
tp2137
a(I105
I79
tp2138
a(I74
I119
tp2139
a(I51
I70
tp2140
a(I39
I79
tp2141
asg16
I200
sba(imain2
Polygon
p2142
(dp2143
g3
(I176
I51
tp2144
sg5
I200
sg6
(I114
I211
I85
I0
tp2145
sg8
(lp2146
(I200
I6
tp2147
a(I144
I17
tp2148
a(I157
I85
tp2149
a(I200
I14
tp2150
asg16
I200
sba(imain2
Polygon
p2151
(dp2152
g3
(I18
I179
tp2153
sg5
I200
sg6
(I11
I98
I96
I50
tp2154
sg8
(lp2155
(I14
I200
tp2156
a(I0
I168
tp2157
a(I0
I198
tp2158
a(I21
I200
tp2159
a(I38
I177
tp2160
a(I48
I200
tp2161
a(I19
I154
tp2162
asg16
I200
sba(imain2
Polygon
p2163
(dp2164
g3
(I112
I97
tp2165
sg5
I200
sg6
(I96
I199
I68
I63
tp2166
sg8
(lp2167
(I117
I118
tp2168
a(I70
I139
tp2169
a(I97
I92
tp2170
a(I106
I74
tp2171
a(I76
I136
tp2172
a(I93
I140
tp2173
a(I73
I120
tp2174
a(I89
I89
tp2175
a(I130
I88
tp2176
asg16
I200
sba(imain2
Polygon
p2177
(dp2178
g3
(I3
I120
tp2179
sg5
I200
sg6
(I62
I88
I147
I106
tp2180
sg8
(lp2181
(I0
I86
tp2182
a(I0
I74
tp2183
a(I0
I94
tp2184
a(I0
I109
tp2185
a(I43
I80
tp2186
asg16
I200
sba(imain2
Polygon
p2187
(dp2188
g3
(I7
I32
tp2189
sg5
I200
sg6
(I148
I32
I188
I1
tp2190
sg8
(lp2191
(I0
I0
tp2192
a(I0
I27
tp2193
a(I0
I45
tp2194
a(I38
I80
tp2195
a(I38
I59
tp2196
a(I27
I38
tp2197
a(I0
I0
tp2198
a(I0
I19
tp2199
a(I48
I81
tp2200
a(I0
I15
tp2201
a(I0
I75
tp2202
a(I37
I19
tp2203
a(I0
I0
tp2204
a(I0
I0
tp2205
a(I44
I0
tp2206
asg16
I200
sba(imain2
Polygon
p2207
(dp2208
g3
(I166
I95
tp2209
sg5
I200
sg6
(I186
I4
I142
I156
tp2210
sg8
(lp2211
(I192
I50
tp2212
a(I200
I127
tp2213
a(I200
I60
tp2214
asg16
I200
sba(imain2
Polygon
p2215
(dp2216
g3
(I197
I92
tp2217
sg5
I200
sg6
(I119
I7
I30
I0
tp2218
sg8
(lp2219
(I174
I138
tp2220
a(I199
I90
tp2221
a(I200
I99
tp2222
a(I161
I97
tp2223
a(I158
I100
tp2224
a(I168
I58
tp2225
a(I200
I78
tp2226
a(I150
I107
tp2227
a(I191
I56
tp2228
a(I200
I66
tp2229
a(I176
I90
tp2230
a(I162
I59
tp2231
a(I200
I49
tp2232
asg16
I200
sba(imain2
Polygon
p2233
(dp2234
g3
(I167
I132
tp2235
sg5
I200
sg6
(I220
I57
I86
I0
tp2236
sg8
(lp2237
(I199
I128
tp2238
a(I157
I116
tp2239
a(I200
I134
tp2240
a(I134
I127
tp2241
a(I130
I182
tp2242
a(I200
I112
tp2243
a(I188
I122
tp2244
a(I175
I142
tp2245
a(I117
I113
tp2246
a(I170
I164
tp2247
a(I154
I153
tp2248
a(I132
I168
tp2249
a(I184
I111
tp2250
a(I135
I154
tp2251
a(I144
I132
tp2252
asg16
I200
sba(imain2
Polygon
p2253
(dp2254
g3
(I2
I175
tp2255
sg5
I200
sg6
(I102
I198
I107
I0
tp2256
sg8
(lp2257
(I49
I138
tp2258
a(I0
I128
tp2259
a(I4
I200
tp2260
asg16
I200
sba(imain2
Polygon
p2261
(dp2262
g3
(I148
I121
tp2263
sg5
I200
sg6
(I129
I198
I133
I29
tp2264
sg8
(lp2265
(I121
I139
tp2266
a(I118
I71
tp2267
a(I101
I103
tp2268
a(I128
I125
tp2269
a(I137
I105
tp2270
asg16
I200
sba(imain2
Polygon
p2271
(dp2272
g3
(I26
I154
tp2273
sg5
I200
sg6
(I144
I64
I225
I43
tp2274
sg8
(lp2275
(I35
I156
tp2276
a(I0
I196
tp2277
a(I20
I155
tp2278
a(I0
I149
tp2279
asg16
I200
sba(imain2
Polygon
p2280
(dp2281
g3
(I188
I60
tp2282
sg5
I200
sg6
(I23
I78
I8
I64
tp2283
sg8
(lp2284
(I200
I100
tp2285
a(I148
I100
tp2286
a(I139
I27
tp2287
a(I200
I98
tp2288
a(I200
I18
tp2289
a(I200
I37
tp2290
a(I200
I12
tp2291
a(I200
I49
tp2292
asg16
I200
sba(imain2
Polygon
p2293
(dp2294
g3
(I29
I0
tp2295
sg5
I200
sg6
(I200
I202
I9
I97
tp2296
sg8
(lp2297
(I29
I0
tp2298
a(I0
I0
tp2299
a(I50
I36
tp2300
a(I45
I18
tp2301
a(I61
I0
tp2302
a(I0
I0
tp2303
a(I0
I50
tp2304
a(I70
I50
tp2305
a(I0
I0
tp2306
a(I0
I0
tp2307
a(I77
I0
tp2308
a(I74
I14
tp2309
a(I36
I44
tp2310
a(I51
I8
tp2311
a(I74
I0
tp2312
asg16
I200
sba(imain2
Polygon
p2313
(dp2314
g3
(I92
I198
tp2315
sg5
I200
sg6
(I139
I3
I14
I76
tp2316
sg8
(lp2317
(I96
I170
tp2318
a(I95
I158
tp2319
a(I67
I151
tp2320
a(I90
I200
tp2321
a(I44
I200
tp2322
a(I99
I200
tp2323
a(I73
I181
tp2324
a(I108
I179
tp2325
asg16
I200
sba(imain2
Polygon
p2326
(dp2327
g3
(I149
I42
tp2328
sg5
I200
sg6
(I91
I14
I54
I59
tp2329
sg8
(lp2330
(I145
I16
tp2331
a(I99
I9
tp2332
a(I127
I88
tp2333
a(I167
I91
tp2334
a(I156
I44
tp2335
a(I135
I17
tp2336
a(I145
I8
tp2337
a(I113
I48
tp2338
a(I119
I35
tp2339
asg16
I200
sba(imain2
Polygon
p2340
(dp2341
g3
(I18
I189
tp2342
sg5
I200
sg6
(I70
I8
I171
I0
tp2343
sg8
(lp2344
(I0
I200
tp2345
a(I50
I142
tp2346
a(I9
I200
tp2347
a(I11
I160
tp2348
a(I0
I200
tp2349
a(I5
I167
tp2350
a(I0
I200
tp2351
a(I26
I188
tp2352
a(I62
I173
tp2353
a(I0
I200
tp2354
a(I68
I200
tp2355
a(I56
I183
tp2356
a(I23
I152
tp2357
a(I5
I166
tp2358
a(I0
I178
tp2359
a(I7
I148
tp2360
asg16
I200
sba(imain2
Polygon
p2361
(dp2362
g3
(I88
I199
tp2363
sg5
I200
sg6
(I16
I199
I77
I91
tp2364
sg8
(lp2365
(I65
I200
tp2366
a(I39
I200
tp2367
a(I44
I200
tp2368
a(I103
I197
tp2369
a(I52
I200
tp2370
a(I60
I200
tp2371
a(I126
I200
tp2372
a(I62
I200
tp2373
a(I47
I200
tp2374
a(I39
I200
tp2375
asg16
I200
sba(imain2
Polygon
p2376
(dp2377
g3
(I57
I178
tp2378
sg5
I200
sg6
(I22
I120
I163
I0
tp2379
sg8
(lp2380
(I96
I196
tp2381
a(I21
I164
tp2382
a(I55
I131
tp2383
a(I14
I171
tp2384
a(I20
I200
tp2385
a(I104
I173
tp2386
asg16
I200
sba(imain2
Polygon
p2387
(dp2388
g3
(I192
I63
tp2389
sg5
I200
sg6
(I115
I241
I124
I110
tp2390
sg8
(lp2391
(I200
I102
tp2392
a(I200
I19
tp2393
a(I200
I28
tp2394
a(I169
I43
tp2395
a(I142
I25
tp2396
a(I200
I102
tp2397
a(I161
I50
tp2398
a(I175
I96
tp2399
a(I183
I98
tp2400
a(I182
I96
tp2401
asg16
I200
sba(imain2
Polygon
p2402
(dp2403
g3
(I115
I149
tp2404
sg5
I200
sg6
(I106
I195
I239
I1
tp2405
sg8
(lp2406
(I118
I155
tp2407
a(I100
I164
tp2408
a(I102
I100
tp2409
a(I94
I115
tp2410
a(I71
I108
tp2411
a(I84
I110
tp2412
a(I80
I163
tp2413
a(I128
I176
tp2414
asg16
I200
sba(imain2
Polygon
p2415
(dp2416
g3
(I89
I107
tp2417
sg5
I200
sg6
(I31
I11
I112
I112
tp2418
sg8
(lp2419
(I135
I96
tp2420
a(I106
I149
tp2421
a(I137
I85
tp2422
a(I129
I120
tp2423
a(I138
I81
tp2424
asg16
I200
sba(imain2
Polygon
p2425
(dp2426
g3
(I87
I130
tp2427
sg5
I200
sg6
(I167
I110
I149
I0
tp2428
sg8
(lp2429
(I97
I162
tp2430
a(I93
I84
tp2431
a(I72
I117
tp2432
a(I114
I131
tp2433
a(I70
I91
tp2434
a(I123
I146
tp2435
a(I54
I141
tp2436
a(I87
I159
tp2437
a(I44
I172
tp2438
a(I134
I156
tp2439
a(I103
I85
tp2440
a(I56
I100
tp2441
asg16
I200
sba(imain2
Polygon
p2442
(dp2443
g3
(I62
I187
tp2444
sg5
I200
sg6
(I112
I15
I175
I59
tp2445
sg8
(lp2446
(I22
I200
tp2447
a(I97
I198
tp2448
a(I38
I200
tp2449
a(I17
I200
tp2450
a(I77
I200
tp2451
a(I58
I183
tp2452
a(I66
I189
tp2453
a(I85
I194
tp2454
a(I71
I200
tp2455
a(I24
I200
tp2456
a(I21
I200
tp2457
asg16
I200
sba(imain2
Polygon
p2458
(dp2459
g3
(I59
I26
tp2460
sg5
I200
sg6
(I62
I6
I237
I0
tp2461
sg8
(lp2462
(I83
I0
tp2463
a(I13
I0
tp2464
a(I81
I0
tp2465
a(I33
I0
tp2466
a(I92
I63
tp2467
a(I104
I10
tp2468
a(I102
I70
tp2469
asg16
I200
sba(imain2
Polygon
p2470
(dp2471
g3
(I74
I59
tp2472
sg5
I200
sg6
(I1
I48
I105
I0
tp2473
sg8
(lp2474
(I99
I103
tp2475
a(I67
I71
tp2476
a(I76
I11
tp2477
a(I99
I13
tp2478
a(I34
I11
tp2479
a(I79
I79
tp2480
a(I86
I46
tp2481
a(I106
I51
tp2482
a(I34
I71
tp2483
asg16
I200
sba(imain2
Polygon
p2484
(dp2485
g3
(I141
I175
tp2486
sg5
I200
sg6
(I87
I37
I11
I1
tp2487
sg8
(lp2488
(I169
I200
tp2489
a(I163
I150
tp2490
a(I130
I150
tp2491
a(I149
I186
tp2492
a(I129
I145
tp2493
a(I173
I200
tp2494
a(I129
I200
tp2495
a(I190
I127
tp2496
a(I155
I171
tp2497
a(I128
I200
tp2498
a(I98
I200
tp2499
a(I136
I145
tp2500
a(I180
I193
tp2501
a(I92
I137
tp2502
a(I143
I137
tp2503
a(I103
I195
tp2504
a(I138
I192
tp2505
a(I176
I141
tp2506
asg16
I200
sba(imain2
Polygon
p2507
(dp2508
g3
(I114
I81
tp2509
sg5
I200
sg6
(I234
I18
I199
I80
tp2510
sg8
(lp2511
(I121
I101
tp2512
a(I107
I74
tp2513
a(I79
I35
tp2514
a(I125
I101
tp2515
a(I121
I83
tp2516
asg16
I200
sba(imain2
Polygon
p2517
(dp2518
g3
(I191
I128
tp2519
sg5
I200
sg6
(I244
I3
I244
I14
tp2520
sg8
(lp2521
(I156
I149
tp2522
a(I144
I170
tp2523
a(I190
I78
tp2524
a(I200
I148
tp2525
a(I182
I162
tp2526
a(I187
I85
tp2527
asg16
I200
sba(imain2
Polygon
p2528
(dp2529
g3
(I40
I13
tp2530
sg5
I200
sg6
(I70
I182
I121
I0
tp2531
sg8
(lp2532
(I24
I51
tp2533
a(I0
I0
tp2534
a(I62
I16
tp2535
a(I16
I43
tp2536
a(I84
I0
tp2537
a(I38
I5
tp2538
a(I76
I9
tp2539
a(I26
I0
tp2540
a(I0
I0
tp2541
a(I40
I20
tp2542
a(I1
I44
tp2543
a(I45
I0
tp2544
a(I83
I38
tp2545
a(I86
I9
tp2546
a(I46
I57
tp2547
a(I76
I0
tp2548
a(I79
I0
tp2549
a(I79
I47
tp2550
a(I0
I0
tp2551
asg16
I200
sba(imain2
Polygon
p2552
(dp2553
g3
(I50
I145
tp2554
sg5
I200
sg6
(I57
I211
I125
I23
tp2555
sg8
(lp2556
(I65
I143
tp2557
a(I87
I159
tp2558
a(I100
I145
tp2559
a(I39
I123
tp2560
asg16
I200
sba(imain2
Polygon
p2561
(dp2562
g3
(I184
I69
tp2563
sg5
I200
sg6
(I122
I136
I36
I146
tp2564
sg8
(lp2565
(I200
I72
tp2566
a(I200
I63
tp2567
a(I200
I31
tp2568
a(I200
I33
tp2569
a(I200
I67
tp2570
a(I164
I71
tp2571
a(I174
I114
tp2572
a(I200
I115
tp2573
a(I200
I101
tp2574
a(I195
I79
tp2575
asg16
I200
sba(imain2
Polygon
p2576
(dp2577
g3
(I6
I29
tp2578
sg5
I200
sg6
(I138
I36
I215
I1
tp2579
sg8
(lp2580
(I27
I76
tp2581
a(I0
I40
tp2582
a(I0
I41
tp2583
a(I0
I0
tp2584
a(I48
I0
tp2585
a(I18
I43
tp2586
a(I40
I50
tp2587
asg16
I200
sba(imain2
Polygon
p2588
(dp2589
g3
(I100
I197
tp2590
sg5
I200
sg6
(I29
I135
I60
I77
tp2591
sg8
(lp2592
(I143
I200
tp2593
a(I79
I200
tp2594
a(I85
I200
tp2595
a(I74
I200
tp2596
a(I80
I200
tp2597
a(I67
I193
tp2598
a(I68
I200
tp2599
asg16
I200
sba(imain2
Polygon
p2600
(dp2601
g3
(I102
I67
tp2602
sg5
I200
sg6
(I110
I65
I87
I0
tp2603
sg8
(lp2604
(I84
I107
tp2605
a(I59
I86
tp2606
a(I149
I22
tp2607
a(I134
I38
tp2608
a(I73
I48
tp2609
a(I152
I68
tp2610
a(I84
I36
tp2611
a(I86
I100
tp2612
a(I60
I115
tp2613
a(I85
I70
tp2614
asg16
I200
sba(imain2
Polygon
p2615
(dp2616
g3
(I91
I124
tp2617
sg5
I200
sg6
(I166
I67
I8
I127
tp2618
sg8
(lp2619
(I41
I114
tp2620
a(I80
I127
tp2621
a(I83
I75
tp2622
a(I119
I114
tp2623
a(I111
I171
tp2624
a(I45
I142
tp2625
a(I66
I81
tp2626
a(I119
I80
tp2627
a(I141
I130
tp2628
a(I81
I119
tp2629
a(I76
I76
tp2630
a(I54
I89
tp2631
a(I76
I94
tp2632
asg16
I200
sba(imain2
Polygon
p2633
(dp2634
g3
(I133
I74
tp2635
sg5
I200
sg6
(I15
I174
I91
I0
tp2636
sg8
(lp2637
(I93
I104
tp2638
a(I179
I62
tp2639
a(I134
I83
tp2640
a(I176
I108
tp2641
a(I157
I40
tp2642
a(I87
I119
tp2643
a(I137
I43
tp2644
a(I178
I48
tp2645
a(I117
I90
tp2646
a(I89
I88
tp2647
a(I136
I101
tp2648
a(I133
I83
tp2649
a(I181
I26
tp2650
a(I95
I85
tp2651
a(I139
I76
tp2652
a(I182
I74
tp2653
a(I171
I56
tp2654
asg16
I200
sba(imain2
Polygon
p2655
(dp2656
g3
(I181
I185
tp2657
sg5
I200
sg6
(I1
I135
I61
I15
tp2658
sg8
(lp2659
(I192
I200
tp2660
a(I200
I200
tp2661
a(I197
I153
tp2662
asg16
I200
sba(imain2
Polygon
p2663
(dp2664
g3
(I3
I9
tp2665
sg5
I200
sg6
(I113
I15
I43
I125
tp2666
sg8
(lp2667
(I37
I0
tp2668
a(I49
I0
tp2669
a(I0
I0
tp2670
asg16
I200
sba(imain2
Polygon
p2671
(dp2672
g3
(I154
I22
tp2673
sg5
I200
sg6
(I81
I180
I130
I0
tp2674
sg8
(lp2675
(I198
I7
tp2676
a(I158
I14
tp2677
a(I167
I71
tp2678
a(I193
I61
tp2679
asg16
I200
sba(imain2
Polygon
p2680
(dp2681
g3
(I3
I51
tp2682
sg5
I200
sg6
(I10
I166
I11
I44
tp2683
sg8
(lp2684
(I0
I44
tp2685
a(I0
I78
tp2686
a(I0
I74
tp2687
asg16
I200
sba(imain2
Polygon
p2688
(dp2689
g3
(I183
I123
tp2690
sg5
I200
sg6
(I43
I171
I189
I105
tp2691
sg8
(lp2692
(I200
I171
tp2693
a(I200
I140
tp2694
a(I200
I98
tp2695
asg16
I200
sba.