(lp0
(imain2
Polygon
p1
(dp2
S'origin'
p3
(I100
I102
tp4
sS'h'
p5
I200
sS'color'
p6
(I132
I173
I188
I1
tp7
sS'corner_list'
p8
(lp9
(I77
I128
tp10
a(I84
I110
tp11
a(I128
I109
tp12
a(I126
I102
tp13
a(I83
I86
tp14
a(I62
I111
tp15
asS'w'
p16
I200
sba(imain2
Polygon
p17
(dp18
g3
(I142
I122
tp19
sg5
I200
sg6
(I20
I220
I130
I30
tp20
sg8
(lp21
(I101
I108
tp22
a(I95
I104
tp23
a(I106
I160
tp24
a(I147
I155
tp25
a(I109
I157
tp26
a(I93
I95
tp27
a(I119
I85
tp28
a(I188
I130
tp29
a(I164
I94
tp30
a(I192
I113
tp31
a(I136
I104
tp32
a(I134
I86
tp33
a(I102
I138
tp34
asg16
I200
sba(imain2
Polygon
p35
(dp36
g3
(I39
I24
tp37
sg5
I200
sg6
(I240
I162
I199
I1
tp38
sg8
(lp39
(I58
I0
tp40
a(I42
I0
tp41
a(I43
I65
tp42
a(I50
I25
tp43
asg16
I200
sba(imain2
Polygon
p44
(dp45
g3
(I87
I73
tp46
sg5
I200
sg6
(I160
I18
I197
I89
tp47
sg8
(lp48
(I103
I121
tp49
a(I74
I69
tp50
a(I82
I102
tp51
a(I62
I79
tp52
a(I68
I47
tp53
a(I56
I110
tp54
a(I92
I70
tp55
a(I64
I117
tp56
a(I47
I56
tp57
a(I77
I37
tp58
a(I131
I68
tp59
a(I58
I120
tp60
a(I128
I91
tp61
a(I80
I99
tp62
asg16
I200
sba(imain2
Polygon
p63
(dp64
g3
(I75
I185
tp65
sg5
I200
sg6
(I70
I1
I89
I79
tp66
sg8
(lp67
(I84
I199
tp68
a(I125
I163
tp69
a(I123
I140
tp70
a(I120
I200
tp71
a(I83
I200
tp72
a(I68
I195
tp73
a(I98
I174
tp74
a(I100
I200
tp75
asg16
I200
sba(imain2
Polygon
p76
(dp77
g3
(I51
I161
tp78
sg5
I200
sg6
(I130
I131
I14
I91
tp79
sg8
(lp80
(I86
I200
tp81
a(I55
I200
tp82
a(I96
I190
tp83
a(I67
I140
tp84
a(I76
I152
tp85
asg16
I200
sba(imain2
Polygon
p86
(dp87
g3
(I76
I107
tp88
sg5
I200
sg6
(I159
I37
I202
I110
tp89
sg8
(lp90
(I113
I136
tp91
a(I40
I71
tp92
a(I87
I121
tp93
a(I55
I67
tp94
a(I115
I57
tp95
a(I107
I154
tp96
a(I53
I141
tp97
a(I48
I92
tp98
a(I101
I62
tp99
a(I75
I123
tp100
a(I85
I132
tp101
a(I87
I117
tp102
asg16
I200
sba(imain2
Polygon
p103
(dp104
g3
(I79
I45
tp105
sg5
I200
sg6
(I221
I1
I240
I1
tp106
sg8
(lp107
(I84
I11
tp108
a(I121
I88
tp109
a(I37
I47
tp110
a(I70
I64
tp111
a(I88
I9
tp112
asg16
I200
sba(imain2
Polygon
p113
(dp114
g3
(I123
I186
tp115
sg5
I200
sg6
(I47
I14
I42
I1
tp116
sg8
(lp117
(I157
I152
tp118
a(I119
I194
tp119
a(I93
I190
tp120
asg16
I200
sba(imain2
Polygon
p121
(dp122
g3
(I74
I162
tp123
sg5
I200
sg6
(I155
I94
I212
I1
tp124
sg8
(lp125
(I111
I187
tp126
a(I28
I142
tp127
a(I74
I188
tp128
a(I60
I138
tp129
a(I124
I140
tp130
a(I44
I200
tp131
a(I54
I193
tp132
a(I62
I188
tp133
a(I124
I196
tp134
a(I110
I141
tp135
a(I120
I166
tp136
asg16
I200
sba(imain2
Polygon
p137
(dp138
g3
(I64
I120
tp139
sg5
I200
sg6
(I232
I40
I170
I1
tp140
sg8
(lp141
(I113
I141
tp142
a(I100
I116
tp143
a(I105
I141
tp144
a(I104
I125
tp145
asg16
I200
sba(imain2
Polygon
p146
(dp147
g3
(I2
I37
tp148
sg5
I200
sg6
(I134
I133
I101
I109
tp149
sg8
(lp150
(I0
I0
tp151
a(I45
I3
tp152
a(I4
I47
tp153
a(I20
I35
tp154
a(I0
I66
tp155
a(I41
I3
tp156
a(I36
I68
tp157
a(I21
I15
tp158
a(I39
I86
tp159
a(I0
I85
tp160
a(I0
I9
tp161
asg16
I200
sba(imain2
Polygon
p162
(dp163
g3
(I161
I116
tp164
sg5
I200
sg6
(I151
I91
I113
I52
tp165
sg8
(lp166
(I191
I88
tp167
a(I200
I162
tp168
a(I168
I90
tp169
a(I170
I71
tp170
a(I163
I108
tp171
a(I174
I126
tp172
a(I198
I163
tp173
a(I182
I147
tp174
a(I200
I152
tp175
asg16
I200
sba(imain2
Polygon
p176
(dp177
g3
(I171
I44
tp178
sg5
I200
sg6
(I131
I236
I105
I109
tp179
sg8
(lp180
(I151
I30
tp181
a(I157
I22
tp182
a(I200
I89
tp183
a(I200
I0
tp184
a(I132
I0
tp185
a(I134
I21
tp186
a(I132
I4
tp187
a(I161
I77
tp188
a(I200
I93
tp189
a(I143
I0
tp190
a(I170
I71
tp191
a(I157
I81
tp192
a(I146
I0
tp193
asg16
I200
sba(imain2
Polygon
p194
(dp195
g3
(I196
I163
tp196
sg5
I200
sg6
(I37
I166
I6
I21
tp197
sg8
(lp198
(I195
I117
tp199
a(I200
I197
tp200
a(I200
I191
tp201
a(I200
I134
tp202
a(I193
I170
tp203
a(I200
I141
tp204
a(I155
I170
tp205
a(I200
I182
tp206
a(I165
I130
tp207
a(I200
I114
tp208
a(I170
I173
tp209
a(I179
I115
tp210
a(I171
I129
tp211
asg16
I200
sba(imain2
Polygon
p212
(dp213
g3
(I123
I35
tp214
sg5
I200
sg6
(I142
I61
I71
I0
tp215
sg8
(lp216
(I117
I1
tp217
a(I134
I57
tp218
a(I79
I65
tp219
a(I158
I15
tp220
a(I90
I72
tp221
a(I143
I1
tp222
a(I94
I0
tp223
a(I100
I0
tp224
a(I130
I0
tp225
asg16
I200
sba(imain2
Polygon
p226
(dp227
g3
(I38
I152
tp228
sg5
I200
sg6
(I92
I165
I32
I129
tp229
sg8
(lp230
(I87
I136
tp231
a(I53
I103
tp232
a(I49
I126
tp233
a(I73
I158
tp234
asg16
I200
sba(imain2
Polygon
p235
(dp236
g3
(I118
I157
tp237
sg5
I200
sg6
(I85
I63
I43
I0
tp238
sg8
(lp239
(I79
I185
tp240
a(I115
I173
tp241
a(I168
I133
tp242
a(I160
I116
tp243
asg16
I200
sba(imain2
Polygon
p244
(dp245
g3
(I10
I175
tp246
sg5
I200
sg6
(I174
I52
I60
I13
tp247
sg8
(lp248
(I0
I141
tp249
a(I0
I183
tp250
a(I0
I200
tp251
a(I29
I188
tp252
asg16
I200
sba(imain2
Polygon
p253
(dp254
g3
(I4
I131
tp255
sg5
I200
sg6
(I122
I51
I61
I0
tp256
sg8
(lp257
(I25
I135
tp258
a(I2
I88
tp259
a(I0
I173
tp260
a(I45
I150
tp261
a(I0
I145
tp262
a(I18
I159
tp263
a(I41
I133
tp264
a(I31
I145
tp265
a(I19
I89
tp266
a(I0
I108
tp267
a(I12
I86
tp268
a(I0
I178
tp269
asg16
I200
sba(imain2
Polygon
p270
(dp271
g3
(I75
I51
tp272
sg5
I200
sg6
(I101
I197
I0
I10
tp273
sg8
(lp274
(I73
I93
tp275
a(I60
I74
tp276
a(I34
I7
tp277
a(I105
I56
tp278
a(I112
I100
tp279
asg16
I200
sba(imain2
Polygon
p280
(dp281
g3
(I18
I101
tp282
sg5
I200
sg6
(I0
I11
I66
I43
tp283
sg8
(lp284
(I0
I99
tp285
a(I15
I116
tp286
a(I0
I56
tp287
a(I5
I78
tp288
a(I20
I101
tp289
a(I0
I130
tp290
a(I45
I64
tp291
asg16
I200
sba(imain2
Polygon
p292
(dp293
g3
(I97
I199
tp294
sg5
I200
sg6
(I0
I107
I44
I107
tp295
sg8
(lp296
(I91
I200
tp297
a(I134
I200
tp298
a(I135
I171
tp299
a(I78
I156
tp300
a(I97
I158
tp301
a(I127
I200
tp302
a(I118
I173
tp303
a(I87
I171
tp304
a(I99
I160
tp305
a(I95
I152
tp306
a(I97
I200
tp307
asg16
I200
sba(imain2
Polygon
p308
(dp309
g3
(I102
I104
tp310
sg5
I200
sg6
(I219
I121
I126
I64
tp311
sg8
(lp312
(I105
I151
tp313
a(I105
I63
tp314
a(I59
I58
tp315
a(I57
I131
tp316
a(I74
I153
tp317
asg16
I200
sba(imain2
Polygon
p318
(dp319
g3
(I177
I176
tp320
sg5
I200
sg6
(I112
I207
I214
I41
tp321
sg8
(lp322
(I200
I138
tp323
a(I167
I145
tp324
a(I200
I200
tp325
asg16
I200
sba(imain2
Polygon
p326
(dp327
g3
(I99
I27
tp328
sg5
I200
sg6
(I71
I83
I1
I104
tp329
sg8
(lp330
(I143
I0
tp331
a(I53
I0
tp332
a(I97
I73
tp333
a(I139
I50
tp334
a(I73
I29
tp335
asg16
I200
sba(imain2
Polygon
p336
(dp337
g3
(I138
I156
tp338
sg5
I200
sg6
(I16
I57
I186
I1
tp339
sg8
(lp340
(I134
I187
tp341
a(I91
I144
tp342
a(I111
I148
tp343
a(I101
I146
tp344
asg16
I200
sba(imain2
Polygon
p345
(dp346
g3
(I100
I129
tp347
sg5
I200
sg6
(I113
I215
I219
I1
tp348
sg8
(lp349
(I93
I100
tp350
a(I85
I161
tp351
a(I66
I171
tp352
a(I97
I125
tp353
a(I107
I176
tp354
asg16
I200
sba(imain2
Polygon
p355
(dp356
g3
(I90
I2
tp357
sg5
I200
sg6
(I194
I194
I1
I1
tp358
sg8
(lp359
(I132
I0
tp360
a(I109
I0
tp361
a(I88
I0
tp362
a(I82
I20
tp363
a(I90
I51
tp364
a(I89
I45
tp365
a(I79
I40
tp366
a(I66
I0
tp367
a(I55
I0
tp368
a(I52
I0
tp369
asg16
I200
sba(imain2
Polygon
p370
(dp371
g3
(I76
I49
tp372
sg5
I200
sg6
(I245
I163
I175
I97
tp373
sg8
(lp374
(I52
I54
tp375
a(I62
I34
tp376
a(I99
I36
tp377
a(I124
I78
tp378
a(I91
I88
tp379
a(I47
I82
tp380
asg16
I200
sba(imain2
Polygon
p381
(dp382
g3
(I135
I193
tp383
sg5
I200
sg6
(I201
I198
I62
I1
tp384
sg8
(lp385
(I131
I160
tp386
a(I146
I200
tp387
a(I93
I171
tp388
a(I91
I200
tp389
a(I178
I191
tp390
a(I146
I200
tp391
a(I129
I171
tp392
a(I132
I200
tp393
a(I149
I200
tp394
a(I150
I200
tp395
asg16
I200
sba(imain2
Polygon
p396
(dp397
g3
(I156
I197
tp398
sg5
I200
sg6
(I78
I232
I78
I2
tp399
sg8
(lp400
(I183
I162
tp401
a(I198
I200
tp402
a(I112
I200
tp403
a(I108
I171
tp404
a(I196
I200
tp405
asg16
I200
sba(imain2
Polygon
p406
(dp407
g3
(I159
I95
tp408
sg5
I200
sg6
(I161
I19
I15
I1
tp409
sg8
(lp410
(I196
I80
tp411
a(I177
I72
tp412
a(I114
I45
tp413
a(I184
I46
tp414
a(I184
I145
tp415
a(I154
I110
tp416
a(I130
I98
tp417
a(I163
I133
tp418
a(I136
I123
tp419
asg16
I200
sba(imain2
Polygon
p420
(dp421
g3
(I130
I187
tp422
sg5
I200
sg6
(I177
I73
I86
I67
tp423
sg8
(lp424
(I138
I200
tp425
a(I161
I187
tp426
a(I161
I161
tp427
a(I168
I192
tp428
a(I164
I200
tp429
a(I97
I159
tp430
a(I90
I200
tp431
asg16
I200
sba(imain2
Polygon
p432
(dp433
g3
(I56
I194
tp434
sg5
I200
sg6
(I191
I172
I1
I32
tp435
sg8
(lp436
(I99
I158
tp437
a(I59
I200
tp438
a(I15
I171
tp439
a(I36
I176
tp440
a(I24
I145
tp441
a(I6
I148
tp442
a(I6
I200
tp443
a(I75
I169
tp444
a(I20
I200
tp445
a(I102
I200
tp446
a(I101
I170
tp447
asg16
I200
sba(imain2
Polygon
p448
(dp449
g3
(I180
I160
tp450
sg5
I200
sg6
(I29
I39
I107
I51
tp451
sg8
(lp452
(I192
I143
tp453
a(I163
I195
tp454
a(I200
I200
tp455
a(I159
I131
tp456
a(I200
I132
tp457
a(I200
I161
tp458
a(I200
I118
tp459
a(I161
I136
tp460
a(I200
I128
tp461
a(I200
I139
tp462
asg16
I200
sba(imain2
Polygon
p463
(dp464
g3
(I12
I87
tp465
sg5
I200
sg6
(I48
I129
I182
I3
tp466
sg8
(lp467
(I0
I133
tp468
a(I0
I54
tp469
a(I20
I73
tp470
a(I0
I107
tp471
a(I0
I121
tp472
a(I1
I49
tp473
asg16
I200
sba(imain2
Polygon
p474
(dp475
g3
(I123
I91
tp476
sg5
I200
sg6
(I229
I0
I184
I52
tp477
sg8
(lp478
(I93
I69
tp479
a(I99
I140
tp480
a(I73
I67
tp481
a(I77
I123
tp482
asg16
I200
sba(imain2
Polygon
p483
(dp484
g3
(I80
I122
tp485
sg5
I200
sg6
(I220
I175
I139
I73
tp486
sg8
(lp487
(I116
I143
tp488
a(I129
I85
tp489
a(I44
I101
tp490
a(I75
I158
tp491
a(I123
I146
tp492
asg16
I200
sba(imain2
Polygon
p493
(dp494
g3
(I119
I156
tp495
sg5
I200
sg6
(I125
I213
I195
I44
tp496
sg8
(lp497
(I96
I178
tp498
a(I141
I200
tp499
a(I103
I123
tp500
a(I90
I178
tp501
a(I70
I199
tp502
a(I133
I200
tp503
a(I69
I119
tp504
a(I102
I114
tp505
a(I114
I170
tp506
a(I88
I157
tp507
asg16
I200
sba(imain2
Polygon
p508
(dp509
g3
(I66
I96
tp510
sg5
I200
sg6
(I106
I72
I64
I91
tp511
sg8
(lp512
(I24
I133
tp513
a(I20
I88
tp514
a(I59
I80
tp515
a(I72
I129
tp516
a(I100
I145
tp517
a(I30
I82
tp518
a(I36
I114
tp519
asg16
I200
sba(imain2
Polygon
p520
(dp521
g3
(I17
I178
tp522
sg5
I200
sg6
(I81
I64
I11
I0
tp523
sg8
(lp524
(I0
I175
tp525
a(I1
I200
tp526
a(I0
I174
tp527
a(I17
I200
tp528
a(I20
I150
tp529
a(I0
I128
tp530
a(I11
I166
tp531
a(I45
I141
tp532
a(I63
I188
tp533
asg16
I200
sba(imain2
Polygon
p534
(dp535
g3
(I196
I157
tp536
sg5
I200
sg6
(I26
I207
I67
I1
tp537
sg8
(lp538
(I147
I199
tp539
a(I200
I112
tp540
a(I200
I161
tp541
a(I200
I197
tp542
a(I200
I158
tp543
a(I200
I123
tp544
a(I147
I107
tp545
a(I165
I144
tp546
a(I200
I113
tp547
a(I200
I173
tp548
a(I200
I152
tp549
a(I189
I174
tp550
a(I200
I151
tp551
a(I154
I109
tp552
a(I161
I119
tp553
a(I200
I151
tp554
a(I163
I139
tp555
a(I158
I128
tp556
asg16
I200
sba(imain2
Polygon
p557
(dp558
g3
(I7
I138
tp559
sg5
I200
sg6
(I208
I109
I9
I1
tp560
sg8
(lp561
(I0
I174
tp562
a(I0
I131
tp563
a(I0
I109
tp564
a(I0
I120
tp565
a(I11
I151
tp566
a(I0
I88
tp567
a(I0
I180
tp568
a(I25
I106
tp569
a(I0
I157
tp570
a(I0
I147
tp571
a(I21
I180
tp572
a(I0
I158
tp573
a(I24
I89
tp574
a(I41
I89
tp575
asg16
I200
sba(imain2
Polygon
p576
(dp577
g3
(I49
I75
tp578
sg5
I200
sg6
(I117
I227
I9
I21
tp579
sg8
(lp580
(I97
I31
tp581
a(I96
I95
tp582
a(I60
I123
tp583
a(I28
I81
tp584
a(I35
I74
tp585
a(I91
I46
tp586
a(I35
I64
tp587
a(I75
I88
tp588
a(I0
I118
tp589
a(I3
I64
tp590
a(I8
I49
tp591
a(I41
I49
tp592
a(I53
I73
tp593
a(I77
I48
tp594
a(I41
I61
tp595
a(I63
I36
tp596
asg16
I200
sba(imain2
Polygon
p597
(dp598
g3
(I75
I73
tp599
sg5
I200
sg6
(I161
I134
I134
I133
tp600
sg8
(lp601
(I108
I39
tp602
a(I122
I103
tp603
a(I47
I117
tp604
a(I62
I34
tp605
asg16
I200
sba(imain2
Polygon
p606
(dp607
g3
(I82
I103
tp608
sg5
I200
sg6
(I94
I95
I59
I0
tp609
sg8
(lp610
(I49
I116
tp611
a(I83
I145
tp612
a(I53
I131
tp613
a(I124
I68
tp614
a(I36
I91
tp615
a(I67
I133
tp616
a(I98
I99
tp617
a(I95
I67
tp618
a(I97
I112
tp619
a(I78
I128
tp620
a(I39
I61
tp621
a(I43
I63
tp622
a(I41
I99
tp623
a(I132
I75
tp624
a(I128
I131
tp625
a(I102
I131
tp626
a(I91
I128
tp627
a(I55
I149
tp628
asg16
I200
sba(imain2
Polygon
p629
(dp630
g3
(I126
I26
tp631
sg5
I200
sg6
(I237
I182
I126
I108
tp632
sg8
(lp633
(I138
I12
tp634
a(I148
I21
tp635
a(I124
I16
tp636
a(I83
I10
tp637
a(I77
I0
tp638
a(I162
I0
tp639
a(I176
I38
tp640
a(I168
I75
tp641
asg16
I200
sba(imain2
Polygon
p642
(dp643
g3
(I128
I23
tp644
sg5
I200
sg6
(I105
I0
I84
I0
tp645
sg8
(lp646
(I125
I0
tp647
a(I97
I3
tp648
a(I137
I0
tp649
a(I147
I0
tp650
a(I126
I22
tp651
a(I139
I0
tp652
a(I100
I9
tp653
a(I116
I0
tp654
a(I172
I37
tp655
a(I157
I34
tp656
a(I144
I0
tp657
a(I92
I33
tp658
a(I172
I71
tp659
a(I107
I22
tp660
asg16
I200
sba(imain2
Polygon
p661
(dp662
g3
(I147
I59
tp663
sg5
I200
sg6
(I1
I240
I188
I60
tp664
sg8
(lp665
(I191
I38
tp666
a(I155
I19
tp667
a(I190
I84
tp668
asg16
I200
sba(imain2
Polygon
p669
(dp670
g3
(I105
I192
tp671
sg5
I200
sg6
(I177
I19
I173
I0
tp672
sg8
(lp673
(I150
I178
tp674
a(I68
I169
tp675
a(I97
I200
tp676
a(I118
I200
tp677
a(I149
I200
tp678
asg16
I200
sba(imain2
Polygon
p679
(dp680
g3
(I144
I60
tp681
sg5
I200
sg6
(I59
I233
I7
I0
tp682
sg8
(lp683
(I100
I77
tp684
a(I157
I97
tp685
a(I151
I46
tp686
a(I108
I75
tp687
a(I122
I34
tp688
a(I180
I75
tp689
a(I143
I104
tp690
a(I114
I17
tp691
asg16
I200
sba(imain2
Polygon
p692
(dp693
g3
(I177
I86
tp694
sg5
I200
sg6
(I168
I32
I16
I0
tp695
sg8
(lp696
(I179
I46
tp697
a(I165
I74
tp698
a(I200
I62
tp699
a(I167
I118
tp700
a(I200
I65
tp701
a(I141
I67
tp702
a(I156
I64
tp703
asg16
I200
sba(imain2
Polygon
p704
(dp705
g3
(I157
I117
tp706
sg5
I200
sg6
(I43
I28
I0
I54
tp707
sg8
(lp708
(I187
I153
tp709
a(I200
I147
tp710
a(I128
I75
tp711
a(I191
I152
tp712
a(I198
I74
tp713
a(I183
I145
tp714
a(I133
I77
tp715
a(I200
I166
tp716
a(I132
I108
tp717
asg16
I200
sba(imain2
Polygon
p718
(dp719
g3
(I155
I192
tp720
sg5
I200
sg6
(I1
I33
I195
I0
tp721
sg8
(lp722
(I200
I165
tp723
a(I190
I150
tp724
a(I128
I195
tp725
a(I144
I154
tp726
a(I175
I200
tp727
a(I178
I193
tp728
a(I110
I173
tp729
a(I153
I200
tp730
a(I155
I187
tp731
a(I194
I181
tp732
a(I158
I185
tp733
a(I195
I184
tp734
asg16
I200
sba(imain2
Polygon
p735
(dp736
g3
(I103
I158
tp737
sg5
I200
sg6
(I13
I44
I119
I58
tp738
sg8
(lp739
(I107
I154
tp740
a(I87
I181
tp741
a(I127
I113
tp742
a(I121
I144
tp743
a(I82
I153
tp744
a(I131
I117
tp745
a(I66
I200
tp746
a(I96
I148
tp747
asg16
I200
sba(imain2
Polygon
p748
(dp749
g3
(I9
I151
tp750
sg5
I200
sg6
(I120
I83
I56
I34
tp751
sg8
(lp752
(I0
I194
tp753
a(I0
I173
tp754
a(I0
I126
tp755
a(I21
I130
tp756
a(I0
I157
tp757
a(I6
I192
tp758
a(I44
I122
tp759
a(I0
I159
tp760
asg16
I200
sba(imain2
Polygon
p761
(dp762
g3
(I114
I115
tp763
sg5
I200
sg6
(I165
I158
I137
I0
tp764
sg8
(lp765
(I136
I133
tp766
a(I156
I103
tp767
a(I64
I113
tp768
a(I76
I151
tp769
a(I75
I83
tp770
a(I144
I106
tp771
a(I99
I110
tp772
asg16
I200
sba(imain2
Polygon
p773
(dp774
g3
(I114
I99
tp775
sg5
I200
sg6
(I61
I240
I7
I49
tp776
sg8
(lp777
(I128
I108
tp778
a(I104
I71
tp779
a(I95
I126
tp780
a(I85
I70
tp781
a(I72
I108
tp782
a(I117
I58
tp783
a(I70
I56
tp784
a(I109
I134
tp785
a(I103
I135
tp786
a(I69
I62
tp787
a(I139
I67
tp788
a(I84
I133
tp789
asg16
I200
sba(imain2
Polygon
p790
(dp791
g3
(I173
I62
tp792
sg5
I200
sg6
(I1
I41
I167
I97
tp793
sg8
(lp794
(I200
I82
tp795
a(I200
I84
tp796
a(I168
I49
tp797
a(I200
I89
tp798
asg16
I200
sba(imain2
Polygon
p799
(dp800
g3
(I199
I171
tp801
sg5
I200
sg6
(I0
I233
I13
I22
tp802
sg8
(lp803
(I200
I164
tp804
a(I200
I174
tp805
a(I162
I194
tp806
asg16
I200
sba(imain2
Polygon
p807
(dp808
g3
(I195
I126
tp809
sg5
I200
sg6
(I211
I215
I27
I1
tp810
sg8
(lp811
(I182
I167
tp812
a(I176
I160
tp813
a(I172
I118
tp814
a(I200
I164
tp815
a(I200
I93
tp816
a(I200
I114
tp817
a(I175
I79
tp818
a(I200
I91
tp819
a(I188
I145
tp820
a(I153
I129
tp821
a(I183
I169
tp822
a(I199
I106
tp823
a(I170
I145
tp824
a(I187
I122
tp825
a(I186
I158
tp826
a(I200
I156
tp827
a(I200
I136
tp828
asg16
I200
sba(imain2
Polygon
p829
(dp830
g3
(I51
I190
tp831
sg5
I200
sg6
(I124
I172
I99
I59
tp832
sg8
(lp833
(I53
I200
tp834
a(I11
I200
tp835
a(I86
I200
tp836
a(I60
I200
tp837
a(I96
I168
tp838
a(I97
I200
tp839
a(I14
I192
tp840
a(I88
I200
tp841
asg16
I200
sba(imain2
Polygon
p842
(dp843
g3
(I200
I5
tp844
sg5
I200
sg6
(I187
I107
I44
I0
tp845
sg8
(lp846
(I200
I50
tp847
a(I200
I17
tp848
a(I200
I0
tp849
a(I200
I17
tp850
a(I185
I0
tp851
a(I200
I0
tp852
a(I200
I0
tp853
a(I200
I0
tp854
a(I200
I17
tp855
asg16
I200
sba(imain2
Polygon
p856
(dp857
g3
(I147
I166
tp858
sg5
I200
sg6
(I114
I241
I223
I9
tp859
sg8
(lp860
(I108
I131
tp861
a(I109
I190
tp862
a(I179
I180
tp863
a(I123
I166
tp864
a(I132
I125
tp865
a(I110
I196
tp866
a(I108
I150
tp867
asg16
I200
sba(imain2
Polygon
p868
(dp869
g3
(I16
I191
tp870
sg5
I200
sg6
(I128
I47
I221
I0
tp871
sg8
(lp872
(I0
I154
tp873
a(I59
I200
tp874
a(I55
I168
tp875
asg16
I200
sba(imain2
Polygon
p876
(dp877
g3
(I94
I9
tp878
sg5
I200
sg6
(I199
I50
I20
I0
tp879
sg8
(lp880
(I59
I24
tp881
a(I131
I0
tp882
a(I89
I0
tp883
a(I83
I0
tp884
a(I101
I37
tp885
a(I62
I0
tp886
a(I67
I26
tp887
a(I87
I56
tp888
a(I99
I22
tp889
a(I109
I25
tp890
a(I137
I19
tp891
a(I50
I53
tp892
asg16
I200
sba(imain2
Polygon
p893
(dp894
g3
(I111
I113
tp895
sg5
I200
sg6
(I89
I30
I145
I0
tp896
sg8
(lp897
(I83
I120
tp898
a(I95
I159
tp899
a(I120
I136
tp900
a(I150
I136
tp901
asg16
I200
sba(imain2
Polygon
p902
(dp903
g3
(I10
I81
tp904
sg5
I200
sg6
(I220
I162
I193
I1
tp905
sg8
(lp906
(I60
I131
tp907
a(I0
I33
tp908
a(I0
I129
tp909
a(I12
I107
tp910
a(I11
I125
tp911
a(I59
I45
tp912
a(I0
I116
tp913
a(I0
I77
tp914
a(I22
I107
tp915
a(I46
I129
tp916
a(I2
I80
tp917
asg16
I200
sba(imain2
Polygon
p918
(dp919
g3
(I10
I22
tp920
sg5
I200
sg6
(I217
I204
I104
I68
tp921
sg8
(lp922
(I0
I19
tp923
a(I41
I0
tp924
a(I47
I58
tp925
a(I19
I72
tp926
a(I0
I70
tp927
a(I12
I0
tp928
a(I0
I0
tp929
a(I0
I66
tp930
a(I13
I7
tp931
a(I0
I14
tp932
a(I26
I4
tp933
a(I0
I13
tp934
a(I15
I70
tp935
asg16
I200
sba(imain2
Polygon
p936
(dp937
g3
(I19
I169
tp938
sg5
I200
sg6
(I89
I215
I79
I1
tp939
sg8
(lp940
(I41
I147
tp941
a(I68
I169
tp942
a(I20
I192
tp943
a(I66
I163
tp944
a(I7
I200
tp945
a(I0
I166
tp946
asg16
I200
sba(imain2
Polygon
p947
(dp948
g3
(I194
I7
tp949
sg5
I200
sg6
(I162
I89
I133
I2
tp950
sg8
(lp951
(I200
I44
tp952
a(I200
I0
tp953
a(I200
I35
tp954
a(I160
I25
tp955
a(I170
I0
tp956
a(I184
I0
tp957
a(I200
I0
tp958
a(I200
I29
tp959
a(I200
I51
tp960
a(I200
I45
tp961
asg16
I200
sba(imain2
Polygon
p962
(dp963
g3
(I42
I15
tp964
sg5
I200
sg6
(I147
I136
I163
I1
tp965
sg8
(lp966
(I55
I36
tp967
a(I61
I9
tp968
a(I73
I63
tp969
a(I0
I65
tp970
a(I11
I0
tp971
a(I12
I32
tp972
a(I91
I0
tp973
a(I20
I58
tp974
asg16
I200
sba(imain2
Polygon
p975
(dp976
g3
(I183
I77
tp977
sg5
I200
sg6
(I25
I141
I27
I30
tp978
sg8
(lp979
(I146
I55
tp980
a(I200
I86
tp981
a(I156
I32
tp982
a(I200
I40
tp983
a(I200
I100
tp984
a(I200
I90
tp985
a(I178
I51
tp986
asg16
I200
sba(imain2
Polygon
p987
(dp988
g3
(I190
I45
tp989
sg5
I200
sg6
(I178
I45
I183
I1
tp990
sg8
(lp991
(I200
I8
tp992
a(I200
I26
tp993
a(I200
I14
tp994
a(I200
I46
tp995
a(I179
I86
tp996
a(I179
I6
tp997
a(I183
I37
tp998
a(I200
I7
tp999
a(I153
I38
tp1000
asg16
I200
sba(imain2
Polygon
p1001
(dp1002
g3
(I115
I69
tp1003
sg5
I200
sg6
(I0
I121
I192
I1
tp1004
sg8
(lp1005
(I121
I86
tp1006
a(I84
I62
tp1007
a(I136
I59
tp1008
a(I118
I32
tp1009
asg16
I200
sba(imain2
Polygon
p1010
(dp1011
g3
(I173
I121
tp1012
sg5
I200
sg6
(I242
I54
I20
I1
tp1013
sg8
(lp1014
(I155
I105
tp1015
a(I137
I112
tp1016
a(I164
I125
tp1017
a(I169
I95
tp1018
a(I200
I143
tp1019
a(I180
I71
tp1020
a(I192
I122
tp1021
a(I144
I170
tp1022
asg16
I200
sba(imain2
Polygon
p1023
(dp1024
g3
(I45
I135
tp1025
sg5
I200
sg6
(I148
I126
I175
I39
tp1026
sg8
(lp1027
(I7
I177
tp1028
a(I21
I178
tp1029
a(I23
I86
tp1030
a(I14
I133
tp1031
a(I35
I86
tp1032
a(I9
I89
tp1033
asg16
I200
sba(imain2
Polygon
p1034
(dp1035
g3
(I61
I48
tp1036
sg5
I200
sg6
(I76
I33
I123
I112
tp1037
sg8
(lp1038
(I71
I86
tp1039
a(I81
I91
tp1040
a(I73
I78
tp1041
a(I47
I85
tp1042
a(I68
I93
tp1043
a(I86
I72
tp1044
a(I85
I73
tp1045
a(I45
I93
tp1046
a(I66
I90
tp1047
a(I106
I80
tp1048
asg16
I200
sba(imain2
Polygon
p1049
(dp1050
g3
(I96
I154
tp1051
sg5
I200
sg6
(I149
I182
I184
I61
tp1052
sg8
(lp1053
(I51
I113
tp1054
a(I75
I149
tp1055
a(I90
I200
tp1056
a(I142
I200
tp1057
a(I53
I114
tp1058
a(I107
I120
tp1059
asg16
I200
sba(imain2
Polygon
p1060
(dp1061
g3
(I32
I146
tp1062
sg5
I200
sg6
(I62
I240
I70
I97
tp1063
sg8
(lp1064
(I0
I157
tp1065
a(I0
I178
tp1066
a(I0
I132
tp1067
asg16
I200
sba(imain2
Polygon
p1068
(dp1069
g3
(I3
I120
tp1070
sg5
I200
sg6
(I186
I176
I16
I55
tp1071
sg8
(lp1072
(I38
I71
tp1073
a(I0
I72
tp1074
a(I0
I121
tp1075
a(I0
I132
tp1076
a(I20
I116
tp1077
asg16
I200
sba(imain2
Polygon
p1078
(dp1079
g3
(I74
I152
tp1080
sg5
I200
sg6
(I59
I80
I126
I0
tp1081
sg8
(lp1082
(I107
I180
tp1083
a(I80
I138
tp1084
a(I39
I140
tp1085
a(I99
I121
tp1086
a(I81
I127
tp1087
a(I35
I167
tp1088
a(I118
I127
tp1089
a(I38
I131
tp1090
a(I33
I191
tp1091
a(I87
I200
tp1092
a(I56
I110
tp1093
a(I60
I153
tp1094
a(I76
I188
tp1095
asg16
I200
sba(imain2
Polygon
p1096
(dp1097
g3
(I31
I192
tp1098
sg5
I200
sg6
(I154
I33
I134
I0
tp1099
sg8
(lp1100
(I0
I181
tp1101
a(I7
I200
tp1102
a(I0
I200
tp1103
a(I0
I175
tp1104
a(I80
I200
tp1105
a(I53
I200
tp1106
a(I0
I142
tp1107
a(I41
I172
tp1108
a(I54
I171
tp1109
a(I0
I145
tp1110
a(I55
I200
tp1111
a(I79
I157
tp1112
a(I34
I200
tp1113
a(I54
I200
tp1114
a(I21
I181
tp1115
a(I75
I200
tp1116
a(I0
I195
tp1117
asg16
I200
sba(imain2
Polygon
p1118
(dp1119
g3
(I99
I149
tp1120
sg5
I200
sg6
(I189
I32
I203
I1
tp1121
sg8
(lp1122
(I110
I116
tp1123
a(I136
I173
tp1124
a(I101
I127
tp1125
a(I82
I109
tp1126
a(I114
I142
tp1127
a(I79
I154
tp1128
a(I51
I112
tp1129
a(I116
I164
tp1130
a(I92
I139
tp1131
a(I124
I194
tp1132
a(I133
I121
tp1133
a(I103
I151
tp1134
a(I123
I124
tp1135
a(I78
I148
tp1136
a(I52
I171
tp1137
a(I131
I198
tp1138
asg16
I200
sba(imain2
Polygon
p1139
(dp1140
g3
(I183
I115
tp1141
sg5
I200
sg6
(I18
I108
I177
I140
tp1142
sg8
(lp1143
(I200
I102
tp1144
a(I200
I102
tp1145
a(I193
I132
tp1146
a(I181
I84
tp1147
a(I200
I87
tp1148
a(I200
I142
tp1149
asg16
I200
sba(imain2
Polygon
p1150
(dp1151
g3
(I141
I107
tp1152
sg5
I200
sg6
(I78
I145
I85
I140
tp1153
sg8
(lp1154
(I119
I86
tp1155
a(I112
I86
tp1156
a(I111
I152
tp1157
asg16
I200
sba(imain2
Polygon
p1158
(dp1159
g3
(I149
I72
tp1160
sg5
I200
sg6
(I62
I107
I164
I25
tp1161
sg8
(lp1162
(I160
I35
tp1163
a(I195
I56
tp1164
a(I155
I38
tp1165
a(I99
I25
tp1166
a(I173
I40
tp1167
a(I176
I38
tp1168
a(I148
I79
tp1169
a(I186
I73
tp1170
a(I150
I68
tp1171
a(I194
I104
tp1172
a(I148
I88
tp1173
asg16
I200
sba(imain2
Polygon
p1174
(dp1175
g3
(I67
I128
tp1176
sg5
I200
sg6
(I211
I148
I52
I28
tp1177
sg8
(lp1178
(I106
I157
tp1179
a(I73
I95
tp1180
a(I108
I113
tp1181
a(I115
I152
tp1182
a(I62
I84
tp1183
a(I62
I102
tp1184
a(I63
I145
tp1185
a(I82
I157
tp1186
asg16
I200
sba(imain2
Polygon
p1187
(dp1188
g3
(I183
I44
tp1189
sg5
I200
sg6
(I81
I9
I171
I1
tp1190
sg8
(lp1191
(I200
I43
tp1192
a(I138
I92
tp1193
a(I184
I85
tp1194
a(I175
I30
tp1195
a(I136
I16
tp1196
a(I179
I0
tp1197
asg16
I200
sba(imain2
Polygon
p1198
(dp1199
g3
(I100
I61
tp1200
sg5
I200
sg6
(I199
I97
I41
I37
tp1201
sg8
(lp1202
(I56
I38
tp1203
a(I99
I64
tp1204
a(I91
I106
tp1205
a(I131
I96
tp1206
a(I95
I52
tp1207
a(I67
I63
tp1208
a(I74
I24
tp1209
a(I146
I15
tp1210
a(I96
I45
tp1211
a(I109
I45
tp1212
a(I143
I70
tp1213
a(I84
I63
tp1214
a(I126
I79
tp1215
asg16
I200
sba(imain2
Polygon
p1216
(dp1217
g3
(I52
I190
tp1218
sg5
I200
sg6
(I175
I147
I50
I77
tp1219
sg8
(lp1220
(I71
I200
tp1221
a(I89
I171
tp1222
a(I102
I200
tp1223
a(I94
I200
tp1224
a(I95
I200
tp1225
a(I34
I200
tp1226
asg16
I200
sba(imain2
Polygon
p1227
(dp1228
g3
(I151
I65
tp1229
sg5
I200
sg6
(I62
I179
I0
I100
tp1230
sg8
(lp1231
(I176
I54
tp1232
a(I179
I51
tp1233
a(I192
I90
tp1234
a(I186
I39
tp1235
a(I139
I65
tp1236
a(I111
I63
tp1237
a(I119
I77
tp1238
a(I169
I47
tp1239
a(I182
I28
tp1240
a(I162
I60
tp1241
asg16
I200
sba(imain2
Polygon
p1242
(dp1243
g3
(I67
I20
tp1244
sg5
I200
sg6
(I165
I92
I187
I102
tp1245
sg8
(lp1246
(I17
I0
tp1247
a(I29
I39
tp1248
a(I114
I0
tp1249
a(I110
I0
tp1250
a(I95
I23
tp1251
a(I113
I0
tp1252
a(I74
I0
tp1253
asg16
I200
sba(imain2
Polygon
p1254
(dp1255
g3
(I199
I56
tp1256
sg5
I200
sg6
(I159
I1
I107
I1
tp1257
sg8
(lp1258
(I200
I8
tp1259
a(I165
I70
tp1260
a(I200
I46
tp1261
a(I200
I83
tp1262
a(I181
I100
tp1263
a(I186
I53
tp1264
a(I198
I104
tp1265
a(I200
I46
tp1266
a(I200
I23
tp1267
a(I200
I16
tp1268
a(I168
I34
tp1269
asg16
I200
sba(imain2
Polygon
p1270
(dp1271
g3
(I185
I38
tp1272
sg5
I200
sg6
(I128
I218
I67
I157
tp1273
sg8
(lp1274
(I200
I69
tp1275
a(I200
I0
tp1276
a(I196
I0
tp1277
a(I154
I0
tp1278
a(I146
I42
tp1279
a(I200
I5
tp1280
a(I168
I28
tp1281
a(I142
I46
tp1282
a(I155
I22
tp1283
a(I181
I67
tp1284
a(I187
I70
tp1285
a(I138
I0
tp1286
a(I200
I50
tp1287
a(I141
I1
tp1288
a(I171
I85
tp1289
a(I189
I82
tp1290
asg16
I200
sba(imain2
Polygon
p1291
(dp1292
g3
(I67
I149
tp1293
sg5
I200
sg6
(I90
I206
I212
I38
tp1294
sg8
(lp1295
(I20
I169
tp1296
a(I92
I149
tp1297
a(I45
I104
tp1298
a(I47
I101
tp1299
a(I64
I107
tp1300
a(I75
I131
tp1301
a(I69
I155
tp1302
asg16
I200
sba(imain2
Polygon
p1303
(dp1304
g3
(I21
I182
tp1305
sg5
I200
sg6
(I110
I115
I1
I78
tp1306
sg8
(lp1307
(I67
I200
tp1308
a(I0
I166
tp1309
a(I30
I184
tp1310
a(I20
I169
tp1311
a(I19
I200
tp1312
a(I0
I181
tp1313
a(I19
I200
tp1314
a(I0
I143
tp1315
a(I13
I200
tp1316
a(I0
I144
tp1317
a(I0
I194
tp1318
a(I27
I167
tp1319
a(I8
I162
tp1320
a(I28
I152
tp1321
a(I0
I133
tp1322
a(I47
I191
tp1323
asg16
I200
sba(imain2
Polygon
p1324
(dp1325
g3
(I145
I176
tp1326
sg5
I200
sg6
(I183
I171
I1
I36
tp1327
sg8
(lp1328
(I116
I200
tp1329
a(I101
I200
tp1330
a(I138
I200
tp1331
a(I120
I137
tp1332
a(I95
I200
tp1333
asg16
I200
sba(imain2
Polygon
p1334
(dp1335
g3
(I102
I21
tp1336
sg5
I200
sg6
(I180
I177
I184
I55
tp1337
sg8
(lp1338
(I129
I69
tp1339
a(I61
I26
tp1340
a(I88
I12
tp1341
a(I104
I12
tp1342
a(I146
I25
tp1343
a(I143
I7
tp1344
a(I142
I0
tp1345
a(I59
I0
tp1346
a(I54
I68
tp1347
asg16
I200
sba(imain2
Polygon
p1348
(dp1349
g3
(I154
I30
tp1350
sg5
I200
sg6
(I49
I95
I59
I0
tp1351
sg8
(lp1352
(I135
I63
tp1353
a(I126
I17
tp1354
a(I107
I66
tp1355
a(I173
I45
tp1356
a(I162
I48
tp1357
a(I140
I39
tp1358
a(I195
I27
tp1359
a(I135
I57
tp1360
a(I156
I27
tp1361
a(I141
I16
tp1362
asg16
I200
sba(imain2
Polygon
p1363
(dp1364
g3
(I171
I178
tp1365
sg5
I200
sg6
(I94
I229
I32
I1
tp1366
sg8
(lp1367
(I200
I200
tp1368
a(I200
I200
tp1369
a(I200
I195
tp1370
a(I200
I135
tp1371
a(I179
I151
tp1372
a(I137
I200
tp1373
asg16
I200
sba(imain2
Polygon
p1374
(dp1375
g3
(I189
I152
tp1376
sg5
I200
sg6
(I246
I70
I179
I0
tp1377
sg8
(lp1378
(I184
I192
tp1379
a(I173
I117
tp1380
a(I200
I166
tp1381
a(I200
I155
tp1382
a(I176
I108
tp1383
a(I182
I182
tp1384
a(I200
I166
tp1385
a(I162
I141
tp1386
a(I149
I177
tp1387
asg16
I200
sba(imain2
Polygon
p1388
(dp1389
g3
(I158
I122
tp1390
sg5
I200
sg6
(I42
I1
I155
I38
tp1391
sg8
(lp1392
(I182
I80
tp1393
a(I174
I137
tp1394
a(I200
I145
tp1395
a(I166
I100
tp1396
a(I126
I109
tp1397
a(I124
I81
tp1398
a(I140
I142
tp1399
a(I131
I110
tp1400
a(I189
I78
tp1401
a(I200
I74
tp1402
a(I124
I95
tp1403
asg16
I200
sba(imain2
Polygon
p1404
(dp1405
g3
(I89
I194
tp1406
sg5
I200
sg6
(I226
I75
I38
I1
tp1407
sg8
(lp1408
(I120
I150
tp1409
a(I69
I166
tp1410
a(I81
I189
tp1411
a(I95
I159
tp1412
a(I107
I177
tp1413
a(I122
I200
tp1414
a(I104
I200
tp1415
a(I39
I200
tp1416
a(I64
I164
tp1417
a(I126
I166
tp1418
a(I68
I191
tp1419
a(I84
I198
tp1420
asg16
I200
sba(imain2
Polygon
p1421
(dp1422
g3
(I185
I89
tp1423
sg5
I200
sg6
(I163
I1
I218
I1
tp1424
sg8
(lp1425
(I146
I55
tp1426
a(I197
I67
tp1427
a(I190
I122
tp1428
a(I200
I70
tp1429
a(I152
I101
tp1430
a(I155
I131
tp1431
a(I200
I94
tp1432
a(I197
I79
tp1433
a(I200
I121
tp1434
a(I200
I97
tp1435
a(I175
I68
tp1436
a(I200
I47
tp1437
a(I174
I136
tp1438
asg16
I200
sba(imain2
Polygon
p1439
(dp1440
g3
(I67
I129
tp1441
sg5
I200
sg6
(I72
I192
I57
I118
tp1442
sg8
(lp1443
(I96
I97
tp1444
a(I112
I141
tp1445
a(I78
I170
tp1446
a(I81
I160
tp1447
a(I112
I100
tp1448
a(I49
I126
tp1449
a(I93
I98
tp1450
a(I110
I107
tp1451
a(I96
I122
tp1452
a(I109
I141
tp1453
a(I87
I119
tp1454
a(I87
I107
tp1455
a(I75
I92
tp1456
a(I84
I146
tp1457
a(I52
I135
tp1458
a(I91
I173
tp1459
asg16
I200
sba(imain2
Polygon
p1460
(dp1461
g3
(I95
I80
tp1462
sg5
I200
sg6
(I219
I88
I19
I129
tp1463
sg8
(lp1464
(I121
I57
tp1465
a(I47
I53
tp1466
a(I58
I130
tp1467
a(I123
I114
tp1468
a(I126
I95
tp1469
a(I129
I87
tp1470
asg16
I200
sba(imain2
Polygon
p1471
(dp1472
g3
(I14
I45
tp1473
sg5
I200
sg6
(I224
I0
I43
I106
tp1474
sg8
(lp1475
(I2
I89
tp1476
a(I58
I24
tp1477
a(I8
I15
tp1478
a(I38
I90
tp1479
a(I10
I95
tp1480
asg16
I200
sba(imain2
Polygon
p1481
(dp1482
g3
(I34
I35
tp1483
sg5
I200
sg6
(I107
I9
I201
I21
tp1484
sg8
(lp1485
(I0
I0
tp1486
a(I0
I84
tp1487
a(I51
I56
tp1488
a(I37
I58
tp1489
a(I53
I81
tp1490
a(I45
I11
tp1491
a(I56
I7
tp1492
a(I63
I21
tp1493
asg16
I200
sba(imain2
Polygon
p1494
(dp1495
g3
(I127
I147
tp1496
sg5
I200
sg6
(I116
I171
I188
I73
tp1497
sg8
(lp1498
(I112
I151
tp1499
a(I112
I167
tp1500
a(I161
I125
tp1501
a(I99
I100
tp1502
a(I112
I159
tp1503
a(I126
I158
tp1504
a(I164
I118
tp1505
a(I80
I133
tp1506
a(I125
I141
tp1507
a(I92
I99
tp1508
a(I85
I144
tp1509
a(I105
I137
tp1510
a(I148
I117
tp1511
a(I108
I109
tp1512
a(I100
I118
tp1513
a(I120
I132
tp1514
a(I112
I128
tp1515
asg16
I200
sba(imain2
Polygon
p1516
(dp1517
g3
(I88
I106
tp1518
sg5
I200
sg6
(I189
I11
I59
I109
tp1519
sg8
(lp1520
(I127
I64
tp1521
a(I119
I93
tp1522
a(I117
I112
tp1523
asg16
I200
sba(imain2
Polygon
p1524
(dp1525
g3
(I11
I134
tp1526
sg5
I200
sg6
(I74
I179
I94
I92
tp1527
sg8
(lp1528
(I0
I183
tp1529
a(I0
I95
tp1530
a(I0
I108
tp1531
a(I0
I162
tp1532
a(I12
I180
tp1533
a(I41
I142
tp1534
asg16
I200
sba(imain2
Polygon
p1535
(dp1536
g3
(I174
I141
tp1537
sg5
I200
sg6
(I113
I235
I92
I77
tp1538
sg8
(lp1539
(I200
I120
tp1540
a(I187
I97
tp1541
a(I175
I139
tp1542
a(I200
I190
tp1543
asg16
I200
sba(imain2
Polygon
p1544
(dp1545
g3
(I68
I44
tp1546
sg5
I200
sg6
(I2
I228
I127
I35
tp1547
sg8
(lp1548
(I26
I22
tp1549
a(I19
I82
tp1550
a(I62
I45
tp1551
a(I75
I72
tp1552
a(I22
I45
tp1553
a(I83
I85
tp1554
asg16
I200
sba(imain2
Polygon
p1555
(dp1556
g3
(I80
I68
tp1557
sg5
I200
sg6
(I75
I15
I15
I31
tp1558
sg8
(lp1559
(I52
I50
tp1560
a(I34
I66
tp1561
a(I53
I18
tp1562
a(I117
I21
tp1563
a(I40
I26
tp1564
a(I52
I99
tp1565
a(I37
I27
tp1566
a(I47
I36
tp1567
a(I97
I30
tp1568
a(I37
I35
tp1569
a(I66
I42
tp1570
a(I83
I18
tp1571
asg16
I200
sba(imain2
Polygon
p1572
(dp1573
g3
(I120
I143
tp1574
sg5
I200
sg6
(I151
I157
I82
I1
tp1575
sg8
(lp1576
(I160
I189
tp1577
a(I157
I180
tp1578
a(I104
I174
tp1579
a(I92
I178
tp1580
a(I129
I155
tp1581
a(I119
I179
tp1582
a(I110
I93
tp1583
a(I111
I169
tp1584
a(I120
I158
tp1585
a(I86
I100
tp1586
a(I157
I112
tp1587
a(I170
I95
tp1588
asg16
I200
sba(imain2
Polygon
p1589
(dp1590
g3
(I47
I43
tp1591
sg5
I200
sg6
(I224
I145
I62
I44
tp1592
sg8
(lp1593
(I85
I78
tp1594
a(I7
I93
tp1595
a(I0
I83
tp1596
a(I5
I0
tp1597
a(I26
I10
tp1598
a(I86
I12
tp1599
a(I13
I2
tp1600
a(I74
I3
tp1601
a(I52
I53
tp1602
a(I45
I0
tp1603
a(I49
I4
tp1604
a(I96
I0
tp1605
asg16
I200
sba(imain2
Polygon
p1606
(dp1607
g3
(I6
I165
tp1608
sg5
I200
sg6
(I192
I50
I158
I51
tp1609
sg8
(lp1610
(I0
I191
tp1611
a(I34
I177
tp1612
a(I7
I145
tp1613
asg16
I200
sba(imain2
Polygon
p1614
(dp1615
g3
(I125
I173
tp1616
sg5
I200
sg6
(I91
I28
I31
I119
tp1617
sg8
(lp1618
(I145
I181
tp1619
a(I132
I145
tp1620
a(I105
I138
tp1621
a(I135
I166
tp1622
a(I143
I200
tp1623
a(I165
I200
tp1624
a(I85
I166
tp1625
a(I93
I145
tp1626
a(I79
I141
tp1627
a(I145
I159
tp1628
a(I157
I200
tp1629
a(I130
I140
tp1630
asg16
I200
sba(imain2
Polygon
p1631
(dp1632
g3
(I63
I154
tp1633
sg5
I200
sg6
(I122
I159
I2
I0
tp1634
sg8
(lp1635
(I90
I156
tp1636
a(I61
I175
tp1637
a(I112
I105
tp1638
a(I100
I174
tp1639
a(I110
I126
tp1640
a(I27
I140
tp1641
a(I66
I149
tp1642
a(I45
I194
tp1643
a(I85
I125
tp1644
a(I27
I122
tp1645
asg16
I200
sba(imain2
Polygon
p1646
(dp1647
g3
(I152
I171
tp1648
sg5
I200
sg6
(I192
I3
I226
I1
tp1649
sg8
(lp1650
(I106
I145
tp1651
a(I119
I163
tp1652
a(I200
I191
tp1653
a(I105
I165
tp1654
a(I114
I145
tp1655
a(I193
I126
tp1656
a(I180
I200
tp1657
a(I171
I163
tp1658
a(I107
I200
tp1659
asg16
I200
sba(imain2
Polygon
p1660
(dp1661
g3
(I67
I143
tp1662
sg5
I200
sg6
(I71
I72
I132
I112
tp1663
sg8
(lp1664
(I100
I175
tp1665
a(I113
I120
tp1666
a(I113
I130
tp1667
a(I111
I131
tp1668
asg16
I200
sba(imain2
Polygon
p1669
(dp1670
g3
(I153
I79
tp1671
sg5
I200
sg6
(I134
I30
I161
I0
tp1672
sg8
(lp1673
(I156
I115
tp1674
a(I178
I118
tp1675
a(I198
I89
tp1676
a(I140
I45
tp1677
a(I175
I77
tp1678
a(I112
I71
tp1679
a(I142
I107
tp1680
a(I148
I111
tp1681
a(I175
I118
tp1682
a(I189
I100
tp1683
a(I154
I32
tp1684
a(I130
I94
tp1685
asg16
I200
sba(imain2
Polygon
p1686
(dp1687
g3
(I142
I192
tp1688
sg5
I200
sg6
(I50
I236
I0
I1
tp1689
sg8
(lp1690
(I130
I200
tp1691
a(I94
I200
tp1692
a(I151
I200
tp1693
a(I170
I191
tp1694
a(I122
I151
tp1695
a(I140
I162
tp1696
a(I115
I176
tp1697
a(I94
I200
tp1698
a(I104
I188
tp1699
asg16
I200
sba(imain2
Polygon
p1700
(dp1701
g3
(I144
I12
tp1702
sg5
I200
sg6
(I185
I74
I98
I0
tp1703
sg8
(lp1704
(I115
I0
tp1705
a(I131
I0
tp1706
a(I171
I26
tp1707
a(I135
I0
tp1708
a(I166
I26
tp1709
a(I140
I27
tp1710
a(I166
I23
tp1711
a(I184
I13
tp1712
a(I190
I2
tp1713
a(I138
I0
tp1714
a(I133
I0
tp1715
a(I167
I46
tp1716
a(I122
I5
tp1717
asg16
I200
sba(imain2
Polygon
p1718
(dp1719
g3
(I144
I92
tp1720
sg5
I200
sg6
(I223
I44
I149
I142
tp1721
sg8
(lp1722
(I175
I55
tp1723
a(I181
I55
tp1724
a(I190
I118
tp1725
a(I178
I108
tp1726
a(I159
I52
tp1727
asg16
I200
sba(imain2
Polygon
p1728
(dp1729
g3
(I167
I23
tp1730
sg5
I200
sg6
(I169
I30
I241
I1
tp1731
sg8
(lp1732
(I174
I4
tp1733
a(I156
I11
tp1734
a(I200
I70
tp1735
a(I200
I14
tp1736
a(I197
I0
tp1737
a(I139
I19
tp1738
a(I166
I58
tp1739
a(I200
I0
tp1740
a(I164
I43
tp1741
a(I200
I32
tp1742
a(I194
I34
tp1743
a(I156
I3
tp1744
a(I168
I30
tp1745
asg16
I200
sba(imain2
Polygon
p1746
(dp1747
g3
(I200
I102
tp1748
sg5
I200
sg6
(I50
I231
I149
I38
tp1749
sg8
(lp1750
(I161
I70
tp1751
a(I171
I83
tp1752
a(I193
I55
tp1753
a(I200
I120
tp1754
a(I200
I145
tp1755
a(I181
I124
tp1756
a(I167
I86
tp1757
a(I200
I76
tp1758
a(I200
I100
tp1759
a(I199
I68
tp1760
a(I155
I69
tp1761
a(I159
I62
tp1762
a(I170
I125
tp1763
a(I177
I108
tp1764
a(I200
I127
tp1765
asg16
I200
sba(imain2
Polygon
p1766
(dp1767
g3
(I20
I176
tp1768
sg5
I200
sg6
(I11
I201
I1
I0
tp1769
sg8
(lp1770
(I0
I200
tp1771
a(I4
I200
tp1772
a(I0
I164
tp1773
a(I65
I153
tp1774
a(I0
I196
tp1775
a(I30
I200
tp1776
a(I43
I145
tp1777
a(I17
I200
tp1778
a(I28
I200
tp1779
a(I0
I200
tp1780
a(I67
I130
tp1781
a(I15
I152
tp1782
a(I45
I161
tp1783
a(I44
I189
tp1784
a(I1
I173
tp1785
a(I4
I200
tp1786
asg16
I200
sba(imain2
Polygon
p1787
(dp1788
g3
(I51
I87
tp1789
sg5
I200
sg6
(I98
I176
I45
I75
tp1790
sg8
(lp1791
(I14
I70
tp1792
a(I30
I71
tp1793
a(I35
I93
tp1794
a(I60
I82
tp1795
a(I3
I114
tp1796
a(I4
I50
tp1797
a(I33
I62
tp1798
a(I40
I55
tp1799
a(I63
I97
tp1800
a(I59
I88
tp1801
a(I73
I95
tp1802
a(I30
I52
tp1803
a(I37
I81
tp1804
asg16
I200
sba(imain2
Polygon
p1805
(dp1806
g3
(I124
I18
tp1807
sg5
I200
sg6
(I57
I202
I229
I0
tp1808
sg8
(lp1809
(I104
I18
tp1810
a(I112
I30
tp1811
a(I94
I26
tp1812
a(I160
I36
tp1813
a(I80
I11
tp1814
asg16
I200
sba(imain2
Polygon
p1815
(dp1816
g3
(I170
I179
tp1817
sg5
I200
sg6
(I139
I190
I56
I9
tp1818
sg8
(lp1819
(I186
I184
tp1820
a(I146
I200
tp1821
a(I200
I129
tp1822
a(I200
I200
tp1823
a(I125
I200
tp1824
a(I129
I168
tp1825
a(I156
I140
tp1826
a(I155
I179
tp1827
asg16
I200
sba(imain2
Polygon
p1828
(dp1829
g3
(I93
I4
tp1830
sg5
I200
sg6
(I125
I127
I1
I127
tp1831
sg8
(lp1832
(I46
I0
tp1833
a(I51
I53
tp1834
a(I57
I28
tp1835
a(I47
I35
tp1836
a(I62
I48
tp1837
a(I51
I52
tp1838
asg16
I200
sba(imain2
Polygon
p1839
(dp1840
g3
(I33
I157
tp1841
sg5
I200
sg6
(I38
I117
I125
I0
tp1842
sg8
(lp1843
(I43
I167
tp1844
a(I50
I130
tp1845
a(I67
I128
tp1846
a(I42
I136
tp1847
a(I66
I120
tp1848
a(I9
I140
tp1849
a(I8
I125
tp1850
a(I69
I135
tp1851
a(I50
I162
tp1852
a(I26
I121
tp1853
asg16
I200
sba(imain2
Polygon
p1854
(dp1855
g3
(I91
I9
tp1856
sg5
I200
sg6
(I67
I183
I12
I0
tp1857
sg8
(lp1858
(I124
I35
tp1859
a(I135
I0
tp1860
a(I115
I0
tp1861
a(I54
I0
tp1862
a(I134
I0
tp1863
a(I132
I0
tp1864
a(I72
I0
tp1865
a(I42
I0
tp1866
a(I88
I27
tp1867
a(I55
I45
tp1868
asg16
I200
sba(imain2
Polygon
p1869
(dp1870
g3
(I50
I13
tp1871
sg5
I200
sg6
(I92
I178
I161
I116
tp1872
sg8
(lp1873
(I31
I61
tp1874
a(I3
I50
tp1875
a(I0
I0
tp1876
a(I11
I0
tp1877
a(I7
I0
tp1878
a(I82
I0
tp1879
asg16
I200
sba(imain2
Polygon
p1880
(dp1881
g3
(I157
I108
tp1882
sg5
I200
sg6
(I128
I116
I1
I80
tp1883
sg8
(lp1884
(I168
I137
tp1885
a(I108
I127
tp1886
a(I123
I82
tp1887
a(I135
I90
tp1888
a(I108
I149
tp1889
a(I172
I125
tp1890
a(I193
I83
tp1891
a(I200
I120
tp1892
a(I184
I155
tp1893
a(I168
I127
tp1894
a(I188
I141
tp1895
a(I158
I120
tp1896
asg16
I200
sba(imain2
Polygon
p1897
(dp1898
g3
(I7
I150
tp1899
sg5
I200
sg6
(I177
I11
I55
I16
tp1900
sg8
(lp1901
(I0
I184
tp1902
a(I0
I107
tp1903
a(I57
I154
tp1904
a(I22
I183
tp1905
a(I0
I123
tp1906
a(I0
I149
tp1907
a(I4
I171
tp1908
a(I55
I115
tp1909
a(I32
I102
tp1910
a(I0
I183
tp1911
a(I24
I105
tp1912
a(I23
I114
tp1913
a(I26
I151
tp1914
asg16
I200
sba(imain2
Polygon
p1915
(dp1916
g3
(I89
I125
tp1917
sg5
I200
sg6
(I42
I1
I214
I14
tp1918
sg8
(lp1919
(I59
I165
tp1920
a(I51
I118
tp1921
a(I56
I165
tp1922
a(I76
I125
tp1923
a(I45
I157
tp1924
a(I89
I111
tp1925
asg16
I200
sba(imain2
Polygon
p1926
(dp1927
g3
(I18
I178
tp1928
sg5
I200
sg6
(I86
I163
I41
I95
tp1929
sg8
(lp1930
(I0
I148
tp1931
a(I0
I148
tp1932
a(I10
I175
tp1933
a(I0
I137
tp1934
a(I46
I200
tp1935
a(I23
I175
tp1936
a(I24
I189
tp1937
asg16
I200
sba(imain2
Polygon
p1938
(dp1939
g3
(I81
I53
tp1940
sg5
I200
sg6
(I217
I83
I79
I1
tp1941
sg8
(lp1942
(I89
I81
tp1943
a(I89
I58
tp1944
a(I66
I39
tp1945
a(I42
I77
tp1946
a(I37
I46
tp1947
a(I119
I4
tp1948
a(I97
I100
tp1949
a(I73
I54
tp1950
a(I96
I16
tp1951
a(I71
I87
tp1952
a(I89
I26
tp1953
asg16
I200
sba(imain2
Polygon
p1954
(dp1955
g3
(I117
I32
tp1956
sg5
I200
sg6
(I165
I186
I81
I0
tp1957
sg8
(lp1958
(I89
I46
tp1959
a(I147
I0
tp1960
a(I134
I30
tp1961
asg16
I200
sba(imain2
Polygon
p1962
(dp1963
g3
(I79
I140
tp1964
sg5
I200
sg6
(I225
I1
I161
I26
tp1965
sg8
(lp1966
(I108
I95
tp1967
a(I107
I173
tp1968
a(I52
I148
tp1969
a(I123
I97
tp1970
a(I103
I173
tp1971
a(I75
I159
tp1972
a(I80
I158
tp1973
a(I127
I127
tp1974
asg16
I200
sba(imain2
Polygon
p1975
(dp1976
g3
(I26
I4
tp1977
sg5
I200
sg6
(I196
I73
I69
I1
tp1978
sg8
(lp1979
(I49
I0
tp1980
a(I23
I0
tp1981
a(I7
I0
tp1982
a(I69
I0
tp1983
a(I0
I0
tp1984
a(I0
I11
tp1985
a(I0
I0
tp1986
a(I4
I0
tp1987
a(I38
I0
tp1988
asg16
I200
sba(imain2
Polygon
p1989
(dp1990
g3
(I15
I121
tp1991
sg5
I200
sg6
(I1
I223
I150
I1
tp1992
sg8
(lp1993
(I58
I148
tp1994
a(I16
I84
tp1995
a(I51
I75
tp1996
a(I60
I87
tp1997
a(I0
I74
tp1998
a(I1
I112
tp1999
a(I46
I142
tp2000
a(I46
I91
tp2001
a(I59
I105
tp2002
a(I61
I107
tp2003
a(I0
I154
tp2004
a(I16
I86
tp2005
a(I35
I105
tp2006
a(I53
I137
tp2007
a(I5
I124
tp2008
asg16
I200
sba(imain2
Polygon
p2009
(dp2010
g3
(I163
I195
tp2011
sg5
I200
sg6
(I8
I148
I193
I7
tp2012
sg8
(lp2013
(I187
I200
tp2014
a(I191
I191
tp2015
a(I169
I200
tp2016
a(I200
I185
tp2017
a(I180
I200
tp2018
a(I198
I192
tp2019
a(I172
I200
tp2020
a(I193
I191
tp2021
a(I200
I160
tp2022
asg16
I200
sba(imain2
Polygon
p2023
(dp2024
g3
(I118
I106
tp2025
sg5
I200
sg6
(I6
I134
I123
I117
tp2026
sg8
(lp2027
(I132
I104
tp2028
a(I145
I78
tp2029
a(I102
I87
tp2030
a(I125
I104
tp2031
a(I121
I98
tp2032
a(I123
I91
tp2033
a(I151
I66
tp2034
a(I130
I116
tp2035
a(I127
I105
tp2036
a(I140
I99
tp2037
asg16
I200
sba(imain2
Polygon
p2038
(dp2039
g3
(I56
I6
tp2040
sg5
I200
sg6
(I197
I1
I175
I0
tp2041
sg8
(lp2042
(I88
I24
tp2043
a(I79
I0
tp2044
a(I71
I0
tp2045
a(I21
I0
tp2046
a(I75
I2
tp2047
a(I102
I27
tp2048
asg16
I200
sba(imain2
Polygon
p2049
(dp2050
g3
(I174
I69
tp2051
sg5
I200
sg6
(I118
I36
I47
I102
tp2052
sg8
(lp2053
(I200
I23
tp2054
a(I200
I29
tp2055
a(I160
I53
tp2056
a(I199
I86
tp2057
a(I196
I88
tp2058
a(I200
I90
tp2059
a(I151
I40
tp2060
a(I126
I41
tp2061
a(I189
I42
tp2062
a(I171
I43
tp2063
a(I130
I47
tp2064
a(I191
I41
tp2065
a(I183
I53
tp2066
a(I173
I86
tp2067
asg16
I200
sba(imain2
Polygon
p2068
(dp2069
g3
(I0
I30
tp2070
sg5
I200
sg6
(I171
I40
I99
I1
tp2071
sg8
(lp2072
(I6
I31
tp2073
a(I0
I48
tp2074
a(I39
I78
tp2075
a(I29
I6
tp2076
a(I0
I44
tp2077
a(I0
I0
tp2078
asg16
I200
sba(imain2
Polygon
p2079
(dp2080
g3
(I134
I58
tp2081
sg5
I200
sg6
(I241
I178
I117
I112
tp2082
sg8
(lp2083
(I179
I58
tp2084
a(I110
I8
tp2085
a(I156
I8
tp2086
a(I179
I9
tp2087
asg16
I200
sba(imain2
Polygon
p2088
(dp2089
g3
(I142
I75
tp2090
sg5
I200
sg6
(I201
I60
I194
I79
tp2091
sg8
(lp2092
(I191
I83
tp2093
a(I154
I36
tp2094
a(I185
I48
tp2095
a(I192
I28
tp2096
asg16
I200
sba(imain2
Polygon
p2097
(dp2098
g3
(I129
I65
tp2099
sg5
I200
sg6
(I89
I0
I164
I129
tp2100
sg8
(lp2101
(I155
I65
tp2102
a(I158
I67
tp2103
a(I151
I68
tp2104
asg16
I200
sba(imain2
Polygon
p2105
(dp2106
g3
(I163
I171
tp2107
sg5
I200
sg6
(I198
I11
I130
I1
tp2108
sg8
(lp2109
(I129
I200
tp2110
a(I161
I200
tp2111
a(I131
I200
tp2112
a(I125
I138
tp2113
a(I193
I148
tp2114
a(I141
I196
tp2115
a(I170
I142
tp2116
a(I165
I165
tp2117
a(I158
I178
tp2118
a(I189
I200
tp2119
a(I161
I197
tp2120
a(I200
I124
tp2121
a(I188
I187
tp2122
a(I141
I126
tp2123
a(I113
I200
tp2124
asg16
I200
sba(imain2
Polygon
p2125
(dp2126
g3
(I184
I20
tp2127
sg5
I200
sg6
(I213
I92
I227
I77
tp2128
sg8
(lp2129
(I200
I60
tp2130
a(I200
I0
tp2131
a(I200
I69
tp2132
a(I160
I57
tp2133
a(I140
I0
tp2134
a(I144
I0
tp2135
a(I200
I0
tp2136
a(I200
I0
tp2137
asg16
I200
sba(imain2
Polygon
p2138
(dp2139
g3
(I145
I135
tp2140
sg5
I200
sg6
(I31
I41
I59
I42
tp2141
sg8
(lp2142
(I160
I178
tp2143
a(I183
I129
tp2144
a(I135
I88
tp2145
a(I110
I168
tp2146
a(I166
I183
tp2147
asg16
I200
sba(imain2
Polygon
p2148
(dp2149
g3
(I64
I74
tp2150
sg5
I200
sg6
(I135
I208
I148
I1
tp2151
sg8
(lp2152
(I111
I67
tp2153
a(I74
I124
tp2154
a(I19
I47
tp2155
a(I94
I61
tp2156
asg16
I200
sba(imain2
Polygon
p2157
(dp2158
g3
(I82
I104
tp2159
sg5
I200
sg6
(I48
I155
I198
I1
tp2160
sg8
(lp2161
(I97
I106
tp2162
a(I98
I78
tp2163
a(I54
I142
tp2164
a(I42
I81
tp2165
a(I87
I71
tp2166
a(I92
I82
tp2167
a(I105
I79
tp2168
a(I131
I77
tp2169
a(I51
I70
tp2170
a(I76
I62
tp2171
asg16
I200
sba(imain2
Polygon
p2172
(dp2173
g3
(I176
I51
tp2174
sg5
I200
sg6
(I114
I211
I85
I0
tp2175
sg8
(lp2176
(I200
I6
tp2177
a(I143
I9
tp2178
a(I148
I79
tp2179
a(I174
I33
tp2180
a(I171
I13
tp2181
a(I200
I28
tp2182
asg16
I200
sba(imain2
Polygon
p2183
(dp2184
g3
(I18
I179
tp2185
sg5
I200
sg6
(I9
I98
I96
I37
tp2186
sg8
(lp2187
(I0
I146
tp2188
a(I0
I135
tp2189
a(I0
I198
tp2190
a(I21
I200
tp2191
a(I22
I196
tp2192
a(I36
I190
tp2193
a(I19
I154
tp2194
a(I34
I156
tp2195
asg16
I200
sba(imain2
Polygon
p2196
(dp2197
g3
(I112
I97
tp2198
sg5
I200
sg6
(I96
I198
I68
I53
tp2199
sg8
(lp2200
(I117
I118
tp2201
a(I70
I139
tp2202
a(I97
I92
tp2203
a(I75
I68
tp2204
a(I76
I136
tp2205
a(I93
I140
tp2206
a(I98
I68
tp2207
a(I124
I101
tp2208
a(I130
I88
tp2209
asg16
I200
sba(imain2
Polygon
p2210
(dp2211
g3
(I3
I120
tp2212
sg5
I200
sg6
(I62
I87
I145
I93
tp2213
sg8
(lp2214
(I0
I86
tp2215
a(I0
I74
tp2216
a(I0
I159
tp2217
a(I0
I109
tp2218
a(I43
I80
tp2219
asg16
I200
sba(imain2
Polygon
p2220
(dp2221
g3
(I7
I32
tp2222
sg5
I200
sg6
(I148
I30
I185
I1
tp2223
sg8
(lp2224
(I0
I45
tp2225
a(I0
I27
tp2226
a(I0
I0
tp2227
a(I8
I32
tp2228
a(I0
I57
tp2229
a(I27
I38
tp2230
a(I0
I62
tp2231
a(I0
I49
tp2232
a(I0
I15
tp2233
a(I0
I75
tp2234
a(I48
I82
tp2235
a(I15
I15
tp2236
a(I0
I0
tp2237
asg16
I200
sba(imain2
Polygon
p2238
(dp2239
g3
(I166
I95
tp2240
sg5
I200
sg6
(I185
I2
I141
I147
tp2241
sg8
(lp2242
(I192
I50
tp2243
a(I200
I127
tp2244
a(I200
I60
tp2245
asg16
I200
sba(imain2
Polygon
p2246
(dp2247
g3
(I197
I92
tp2248
sg5
I200
sg6
(I116
I6
I30
I1
tp2249
sg8
(lp2250
(I154
I60
tp2251
a(I200
I65
tp2252
a(I200
I70
tp2253
a(I161
I97
tp2254
a(I158
I100
tp2255
a(I147
I82
tp2256
a(I200
I78
tp2257
a(I200
I131
tp2258
a(I191
I88
tp2259
a(I154
I82
tp2260
a(I200
I86
tp2261
a(I200
I79
tp2262
a(I147
I62
tp2263
a(I176
I122
tp2264
asg16
I200
sba(imain2
Polygon
p2265
(dp2266
g3
(I167
I132
tp2267
sg5
I200
sg6
(I220
I55
I85
I1
tp2268
sg8
(lp2269
(I166
I121
tp2270
a(I157
I116
tp2271
a(I169
I137
tp2272
a(I134
I127
tp2273
a(I174
I140
tp2274
a(I197
I112
tp2275
a(I155
I152
tp2276
a(I175
I142
tp2277
a(I117
I113
tp2278
a(I178
I149
tp2279
a(I177
I84
tp2280
a(I132
I168
tp2281
a(I128
I111
tp2282
a(I200
I101
tp2283
asg16
I200
sba(imain2
Polygon
p2284
(dp2285
g3
(I2
I175
tp2286
sg5
I200
sg6
(I101
I198
I107
I1
tp2287
sg8
(lp2288
(I34
I200
tp2289
a(I4
I200
tp2290
a(I28
I126
tp2291
asg16
I200
sba(imain2
Polygon
p2292
(dp2293
g3
(I148
I121
tp2294
sg5
I200
sg6
(I128
I197
I133
I21
tp2295
sg8
(lp2296
(I120
I135
tp2297
a(I118
I71
tp2298
a(I101
I103
tp2299
a(I128
I125
tp2300
asg16
I200
sba(imain2
Polygon
p2301
(dp2302
g3
(I26
I154
tp2303
sg5
I200
sg6
(I142
I63
I224
I30
tp2304
sg8
(lp2305
(I52
I148
tp2306
a(I0
I196
tp2307
a(I20
I155
tp2308
asg16
I200
sba(imain2
Polygon
p2309
(dp2310
g3
(I188
I60
tp2311
sg5
I200
sg6
(I21
I76
I8
I48
tp2312
sg8
(lp2313
(I200
I100
tp2314
a(I148
I100
tp2315
a(I139
I27
tp2316
a(I200
I98
tp2317
a(I200
I21
tp2318
a(I200
I63
tp2319
a(I200
I22
tp2320
a(I200
I88
tp2321
asg16
I200
sba(imain2
Polygon
p2322
(dp2323
g3
(I29
I0
tp2324
sg5
I200
sg6
(I200
I201
I8
I89
tp2325
sg8
(lp2326
(I29
I0
tp2327
a(I0
I0
tp2328
a(I50
I36
tp2329
a(I45
I18
tp2330
a(I61
I0
tp2331
a(I0
I0
tp2332
a(I0
I50
tp2333
a(I70
I50
tp2334
a(I0
I0
tp2335
a(I0
I0
tp2336
a(I77
I0
tp2337
a(I74
I14
tp2338
a(I36
I44
tp2339
a(I58
I0
tp2340
a(I74
I0
tp2341
a(I5
I0
tp2342
a(I20
I0
tp2343
asg16
I200
sba(imain2
Polygon
p2344
(dp2345
g3
(I92
I198
tp2346
sg5
I200
sg6
(I138
I2
I12
I59
tp2347
sg8
(lp2348
(I96
I170
tp2349
a(I67
I151
tp2350
a(I90
I200
tp2351
a(I122
I155
tp2352
a(I99
I200
tp2353
a(I73
I181
tp2354
a(I108
I179
tp2355
asg16
I200
sba(imain2
Polygon
p2356
(dp2357
g3
(I149
I42
tp2358
sg5
I200
sg6
(I90
I14
I53
I52
tp2359
sg8
(lp2360
(I145
I16
tp2361
a(I99
I9
tp2362
a(I127
I88
tp2363
a(I167
I91
tp2364
a(I167
I66
tp2365
a(I135
I17
tp2366
a(I145
I8
tp2367
a(I113
I48
tp2368
a(I119
I35
tp2369
asg16
I200
sba(imain2
Polygon
p2370
(dp2371
g3
(I18
I189
tp2372
sg5
I200
sg6
(I70
I6
I170
I1
tp2373
sg8
(lp2374
(I0
I200
tp2375
a(I36
I189
tp2376
a(I9
I200
tp2377
a(I11
I160
tp2378
a(I0
I200
tp2379
a(I5
I167
tp2380
a(I62
I200
tp2381
a(I8
I175
tp2382
a(I8
I170
tp2383
a(I40
I174
tp2384
a(I68
I200
tp2385
a(I56
I183
tp2386
a(I51
I175
tp2387
a(I19
I163
tp2388
a(I0
I178
tp2389
asg16
I200
sba(imain2
Polygon
p2390
(dp2391
g3
(I88
I199
tp2392
sg5
I200
sg6
(I15
I199
I77
I76
tp2393
sg8
(lp2394
(I40
I200
tp2395
a(I39
I200
tp2396
a(I108
I200
tp2397
a(I46
I200
tp2398
a(I126
I200
tp2399
a(I62
I200
tp2400
a(I70
I200
tp2401
a(I39
I200
tp2402
a(I84
I200
tp2403
asg16
I200
sba(imain2
Polygon
p2404
(dp2405
g3
(I57
I178
tp2406
sg5
I200
sg6
(I19
I117
I163
I1
tp2407
sg8
(lp2408
(I70
I128
tp2409
a(I21
I164
tp2410
a(I14
I171
tp2411
a(I47
I135
tp2412
a(I39
I141
tp2413
asg16
I200
sba(imain2
Polygon
p2414
(dp2415
g3
(I192
I63
tp2416
sg5
I200
sg6
(I115
I239
I124
I107
tp2417
sg8
(lp2418
(I200
I102
tp2419
a(I200
I19
tp2420
a(I200
I28
tp2421
a(I169
I43
tp2422
a(I142
I25
tp2423
a(I200
I102
tp2424
a(I161
I50
tp2425
a(I175
I96
tp2426
a(I200
I41
tp2427
a(I181
I96
tp2428
asg16
I200
sba(imain2
Polygon
p2429
(dp2430
g3
(I115
I149
tp2431
sg5
I200
sg6
(I104
I195
I239
I0
tp2432
sg8
(lp2433
(I118
I155
tp2434
a(I138
I198
tp2435
a(I102
I100
tp2436
a(I125
I181
tp2437
a(I110
I178
tp2438
a(I84
I110
tp2439
a(I68
I102
tp2440
a(I85
I145
tp2441
a(I67
I194
tp2442
a(I130
I139
tp2443
asg16
I200
sba(imain2
Polygon
p2444
(dp2445
g3
(I89
I107
tp2446
sg5
I200
sg6
(I31
I10
I110
I97
tp2447
sg8
(lp2448
(I137
I85
tp2449
a(I129
I120
tp2450
a(I138
I81
tp2451
asg16
I200
sba(imain2
Polygon
p2452
(dp2453
g3
(I87
I130
tp2454
sg5
I200
sg6
(I167
I110
I147
I1
tp2455
sg8
(lp2456
(I48
I159
tp2457
a(I49
I92
tp2458
a(I70
I91
tp2459
a(I111
I140
tp2460
a(I96
I151
tp2461
a(I87
I159
tp2462
a(I132
I175
tp2463
a(I91
I179
tp2464
a(I91
I175
tp2465
asg16
I200
sba(imain2
Polygon
p2466
(dp2467
g3
(I62
I187
tp2468
sg5
I200
sg6
(I112
I14
I175
I53
tp2469
sg8
(lp2470
(I22
I200
tp2471
a(I20
I200
tp2472
a(I38
I200
tp2473
a(I35
I200
tp2474
a(I77
I200
tp2475
a(I98
I200
tp2476
a(I71
I196
tp2477
a(I71
I200
tp2478
a(I71
I200
tp2479
a(I69
I200
tp2480
a(I45
I197
tp2481
asg16
I200
sba(imain2
Polygon
p2482
(dp2483
g3
(I59
I26
tp2484
sg5
I200
sg6
(I59
I4
I237
I0
tp2485
sg8
(lp2486
(I26
I72
tp2487
a(I21
I56
tp2488
a(I81
I0
tp2489
a(I33
I0
tp2490
a(I104
I10
tp2491
a(I79
I61
tp2492
a(I80
I5
tp2493
a(I41
I24
tp2494
asg16
I200
sba(imain2
Polygon
p2495
(dp2496
g3
(I74
I59
tp2497
sg5
I200
sg6
(I1
I47
I104
I0
tp2498
sg8
(lp2499
(I84
I47
tp2500
a(I46
I42
tp2501
a(I99
I13
tp2502
a(I67
I44
tp2503
a(I79
I79
tp2504
a(I86
I46
tp2505
a(I39
I17
tp2506
a(I57
I45
tp2507
a(I58
I60
tp2508
a(I44
I35
tp2509
asg16
I200
sba(imain2
Polygon
p2510
(dp2511
g3
(I141
I175
tp2512
sg5
I200
sg6
(I87
I37
I8
I1
tp2513
sg8
(lp2514
(I169
I200
tp2515
a(I159
I193
tp2516
a(I119
I183
tp2517
a(I149
I186
tp2518
a(I112
I195
tp2519
a(I149
I162
tp2520
a(I141
I132
tp2521
a(I169
I161
tp2522
a(I160
I187
tp2523
a(I128
I200
tp2524
a(I160
I169
tp2525
a(I136
I145
tp2526
a(I137
I186
tp2527
a(I136
I165
tp2528
a(I175
I200
tp2529
a(I94
I176
tp2530
a(I155
I191
tp2531
a(I146
I197
tp2532
asg16
I200
sba(imain2
Polygon
p2533
(dp2534
g3
(I114
I81
tp2535
sg5
I200
sg6
(I234
I16
I199
I71
tp2536
sg8
(lp2537
(I121
I101
tp2538
a(I81
I76
tp2539
a(I125
I101
tp2540
a(I121
I83
tp2541
asg16
I200
sba(imain2
Polygon
p2542
(dp2543
g3
(I191
I128
tp2544
sg5
I200
sg6
(I244
I3
I244
I9
tp2545
sg8
(lp2546
(I200
I162
tp2547
a(I144
I170
tp2548
a(I200
I89
tp2549
a(I200
I148
tp2550
a(I182
I162
tp2551
a(I147
I78
tp2552
a(I173
I163
tp2553
asg16
I200
sba(imain2
Polygon
p2554
(dp2555
g3
(I40
I13
tp2556
sg5
I200
sg6
(I70
I180
I120
I1
tp2557
sg8
(lp2558
(I87
I0
tp2559
a(I55
I33
tp2560
a(I62
I16
tp2561
a(I0
I0
tp2562
a(I84
I0
tp2563
a(I0
I0
tp2564
a(I29
I47
tp2565
a(I0
I0
tp2566
a(I67
I7
tp2567
a(I68
I27
tp2568
a(I75
I36
tp2569
a(I7
I27
tp2570
a(I0
I43
tp2571
a(I44
I9
tp2572
a(I76
I0
tp2573
a(I0
I0
tp2574
a(I19
I16
tp2575
a(I0
I0
tp2576
a(I27
I8
tp2577
a(I88
I47
tp2578
asg16
I200
sba(imain2
Polygon
p2579
(dp2580
g3
(I50
I145
tp2581
sg5
I200
sg6
(I56
I210
I123
I12
tp2582
sg8
(lp2583
(I3
I96
tp2584
a(I87
I159
tp2585
a(I82
I95
tp2586
asg16
I200
sba(imain2
Polygon
p2587
(dp2588
g3
(I184
I69
tp2589
sg5
I200
sg6
(I122
I136
I35
I142
tp2590
sg8
(lp2591
(I200
I63
tp2592
a(I200
I31
tp2593
a(I200
I33
tp2594
a(I200
I67
tp2595
a(I164
I71
tp2596
a(I174
I114
tp2597
a(I200
I115
tp2598
a(I200
I101
tp2599
a(I195
I79
tp2600
asg16
I200
sba(imain2
Polygon
p2601
(dp2602
g3
(I6
I29
tp2603
sg5
I200
sg6
(I137
I34
I214
I1
tp2604
sg8
(lp2605
(I56
I14
tp2606
a(I42
I0
tp2607
a(I0
I41
tp2608
a(I22
I65
tp2609
a(I48
I0
tp2610
a(I28
I0
tp2611
a(I4
I38
tp2612
asg16
I200
sba(imain2
Polygon
p2613
(dp2614
g3
(I100
I197
tp2615
sg5
I200
sg6
(I28
I135
I60
I69
tp2616
sg8
(lp2617
(I123
I200
tp2618
a(I79
I200
tp2619
a(I85
I200
tp2620
a(I74
I200
tp2621
a(I130
I200
tp2622
a(I68
I200
tp2623
a(I62
I200
tp2624
a(I148
I200
tp2625
asg16
I200
sba(imain2
Polygon
p2626
(dp2627
g3
(I102
I67
tp2628
sg5
I200
sg6
(I107
I63
I86
I0
tp2629
sg8
(lp2630
(I136
I109
tp2631
a(I78
I100
tp2632
a(I144
I70
tp2633
a(I83
I63
tp2634
a(I116
I116
tp2635
a(I84
I99
tp2636
a(I85
I70
tp2637
asg16
I200
sba(imain2
Polygon
p2638
(dp2639
g3
(I91
I124
tp2640
sg5
I200
sg6
(I166
I67
I8
I115
tp2641
sg8
(lp2642
(I41
I114
tp2643
a(I80
I127
tp2644
a(I83
I75
tp2645
a(I119
I114
tp2646
a(I111
I171
tp2647
a(I45
I142
tp2648
a(I66
I81
tp2649
a(I119
I80
tp2650
a(I129
I117
tp2651
a(I81
I119
tp2652
a(I76
I76
tp2653
a(I54
I89
tp2654
a(I76
I94
tp2655
a(I51
I90
tp2656
asg16
I200
sba(imain2
Polygon
p2657
(dp2658
g3
(I133
I74
tp2659
sg5
I200
sg6
(I15
I173
I91
I0
tp2660
sg8
(lp2661
(I93
I104
tp2662
a(I129
I31
tp2663
a(I176
I108
tp2664
a(I157
I40
tp2665
a(I132
I33
tp2666
a(I106
I93
tp2667
a(I178
I48
tp2668
a(I117
I90
tp2669
a(I152
I119
tp2670
a(I95
I100
tp2671
a(I181
I26
tp2672
a(I150
I45
tp2673
a(I154
I71
tp2674
a(I166
I88
tp2675
a(I171
I56
tp2676
asg16
I200
sba(imain2
Polygon
p2677
(dp2678
g3
(I181
I185
tp2679
sg5
I200
sg6
(I0
I135
I60
I4
tp2680
sg8
(lp2681
(I192
I200
tp2682
a(I197
I153
tp2683
a(I200
I157
tp2684
asg16
I200
sba(imain2
Polygon
p2685
(dp2686
g3
(I3
I9
tp2687
sg5
I200
sg6
(I112
I13
I41
I111
tp2688
sg8
(lp2689
(I0
I0
tp2690
a(I49
I0
tp2691
a(I0
I0
tp2692
asg16
I200
sba(imain2
Polygon
p2693
(dp2694
g3
(I154
I22
tp2695
sg5
I200
sg6
(I80
I179
I129
I0
tp2696
sg8
(lp2697
(I198
I49
tp2698
a(I180
I27
tp2699
a(I193
I61
tp2700
a(I124
I56
tp2701
asg16
I200
sba(imain2
Polygon
p2702
(dp2703
g3
(I3
I51
tp2704
sg5
I200
sg6
(I8
I164
I11
I31
tp2705
sg8
(lp2706
(I0
I63
tp2707
a(I0
I78
tp2708
a(I0
I34
tp2709
asg16
I200
sba(imain2
Polygon
p2710
(dp2711
g3
(I183
I123
tp2712
sg5
I200
sg6
(I43
I171
I187
I91
tp2713
sg8
(lp2714
(I200
I171
tp2715
a(I200
I140
tp2716
a(I200
I152
tp2717
a(I200
I132
tp2718
asg16
I200
sba.