(lp0
(imain2
Polygon
p1
(dp2
S'origin'
p3
(I100
I102
tp4
sS'h'
p5
I200
sS'color'
p6
(I132
I173
I191
I0
tp7
sS'corner_list'
p8
(lp9
(I77
I128
tp10
a(I102
I68
tp11
a(I130
I64
tp12
a(I126
I102
tp13
a(I83
I86
tp14
asS'w'
p15
I200
sba(imain2
Polygon
p16
(dp17
g3
(I142
I122
tp18
sg5
I200
sg6
(I20
I220
I130
I34
tp19
sg8
(lp20
(I101
I108
tp21
a(I95
I104
tp22
a(I106
I160
tp23
a(I177
I137
tp24
a(I109
I157
tp25
a(I93
I95
tp26
a(I119
I85
tp27
a(I188
I130
tp28
a(I164
I94
tp29
a(I192
I113
tp30
a(I136
I104
tp31
a(I134
I86
tp32
a(I102
I138
tp33
asg15
I200
sba(imain2
Polygon
p34
(dp35
g3
(I39
I24
tp36
sg5
I200
sg6
(I241
I163
I200
I1
tp37
sg8
(lp38
(I88
I73
tp39
a(I20
I46
tp40
a(I61
I39
tp41
a(I43
I65
tp42
a(I50
I25
tp43
a(I57
I0
tp44
asg15
I200
sba(imain2
Polygon
p45
(dp46
g3
(I87
I73
tp47
sg5
I200
sg6
(I160
I18
I198
I96
tp48
sg8
(lp49
(I103
I121
tp50
a(I130
I63
tp51
a(I82
I102
tp52
a(I62
I79
tp53
a(I68
I47
tp54
a(I56
I110
tp55
a(I73
I103
tp56
a(I64
I117
tp57
a(I47
I56
tp58
a(I77
I37
tp59
a(I131
I68
tp60
a(I98
I32
tp61
a(I128
I91
tp62
a(I37
I92
tp63
asg15
I200
sba(imain2
Polygon
p64
(dp65
g3
(I75
I185
tp66
sg5
I200
sg6
(I70
I1
I89
I86
tp67
sg8
(lp68
(I84
I199
tp69
a(I125
I163
tp70
a(I123
I140
tp71
a(I120
I200
tp72
a(I72
I200
tp73
a(I68
I195
tp74
a(I98
I174
tp75
asg15
I200
sba(imain2
Polygon
p76
(dp77
g3
(I51
I161
tp78
sg5
I200
sg6
(I131
I132
I15
I96
tp79
sg8
(lp80
(I86
I200
tp81
a(I55
I200
tp82
a(I96
I190
tp83
a(I67
I140
tp84
a(I76
I152
tp85
asg15
I200
sba(imain2
Polygon
p86
(dp87
g3
(I76
I107
tp88
sg5
I200
sg6
(I159
I38
I202
I116
tp89
sg8
(lp90
(I113
I136
tp91
a(I40
I71
tp92
a(I37
I76
tp93
a(I55
I67
tp94
a(I106
I86
tp95
a(I107
I154
tp96
a(I53
I141
tp97
a(I48
I92
tp98
a(I101
I62
tp99
a(I75
I123
tp100
a(I113
I77
tp101
a(I87
I117
tp102
asg15
I200
sba(imain2
Polygon
p103
(dp104
g3
(I79
I45
tp105
sg5
I200
sg6
(I222
I2
I243
I0
tp106
sg8
(lp107
(I84
I11
tp108
a(I121
I88
tp109
a(I37
I47
tp110
a(I73
I32
tp111
a(I102
I24
tp112
asg15
I200
sba(imain2
Polygon
p113
(dp114
g3
(I123
I186
tp115
sg5
I200
sg6
(I49
I15
I43
I1
tp116
sg8
(lp117
(I167
I200
tp118
a(I148
I200
tp119
a(I113
I143
tp120
a(I153
I138
tp121
asg15
I200
sba(imain2
Polygon
p122
(dp123
g3
(I74
I162
tp124
sg5
I200
sg6
(I155
I94
I212
I0
tp125
sg8
(lp126
(I39
I126
tp127
a(I47
I200
tp128
a(I37
I128
tp129
a(I79
I200
tp130
a(I48
I137
tp131
a(I44
I183
tp132
a(I112
I160
tp133
a(I54
I193
tp134
a(I60
I180
tp135
a(I95
I167
tp136
a(I110
I141
tp137
a(I105
I152
tp138
asg15
I200
sba(imain2
Polygon
p139
(dp140
g3
(I64
I120
tp141
sg5
I200
sg6
(I233
I41
I170
I1
tp142
sg8
(lp143
(I113
I141
tp144
a(I33
I157
tp145
a(I92
I162
tp146
a(I105
I141
tp147
asg15
I200
sba(imain2
Polygon
p148
(dp149
g3
(I2
I37
tp150
sg5
I200
sg6
(I135
I134
I101
I110
tp151
sg8
(lp152
(I0
I0
tp153
a(I45
I3
tp154
a(I4
I47
tp155
a(I20
I35
tp156
a(I0
I66
tp157
a(I41
I3
tp158
a(I36
I68
tp159
a(I21
I15
tp160
a(I39
I86
tp161
a(I0
I85
tp162
asg15
I200
sba(imain2
Polygon
p163
(dp164
g3
(I161
I116
tp165
sg5
I200
sg6
(I151
I94
I114
I57
tp166
sg8
(lp167
(I113
I144
tp168
a(I200
I152
tp169
a(I168
I90
tp170
a(I170
I71
tp171
a(I163
I108
tp172
a(I174
I126
tp173
a(I176
I87
tp174
a(I182
I147
tp175
a(I200
I152
tp176
asg15
I200
sba(imain2
Polygon
p177
(dp178
g3
(I171
I44
tp179
sg5
I200
sg6
(I133
I236
I105
I112
tp180
sg8
(lp181
(I200
I15
tp182
a(I157
I22
tp183
a(I200
I89
tp184
a(I200
I0
tp185
a(I132
I0
tp186
a(I134
I21
tp187
a(I133
I52
tp188
a(I161
I77
tp189
a(I200
I93
tp190
a(I143
I0
tp191
a(I170
I71
tp192
a(I157
I81
tp193
a(I125
I35
tp194
asg15
I200
sba(imain2
Polygon
p195
(dp196
g3
(I196
I163
tp197
sg5
I200
sg6
(I37
I167
I6
I30
tp198
sg8
(lp199
(I200
I176
tp200
a(I200
I197
tp201
a(I200
I191
tp202
a(I200
I134
tp203
a(I193
I170
tp204
a(I200
I141
tp205
a(I155
I170
tp206
a(I200
I182
tp207
a(I200
I172
tp208
a(I200
I113
tp209
a(I170
I173
tp210
a(I179
I115
tp211
a(I171
I129
tp212
asg15
I200
sba(imain2
Polygon
p213
(dp214
g3
(I123
I35
tp215
sg5
I200
sg6
(I144
I61
I71
I0
tp216
sg8
(lp217
(I150
I83
tp218
a(I148
I40
tp219
a(I134
I57
tp220
a(I98
I0
tp221
a(I158
I15
tp222
a(I90
I72
tp223
a(I93
I22
tp224
a(I94
I0
tp225
a(I172
I74
tp226
asg15
I200
sba(imain2
Polygon
p227
(dp228
g3
(I38
I152
tp229
sg5
I200
sg6
(I93
I165
I34
I134
tp230
sg8
(lp231
(I87
I136
tp232
a(I53
I103
tp233
a(I49
I126
tp234
a(I73
I158
tp235
asg15
I200
sba(imain2
Polygon
p236
(dp237
g3
(I118
I157
tp238
sg5
I200
sg6
(I86
I63
I44
I1
tp239
sg8
(lp240
(I152
I159
tp241
a(I115
I173
tp242
a(I152
I191
tp243
asg15
I200
sba(imain2
Polygon
p244
(dp245
g3
(I10
I175
tp246
sg5
I200
sg6
(I175
I53
I61
I16
tp247
sg8
(lp248
(I0
I141
tp249
a(I56
I147
tp250
a(I0
I200
tp251
a(I0
I183
tp252
a(I0
I200
tp253
a(I29
I188
tp254
asg15
I200
sba(imain2
Polygon
p255
(dp256
g3
(I4
I131
tp257
sg5
I200
sg6
(I122
I52
I62
I0
tp258
sg8
(lp259
(I25
I135
tp260
a(I2
I88
tp261
a(I0
I96
tp262
a(I0
I148
tp263
a(I0
I167
tp264
a(I18
I159
tp265
a(I11
I157
tp266
a(I31
I145
tp267
a(I37
I152
tp268
a(I0
I164
tp269
a(I53
I167
tp270
a(I0
I136
tp271
asg15
I200
sba(imain2
Polygon
p272
(dp273
g3
(I75
I51
tp274
sg5
I200
sg6
(I103
I197
I0
I15
tp275
sg8
(lp276
(I73
I93
tp277
a(I60
I74
tp278
a(I34
I7
tp279
a(I105
I56
tp280
a(I115
I39
tp281
asg15
I200
sba(imain2
Polygon
p282
(dp283
g3
(I18
I101
tp284
sg5
I200
sg6
(I0
I11
I69
I51
tp285
sg8
(lp286
(I0
I99
tp287
a(I15
I116
tp288
a(I0
I56
tp289
a(I5
I78
tp290
a(I9
I121
tp291
a(I20
I101
tp292
a(I0
I130
tp293
a(I45
I64
tp294
asg15
I200
sba(imain2
Polygon
p295
(dp296
g3
(I97
I199
tp297
sg5
I200
sg6
(I0
I108
I45
I115
tp298
sg8
(lp299
(I91
I200
tp300
a(I104
I199
tp301
a(I131
I200
tp302
a(I135
I171
tp303
a(I78
I156
tp304
a(I122
I200
tp305
a(I97
I158
tp306
a(I135
I155
tp307
a(I69
I200
tp308
a(I87
I171
tp309
a(I99
I160
tp310
a(I132
I156
tp311
a(I118
I192
tp312
asg15
I200
sba(imain2
Polygon
p313
(dp314
g3
(I102
I104
tp315
sg5
I200
sg6
(I220
I121
I127
I71
tp316
sg8
(lp317
(I105
I151
tp318
a(I105
I63
tp319
a(I59
I58
tp320
a(I57
I131
tp321
a(I74
I153
tp322
asg15
I200
sba(imain2
Polygon
p323
(dp324
g3
(I177
I176
tp325
sg5
I200
sg6
(I112
I207
I215
I43
tp326
sg8
(lp327
(I200
I138
tp328
a(I167
I145
tp329
a(I200
I200
tp330
asg15
I200
sba(imain2
Polygon
p331
(dp332
g3
(I99
I27
tp333
sg5
I200
sg6
(I71
I84
I1
I106
tp334
sg8
(lp335
(I143
I0
tp336
a(I53
I0
tp337
a(I97
I73
tp338
a(I139
I50
tp339
a(I73
I29
tp340
asg15
I200
sba(imain2
Polygon
p341
(dp342
g3
(I138
I156
tp343
sg5
I200
sg6
(I19
I57
I186
I0
tp344
sg8
(lp345
(I134
I187
tp346
a(I142
I107
tp347
a(I111
I148
tp348
asg15
I200
sba(imain2
Polygon
p349
(dp350
g3
(I100
I129
tp351
sg5
I200
sg6
(I113
I215
I219
I1
tp352
sg8
(lp353
(I64
I131
tp354
a(I85
I161
tp355
a(I102
I174
tp356
asg15
I200
sba(imain2
Polygon
p357
(dp358
g3
(I90
I2
tp359
sg5
I200
sg6
(I194
I195
I2
I1
tp360
sg8
(lp361
(I132
I0
tp362
a(I104
I0
tp363
a(I122
I0
tp364
a(I82
I20
tp365
a(I90
I51
tp366
a(I89
I45
tp367
a(I79
I40
tp368
a(I115
I17
tp369
a(I107
I0
tp370
asg15
I200
sba(imain2
Polygon
p371
(dp372
g3
(I76
I49
tp373
sg5
I200
sg6
(I246
I164
I176
I98
tp374
sg8
(lp375
(I52
I54
tp376
a(I62
I34
tp377
a(I99
I36
tp378
a(I124
I78
tp379
a(I91
I88
tp380
a(I47
I82
tp381
asg15
I200
sba(imain2
Polygon
p382
(dp383
g3
(I135
I193
tp384
sg5
I200
sg6
(I203
I201
I62
I1
tp385
sg8
(lp386
(I150
I200
tp387
a(I124
I200
tp388
a(I132
I166
tp389
a(I91
I200
tp390
a(I178
I191
tp391
a(I113
I200
tp392
a(I129
I171
tp393
a(I132
I200
tp394
a(I149
I200
tp395
asg15
I200
sba(imain2
Polygon
p396
(dp397
g3
(I156
I197
tp398
sg5
I200
sg6
(I79
I232
I79
I8
tp399
sg8
(lp400
(I183
I162
tp401
a(I198
I200
tp402
a(I112
I200
tp403
a(I108
I171
tp404
a(I196
I169
tp405
asg15
I200
sba(imain2
Polygon
p406
(dp407
g3
(I159
I95
tp408
sg5
I200
sg6
(I162
I22
I16
I0
tp409
sg8
(lp410
(I176
I110
tp411
a(I142
I142
tp412
a(I114
I45
tp413
a(I184
I46
tp414
a(I170
I56
tp415
a(I154
I110
tp416
a(I186
I126
tp417
a(I163
I133
tp418
a(I173
I67
tp419
asg15
I200
sba(imain2
Polygon
p420
(dp421
g3
(I130
I187
tp422
sg5
I200
sg6
(I177
I73
I86
I72
tp423
sg8
(lp424
(I138
I200
tp425
a(I152
I194
tp426
a(I150
I166
tp427
a(I168
I192
tp428
a(I164
I200
tp429
a(I97
I159
tp430
a(I90
I200
tp431
asg15
I200
sba(imain2
Polygon
p432
(dp433
g3
(I56
I194
tp434
sg5
I200
sg6
(I191
I173
I1
I36
tp435
sg8
(lp436
(I6
I200
tp437
a(I59
I200
tp438
a(I15
I171
tp439
a(I36
I176
tp440
a(I24
I145
tp441
a(I23
I200
tp442
a(I6
I200
tp443
a(I75
I169
tp444
asg15
I200
sba(imain2
Polygon
p445
(dp446
g3
(I180
I160
tp447
sg5
I200
sg6
(I29
I39
I108
I57
tp448
sg8
(lp449
(I192
I143
tp450
a(I163
I195
tp451
a(I182
I184
tp452
a(I200
I167
tp453
a(I196
I176
tp454
a(I200
I161
tp455
a(I163
I153
tp456
a(I161
I136
tp457
a(I200
I128
tp458
asg15
I200
sba(imain2
Polygon
p459
(dp460
g3
(I12
I87
tp461
sg5
I200
sg6
(I49
I129
I182
I8
tp462
sg8
(lp463
(I0
I89
tp464
a(I0
I54
tp465
a(I53
I118
tp466
a(I0
I107
tp467
a(I0
I121
tp468
a(I1
I124
tp469
asg15
I200
sba(imain2
Polygon
p470
(dp471
g3
(I123
I91
tp472
sg5
I200
sg6
(I229
I1
I184
I57
tp473
sg8
(lp474
(I93
I69
tp475
a(I99
I140
tp476
a(I130
I51
tp477
a(I77
I123
tp478
a(I112
I65
tp479
asg15
I200
sba(imain2
Polygon
p480
(dp481
g3
(I80
I122
tp482
sg5
I200
sg6
(I220
I176
I139
I75
tp483
sg8
(lp484
(I116
I143
tp485
a(I129
I85
tp486
a(I44
I101
tp487
a(I75
I158
tp488
a(I123
I146
tp489
asg15
I200
sba(imain2
Polygon
p490
(dp491
g3
(I119
I156
tp492
sg5
I200
sg6
(I125
I214
I195
I45
tp493
sg8
(lp494
(I96
I178
tp495
a(I141
I200
tp496
a(I103
I123
tp497
a(I90
I178
tp498
a(I70
I199
tp499
a(I133
I200
tp500
a(I69
I119
tp501
a(I111
I144
tp502
a(I69
I110
tp503
a(I111
I199
tp504
asg15
I200
sba(imain2
Polygon
p505
(dp506
g3
(I66
I96
tp507
sg5
I200
sg6
(I108
I72
I64
I100
tp508
sg8
(lp509
(I24
I133
tp510
a(I20
I88
tp511
a(I59
I80
tp512
a(I64
I124
tp513
a(I72
I129
tp514
a(I100
I145
tp515
a(I30
I82
tp516
a(I36
I114
tp517
asg15
I200
sba(imain2
Polygon
p518
(dp519
g3
(I17
I178
tp520
sg5
I200
sg6
(I82
I65
I13
I0
tp521
sg8
(lp522
(I0
I175
tp523
a(I1
I200
tp524
a(I0
I174
tp525
a(I17
I200
tp526
a(I20
I150
tp527
a(I0
I128
tp528
a(I24
I133
tp529
asg15
I200
sba(imain2
Polygon
p530
(dp531
g3
(I196
I157
tp532
sg5
I200
sg6
(I26
I207
I67
I1
tp533
sg8
(lp534
(I147
I199
tp535
a(I200
I112
tp536
a(I200
I161
tp537
a(I200
I170
tp538
a(I200
I120
tp539
a(I200
I146
tp540
a(I200
I123
tp541
a(I189
I185
tp542
a(I165
I144
tp543
a(I200
I153
tp544
a(I200
I173
tp545
a(I200
I174
tp546
a(I189
I174
tp547
a(I200
I166
tp548
a(I163
I117
tp549
a(I200
I185
tp550
a(I161
I119
tp551
a(I200
I151
tp552
a(I163
I139
tp553
asg15
I200
sba(imain2
Polygon
p554
(dp555
g3
(I7
I138
tp556
sg5
I200
sg6
(I209
I109
I9
I1
tp557
sg8
(lp558
(I0
I180
tp559
a(I47
I188
tp560
a(I0
I109
tp561
a(I0
I127
tp562
a(I11
I151
tp563
a(I0
I88
tp564
a(I0
I180
tp565
a(I25
I106
tp566
a(I0
I157
tp567
a(I0
I147
tp568
a(I29
I156
tp569
a(I15
I108
tp570
a(I0
I141
tp571
a(I30
I152
tp572
a(I24
I146
tp573
asg15
I200
sba(imain2
Polygon
p574
(dp575
g3
(I49
I75
tp576
sg5
I200
sg6
(I117
I229
I13
I24
tp577
sg8
(lp578
(I97
I31
tp579
a(I96
I95
tp580
a(I60
I123
tp581
a(I38
I118
tp582
a(I35
I74
tp583
a(I91
I46
tp584
a(I35
I64
tp585
a(I75
I88
tp586
a(I0
I118
tp587
a(I3
I64
tp588
a(I8
I49
tp589
a(I41
I49
tp590
a(I53
I73
tp591
a(I93
I71
tp592
a(I41
I61
tp593
asg15
I200
sba(imain2
Polygon
p594
(dp595
g3
(I75
I73
tp596
sg5
I200
sg6
(I161
I134
I136
I135
tp597
sg8
(lp598
(I108
I39
tp599
a(I122
I103
tp600
a(I47
I117
tp601
a(I62
I34
tp602
asg15
I200
sba(imain2
Polygon
p603
(dp604
g3
(I82
I103
tp605
sg5
I200
sg6
(I95
I95
I59
I0
tp606
sg8
(lp607
(I49
I116
tp608
a(I86
I105
tp609
a(I53
I131
tp610
a(I124
I68
tp611
a(I36
I91
tp612
a(I67
I133
tp613
a(I92
I71
tp614
a(I95
I67
tp615
a(I97
I112
tp616
a(I118
I113
tp617
a(I60
I69
tp618
a(I61
I89
tp619
a(I114
I87
tp620
a(I41
I99
tp621
a(I93
I107
tp622
a(I128
I131
tp623
a(I126
I120
tp624
a(I132
I87
tp625
a(I54
I64
tp626
a(I55
I149
tp627
asg15
I200
sba(imain2
Polygon
p628
(dp629
g3
(I126
I26
tp630
sg5
I200
sg6
(I238
I182
I126
I111
tp631
sg8
(lp632
(I138
I12
tp633
a(I148
I21
tp634
a(I122
I21
tp635
a(I78
I4
tp636
a(I77
I0
tp637
a(I162
I0
tp638
a(I176
I38
tp639
a(I168
I75
tp640
asg15
I200
sba(imain2
Polygon
p641
(dp642
g3
(I128
I23
tp643
sg5
I200
sg6
(I106
I0
I84
I0
tp644
sg8
(lp645
(I125
I0
tp646
a(I92
I0
tp647
a(I137
I0
tp648
a(I147
I0
tp649
a(I102
I0
tp650
a(I103
I28
tp651
a(I155
I58
tp652
a(I153
I43
tp653
a(I116
I0
tp654
a(I87
I56
tp655
a(I157
I34
tp656
a(I144
I0
tp657
a(I92
I33
tp658
a(I97
I59
tp659
a(I132
I58
tp660
asg15
I200
sba(imain2
Polygon
p661
(dp662
g3
(I147
I59
tp663
sg5
I200
sg6
(I0
I240
I189
I67
tp664
sg8
(lp665
(I186
I35
tp666
a(I155
I19
tp667
a(I190
I84
tp668
asg15
I200
sba(imain2
Polygon
p669
(dp670
g3
(I105
I192
tp671
sg5
I200
sg6
(I178
I20
I174
I1
tp672
sg8
(lp673
(I150
I178
tp674
a(I76
I200
tp675
a(I97
I200
tp676
a(I118
I200
tp677
asg15
I200
sba(imain2
Polygon
p678
(dp679
g3
(I144
I60
tp680
sg5
I200
sg6
(I59
I234
I8
I1
tp681
sg8
(lp682
(I100
I77
tp683
a(I160
I42
tp684
a(I131
I18
tp685
a(I108
I75
tp686
a(I186
I102
tp687
a(I180
I75
tp688
asg15
I200
sba(imain2
Polygon
p689
(dp690
g3
(I177
I86
tp691
sg5
I200
sg6
(I168
I33
I16
I0
tp692
sg8
(lp693
(I179
I46
tp694
a(I165
I74
tp695
a(I192
I40
tp696
a(I200
I88
tp697
a(I200
I115
tp698
a(I141
I67
tp699
asg15
I200
sba(imain2
Polygon
p700
(dp701
g3
(I157
I117
tp702
sg5
I200
sg6
(I43
I28
I0
I66
tp703
sg8
(lp704
(I188
I133
tp705
a(I200
I147
tp706
a(I128
I75
tp707
a(I142
I67
tp708
a(I198
I74
tp709
a(I183
I145
tp710
a(I200
I151
tp711
a(I189
I84
tp712
asg15
I200
sba(imain2
Polygon
p713
(dp714
g3
(I155
I192
tp715
sg5
I200
sg6
(I1
I36
I195
I0
tp716
sg8
(lp717
(I200
I165
tp718
a(I145
I200
tp719
a(I188
I200
tp720
a(I111
I200
tp721
a(I187
I169
tp722
a(I176
I183
tp723
a(I110
I173
tp724
a(I153
I200
tp725
a(I156
I200
tp726
asg15
I200
sba(imain2
Polygon
p727
(dp728
g3
(I103
I158
tp729
sg5
I200
sg6
(I13
I45
I119
I63
tp730
sg8
(lp731
(I107
I154
tp732
a(I87
I181
tp733
a(I57
I174
tp734
a(I121
I144
tp735
a(I99
I154
tp736
a(I131
I117
tp737
a(I66
I200
tp738
a(I96
I148
tp739
asg15
I200
sba(imain2
Polygon
p740
(dp741
g3
(I9
I151
tp742
sg5
I200
sg6
(I123
I83
I57
I37
tp743
sg8
(lp744
(I0
I173
tp745
a(I0
I173
tp746
a(I0
I126
tp747
a(I21
I130
tp748
a(I0
I157
tp749
a(I6
I192
tp750
a(I44
I122
tp751
a(I0
I159
tp752
a(I14
I152
tp753
asg15
I200
sba(imain2
Polygon
p754
(dp755
g3
(I114
I115
tp756
sg5
I200
sg6
(I166
I159
I139
I3
tp757
sg8
(lp758
(I74
I83
tp759
a(I75
I107
tp760
a(I64
I113
tp761
a(I134
I133
tp762
a(I97
I150
tp763
a(I64
I162
tp764
asg15
I200
sba(imain2
Polygon
p765
(dp766
g3
(I114
I99
tp767
sg5
I200
sg6
(I61
I240
I8
I51
tp768
sg8
(lp769
(I128
I108
tp770
a(I126
I70
tp771
a(I104
I71
tp772
a(I150
I79
tp773
a(I95
I94
tp774
a(I72
I108
tp775
a(I82
I55
tp776
a(I70
I56
tp777
a(I67
I105
tp778
a(I103
I135
tp779
a(I69
I62
tp780
a(I139
I67
tp781
a(I84
I133
tp782
asg15
I200
sba(imain2
Polygon
p783
(dp784
g3
(I173
I62
tp785
sg5
I200
sg6
(I1
I41
I168
I100
tp786
sg8
(lp787
(I200
I82
tp788
a(I200
I84
tp789
a(I153
I79
tp790
a(I192
I90
tp791
asg15
I200
sba(imain2
Polygon
p792
(dp793
g3
(I199
I171
tp794
sg5
I200
sg6
(I0
I235
I13
I29
tp795
sg8
(lp796
(I200
I164
tp797
a(I200
I186
tp798
a(I176
I167
tp799
asg15
I200
sba(imain2
Polygon
p800
(dp801
g3
(I195
I126
tp802
sg5
I200
sg6
(I211
I217
I28
I0
tp803
sg8
(lp804
(I146
I99
tp805
a(I200
I116
tp806
a(I196
I122
tp807
a(I200
I164
tp808
a(I200
I129
tp809
a(I200
I114
tp810
a(I175
I79
tp811
a(I200
I91
tp812
a(I188
I145
tp813
a(I179
I163
tp814
a(I183
I169
tp815
a(I199
I106
tp816
a(I170
I145
tp817
a(I187
I122
tp818
a(I186
I158
tp819
asg15
I200
sba(imain2
Polygon
p820
(dp821
g3
(I51
I190
tp822
sg5
I200
sg6
(I125
I172
I100
I68
tp823
sg8
(lp824
(I53
I200
tp825
a(I11
I200
tp826
a(I86
I200
tp827
a(I60
I200
tp828
a(I96
I168
tp829
a(I97
I200
tp830
a(I3
I200
tp831
a(I70
I200
tp832
asg15
I200
sba(imain2
Polygon
p833
(dp834
g3
(I200
I5
tp835
sg5
I200
sg6
(I187
I108
I44
I0
tp836
sg8
(lp837
(I200
I50
tp838
a(I176
I0
tp839
a(I165
I28
tp840
a(I200
I17
tp841
a(I185
I0
tp842
a(I167
I0
tp843
a(I193
I6
tp844
asg15
I200
sba(imain2
Polygon
p845
(dp846
g3
(I147
I166
tp847
sg5
I200
sg6
(I115
I241
I223
I14
tp848
sg8
(lp849
(I108
I131
tp850
a(I159
I200
tp851
a(I107
I165
tp852
a(I123
I166
tp853
a(I132
I125
tp854
a(I103
I176
tp855
a(I124
I199
tp856
asg15
I200
sba(imain2
Polygon
p857
(dp858
g3
(I16
I191
tp859
sg5
I200
sg6
(I129
I47
I221
I0
tp860
sg8
(lp861
(I0
I154
tp862
a(I59
I200
tp863
a(I55
I168
tp864
asg15
I200
sba(imain2
Polygon
p865
(dp866
g3
(I94
I9
tp867
sg5
I200
sg6
(I199
I51
I20
I1
tp868
sg8
(lp869
(I134
I41
tp870
a(I78
I0
tp871
a(I64
I48
tp872
a(I83
I0
tp873
a(I101
I37
tp874
a(I46
I24
tp875
a(I67
I26
tp876
a(I109
I0
tp877
a(I137
I18
tp878
a(I75
I11
tp879
a(I144
I14
tp880
asg15
I200
sba(imain2
Polygon
p881
(dp882
g3
(I111
I113
tp883
sg5
I200
sg6
(I90
I30
I146
I0
tp884
sg8
(lp885
(I83
I120
tp886
a(I95
I159
tp887
a(I74
I126
tp888
asg15
I200
sba(imain2
Polygon
p889
(dp890
g3
(I10
I81
tp891
sg5
I200
sg6
(I220
I163
I194
I0
tp892
sg8
(lp893
(I60
I131
tp894
a(I0
I33
tp895
a(I0
I62
tp896
a(I12
I107
tp897
a(I0
I101
tp898
a(I60
I111
tp899
a(I0
I57
tp900
a(I0
I111
tp901
a(I0
I105
tp902
a(I46
I129
tp903
a(I2
I80
tp904
asg15
I200
sba(imain2
Polygon
p905
(dp906
g3
(I10
I22
tp907
sg5
I200
sg6
(I218
I205
I106
I73
tp908
sg8
(lp909
(I13
I31
tp910
a(I41
I0
tp911
a(I47
I58
tp912
a(I8
I71
tp913
a(I0
I70
tp914
a(I12
I0
tp915
a(I0
I0
tp916
a(I0
I66
tp917
a(I13
I7
tp918
a(I0
I14
tp919
a(I26
I4
tp920
asg15
I200
sba(imain2
Polygon
p921
(dp922
g3
(I19
I169
tp923
sg5
I200
sg6
(I89
I217
I79
I0
tp924
sg8
(lp925
(I49
I128
tp926
a(I44
I183
tp927
a(I20
I192
tp928
a(I0
I200
tp929
a(I42
I200
tp930
asg15
I200
sba(imain2
Polygon
p931
(dp932
g3
(I194
I7
tp933
sg5
I200
sg6
(I163
I89
I134
I6
tp934
sg8
(lp935
(I200
I44
tp936
a(I200
I0
tp937
a(I200
I29
tp938
a(I160
I25
tp939
a(I200
I5
tp940
a(I158
I0
tp941
a(I200
I0
tp942
a(I200
I29
tp943
a(I180
I0
tp944
a(I200
I45
tp945
asg15
I200
sba(imain2
Polygon
p946
(dp947
g3
(I42
I15
tp948
sg5
I200
sg6
(I148
I136
I164
I0
tp949
sg8
(lp950
(I55
I36
tp951
a(I61
I9
tp952
a(I73
I63
tp953
a(I0
I65
tp954
a(I0
I8
tp955
a(I20
I46
tp956
a(I88
I8
tp957
a(I91
I0
tp958
a(I17
I0
tp959
asg15
I200
sba(imain2
Polygon
p960
(dp961
g3
(I183
I77
tp962
sg5
I200
sg6
(I25
I141
I28
I35
tp963
sg8
(lp964
(I141
I91
tp965
a(I200
I86
tp966
a(I156
I32
tp967
a(I200
I40
tp968
a(I200
I100
tp969
a(I200
I90
tp970
asg15
I200
sba(imain2
Polygon
p971
(dp972
g3
(I190
I45
tp973
sg5
I200
sg6
(I178
I46
I184
I0
tp974
sg8
(lp975
(I200
I8
tp976
a(I200
I26
tp977
a(I200
I14
tp978
a(I200
I46
tp979
a(I179
I86
tp980
a(I200
I7
tp981
a(I200
I56
tp982
a(I196
I11
tp983
a(I200
I70
tp984
asg15
I200
sba(imain2
Polygon
p985
(dp986
g3
(I115
I69
tp987
sg5
I200
sg6
(I0
I121
I192
I0
tp988
sg8
(lp989
(I77
I118
tp990
a(I67
I86
tp991
a(I84
I62
tp992
a(I91
I116
tp993
a(I128
I106
tp994
asg15
I200
sba(imain2
Polygon
p995
(dp996
g3
(I173
I121
tp997
sg5
I200
sg6
(I243
I55
I21
I0
tp998
sg8
(lp999
(I164
I100
tp1000
a(I161
I155
tp1001
a(I151
I97
tp1002
a(I164
I125
tp1003
a(I200
I144
tp1004
a(I131
I85
tp1005
a(I192
I111
tp1006
a(I156
I114
tp1007
a(I144
I170
tp1008
asg15
I200
sba(imain2
Polygon
p1009
(dp1010
g3
(I45
I135
tp1011
sg5
I200
sg6
(I149
I126
I177
I48
tp1012
sg8
(lp1013
(I7
I177
tp1014
a(I21
I178
tp1015
a(I23
I86
tp1016
a(I14
I133
tp1017
a(I35
I86
tp1018
a(I9
I89
tp1019
asg15
I200
sba(imain2
Polygon
p1020
(dp1021
g3
(I61
I48
tp1022
sg5
I200
sg6
(I77
I34
I123
I117
tp1023
sg8
(lp1024
(I71
I86
tp1025
a(I81
I91
tp1026
a(I73
I78
tp1027
a(I47
I85
tp1028
a(I68
I93
tp1029
a(I86
I72
tp1030
a(I85
I73
tp1031
a(I53
I98
tp1032
asg15
I200
sba(imain2
Polygon
p1033
(dp1034
g3
(I96
I154
tp1035
sg5
I200
sg6
(I149
I184
I186
I66
tp1036
sg8
(lp1037
(I51
I113
tp1038
a(I75
I149
tp1039
a(I90
I200
tp1040
a(I142
I200
tp1041
a(I53
I114
tp1042
a(I124
I143
tp1043
asg15
I200
sba(imain2
Polygon
p1044
(dp1045
g3
(I32
I146
tp1046
sg5
I200
sg6
(I62
I240
I71
I104
tp1047
sg8
(lp1048
(I0
I157
tp1049
a(I0
I165
tp1050
a(I0
I132
tp1051
asg15
I200
sba(imain2
Polygon
p1052
(dp1053
g3
(I3
I120
tp1054
sg5
I200
sg6
(I186
I176
I17
I55
tp1055
sg8
(lp1056
(I38
I71
tp1057
a(I0
I72
tp1058
a(I0
I90
tp1059
a(I0
I132
tp1060
a(I20
I116
tp1061
asg15
I200
sba(imain2
Polygon
p1062
(dp1063
g3
(I74
I152
tp1064
sg5
I200
sg6
(I59
I80
I126
I0
tp1065
sg8
(lp1066
(I76
I114
tp1067
a(I80
I138
tp1068
a(I39
I140
tp1069
a(I99
I121
tp1070
a(I81
I127
tp1071
a(I35
I167
tp1072
a(I118
I127
tp1073
a(I81
I105
tp1074
a(I88
I139
tp1075
a(I87
I200
tp1076
a(I56
I110
tp1077
asg15
I200
sba(imain2
Polygon
p1078
(dp1079
g3
(I31
I192
tp1080
sg5
I200
sg6
(I154
I33
I134
I0
tp1081
sg8
(lp1082
(I0
I181
tp1083
a(I7
I200
tp1084
a(I0
I200
tp1085
a(I36
I200
tp1086
a(I80
I200
tp1087
a(I53
I200
tp1088
a(I75
I161
tp1089
a(I41
I172
tp1090
a(I54
I171
tp1091
a(I0
I145
tp1092
a(I7
I200
tp1093
a(I79
I157
tp1094
a(I34
I200
tp1095
a(I31
I164
tp1096
a(I0
I200
tp1097
asg15
I200
sba(imain2
Polygon
p1098
(dp1099
g3
(I99
I149
tp1100
sg5
I200
sg6
(I189
I32
I204
I1
tp1101
sg8
(lp1102
(I110
I116
tp1103
a(I83
I160
tp1104
a(I101
I127
tp1105
a(I67
I104
tp1106
a(I114
I142
tp1107
a(I79
I154
tp1108
a(I115
I191
tp1109
a(I93
I155
tp1110
a(I149
I178
tp1111
a(I124
I194
tp1112
a(I133
I121
tp1113
a(I103
I151
tp1114
a(I123
I124
tp1115
a(I78
I148
tp1116
a(I52
I171
tp1117
asg15
I200
sba(imain2
Polygon
p1118
(dp1119
g3
(I183
I115
tp1120
sg5
I200
sg6
(I19
I108
I177
I147
tp1121
sg8
(lp1122
(I200
I102
tp1123
a(I200
I102
tp1124
a(I193
I132
tp1125
a(I181
I84
tp1126
a(I200
I87
tp1127
a(I200
I142
tp1128
asg15
I200
sba(imain2
Polygon
p1129
(dp1130
g3
(I141
I107
tp1131
sg5
I200
sg6
(I78
I146
I85
I146
tp1132
sg8
(lp1133
(I119
I86
tp1134
a(I95
I75
tp1135
a(I111
I152
tp1136
asg15
I200
sba(imain2
Polygon
p1137
(dp1138
g3
(I149
I72
tp1139
sg5
I200
sg6
(I64
I107
I165
I33
tp1140
sg8
(lp1141
(I160
I35
tp1142
a(I195
I56
tp1143
a(I155
I38
tp1144
a(I99
I25
tp1145
a(I173
I40
tp1146
a(I176
I38
tp1147
a(I150
I68
tp1148
a(I99
I71
tp1149
a(I150
I68
tp1150
a(I153
I27
tp1151
a(I108
I98
tp1152
asg15
I200
sba(imain2
Polygon
p1153
(dp1154
g3
(I67
I128
tp1155
sg5
I200
sg6
(I212
I148
I53
I31
tp1156
sg8
(lp1157
(I106
I157
tp1158
a(I73
I95
tp1159
a(I108
I113
tp1160
a(I115
I152
tp1161
a(I62
I84
tp1162
a(I27
I99
tp1163
a(I55
I110
tp1164
a(I44
I110
tp1165
asg15
I200
sba(imain2
Polygon
p1166
(dp1167
g3
(I183
I44
tp1168
sg5
I200
sg6
(I81
I11
I171
I0
tp1169
sg8
(lp1170
(I200
I4
tp1171
a(I138
I92
tp1172
a(I184
I85
tp1173
a(I200
I25
tp1174
a(I190
I1
tp1175
a(I153
I88
tp1176
asg15
I200
sba(imain2
Polygon
p1177
(dp1178
g3
(I100
I61
tp1179
sg5
I200
sg6
(I200
I97
I42
I43
tp1180
sg8
(lp1181
(I56
I38
tp1182
a(I99
I64
tp1183
a(I91
I106
tp1184
a(I131
I96
tp1185
a(I95
I52
tp1186
a(I78
I95
tp1187
a(I74
I24
tp1188
a(I146
I15
tp1189
a(I96
I45
tp1190
a(I109
I45
tp1191
a(I143
I70
tp1192
a(I84
I63
tp1193
asg15
I200
sba(imain2
Polygon
p1194
(dp1195
g3
(I52
I190
tp1196
sg5
I200
sg6
(I175
I147
I50
I83
tp1197
sg8
(lp1198
(I71
I200
tp1199
a(I89
I171
tp1200
a(I102
I200
tp1201
a(I94
I200
tp1202
a(I95
I200
tp1203
a(I34
I200
tp1204
asg15
I200
sba(imain2
Polygon
p1205
(dp1206
g3
(I151
I65
tp1207
sg5
I200
sg6
(I63
I180
I1
I103
tp1208
sg8
(lp1209
(I176
I54
tp1210
a(I179
I51
tp1211
a(I192
I90
tp1212
a(I186
I39
tp1213
a(I165
I61
tp1214
a(I111
I63
tp1215
a(I119
I77
tp1216
a(I169
I47
tp1217
a(I193
I72
tp1218
asg15
I200
sba(imain2
Polygon
p1219
(dp1220
g3
(I67
I20
tp1221
sg5
I200
sg6
(I165
I93
I188
I105
tp1222
sg8
(lp1223
(I17
I0
tp1224
a(I29
I39
tp1225
a(I114
I0
tp1226
a(I27
I0
tp1227
a(I55
I0
tp1228
a(I113
I0
tp1229
asg15
I200
sba(imain2
Polygon
p1230
(dp1231
g3
(I199
I56
tp1232
sg5
I200
sg6
(I160
I0
I107
I1
tp1233
sg8
(lp1234
(I200
I8
tp1235
a(I165
I70
tp1236
a(I200
I46
tp1237
a(I200
I83
tp1238
a(I181
I100
tp1239
a(I186
I53
tp1240
a(I198
I104
tp1241
a(I188
I15
tp1242
a(I200
I90
tp1243
a(I200
I16
tp1244
a(I168
I34
tp1245
asg15
I200
sba(imain2
Polygon
p1246
(dp1247
g3
(I185
I38
tp1248
sg5
I200
sg6
(I128
I218
I68
I161
tp1249
sg8
(lp1250
(I200
I69
tp1251
a(I200
I0
tp1252
a(I196
I0
tp1253
a(I154
I0
tp1254
a(I146
I42
tp1255
a(I200
I5
tp1256
a(I168
I28
tp1257
a(I142
I46
tp1258
a(I155
I22
tp1259
a(I181
I67
tp1260
a(I187
I70
tp1261
a(I138
I0
tp1262
a(I200
I50
tp1263
a(I141
I1
tp1264
a(I171
I85
tp1265
a(I189
I82
tp1266
asg15
I200
sba(imain2
Polygon
p1267
(dp1268
g3
(I67
I149
tp1269
sg5
I200
sg6
(I92
I206
I214
I43
tp1270
sg8
(lp1271
(I61
I169
tp1272
a(I92
I149
tp1273
a(I45
I104
tp1274
a(I84
I154
tp1275
a(I47
I101
tp1276
a(I64
I107
tp1277
a(I75
I131
tp1278
a(I69
I155
tp1279
asg15
I200
sba(imain2
Polygon
p1280
(dp1281
g3
(I21
I182
tp1282
sg5
I200
sg6
(I111
I116
I1
I84
tp1283
sg8
(lp1284
(I67
I200
tp1285
a(I0
I166
tp1286
a(I59
I164
tp1287
a(I20
I169
tp1288
a(I19
I200
tp1289
a(I0
I181
tp1290
a(I19
I200
tp1291
a(I0
I143
tp1292
a(I13
I200
tp1293
a(I0
I144
tp1294
a(I0
I194
tp1295
a(I27
I167
tp1296
a(I0
I200
tp1297
a(I28
I152
tp1298
a(I0
I133
tp1299
a(I47
I191
tp1300
asg15
I200
sba(imain2
Polygon
p1301
(dp1302
g3
(I145
I176
tp1303
sg5
I200
sg6
(I184
I171
I1
I37
tp1304
sg8
(lp1305
(I116
I200
tp1306
a(I101
I200
tp1307
a(I138
I200
tp1308
a(I120
I137
tp1309
a(I98
I200
tp1310
a(I105
I200
tp1311
asg15
I200
sba(imain2
Polygon
p1312
(dp1313
g3
(I102
I21
tp1314
sg5
I200
sg6
(I180
I178
I186
I57
tp1315
sg8
(lp1316
(I129
I69
tp1317
a(I61
I26
tp1318
a(I53
I14
tp1319
a(I104
I12
tp1320
a(I146
I25
tp1321
a(I143
I7
tp1322
a(I142
I0
tp1323
a(I59
I0
tp1324
a(I54
I68
tp1325
asg15
I200
sba(imain2
Polygon
p1326
(dp1327
g3
(I154
I30
tp1328
sg5
I200
sg6
(I49
I96
I59
I0
tp1329
sg8
(lp1330
(I145
I6
tp1331
a(I190
I0
tp1332
a(I107
I66
tp1333
a(I169
I73
tp1334
a(I162
I48
tp1335
a(I140
I39
tp1336
a(I195
I27
tp1337
a(I155
I0
tp1338
a(I156
I27
tp1339
asg15
I200
sba(imain2
Polygon
p1340
(dp1341
g3
(I171
I178
tp1342
sg5
I200
sg6
(I94
I229
I32
I5
tp1343
sg8
(lp1344
(I200
I200
tp1345
a(I200
I200
tp1346
a(I200
I195
tp1347
a(I200
I135
tp1348
a(I179
I151
tp1349
a(I137
I200
tp1350
asg15
I200
sba(imain2
Polygon
p1351
(dp1352
g3
(I189
I152
tp1353
sg5
I200
sg6
(I247
I70
I179
I1
tp1354
sg8
(lp1355
(I200
I132
tp1356
a(I173
I117
tp1357
a(I200
I166
tp1358
a(I200
I155
tp1359
a(I176
I108
tp1360
a(I182
I182
tp1361
a(I200
I166
tp1362
a(I162
I141
tp1363
a(I149
I177
tp1364
a(I194
I114
tp1365
asg15
I200
sba(imain2
Polygon
p1366
(dp1367
g3
(I158
I122
tp1368
sg5
I200
sg6
(I42
I1
I156
I42
tp1369
sg8
(lp1370
(I182
I80
tp1371
a(I180
I97
tp1372
a(I200
I145
tp1373
a(I166
I100
tp1374
a(I200
I140
tp1375
a(I124
I81
tp1376
a(I190
I85
tp1377
a(I131
I110
tp1378
a(I139
I107
tp1379
a(I200
I74
tp1380
asg15
I200
sba(imain2
Polygon
p1381
(dp1382
g3
(I89
I194
tp1383
sg5
I200
sg6
(I227
I75
I38
I0
tp1384
sg8
(lp1385
(I120
I150
tp1386
a(I61
I194
tp1387
a(I129
I168
tp1388
a(I95
I159
tp1389
a(I74
I200
tp1390
a(I122
I200
tp1391
a(I104
I200
tp1392
a(I111
I200
tp1393
a(I64
I164
tp1394
a(I90
I175
tp1395
a(I68
I191
tp1396
asg15
I200
sba(imain2
Polygon
p1397
(dp1398
g3
(I185
I89
tp1399
sg5
I200
sg6
(I164
I1
I219
I1
tp1400
sg8
(lp1401
(I200
I39
tp1402
a(I197
I67
tp1403
a(I190
I122
tp1404
a(I200
I70
tp1405
a(I170
I80
tp1406
a(I200
I118
tp1407
a(I200
I94
tp1408
a(I200
I128
tp1409
a(I200
I121
tp1410
a(I200
I97
tp1411
a(I138
I104
tp1412
a(I200
I47
tp1413
asg15
I200
sba(imain2
Polygon
p1414
(dp1415
g3
(I67
I129
tp1416
sg5
I200
sg6
(I72
I192
I58
I123
tp1417
sg8
(lp1418
(I96
I97
tp1419
a(I112
I141
tp1420
a(I78
I170
tp1421
a(I114
I112
tp1422
a(I112
I100
tp1423
a(I49
I126
tp1424
a(I93
I98
tp1425
a(I110
I107
tp1426
a(I61
I148
tp1427
a(I109
I141
tp1428
a(I87
I119
tp1429
a(I87
I107
tp1430
a(I75
I92
tp1431
a(I84
I146
tp1432
a(I52
I135
tp1433
a(I91
I173
tp1434
asg15
I200
sba(imain2
Polygon
p1435
(dp1436
g3
(I95
I80
tp1437
sg5
I200
sg6
(I219
I89
I22
I131
tp1438
sg8
(lp1439
(I121
I57
tp1440
a(I47
I53
tp1441
a(I58
I130
tp1442
a(I113
I109
tp1443
a(I126
I95
tp1444
a(I129
I87
tp1445
asg15
I200
sba(imain2
Polygon
p1446
(dp1447
g3
(I14
I45
tp1448
sg5
I200
sg6
(I224
I1
I43
I108
tp1449
sg8
(lp1450
(I2
I89
tp1451
a(I58
I24
tp1452
a(I17
I21
tp1453
a(I38
I90
tp1454
a(I10
I95
tp1455
a(I0
I67
tp1456
asg15
I200
sba(imain2
Polygon
p1457
(dp1458
g3
(I34
I35
tp1459
sg5
I200
sg6
(I107
I9
I201
I25
tp1460
sg8
(lp1461
(I0
I0
tp1462
a(I0
I84
tp1463
a(I51
I56
tp1464
a(I42
I28
tp1465
a(I53
I81
tp1466
a(I45
I11
tp1467
a(I56
I7
tp1468
asg15
I200
sba(imain2
Polygon
p1469
(dp1470
g3
(I127
I147
tp1471
sg5
I200
sg6
(I118
I171
I188
I77
tp1472
sg8
(lp1473
(I112
I151
tp1474
a(I112
I167
tp1475
a(I161
I125
tp1476
a(I99
I100
tp1477
a(I112
I159
tp1478
a(I126
I158
tp1479
a(I164
I118
tp1480
a(I80
I133
tp1481
a(I125
I141
tp1482
a(I92
I99
tp1483
a(I85
I144
tp1484
a(I105
I137
tp1485
a(I148
I117
tp1486
a(I108
I109
tp1487
a(I88
I127
tp1488
a(I120
I132
tp1489
asg15
I200
sba(imain2
Polygon
p1490
(dp1491
g3
(I88
I106
tp1492
sg5
I200
sg6
(I189
I11
I60
I115
tp1493
sg8
(lp1494
(I127
I64
tp1495
a(I119
I93
tp1496
a(I117
I112
tp1497
asg15
I200
sba(imain2
Polygon
p1498
(dp1499
g3
(I11
I134
tp1500
sg5
I200
sg6
(I75
I179
I94
I96
tp1501
sg8
(lp1502
(I0
I183
tp1503
a(I0
I95
tp1504
a(I0
I108
tp1505
a(I0
I157
tp1506
a(I0
I145
tp1507
a(I12
I180
tp1508
a(I41
I142
tp1509
asg15
I200
sba(imain2
Polygon
p1510
(dp1511
g3
(I174
I141
tp1512
sg5
I200
sg6
(I114
I237
I92
I81
tp1513
sg8
(lp1514
(I200
I134
tp1515
a(I200
I120
tp1516
a(I192
I135
tp1517
a(I175
I139
tp1518
a(I200
I190
tp1519
asg15
I200
sba(imain2
Polygon
p1520
(dp1521
g3
(I68
I44
tp1522
sg5
I200
sg6
(I3
I228
I128
I46
tp1523
sg8
(lp1524
(I40
I52
tp1525
a(I19
I82
tp1526
a(I62
I45
tp1527
a(I75
I72
tp1528
a(I22
I45
tp1529
a(I76
I14
tp1530
asg15
I200
sba(imain2
Polygon
p1531
(dp1532
g3
(I80
I68
tp1533
sg5
I200
sg6
(I77
I15
I16
I39
tp1534
sg8
(lp1535
(I35
I25
tp1536
a(I52
I50
tp1537
a(I34
I66
tp1538
a(I53
I18
tp1539
a(I117
I21
tp1540
a(I40
I26
tp1541
a(I52
I99
tp1542
a(I37
I27
tp1543
a(I47
I36
tp1544
a(I97
I30
tp1545
a(I37
I35
tp1546
a(I66
I42
tp1547
a(I83
I18
tp1548
asg15
I200
sba(imain2
Polygon
p1549
(dp1550
g3
(I120
I143
tp1551
sg5
I200
sg6
(I152
I157
I83
I0
tp1552
sg8
(lp1553
(I160
I189
tp1554
a(I157
I180
tp1555
a(I104
I174
tp1556
a(I143
I95
tp1557
a(I154
I138
tp1558
a(I130
I121
tp1559
a(I110
I93
tp1560
a(I111
I169
tp1561
a(I131
I151
tp1562
a(I86
I100
tp1563
a(I157
I112
tp1564
a(I90
I94
tp1565
asg15
I200
sba(imain2
Polygon
p1566
(dp1567
g3
(I47
I43
tp1568
sg5
I200
sg6
(I224
I145
I62
I45
tp1569
sg8
(lp1570
(I94
I47
tp1571
a(I85
I78
tp1572
a(I7
I93
tp1573
a(I0
I83
tp1574
a(I5
I0
tp1575
a(I26
I10
tp1576
a(I20
I39
tp1577
a(I21
I40
tp1578
a(I74
I3
tp1579
a(I52
I53
tp1580
a(I45
I0
tp1581
a(I49
I4
tp1582
a(I96
I0
tp1583
asg15
I200
sba(imain2
Polygon
p1584
(dp1585
g3
(I6
I165
tp1586
sg5
I200
sg6
(I193
I51
I158
I58
tp1587
sg8
(lp1588
(I0
I181
tp1589
a(I0
I123
tp1590
a(I0
I200
tp1591
asg15
I200
sba(imain2
Polygon
p1592
(dp1593
g3
(I125
I173
tp1594
sg5
I200
sg6
(I91
I30
I33
I122
tp1595
sg8
(lp1596
(I145
I181
tp1597
a(I132
I145
tp1598
a(I105
I138
tp1599
a(I135
I166
tp1600
a(I143
I200
tp1601
a(I165
I200
tp1602
a(I85
I166
tp1603
a(I93
I145
tp1604
a(I79
I141
tp1605
a(I139
I163
tp1606
a(I157
I200
tp1607
a(I143
I189
tp1608
asg15
I200
sba(imain2
Polygon
p1609
(dp1610
g3
(I63
I154
tp1611
sg5
I200
sg6
(I122
I159
I3
I0
tp1612
sg8
(lp1613
(I96
I189
tp1614
a(I79
I108
tp1615
a(I112
I105
tp1616
a(I100
I174
tp1617
a(I26
I177
tp1618
a(I27
I140
tp1619
a(I66
I149
tp1620
a(I45
I194
tp1621
a(I85
I125
tp1622
a(I27
I122
tp1623
asg15
I200
sba(imain2
Polygon
p1624
(dp1625
g3
(I152
I171
tp1626
sg5
I200
sg6
(I192
I3
I227
I0
tp1627
sg8
(lp1628
(I106
I145
tp1629
a(I119
I163
tp1630
a(I151
I190
tp1631
a(I105
I165
tp1632
a(I114
I145
tp1633
a(I139
I139
tp1634
a(I180
I200
tp1635
a(I171
I163
tp1636
asg15
I200
sba(imain2
Polygon
p1637
(dp1638
g3
(I67
I143
tp1639
sg5
I200
sg6
(I71
I72
I132
I119
tp1640
sg8
(lp1641
(I100
I175
tp1642
a(I102
I173
tp1643
a(I113
I130
tp1644
a(I111
I131
tp1645
asg15
I200
sba(imain2
Polygon
p1646
(dp1647
g3
(I153
I79
tp1648
sg5
I200
sg6
(I134
I30
I161
I1
tp1649
sg8
(lp1650
(I156
I115
tp1651
a(I178
I118
tp1652
a(I198
I89
tp1653
a(I105
I69
tp1654
a(I175
I77
tp1655
a(I178
I72
tp1656
a(I151
I121
tp1657
a(I148
I111
tp1658
a(I139
I96
tp1659
a(I152
I113
tp1660
a(I120
I111
tp1661
a(I119
I59
tp1662
asg15
I200
sba(imain2
Polygon
p1663
(dp1664
g3
(I142
I192
tp1665
sg5
I200
sg6
(I51
I237
I1
I3
tp1666
sg8
(lp1667
(I120
I200
tp1668
a(I94
I200
tp1669
a(I151
I200
tp1670
a(I170
I191
tp1671
a(I159
I195
tp1672
a(I123
I197
tp1673
a(I115
I176
tp1674
a(I94
I200
tp1675
a(I138
I200
tp1676
asg15
I200
sba(imain2
Polygon
p1677
(dp1678
g3
(I144
I12
tp1679
sg5
I200
sg6
(I186
I74
I99
I1
tp1680
sg8
(lp1681
(I142
I44
tp1682
a(I162
I2
tp1683
a(I104
I0
tp1684
a(I143
I52
tp1685
a(I166
I26
tp1686
a(I140
I27
tp1687
a(I176
I62
tp1688
a(I184
I13
tp1689
a(I190
I2
tp1690
a(I107
I0
tp1691
a(I143
I13
tp1692
a(I111
I37
tp1693
a(I177
I48
tp1694
asg15
I200
sba(imain2
Polygon
p1695
(dp1696
g3
(I144
I92
tp1697
sg5
I200
sg6
(I224
I44
I149
I148
tp1698
sg8
(lp1699
(I175
I55
tp1700
a(I181
I55
tp1701
a(I190
I118
tp1702
a(I171
I70
tp1703
a(I159
I52
tp1704
asg15
I200
sba(imain2
Polygon
p1705
(dp1706
g3
(I167
I23
tp1707
sg5
I200
sg6
(I171
I31
I241
I9
tp1708
sg8
(lp1709
(I170
I58
tp1710
a(I142
I0
tp1711
a(I200
I70
tp1712
a(I200
I14
tp1713
a(I155
I0
tp1714
a(I200
I50
tp1715
a(I139
I19
tp1716
a(I166
I58
tp1717
a(I200
I0
tp1718
a(I122
I65
tp1719
a(I200
I32
tp1720
a(I119
I0
tp1721
asg15
I200
sba(imain2
Polygon
p1722
(dp1723
g3
(I200
I102
tp1724
sg5
I200
sg6
(I50
I232
I149
I49
tp1725
sg8
(lp1726
(I161
I70
tp1727
a(I178
I55
tp1728
a(I193
I55
tp1729
a(I200
I120
tp1730
a(I200
I145
tp1731
a(I181
I124
tp1732
a(I167
I86
tp1733
a(I200
I76
tp1734
a(I200
I100
tp1735
a(I200
I61
tp1736
a(I155
I69
tp1737
a(I180
I53
tp1738
a(I170
I125
tp1739
asg15
I200
sba(imain2
Polygon
p1740
(dp1741
g3
(I20
I176
tp1742
sg5
I200
sg6
(I11
I203
I1
I1
tp1743
sg8
(lp1744
(I32
I132
tp1745
a(I28
I200
tp1746
a(I0
I164
tp1747
a(I65
I153
tp1748
a(I0
I196
tp1749
a(I0
I200
tp1750
a(I43
I145
tp1751
a(I0
I185
tp1752
a(I0
I200
tp1753
a(I34
I200
tp1754
a(I67
I130
tp1755
a(I59
I184
tp1756
a(I45
I161
tp1757
a(I67
I190
tp1758
a(I35
I190
tp1759
asg15
I200
sba(imain2
Polygon
p1760
(dp1761
g3
(I51
I87
tp1762
sg5
I200
sg6
(I98
I177
I47
I75
tp1763
sg8
(lp1764
(I68
I80
tp1765
a(I14
I70
tp1766
a(I30
I71
tp1767
a(I59
I118
tp1768
a(I60
I82
tp1769
a(I3
I114
tp1770
a(I4
I50
tp1771
a(I33
I62
tp1772
a(I40
I55
tp1773
a(I63
I97
tp1774
a(I94
I79
tp1775
a(I73
I95
tp1776
a(I30
I52
tp1777
asg15
I200
sba(imain2
Polygon
p1778
(dp1779
g3
(I124
I18
tp1780
sg5
I200
sg6
(I59
I202
I230
I0
tp1781
sg8
(lp1782
(I104
I18
tp1783
a(I112
I30
tp1784
a(I81
I43
tp1785
a(I160
I36
tp1786
asg15
I200
sba(imain2
Polygon
p1787
(dp1788
g3
(I170
I179
tp1789
sg5
I200
sg6
(I139
I190
I58
I12
tp1790
sg8
(lp1791
(I186
I184
tp1792
a(I140
I155
tp1793
a(I146
I200
tp1794
a(I200
I129
tp1795
a(I200
I200
tp1796
a(I125
I200
tp1797
a(I129
I168
tp1798
a(I156
I140
tp1799
asg15
I200
sba(imain2
Polygon
p1800
(dp1801
g3
(I93
I4
tp1802
sg5
I200
sg6
(I125
I127
I1
I132
tp1803
sg8
(lp1804
(I78
I36
tp1805
a(I51
I53
tp1806
a(I57
I28
tp1807
a(I47
I35
tp1808
a(I62
I48
tp1809
a(I51
I52
tp1810
asg15
I200
sba(imain2
Polygon
p1811
(dp1812
g3
(I33
I157
tp1813
sg5
I200
sg6
(I38
I118
I126
I0
tp1814
sg8
(lp1815
(I32
I159
tp1816
a(I21
I190
tp1817
a(I67
I128
tp1818
a(I55
I146
tp1819
a(I66
I120
tp1820
a(I55
I190
tp1821
a(I9
I140
tp1822
a(I70
I186
tp1823
a(I69
I135
tp1824
a(I72
I117
tp1825
a(I76
I193
tp1826
asg15
I200
sba(imain2
Polygon
p1827
(dp1828
g3
(I91
I9
tp1829
sg5
I200
sg6
(I67
I183
I12
I0
tp1830
sg8
(lp1831
(I135
I0
tp1832
a(I84
I0
tp1833
a(I135
I0
tp1834
a(I132
I0
tp1835
a(I54
I0
tp1836
a(I134
I0
tp1837
a(I132
I0
tp1838
a(I72
I0
tp1839
a(I103
I52
tp1840
a(I93
I27
tp1841
a(I53
I5
tp1842
asg15
I200
sba(imain2
Polygon
p1843
(dp1844
g3
(I50
I13
tp1845
sg5
I200
sg6
(I92
I178
I162
I124
tp1846
sg8
(lp1847
(I31
I61
tp1848
a(I3
I50
tp1849
a(I8
I0
tp1850
a(I11
I0
tp1851
a(I7
I0
tp1852
a(I82
I0
tp1853
asg15
I200
sba(imain2
Polygon
p1854
(dp1855
g3
(I157
I108
tp1856
sg5
I200
sg6
(I128
I118
I1
I90
tp1857
sg8
(lp1858
(I168
I137
tp1859
a(I108
I127
tp1860
a(I123
I82
tp1861
a(I135
I90
tp1862
a(I108
I149
tp1863
a(I172
I125
tp1864
a(I193
I83
tp1865
a(I200
I120
tp1866
a(I184
I155
tp1867
a(I168
I127
tp1868
a(I188
I141
tp1869
asg15
I200
sba(imain2
Polygon
p1870
(dp1871
g3
(I7
I150
tp1872
sg5
I200
sg6
(I177
I11
I55
I20
tp1873
sg8
(lp1874
(I20
I124
tp1875
a(I0
I107
tp1876
a(I57
I154
tp1877
a(I0
I115
tp1878
a(I0
I123
tp1879
a(I45
I176
tp1880
a(I4
I171
tp1881
a(I0
I137
tp1882
a(I32
I102
tp1883
a(I0
I157
tp1884
a(I49
I173
tp1885
a(I3
I200
tp1886
a(I51
I116
tp1887
asg15
I200
sba(imain2
Polygon
p1888
(dp1889
g3
(I89
I125
tp1890
sg5
I200
sg6
(I42
I0
I214
I18
tp1891
sg8
(lp1892
(I59
I165
tp1893
a(I51
I118
tp1894
a(I89
I136
tp1895
a(I56
I165
tp1896
a(I76
I125
tp1897
a(I45
I157
tp1898
a(I89
I111
tp1899
asg15
I200
sba(imain2
Polygon
p1900
(dp1901
g3
(I18
I178
tp1902
sg5
I200
sg6
(I88
I164
I41
I103
tp1903
sg8
(lp1904
(I0
I148
tp1905
a(I43
I193
tp1906
a(I10
I175
tp1907
a(I0
I137
tp1908
a(I4
I137
tp1909
a(I23
I175
tp1910
asg15
I200
sba(imain2
Polygon
p1911
(dp1912
g3
(I81
I53
tp1913
sg5
I200
sg6
(I217
I83
I79
I0
tp1914
sg8
(lp1915
(I89
I81
tp1916
a(I89
I58
tp1917
a(I66
I39
tp1918
a(I57
I40
tp1919
a(I58
I52
tp1920
a(I62
I57
tp1921
a(I38
I32
tp1922
a(I73
I54
tp1923
a(I65
I35
tp1924
asg15
I200
sba(imain2
Polygon
p1925
(dp1926
g3
(I117
I32
tp1927
sg5
I200
sg6
(I166
I186
I83
I1
tp1928
sg8
(lp1929
(I89
I46
tp1930
a(I114
I17
tp1931
a(I134
I30
tp1932
asg15
I200
sba(imain2
Polygon
p1933
(dp1934
g3
(I79
I140
tp1935
sg5
I200
sg6
(I226
I1
I161
I36
tp1936
sg8
(lp1937
(I108
I95
tp1938
a(I107
I173
tp1939
a(I52
I148
tp1940
a(I123
I97
tp1941
a(I103
I173
tp1942
a(I75
I159
tp1943
a(I64
I113
tp1944
a(I80
I158
tp1945
asg15
I200
sba(imain2
Polygon
p1946
(dp1947
g3
(I26
I4
tp1948
sg5
I200
sg6
(I197
I73
I69
I1
tp1949
sg8
(lp1950
(I49
I0
tp1951
a(I23
I0
tp1952
a(I7
I0
tp1953
a(I0
I0
tp1954
a(I0
I0
tp1955
a(I34
I0
tp1956
a(I60
I17
tp1957
a(I0
I33
tp1958
a(I38
I0
tp1959
asg15
I200
sba(imain2
Polygon
p1960
(dp1961
g3
(I15
I121
tp1962
sg5
I200
sg6
(I0
I223
I150
I1
tp1963
sg8
(lp1964
(I58
I148
tp1965
a(I33
I98
tp1966
a(I0
I116
tp1967
a(I0
I118
tp1968
a(I0
I74
tp1969
a(I1
I112
tp1970
a(I46
I142
tp1971
a(I57
I155
tp1972
a(I59
I105
tp1973
a(I61
I107
tp1974
a(I0
I154
tp1975
a(I0
I107
tp1976
a(I16
I86
tp1977
asg15
I200
sba(imain2
Polygon
p1978
(dp1979
g3
(I163
I195
tp1980
sg5
I200
sg6
(I11
I148
I193
I16
tp1981
sg8
(lp1982
(I191
I150
tp1983
a(I125
I198
tp1984
a(I169
I200
tp1985
a(I178
I174
tp1986
a(I135
I161
tp1987
a(I153
I162
tp1988
a(I127
I200
tp1989
a(I196
I200
tp1990
a(I141
I183
tp1991
asg15
I200
sba(imain2
Polygon
p1992
(dp1993
g3
(I118
I106
tp1994
sg5
I200
sg6
(I6
I134
I123
I121
tp1995
sg8
(lp1996
(I132
I104
tp1997
a(I145
I78
tp1998
a(I102
I87
tp1999
a(I125
I104
tp2000
a(I121
I98
tp2001
a(I123
I91
tp2002
a(I151
I66
tp2003
a(I130
I116
tp2004
a(I127
I105
tp2005
a(I140
I99
tp2006
asg15
I200
sba(imain2
Polygon
p2007
(dp2008
g3
(I56
I6
tp2009
sg5
I200
sg6
(I197
I0
I175
I1
tp2010
sg8
(lp2011
(I26
I35
tp2012
a(I79
I0
tp2013
a(I71
I0
tp2014
a(I21
I0
tp2015
a(I75
I2
tp2016
asg15
I200
sba(imain2
Polygon
p2017
(dp2018
g3
(I174
I69
tp2019
sg5
I200
sg6
(I119
I37
I48
I109
tp2020
sg8
(lp2021
(I200
I23
tp2022
a(I200
I29
tp2023
a(I160
I53
tp2024
a(I200
I119
tp2025
a(I196
I88
tp2026
a(I200
I90
tp2027
a(I151
I40
tp2028
a(I126
I41
tp2029
a(I140
I30
tp2030
a(I128
I48
tp2031
a(I130
I47
tp2032
a(I191
I41
tp2033
a(I183
I53
tp2034
a(I173
I86
tp2035
asg15
I200
sba(imain2
Polygon
p2036
(dp2037
g3
(I0
I30
tp2038
sg5
I200
sg6
(I172
I40
I102
I1
tp2039
sg8
(lp2040
(I0
I43
tp2041
a(I0
I48
tp2042
a(I35
I21
tp2043
a(I0
I25
tp2044
a(I0
I53
tp2045
asg15
I200
sba(imain2
Polygon
p2046
(dp2047
g3
(I134
I58
tp2048
sg5
I200
sg6
(I241
I179
I117
I115
tp2049
sg8
(lp2050
(I179
I58
tp2051
a(I110
I8
tp2052
a(I156
I8
tp2053
a(I179
I9
tp2054
asg15
I200
sba(imain2
Polygon
p2055
(dp2056
g3
(I142
I75
tp2057
sg5
I200
sg6
(I201
I61
I194
I88
tp2058
sg8
(lp2059
(I191
I83
tp2060
a(I154
I36
tp2061
a(I185
I48
tp2062
asg15
I200
sba(imain2
Polygon
p2063
(dp2064
g3
(I129
I65
tp2065
sg5
I200
sg6
(I89
I1
I164
I136
tp2066
sg8
(lp2067
(I155
I65
tp2068
a(I159
I69
tp2069
a(I151
I68
tp2070
asg15
I200
sba(imain2
Polygon
p2071
(dp2072
g3
(I163
I171
tp2073
sg5
I200
sg6
(I199
I12
I130
I1
tp2074
sg8
(lp2075
(I176
I200
tp2076
a(I161
I200
tp2077
a(I114
I159
tp2078
a(I125
I138
tp2079
a(I193
I148
tp2080
a(I200
I169
tp2081
a(I170
I142
tp2082
a(I200
I183
tp2083
a(I129
I187
tp2084
a(I189
I200
tp2085
a(I175
I200
tp2086
a(I128
I180
tp2087
a(I188
I187
tp2088
a(I141
I126
tp2089
a(I113
I200
tp2090
asg15
I200
sba(imain2
Polygon
p2091
(dp2092
g3
(I184
I20
tp2093
sg5
I200
sg6
(I213
I92
I228
I78
tp2094
sg8
(lp2095
(I200
I60
tp2096
a(I200
I0
tp2097
a(I200
I69
tp2098
a(I160
I57
tp2099
a(I166
I14
tp2100
a(I144
I0
tp2101
a(I200
I0
tp2102
a(I200
I0
tp2103
asg15
I200
sba(imain2
Polygon
p2104
(dp2105
g3
(I145
I135
tp2106
sg5
I200
sg6
(I31
I41
I59
I44
tp2107
sg8
(lp2108
(I160
I178
tp2109
a(I183
I129
tp2110
a(I135
I88
tp2111
a(I110
I168
tp2112
a(I166
I183
tp2113
asg15
I200
sba(imain2
Polygon
p2114
(dp2115
g3
(I64
I74
tp2116
sg5
I200
sg6
(I138
I209
I149
I1
tp2117
sg8
(lp2118
(I111
I67
tp2119
a(I74
I124
tp2120
a(I19
I47
tp2121
a(I94
I61
tp2122
asg15
I200
sba(imain2
Polygon
p2123
(dp2124
g3
(I82
I104
tp2125
sg5
I200
sg6
(I48
I155
I198
I1
tp2126
sg8
(lp2127
(I68
I123
tp2128
a(I98
I78
tp2129
a(I80
I128
tp2130
a(I121
I69
tp2131
a(I87
I71
tp2132
a(I92
I82
tp2133
a(I105
I79
tp2134
a(I131
I77
tp2135
a(I51
I70
tp2136
a(I39
I79
tp2137
a(I88
I55
tp2138
asg15
I200
sba(imain2
Polygon
p2139
(dp2140
g3
(I176
I51
tp2141
sg5
I200
sg6
(I114
I211
I85
I0
tp2142
sg8
(lp2143
(I200
I6
tp2144
a(I144
I17
tp2145
a(I157
I85
tp2146
a(I148
I79
tp2147
a(I178
I12
tp2148
asg15
I200
sba(imain2
Polygon
p2149
(dp2150
g3
(I18
I179
tp2151
sg5
I200
sg6
(I9
I98
I96
I44
tp2152
sg8
(lp2153
(I0
I150
tp2154
a(I0
I168
tp2155
a(I0
I198
tp2156
a(I21
I200
tp2157
a(I17
I200
tp2158
a(I48
I200
tp2159
a(I19
I154
tp2160
a(I34
I156
tp2161
asg15
I200
sba(imain2
Polygon
p2162
(dp2163
g3
(I112
I97
tp2164
sg5
I200
sg6
(I96
I199
I68
I58
tp2165
sg8
(lp2166
(I117
I118
tp2167
a(I70
I139
tp2168
a(I97
I92
tp2169
a(I106
I74
tp2170
a(I76
I136
tp2171
a(I93
I140
tp2172
a(I98
I68
tp2173
a(I89
I89
tp2174
a(I130
I88
tp2175
asg15
I200
sba(imain2
Polygon
p2176
(dp2177
g3
(I3
I120
tp2178
sg5
I200
sg6
(I62
I88
I146
I98
tp2179
sg8
(lp2180
(I0
I86
tp2181
a(I0
I74
tp2182
a(I0
I159
tp2183
a(I0
I109
tp2184
a(I43
I80
tp2185
asg15
I200
sba(imain2
Polygon
p2186
(dp2187
g3
(I7
I32
tp2188
sg5
I200
sg6
(I148
I32
I187
I1
tp2189
sg8
(lp2190
(I0
I72
tp2191
a(I0
I27
tp2192
a(I0
I73
tp2193
a(I8
I32
tp2194
a(I38
I59
tp2195
a(I27
I38
tp2196
a(I0
I0
tp2197
a(I0
I62
tp2198
a(I25
I79
tp2199
a(I0
I15
tp2200
a(I0
I75
tp2201
a(I48
I82
tp2202
a(I0
I0
tp2203
a(I36
I4
tp2204
a(I0
I0
tp2205
asg15
I200
sba(imain2
Polygon
p2206
(dp2207
g3
(I166
I95
tp2208
sg5
I200
sg6
(I185
I4
I141
I153
tp2209
sg8
(lp2210
(I192
I50
tp2211
a(I200
I127
tp2212
a(I200
I60
tp2213
asg15
I200
sba(imain2
Polygon
p2214
(dp2215
g3
(I197
I92
tp2216
sg5
I200
sg6
(I118
I6
I30
I1
tp2217
sg8
(lp2218
(I200
I101
tp2219
a(I200
I65
tp2220
a(I200
I70
tp2221
a(I161
I97
tp2222
a(I158
I100
tp2223
a(I147
I82
tp2224
a(I200
I78
tp2225
a(I200
I66
tp2226
a(I191
I88
tp2227
a(I176
I90
tp2228
a(I162
I59
tp2229
a(I200
I138
tp2230
a(I200
I106
tp2231
asg15
I200
sba(imain2
Polygon
p2232
(dp2233
g3
(I167
I132
tp2234
sg5
I200
sg6
(I220
I56
I85
I0
tp2235
sg8
(lp2236
(I147
I85
tp2237
a(I157
I116
tp2238
a(I200
I111
tp2239
a(I134
I127
tp2240
a(I188
I175
tp2241
a(I118
I159
tp2242
a(I188
I122
tp2243
a(I175
I142
tp2244
a(I117
I113
tp2245
a(I178
I149
tp2246
a(I154
I153
tp2247
a(I132
I168
tp2248
a(I184
I111
tp2249
a(I200
I101
tp2250
asg15
I200
sba(imain2
Polygon
p2251
(dp2252
g3
(I2
I175
tp2253
sg5
I200
sg6
(I101
I198
I107
I1
tp2254
sg8
(lp2255
(I19
I200
tp2256
a(I0
I128
tp2257
a(I4
I200
tp2258
asg15
I200
sba(imain2
Polygon
p2259
(dp2260
g3
(I148
I121
tp2261
sg5
I200
sg6
(I129
I198
I133
I25
tp2262
sg8
(lp2263
(I120
I135
tp2264
a(I118
I71
tp2265
a(I101
I103
tp2266
a(I128
I125
tp2267
a(I137
I105
tp2268
asg15
I200
sba(imain2
Polygon
p2269
(dp2270
g3
(I26
I154
tp2271
sg5
I200
sg6
(I142
I63
I224
I37
tp2272
sg8
(lp2273
(I52
I148
tp2274
a(I0
I196
tp2275
a(I20
I155
tp2276
asg15
I200
sba(imain2
Polygon
p2277
(dp2278
g3
(I188
I60
tp2279
sg5
I200
sg6
(I22
I76
I8
I59
tp2280
sg8
(lp2281
(I200
I100
tp2282
a(I148
I100
tp2283
a(I139
I27
tp2284
a(I200
I98
tp2285
a(I200
I21
tp2286
a(I200
I12
tp2287
a(I200
I49
tp2288
asg15
I200
sba(imain2
Polygon
p2289
(dp2290
g3
(I29
I0
tp2291
sg5
I200
sg6
(I200
I201
I9
I93
tp2292
sg8
(lp2293
(I29
I0
tp2294
a(I0
I0
tp2295
a(I50
I36
tp2296
a(I45
I18
tp2297
a(I61
I0
tp2298
a(I0
I0
tp2299
a(I0
I50
tp2300
a(I70
I50
tp2301
a(I0
I0
tp2302
a(I0
I0
tp2303
a(I77
I0
tp2304
a(I74
I14
tp2305
a(I36
I44
tp2306
a(I51
I8
tp2307
a(I74
I0
tp2308
a(I5
I0
tp2309
a(I20
I0
tp2310
asg15
I200
sba(imain2
Polygon
p2311
(dp2312
g3
(I92
I198
tp2313
sg5
I200
sg6
(I139
I2
I13
I67
tp2314
sg8
(lp2315
(I96
I170
tp2316
a(I67
I151
tp2317
a(I90
I200
tp2318
a(I44
I200
tp2319
a(I99
I200
tp2320
a(I73
I181
tp2321
a(I108
I179
tp2322
asg15
I200
sba(imain2
Polygon
p2323
(dp2324
g3
(I149
I42
tp2325
sg5
I200
sg6
(I91
I14
I54
I56
tp2326
sg8
(lp2327
(I145
I16
tp2328
a(I99
I9
tp2329
a(I127
I88
tp2330
a(I167
I91
tp2331
a(I156
I44
tp2332
a(I135
I17
tp2333
a(I145
I8
tp2334
a(I113
I48
tp2335
a(I119
I35
tp2336
asg15
I200
sba(imain2
Polygon
p2337
(dp2338
g3
(I18
I189
tp2339
sg5
I200
sg6
(I70
I8
I170
I0
tp2340
sg8
(lp2341
(I0
I200
tp2342
a(I50
I142
tp2343
a(I9
I200
tp2344
a(I11
I160
tp2345
a(I0
I200
tp2346
a(I5
I167
tp2347
a(I62
I200
tp2348
a(I26
I188
tp2349
a(I8
I170
tp2350
a(I0
I200
tp2351
a(I68
I200
tp2352
a(I56
I183
tp2353
a(I51
I175
tp2354
a(I62
I157
tp2355
a(I0
I178
tp2356
a(I52
I147
tp2357
asg15
I200
sba(imain2
Polygon
p2358
(dp2359
g3
(I88
I199
tp2360
sg5
I200
sg6
(I15
I199
I77
I86
tp2361
sg8
(lp2362
(I90
I200
tp2363
a(I39
I200
tp2364
a(I52
I200
tp2365
a(I46
I200
tp2366
a(I126
I200
tp2367
a(I62
I200
tp2368
a(I70
I200
tp2369
a(I39
I200
tp2370
a(I84
I200
tp2371
asg15
I200
sba(imain2
Polygon
p2372
(dp2373
g3
(I57
I178
tp2374
sg5
I200
sg6
(I20
I120
I163
I0
tp2375
sg8
(lp2376
(I38
I182
tp2377
a(I21
I164
tp2378
a(I55
I131
tp2379
a(I14
I171
tp2380
a(I47
I135
tp2381
a(I21
I200
tp2382
asg15
I200
sba(imain2
Polygon
p2383
(dp2384
g3
(I192
I63
tp2385
sg5
I200
sg6
(I115
I241
I124
I108
tp2386
sg8
(lp2387
(I200
I102
tp2388
a(I200
I19
tp2389
a(I200
I28
tp2390
a(I169
I43
tp2391
a(I142
I25
tp2392
a(I200
I102
tp2393
a(I161
I50
tp2394
a(I175
I96
tp2395
a(I183
I98
tp2396
a(I181
I96
tp2397
asg15
I200
sba(imain2
Polygon
p2398
(dp2399
g3
(I115
I149
tp2400
sg5
I200
sg6
(I106
I195
I239
I0
tp2401
sg8
(lp2402
(I118
I155
tp2403
a(I100
I164
tp2404
a(I102
I100
tp2405
a(I94
I115
tp2406
a(I70
I117
tp2407
a(I84
I110
tp2408
a(I68
I102
tp2409
a(I128
I176
tp2410
a(I67
I194
tp2411
asg15
I200
sba(imain2
Polygon
p2412
(dp2413
g3
(I89
I107
tp2414
sg5
I200
sg6
(I31
I11
I111
I105
tp2415
sg8
(lp2416
(I137
I85
tp2417
a(I129
I120
tp2418
a(I138
I81
tp2419
asg15
I200
sba(imain2
Polygon
p2420
(dp2421
g3
(I87
I130
tp2422
sg5
I200
sg6
(I167
I110
I147
I0
tp2423
sg8
(lp2424
(I48
I159
tp2425
a(I91
I118
tp2426
a(I114
I131
tp2427
a(I70
I91
tp2428
a(I111
I140
tp2429
a(I54
I141
tp2430
a(I87
I159
tp2431
a(I134
I156
tp2432
a(I91
I179
tp2433
a(I43
I167
tp2434
asg15
I200
sba(imain2
Polygon
p2435
(dp2436
g3
(I62
I187
tp2437
sg5
I200
sg6
(I112
I14
I175
I57
tp2438
sg8
(lp2439
(I22
I200
tp2440
a(I97
I198
tp2441
a(I38
I200
tp2442
a(I17
I200
tp2443
a(I77
I200
tp2444
a(I98
I200
tp2445
a(I71
I196
tp2446
a(I85
I194
tp2447
a(I71
I200
tp2448
a(I69
I200
tp2449
a(I45
I197
tp2450
asg15
I200
sba(imain2
Polygon
p2451
(dp2452
g3
(I59
I26
tp2453
sg5
I200
sg6
(I62
I6
I237
I0
tp2454
sg8
(lp2455
(I83
I0
tp2456
a(I21
I56
tp2457
a(I81
I0
tp2458
a(I33
I0
tp2459
a(I103
I53
tp2460
a(I104
I10
tp2461
a(I67
I25
tp2462
a(I80
I5
tp2463
asg15
I200
sba(imain2
Polygon
p2464
(dp2465
g3
(I74
I59
tp2466
sg5
I200
sg6
(I1
I47
I104
I0
tp2467
sg8
(lp2468
(I84
I47
tp2469
a(I67
I71
tp2470
a(I99
I13
tp2471
a(I34
I11
tp2472
a(I79
I79
tp2473
a(I86
I46
tp2474
a(I39
I17
tp2475
a(I117
I36
tp2476
a(I58
I60
tp2477
asg15
I200
sba(imain2
Polygon
p2478
(dp2479
g3
(I141
I175
tp2480
sg5
I200
sg6
(I87
I37
I11
I1
tp2481
sg8
(lp2482
(I169
I200
tp2483
a(I159
I193
tp2484
a(I119
I183
tp2485
a(I149
I186
tp2486
a(I112
I195
tp2487
a(I173
I200
tp2488
a(I160
I198
tp2489
a(I190
I127
tp2490
a(I155
I171
tp2491
a(I128
I200
tp2492
a(I98
I200
tp2493
a(I136
I145
tp2494
a(I126
I198
tp2495
a(I136
I165
tp2496
a(I162
I196
tp2497
a(I100
I200
tp2498
a(I138
I192
tp2499
a(I146
I197
tp2500
asg15
I200
sba(imain2
Polygon
p2501
(dp2502
g3
(I114
I81
tp2503
sg5
I200
sg6
(I234
I18
I199
I76
tp2504
sg8
(lp2505
(I121
I101
tp2506
a(I107
I74
tp2507
a(I79
I35
tp2508
a(I125
I101
tp2509
a(I121
I83
tp2510
asg15
I200
sba(imain2
Polygon
p2511
(dp2512
g3
(I191
I128
tp2513
sg5
I200
sg6
(I244
I3
I244
I13
tp2514
sg8
(lp2515
(I156
I149
tp2516
a(I144
I170
tp2517
a(I200
I104
tp2518
a(I200
I148
tp2519
a(I182
I162
tp2520
a(I187
I85
tp2521
asg15
I200
sba(imain2
Polygon
p2522
(dp2523
g3
(I40
I13
tp2524
sg5
I200
sg6
(I70
I181
I121
I1
tp2525
sg8
(lp2526
(I24
I51
tp2527
a(I25
I54
tp2528
a(I62
I16
tp2529
a(I16
I43
tp2530
a(I84
I0
tp2531
a(I76
I9
tp2532
a(I15
I55
tp2533
a(I0
I0
tp2534
a(I40
I20
tp2535
a(I1
I44
tp2536
a(I45
I0
tp2537
a(I7
I27
tp2538
a(I0
I43
tp2539
a(I44
I9
tp2540
a(I76
I0
tp2541
a(I0
I0
tp2542
a(I19
I16
tp2543
a(I0
I0
tp2544
asg15
I200
sba(imain2
Polygon
p2545
(dp2546
g3
(I50
I145
tp2547
sg5
I200
sg6
(I57
I210
I123
I21
tp2548
sg8
(lp2549
(I92
I106
tp2550
a(I87
I159
tp2551
a(I56
I101
tp2552
asg15
I200
sba(imain2
Polygon
p2553
(dp2554
g3
(I184
I69
tp2555
sg5
I200
sg6
(I122
I136
I35
I146
tp2556
sg8
(lp2557
(I200
I63
tp2558
a(I200
I31
tp2559
a(I200
I33
tp2560
a(I200
I67
tp2561
a(I164
I71
tp2562
a(I174
I114
tp2563
a(I200
I115
tp2564
a(I200
I101
tp2565
a(I195
I79
tp2566
asg15
I200
sba(imain2
Polygon
p2567
(dp2568
g3
(I6
I29
tp2569
sg5
I200
sg6
(I138
I36
I214
I1
tp2570
sg8
(lp2571
(I56
I14
tp2572
a(I46
I13
tp2573
a(I0
I41
tp2574
a(I21
I50
tp2575
a(I48
I0
tp2576
a(I18
I43
tp2577
a(I21
I47
tp2578
asg15
I200
sba(imain2
Polygon
p2579
(dp2580
g3
(I100
I197
tp2581
sg5
I200
sg6
(I28
I135
I60
I72
tp2582
sg8
(lp2583
(I143
I200
tp2584
a(I79
I200
tp2585
a(I85
I200
tp2586
a(I74
I200
tp2587
a(I80
I200
tp2588
a(I67
I193
tp2589
a(I68
I200
tp2590
a(I50
I200
tp2591
a(I131
I200
tp2592
asg15
I200
sba(imain2
Polygon
p2593
(dp2594
g3
(I102
I67
tp2595
sg5
I200
sg6
(I107
I64
I87
I0
tp2596
sg8
(lp2597
(I61
I114
tp2598
a(I78
I100
tp2599
a(I134
I38
tp2600
a(I73
I48
tp2601
a(I83
I63
tp2602
a(I141
I89
tp2603
a(I96
I113
tp2604
a(I84
I99
tp2605
a(I85
I70
tp2606
asg15
I200
sba(imain2
Polygon
p2607
(dp2608
g3
(I91
I124
tp2609
sg5
I200
sg6
(I166
I67
I8
I121
tp2610
sg8
(lp2611
(I41
I114
tp2612
a(I80
I127
tp2613
a(I83
I75
tp2614
a(I119
I114
tp2615
a(I111
I171
tp2616
a(I45
I142
tp2617
a(I66
I81
tp2618
a(I119
I80
tp2619
a(I129
I117
tp2620
a(I81
I119
tp2621
a(I76
I76
tp2622
a(I54
I89
tp2623
a(I76
I94
tp2624
asg15
I200
sba(imain2
Polygon
p2625
(dp2626
g3
(I133
I74
tp2627
sg5
I200
sg6
(I15
I174
I91
I0
tp2628
sg8
(lp2629
(I93
I104
tp2630
a(I139
I51
tp2631
a(I134
I83
tp2632
a(I176
I108
tp2633
a(I157
I40
tp2634
a(I132
I33
tp2635
a(I137
I43
tp2636
a(I178
I48
tp2637
a(I117
I90
tp2638
a(I104
I86
tp2639
a(I95
I100
tp2640
a(I129
I57
tp2641
a(I181
I26
tp2642
a(I95
I85
tp2643
a(I100
I117
tp2644
a(I166
I88
tp2645
a(I171
I56
tp2646
asg15
I200
sba(imain2
Polygon
p2647
(dp2648
g3
(I181
I185
tp2649
sg5
I200
sg6
(I1
I135
I61
I10
tp2650
sg8
(lp2651
(I192
I200
tp2652
a(I200
I200
tp2653
a(I197
I153
tp2654
asg15
I200
sba(imain2
Polygon
p2655
(dp2656
g3
(I3
I9
tp2657
sg5
I200
sg6
(I113
I13
I42
I119
tp2658
sg8
(lp2659
(I37
I0
tp2660
a(I49
I0
tp2661
a(I0
I0
tp2662
asg15
I200
sba(imain2
Polygon
p2663
(dp2664
g3
(I154
I22
tp2665
sg5
I200
sg6
(I81
I179
I129
I1
tp2666
sg8
(lp2667
(I198
I7
tp2668
a(I167
I71
tp2669
a(I193
I61
tp2670
asg15
I200
sba(imain2
Polygon
p2671
(dp2672
g3
(I3
I51
tp2673
sg5
I200
sg6
(I9
I165
I11
I40
tp2674
sg8
(lp2675
(I0
I44
tp2676
a(I0
I78
tp2677
a(I0
I34
tp2678
asg15
I200
sba(imain2
Polygon
p2679
(dp2680
g3
(I183
I123
tp2681
sg5
I200
sg6
(I43
I171
I188
I99
tp2682
sg8
(lp2683
(I200
I171
tp2684
a(I200
I140
tp2685
a(I200
I152
tp2686
a(I200
I132
tp2687
asg15
I200
sba.