(lp0
(imain2
Polygon
p1
(dp2
S'origin'
p3
(I100
I102
tp4
sS'h'
p5
I200
sS'color'
p6
(I136
I174
I192
I1
tp7
sS'corner_list'
p8
(lp9
(I102
I99
tp10
a(I106
I137
tp11
a(I102
I68
tp12
a(I135
I127
tp13
asS'w'
p14
I200
sba(imain2
Polygon
p15
(dp16
g3
(I142
I122
tp17
sg5
I200
sg6
(I22
I220
I133
I53
tp18
sg8
(lp19
(I121
I81
tp20
a(I95
I104
tp21
a(I106
I160
tp22
a(I155
I132
tp23
a(I109
I157
tp24
a(I93
I95
tp25
a(I119
I85
tp26
a(I188
I130
tp27
a(I172
I99
tp28
a(I115
I113
tp29
a(I136
I104
tp30
a(I134
I86
tp31
a(I120
I122
tp32
asg14
I200
sba(imain2
Polygon
p33
(dp34
g3
(I39
I24
tp35
sg5
I200
sg6
(I242
I166
I201
I1
tp36
sg8
(lp37
(I68
I69
tp38
a(I20
I46
tp39
a(I84
I0
tp40
a(I74
I53
tp41
a(I8
I21
tp42
a(I11
I0
tp43
a(I27
I74
tp44
a(I26
I21
tp45
a(I88
I48
tp46
asg14
I200
sba(imain2
Polygon
p47
(dp48
g3
(I87
I73
tp49
sg5
I200
sg6
(I162
I20
I200
I110
tp50
sg8
(lp51
(I103
I121
tp52
a(I130
I63
tp53
a(I82
I102
tp54
a(I73
I83
tp55
a(I62
I99
tp56
a(I56
I110
tp57
a(I69
I36
tp58
a(I64
I117
tp59
a(I47
I56
tp60
a(I69
I50
tp61
a(I111
I50
tp62
a(I84
I59
tp63
a(I128
I91
tp64
a(I102
I93
tp65
a(I37
I92
tp66
asg14
I200
sba(imain2
Polygon
p67
(dp68
g3
(I75
I185
tp69
sg5
I200
sg6
(I72
I1
I92
I105
tp70
sg8
(lp71
(I90
I200
tp72
a(I125
I163
tp73
a(I123
I140
tp74
a(I120
I200
tp75
a(I72
I200
tp76
a(I75
I195
tp77
a(I98
I174
tp78
asg14
I200
sba(imain2
Polygon
p79
(dp80
g3
(I51
I161
tp81
sg5
I200
sg6
(I132
I134
I19
I110
tp82
sg8
(lp83
(I86
I200
tp84
a(I55
I200
tp85
a(I53
I200
tp86
a(I89
I191
tp87
asg14
I200
sba(imain2
Polygon
p88
(dp89
g3
(I76
I107
tp90
sg5
I200
sg6
(I159
I41
I205
I133
tp91
sg8
(lp92
(I97
I129
tp93
a(I40
I71
tp94
a(I104
I92
tp95
a(I100
I97
tp96
a(I106
I86
tp97
a(I107
I154
tp98
a(I53
I141
tp99
a(I48
I92
tp100
a(I73
I102
tp101
a(I66
I101
tp102
a(I81
I137
tp103
a(I87
I117
tp104
asg14
I200
sba(imain2
Polygon
p105
(dp106
g3
(I79
I45
tp107
sg5
I200
sg6
(I224
I3
I244
I1
tp108
sg8
(lp109
(I103
I54
tp110
a(I83
I20
tp111
a(I73
I50
tp112
a(I78
I57
tp113
a(I55
I45
tp114
asg14
I200
sba(imain2
Polygon
p115
(dp116
g3
(I123
I186
tp117
sg5
I200
sg6
(I51
I18
I44
I0
tp118
sg8
(lp119
(I111
I145
tp120
a(I148
I200
tp121
a(I113
I143
tp122
a(I134
I143
tp123
a(I86
I200
tp124
asg14
I200
sba(imain2
Polygon
p125
(dp126
g3
(I74
I162
tp127
sg5
I200
sg6
(I156
I96
I213
I1
tp128
sg8
(lp129
(I43
I137
tp130
a(I25
I113
tp131
a(I77
I195
tp132
a(I65
I127
tp133
a(I77
I135
tp134
a(I49
I146
tp135
a(I59
I116
tp136
a(I46
I190
tp137
a(I90
I185
tp138
a(I112
I160
tp139
a(I35
I200
tp140
a(I88
I187
tp141
a(I69
I150
tp142
a(I67
I190
tp143
a(I33
I151
tp144
asg14
I200
sba(imain2
Polygon
p145
(dp146
g3
(I64
I120
tp147
sg5
I200
sg6
(I236
I41
I174
I1
tp148
sg8
(lp149
(I52
I110
tp150
a(I106
I109
tp151
a(I20
I135
tp152
a(I91
I95
tp153
a(I59
I111
tp154
a(I35
I139
tp155
a(I67
I136
tp156
asg14
I200
sba(imain2
Polygon
p157
(dp158
g3
(I2
I37
tp159
sg5
I200
sg6
(I135
I136
I102
I120
tp160
sg8
(lp161
(I0
I0
tp162
a(I36
I34
tp163
a(I40
I0
tp164
a(I20
I35
tp165
a(I0
I66
tp166
a(I41
I3
tp167
a(I36
I68
tp168
a(I4
I86
tp169
a(I0
I74
tp170
a(I0
I68
tp171
asg14
I200
sba(imain2
Polygon
p172
(dp173
g3
(I161
I116
tp174
sg5
I200
sg6
(I155
I95
I116
I72
tp175
sg8
(lp176
(I200
I142
tp177
a(I170
I157
tp178
a(I200
I152
tp179
a(I168
I90
tp180
a(I170
I71
tp181
a(I163
I108
tp182
a(I194
I136
tp183
a(I141
I77
tp184
asg14
I200
sba(imain2
Polygon
p185
(dp186
g3
(I171
I44
tp187
sg5
I200
sg6
(I135
I238
I106
I131
tp188
sg8
(lp189
(I125
I39
tp190
a(I152
I40
tp191
a(I200
I89
tp192
a(I200
I0
tp193
a(I132
I0
tp194
a(I134
I87
tp195
a(I124
I50
tp196
a(I161
I77
tp197
a(I200
I93
tp198
a(I143
I0
tp199
a(I170
I71
tp200
a(I148
I77
tp201
a(I125
I35
tp202
a(I169
I18
tp203
a(I135
I44
tp204
asg14
I200
sba(imain2
Polygon
p205
(dp206
g3
(I196
I163
tp207
sg5
I200
sg6
(I42
I170
I7
I44
tp208
sg8
(lp209
(I200
I176
tp210
a(I200
I197
tp211
a(I186
I123
tp212
a(I189
I176
tp213
a(I193
I170
tp214
a(I200
I141
tp215
a(I172
I148
tp216
a(I169
I173
tp217
a(I195
I176
tp218
a(I200
I143
tp219
a(I170
I173
tp220
a(I179
I115
tp221
asg14
I200
sba(imain2
Polygon
p222
(dp223
g3
(I123
I35
tp224
sg5
I200
sg6
(I147
I64
I72
I1
tp225
sg8
(lp226
(I150
I83
tp227
a(I81
I38
tp228
a(I121
I32
tp229
a(I156
I64
tp230
a(I87
I21
tp231
a(I115
I57
tp232
a(I170
I85
tp233
a(I120
I36
tp234
a(I116
I39
tp235
a(I89
I17
tp236
asg14
I200
sba(imain2
Polygon
p237
(dp238
g3
(I38
I152
tp239
sg5
I200
sg6
(I96
I167
I36
I148
tp240
sg8
(lp241
(I87
I136
tp242
a(I79
I127
tp243
a(I49
I126
tp244
a(I73
I158
tp245
asg14
I200
sba(imain2
Polygon
p246
(dp247
g3
(I118
I157
tp248
sg5
I200
sg6
(I90
I63
I45
I1
tp249
sg8
(lp250
(I75
I131
tp251
a(I151
I109
tp252
a(I115
I173
tp253
asg14
I200
sba(imain2
Polygon
p254
(dp255
g3
(I10
I175
tp256
sg5
I200
sg6
(I175
I55
I62
I40
tp257
sg8
(lp258
(I0
I200
tp259
a(I44
I200
tp260
a(I0
I200
tp261
a(I0
I168
tp262
a(I50
I183
tp263
a(I0
I200
tp264
asg14
I200
sba(imain2
Polygon
p265
(dp266
g3
(I4
I131
tp267
sg5
I200
sg6
(I124
I55
I63
I0
tp268
sg8
(lp269
(I10
I162
tp270
a(I25
I135
tp271
a(I24
I104
tp272
a(I29
I157
tp273
a(I0
I148
tp274
a(I0
I167
tp275
a(I0
I99
tp276
a(I18
I159
tp277
a(I9
I89
tp278
a(I0
I119
tp279
a(I20
I147
tp280
a(I0
I164
tp281
a(I8
I101
tp282
a(I0
I97
tp283
a(I40
I164
tp284
a(I11
I115
tp285
asg14
I200
sba(imain2
Polygon
p286
(dp287
g3
(I75
I51
tp288
sg5
I200
sg6
(I104
I198
I0
I20
tp289
sg8
(lp290
(I92
I83
tp291
a(I87
I78
tp292
a(I121
I74
tp293
a(I51
I87
tp294
a(I25
I23
tp295
a(I91
I46
tp296
a(I105
I56
tp297
a(I97
I32
tp298
a(I68
I51
tp299
asg14
I200
sba(imain2
Polygon
p300
(dp301
g3
(I18
I101
tp302
sg5
I200
sg6
(I0
I14
I73
I71
tp303
sg8
(lp304
(I28
I94
tp305
a(I0
I132
tp306
a(I0
I79
tp307
a(I65
I119
tp308
a(I4
I107
tp309
asg14
I200
sba(imain2
Polygon
p310
(dp311
g3
(I97
I199
tp312
sg5
I200
sg6
(I0
I110
I46
I135
tp313
sg8
(lp314
(I133
I197
tp315
a(I61
I200
tp316
a(I131
I200
tp317
a(I104
I200
tp318
a(I84
I200
tp319
a(I146
I200
tp320
a(I121
I200
tp321
a(I132
I189
tp322
a(I97
I158
tp323
a(I105
I158
tp324
a(I65
I200
tp325
a(I87
I171
tp326
a(I99
I160
tp327
asg14
I200
sba(imain2
Polygon
p328
(dp329
g3
(I102
I104
tp330
sg5
I200
sg6
(I221
I127
I131
I81
tp331
sg8
(lp332
(I105
I151
tp333
a(I105
I63
tp334
a(I59
I58
tp335
a(I57
I131
tp336
a(I74
I153
tp337
asg14
I200
sba(imain2
Polygon
p338
(dp339
g3
(I177
I176
tp340
sg5
I200
sg6
(I113
I207
I217
I60
tp341
sg8
(lp342
(I200
I138
tp343
a(I176
I126
tp344
a(I200
I200
tp345
asg14
I200
sba(imain2
Polygon
p346
(dp347
g3
(I99
I27
tp348
sg5
I200
sg6
(I74
I85
I1
I118
tp349
sg8
(lp350
(I134
I72
tp351
a(I53
I0
tp352
a(I97
I73
tp353
asg14
I200
sba(imain2
Polygon
p354
(dp355
g3
(I138
I156
tp356
sg5
I200
sg6
(I20
I59
I189
I0
tp357
sg8
(lp358
(I179
I157
tp359
a(I129
I117
tp360
a(I146
I153
tp361
a(I98
I106
tp362
a(I111
I148
tp363
a(I115
I171
tp364
asg14
I200
sba(imain2
Polygon
p365
(dp366
g3
(I100
I129
tp367
sg5
I200
sg6
(I113
I218
I222
I1
tp368
sg8
(lp369
(I84
I92
tp370
a(I56
I151
tp371
a(I109
I147
tp372
a(I126
I89
tp373
asg14
I200
sba(imain2
Polygon
p374
(dp375
g3
(I90
I2
tp376
sg5
I200
sg6
(I199
I195
I3
I8
tp377
sg8
(lp378
(I116
I0
tp379
a(I109
I43
tp380
a(I43
I0
tp381
a(I88
I0
tp382
a(I90
I51
tp383
a(I114
I24
tp384
a(I60
I1
tp385
a(I89
I0
tp386
a(I41
I14
tp387
asg14
I200
sba(imain2
Polygon
p388
(dp389
g3
(I76
I49
tp390
sg5
I200
sg6
(I246
I166
I178
I108
tp391
sg8
(lp392
(I45
I72
tp393
a(I62
I34
tp394
a(I99
I36
tp395
a(I124
I78
tp396
a(I91
I88
tp397
a(I47
I82
tp398
asg14
I200
sba(imain2
Polygon
p399
(dp400
g3
(I135
I193
tp401
sg5
I200
sg6
(I204
I201
I64
I1
tp402
sg8
(lp403
(I181
I158
tp404
a(I177
I200
tp405
a(I85
I179
tp406
a(I91
I200
tp407
a(I178
I191
tp408
a(I164
I200
tp409
a(I129
I171
tp410
a(I119
I183
tp411
asg14
I200
sba(imain2
Polygon
p412
(dp413
g3
(I156
I197
tp414
sg5
I200
sg6
(I80
I234
I84
I17
tp415
sg8
(lp416
(I183
I162
tp417
a(I155
I200
tp418
a(I122
I200
tp419
a(I110
I200
tp420
asg14
I200
sba(imain2
Polygon
p421
(dp422
g3
(I159
I95
tp423
sg5
I200
sg6
(I164
I26
I19
I1
tp424
sg8
(lp425
(I164
I45
tp426
a(I155
I63
tp427
a(I123
I72
tp428
a(I200
I98
tp429
a(I116
I98
tp430
a(I143
I95
tp431
a(I200
I82
tp432
asg14
I200
sba(imain2
Polygon
p433
(dp434
g3
(I130
I187
tp435
sg5
I200
sg6
(I179
I73
I86
I78
tp436
sg8
(lp437
(I138
I200
tp438
a(I173
I192
tp439
a(I100
I200
tp440
a(I168
I192
tp441
a(I148
I200
tp442
a(I96
I145
tp443
a(I90
I200
tp444
asg14
I200
sba(imain2
Polygon
p445
(dp446
g3
(I56
I194
tp447
sg5
I200
sg6
(I192
I174
I7
I53
tp448
sg8
(lp449
(I6
I200
tp450
a(I26
I200
tp451
a(I15
I171
tp452
a(I67
I158
tp453
a(I17
I170
tp454
a(I36
I176
tp455
a(I8
I172
tp456
a(I23
I200
tp457
a(I6
I200
tp458
a(I27
I200
tp459
asg14
I200
sba(imain2
Polygon
p460
(dp461
g3
(I180
I160
tp462
sg5
I200
sg6
(I32
I41
I110
I71
tp463
sg8
(lp464
(I200
I135
tp465
a(I162
I139
tp466
a(I184
I129
tp467
a(I186
I165
tp468
a(I196
I176
tp469
a(I200
I161
tp470
a(I197
I200
tp471
a(I161
I136
tp472
asg14
I200
sba(imain2
Polygon
p473
(dp474
g3
(I12
I87
tp475
sg5
I200
sg6
(I51
I131
I182
I17
tp476
sg8
(lp477
(I0
I89
tp478
a(I0
I54
tp479
a(I52
I50
tp480
a(I0
I109
tp481
a(I0
I82
tp482
a(I8
I123
tp483
a(I0
I82
tp484
a(I1
I124
tp485
asg14
I200
sba(imain2
Polygon
p486
(dp487
g3
(I123
I91
tp488
sg5
I200
sg6
(I233
I1
I184
I75
tp489
sg8
(lp490
(I100
I73
tp491
a(I117
I112
tp492
a(I124
I58
tp493
a(I124
I115
tp494
a(I122
I119
tp495
asg14
I200
sba(imain2
Polygon
p496
(dp497
g3
(I80
I122
tp498
sg5
I200
sg6
(I220
I176
I141
I86
tp499
sg8
(lp500
(I116
I143
tp501
a(I129
I85
tp502
a(I44
I101
tp503
a(I75
I158
tp504
asg14
I200
sba(imain2
Polygon
p505
(dp506
g3
(I119
I156
tp507
sg5
I200
sg6
(I125
I216
I195
I52
tp508
sg8
(lp509
(I96
I178
tp510
a(I141
I200
tp511
a(I121
I144
tp512
a(I90
I178
tp513
a(I70
I199
tp514
a(I133
I200
tp515
a(I73
I145
tp516
a(I82
I160
tp517
a(I86
I137
tp518
asg14
I200
sba(imain2
Polygon
p519
(dp520
g3
(I66
I96
tp521
sg5
I200
sg6
(I110
I73
I64
I117
tp522
sg8
(lp523
(I24
I133
tp524
a(I20
I88
tp525
a(I24
I60
tp526
a(I64
I124
tp527
a(I72
I129
tp528
a(I90
I85
tp529
a(I30
I82
tp530
a(I36
I114
tp531
asg14
I200
sba(imain2
Polygon
p532
(dp533
g3
(I17
I178
tp534
sg5
I200
sg6
(I83
I68
I15
I1
tp535
sg8
(lp536
(I0
I175
tp537
a(I0
I200
tp538
a(I26
I174
tp539
a(I0
I168
tp540
a(I23
I164
tp541
a(I34
I135
tp542
a(I10
I148
tp543
a(I0
I128
tp544
a(I24
I133
tp545
asg14
I200
sba(imain2
Polygon
p546
(dp547
g3
(I196
I157
tp548
sg5
I200
sg6
(I27
I207
I68
I1
tp549
sg8
(lp550
(I148
I153
tp551
a(I151
I192
tp552
a(I193
I111
tp553
a(I158
I111
tp554
a(I200
I195
tp555
a(I200
I149
tp556
a(I200
I120
tp557
a(I191
I191
tp558
a(I200
I168
tp559
a(I189
I185
tp560
a(I183
I180
tp561
a(I168
I182
tp562
a(I197
I138
tp563
a(I179
I172
tp564
a(I200
I134
tp565
a(I200
I149
tp566
a(I163
I117
tp567
a(I200
I188
tp568
a(I200
I140
tp569
asg14
I200
sba(imain2
Polygon
p570
(dp571
g3
(I7
I138
tp572
sg5
I200
sg6
(I209
I111
I12
I1
tp573
sg8
(lp574
(I32
I187
tp575
a(I54
I125
tp576
a(I0
I91
tp577
a(I20
I103
tp578
a(I11
I151
tp579
a(I0
I88
tp580
a(I37
I173
tp581
a(I41
I90
tp582
a(I0
I119
tp583
a(I17
I157
tp584
a(I29
I156
tp585
a(I0
I136
tp586
asg14
I200
sba(imain2
Polygon
p587
(dp588
g3
(I49
I75
tp589
sg5
I200
sg6
(I119
I229
I19
I32
tp590
sg8
(lp591
(I76
I115
tp592
a(I96
I95
tp593
a(I72
I90
tp594
a(I38
I118
tp595
a(I35
I74
tp596
a(I91
I46
tp597
a(I52
I58
tp598
a(I75
I88
tp599
a(I33
I106
tp600
a(I0
I118
tp601
a(I3
I64
tp602
a(I8
I49
tp603
a(I41
I49
tp604
a(I47
I83
tp605
asg14
I200
sba(imain2
Polygon
p606
(dp607
g3
(I75
I73
tp608
sg5
I200
sg6
(I161
I134
I136
I146
tp609
sg8
(lp610
(I108
I39
tp611
a(I122
I103
tp612
a(I56
I97
tp613
a(I62
I34
tp614
asg14
I200
sba(imain2
Polygon
p615
(dp616
g3
(I82
I103
tp617
sg5
I200
sg6
(I96
I97
I61
I1
tp618
sg8
(lp619
(I98
I130
tp620
a(I85
I103
tp621
a(I63
I125
tp622
a(I105
I62
tp623
a(I112
I100
tp624
a(I87
I68
tp625
a(I82
I106
tp626
a(I59
I68
tp627
a(I131
I64
tp628
a(I107
I93
tp629
a(I84
I100
tp630
a(I60
I69
tp631
a(I71
I97
tp632
a(I48
I148
tp633
a(I41
I99
tp634
a(I75
I143
tp635
a(I105
I53
tp636
a(I78
I116
tp637
a(I33
I114
tp638
a(I54
I64
tp639
asg14
I200
sba(imain2
Polygon
p640
(dp641
g3
(I126
I26
tp642
sg5
I200
sg6
(I238
I183
I127
I119
tp643
sg8
(lp644
(I138
I12
tp645
a(I156
I0
tp646
a(I122
I21
tp647
a(I87
I0
tp648
a(I148
I0
tp649
a(I77
I0
tp650
a(I162
I0
tp651
a(I175
I33
tp652
a(I168
I75
tp653
asg14
I200
sba(imain2
Polygon
p654
(dp655
g3
(I128
I23
tp656
sg5
I200
sg6
(I107
I1
I85
I1
tp657
sg8
(lp658
(I130
I53
tp659
a(I156
I0
tp660
a(I153
I8
tp661
a(I101
I0
tp662
a(I92
I73
tp663
a(I175
I53
tp664
a(I172
I68
tp665
a(I142
I0
tp666
a(I98
I33
tp667
a(I116
I0
tp668
a(I87
I56
tp669
a(I159
I31
tp670
a(I96
I51
tp671
a(I175
I44
tp672
a(I113
I68
tp673
a(I85
I3
tp674
asg14
I200
sba(imain2
Polygon
p675
(dp676
g3
(I147
I59
tp677
sg5
I200
sg6
(I1
I240
I190
I86
tp678
sg8
(lp679
(I174
I31
tp680
a(I137
I47
tp681
a(I167
I25
tp682
asg14
I200
sba(imain2
Polygon
p683
(dp684
g3
(I105
I192
tp685
sg5
I200
sg6
(I179
I21
I176
I2
tp686
sg8
(lp687
(I140
I189
tp688
a(I82
I144
tp689
a(I76
I200
tp690
a(I97
I200
tp691
asg14
I200
sba(imain2
Polygon
p692
(dp693
g3
(I144
I60
tp694
sg5
I200
sg6
(I62
I234
I9
I1
tp695
sg8
(lp696
(I100
I77
tp697
a(I160
I42
tp698
a(I131
I18
tp699
a(I136
I52
tp700
a(I115
I19
tp701
asg14
I200
sba(imain2
Polygon
p702
(dp703
g3
(I177
I86
tp704
sg5
I200
sg6
(I169
I33
I16
I0
tp705
sg8
(lp706
(I152
I97
tp707
a(I200
I117
tp708
a(I152
I131
tp709
a(I151
I100
tp710
a(I190
I96
tp711
a(I180
I119
tp712
a(I150
I49
tp713
a(I200
I121
tp714
asg14
I200
sba(imain2
Polygon
p715
(dp716
g3
(I157
I117
tp717
sg5
I200
sg6
(I43
I29
I1
I80
tp718
sg8
(lp719
(I188
I133
tp720
a(I162
I124
tp721
a(I128
I75
tp722
a(I150
I89
tp723
a(I170
I143
tp724
a(I200
I149
tp725
a(I124
I96
tp726
a(I195
I99
tp727
asg14
I200
sba(imain2
Polygon
p728
(dp729
g3
(I155
I192
tp730
sg5
I200
sg6
(I1
I40
I195
I0
tp731
sg8
(lp732
(I178
I179
tp733
a(I173
I200
tp734
a(I152
I200
tp735
a(I111
I200
tp736
a(I147
I154
tp737
a(I187
I169
tp738
a(I120
I189
tp739
a(I130
I176
tp740
a(I148
I200
tp741
a(I123
I192
tp742
a(I153
I200
tp743
asg14
I200
sba(imain2
Polygon
p744
(dp745
g3
(I103
I158
tp746
sg5
I200
sg6
(I13
I45
I120
I84
tp747
sg8
(lp748
(I131
I127
tp749
a(I87
I181
tp750
a(I135
I127
tp751
a(I86
I148
tp752
a(I73
I157
tp753
a(I132
I111
tp754
a(I66
I200
tp755
a(I105
I140
tp756
asg14
I200
sba(imain2
Polygon
p757
(dp758
g3
(I9
I151
tp759
sg5
I200
sg6
(I124
I85
I59
I50
tp760
sg8
(lp761
(I0
I133
tp762
a(I0
I189
tp763
a(I0
I127
tp764
a(I21
I130
tp765
a(I27
I114
tp766
a(I28
I177
tp767
a(I44
I122
tp768
a(I0
I181
tp769
asg14
I200
sba(imain2
Polygon
p770
(dp771
g3
(I114
I115
tp772
sg5
I200
sg6
(I169
I161
I140
I19
tp773
sg8
(lp774
(I71
I67
tp775
a(I66
I160
tp776
a(I64
I75
tp777
a(I64
I113
tp778
a(I105
I71
tp779
a(I71
I111
tp780
a(I89
I155
tp781
a(I64
I162
tp782
asg14
I200
sba(imain2
Polygon
p783
(dp784
g3
(I114
I99
tp785
sg5
I200
sg6
(I63
I243
I10
I59
tp786
sg8
(lp787
(I110
I120
tp788
a(I108
I84
tp789
a(I126
I70
tp790
a(I104
I71
tp791
a(I123
I102
tp792
a(I135
I58
tp793
a(I148
I67
tp794
a(I142
I52
tp795
a(I82
I55
tp796
a(I87
I128
tp797
a(I67
I105
tp798
a(I103
I135
tp799
a(I65
I93
tp800
a(I95
I107
tp801
asg14
I200
sba(imain2
Polygon
p802
(dp803
g3
(I173
I62
tp804
sg5
I200
sg6
(I2
I43
I169
I118
tp805
sg8
(lp806
(I200
I45
tp807
a(I200
I95
tp808
a(I200
I84
tp809
a(I162
I88
tp810
a(I200
I66
tp811
asg14
I200
sba(imain2
Polygon
p812
(dp813
g3
(I199
I171
tp814
sg5
I200
sg6
(I1
I236
I14
I37
tp815
sg8
(lp816
(I200
I200
tp817
a(I200
I186
tp818
a(I189
I171
tp819
asg14
I200
sba(imain2
Polygon
p820
(dp821
g3
(I195
I126
tp822
sg5
I200
sg6
(I211
I219
I29
I1
tp823
sg8
(lp824
(I194
I149
tp825
a(I199
I161
tp826
a(I197
I169
tp827
a(I200
I96
tp828
a(I196
I163
tp829
a(I185
I126
tp830
a(I200
I122
tp831
a(I200
I107
tp832
a(I188
I145
tp833
a(I180
I115
tp834
a(I200
I126
tp835
a(I199
I106
tp836
asg14
I200
sba(imain2
Polygon
p837
(dp838
g3
(I51
I190
tp839
sg5
I200
sg6
(I129
I173
I100
I80
tp840
sg8
(lp841
(I40
I200
tp842
a(I11
I200
tp843
a(I36
I200
tp844
a(I60
I200
tp845
a(I67
I200
tp846
a(I97
I200
tp847
a(I13
I200
tp848
a(I3
I200
tp849
a(I35
I200
tp850
a(I70
I200
tp851
asg14
I200
sba(imain2
Polygon
p852
(dp853
g3
(I200
I5
tp854
sg5
I200
sg6
(I187
I111
I45
I0
tp855
sg8
(lp856
(I200
I50
tp857
a(I168
I0
tp858
a(I190
I26
tp859
a(I165
I28
tp860
a(I194
I0
tp861
a(I185
I0
tp862
a(I167
I0
tp863
a(I200
I0
tp864
a(I155
I7
tp865
asg14
I200
sba(imain2
Polygon
p866
(dp867
g3
(I147
I166
tp868
sg5
I200
sg6
(I119
I241
I225
I31
tp869
sg8
(lp870
(I127
I142
tp871
a(I108
I131
tp872
a(I155
I192
tp873
a(I107
I165
tp874
a(I125
I180
tp875
a(I138
I182
tp876
asg14
I200
sba(imain2
Polygon
p877
(dp878
g3
(I16
I191
tp879
sg5
I200
sg6
(I129
I48
I223
I0
tp880
sg8
(lp881
(I66
I184
tp882
a(I0
I200
tp883
a(I48
I200
tp884
a(I0
I200
tp885
a(I0
I175
tp886
asg14
I200
sba(imain2
Polygon
p887
(dp888
g3
(I94
I9
tp889
sg5
I200
sg6
(I200
I52
I23
I1
tp890
sg8
(lp891
(I139
I32
tp892
a(I52
I39
tp893
a(I75
I35
tp894
a(I64
I48
tp895
a(I137
I26
tp896
a(I101
I37
tp897
a(I53
I5
tp898
a(I118
I0
tp899
a(I111
I1
tp900
a(I109
I0
tp901
a(I98
I5
tp902
asg14
I200
sba(imain2
Polygon
p903
(dp904
g3
(I111
I113
tp905
sg5
I200
sg6
(I90
I33
I146
I0
tp906
sg8
(lp907
(I83
I120
tp908
a(I85
I110
tp909
a(I161
I131
tp910
asg14
I200
sba(imain2
Polygon
p911
(dp912
g3
(I10
I81
tp913
sg5
I200
sg6
(I221
I165
I195
I1
tp914
sg8
(lp915
(I60
I131
tp916
a(I0
I33
tp917
a(I0
I85
tp918
a(I12
I107
tp919
a(I0
I101
tp920
a(I48
I101
tp921
a(I23
I40
tp922
a(I57
I91
tp923
a(I0
I48
tp924
asg14
I200
sba(imain2
Polygon
p925
(dp926
g3
(I10
I22
tp927
sg5
I200
sg6
(I220
I208
I110
I81
tp928
sg8
(lp929
(I0
I0
tp930
a(I10
I0
tp931
a(I52
I43
tp932
a(I8
I71
tp933
a(I0
I70
tp934
a(I12
I0
tp935
a(I0
I0
tp936
a(I0
I66
tp937
a(I13
I7
tp938
a(I39
I0
tp939
a(I26
I4
tp940
asg14
I200
sba(imain2
Polygon
p941
(dp942
g3
(I19
I169
tp943
sg5
I200
sg6
(I90
I218
I81
I8
tp944
sg8
(lp945
(I32
I184
tp946
a(I32
I130
tp947
a(I44
I183
tp948
a(I17
I185
tp949
asg14
I200
sba(imain2
Polygon
p950
(dp951
g3
(I194
I7
tp952
sg5
I200
sg6
(I168
I94
I135
I22
tp953
sg8
(lp954
(I200
I0
tp955
a(I200
I0
tp956
a(I200
I29
tp957
a(I200
I0
tp958
a(I146
I24
tp959
a(I200
I25
tp960
a(I200
I50
tp961
a(I200
I0
tp962
a(I172
I55
tp963
a(I180
I0
tp964
asg14
I200
sba(imain2
Polygon
p965
(dp966
g3
(I42
I15
tp967
sg5
I200
sg6
(I152
I137
I168
I0
tp968
sg8
(lp969
(I25
I23
tp970
a(I36
I34
tp971
a(I46
I30
tp972
a(I25
I52
tp973
a(I62
I36
tp974
a(I86
I8
tp975
a(I0
I10
tp976
a(I52
I5
tp977
a(I73
I0
tp978
a(I8
I0
tp979
a(I8
I23
tp980
asg14
I200
sba(imain2
Polygon
p981
(dp982
g3
(I183
I77
tp983
sg5
I200
sg6
(I25
I142
I28
I52
tp984
sg8
(lp985
(I153
I78
tp986
a(I200
I75
tp987
a(I200
I86
tp988
a(I200
I95
tp989
a(I156
I32
tp990
a(I200
I40
tp991
a(I190
I28
tp992
a(I156
I68
tp993
asg14
I200
sba(imain2
Polygon
p994
(dp995
g3
(I190
I45
tp996
sg5
I200
sg6
(I179
I47
I185
I1
tp997
sg8
(lp998
(I200
I75
tp999
a(I200
I29
tp1000
a(I200
I81
tp1001
a(I197
I40
tp1002
a(I200
I31
tp1003
a(I200
I84
tp1004
a(I179
I86
tp1005
a(I200
I67
tp1006
a(I200
I23
tp1007
a(I149
I6
tp1008
a(I156
I30
tp1009
asg14
I200
sba(imain2
Polygon
p1010
(dp1011
g3
(I115
I69
tp1012
sg5
I200
sg6
(I0
I123
I194
I1
tp1013
sg8
(lp1014
(I77
I118
tp1015
a(I96
I111
tp1016
a(I143
I76
tp1017
a(I137
I38
tp1018
a(I115
I62
tp1019
a(I138
I27
tp1020
asg14
I200
sba(imain2
Polygon
p1021
(dp1022
g3
(I173
I121
tp1023
sg5
I200
sg6
(I244
I56
I24
I0
tp1024
sg8
(lp1025
(I164
I100
tp1026
a(I186
I130
tp1027
a(I173
I140
tp1028
a(I145
I162
tp1029
a(I156
I86
tp1030
a(I176
I93
tp1031
a(I200
I136
tp1032
a(I127
I105
tp1033
a(I200
I89
tp1034
a(I200
I85
tp1035
asg14
I200
sba(imain2
Polygon
p1036
(dp1037
g3
(I45
I135
tp1038
sg5
I200
sg6
(I150
I128
I180
I65
tp1039
sg8
(lp1040
(I7
I177
tp1041
a(I21
I178
tp1042
a(I23
I86
tp1043
a(I9
I172
tp1044
a(I0
I183
tp1045
a(I7
I176
tp1046
a(I16
I139
tp1047
asg14
I200
sba(imain2
Polygon
p1048
(dp1049
g3
(I61
I48
tp1050
sg5
I200
sg6
(I78
I37
I123
I138
tp1051
sg8
(lp1052
(I71
I86
tp1053
a(I54
I35
tp1054
a(I73
I78
tp1055
a(I47
I85
tp1056
a(I68
I93
tp1057
a(I86
I72
tp1058
a(I85
I73
tp1059
a(I53
I98
tp1060
asg14
I200
sba(imain2
Polygon
p1061
(dp1062
g3
(I96
I154
tp1063
sg5
I200
sg6
(I149
I186
I188
I72
tp1064
sg8
(lp1065
(I51
I113
tp1066
a(I57
I106
tp1067
a(I90
I200
tp1068
a(I142
I200
tp1069
a(I53
I114
tp1070
a(I87
I119
tp1071
asg14
I200
sba(imain2
Polygon
p1072
(dp1073
g3
(I32
I146
tp1074
sg5
I200
sg6
(I62
I240
I73
I121
tp1075
sg8
(lp1076
(I0
I157
tp1077
a(I0
I165
tp1078
a(I0
I182
tp1079
a(I0
I132
tp1080
asg14
I200
sba(imain2
Polygon
p1081
(dp1082
g3
(I3
I120
tp1083
sg5
I200
sg6
(I189
I179
I17
I70
tp1084
sg8
(lp1085
(I38
I71
tp1086
a(I0
I72
tp1087
a(I0
I90
tp1088
a(I0
I104
tp1089
a(I0
I96
tp1090
a(I0
I132
tp1091
a(I20
I116
tp1092
asg14
I200
sba(imain2
Polygon
p1093
(dp1094
g3
(I74
I152
tp1095
sg5
I200
sg6
(I60
I81
I129
I1
tp1096
sg8
(lp1097
(I92
I176
tp1098
a(I80
I138
tp1099
a(I96
I106
tp1100
a(I120
I199
tp1101
a(I40
I166
tp1102
a(I77
I106
tp1103
a(I51
I195
tp1104
a(I58
I155
tp1105
a(I118
I127
tp1106
a(I81
I105
tp1107
asg14
I200
sba(imain2
Polygon
p1108
(dp1109
g3
(I31
I192
tp1110
sg5
I200
sg6
(I154
I35
I138
I1
tp1111
sg8
(lp1112
(I0
I200
tp1113
a(I47
I161
tp1114
a(I26
I161
tp1115
a(I5
I196
tp1116
a(I36
I200
tp1117
a(I49
I158
tp1118
a(I31
I200
tp1119
a(I25
I200
tp1120
a(I51
I189
tp1121
a(I54
I177
tp1122
a(I41
I172
tp1123
a(I25
I181
tp1124
a(I18
I173
tp1125
a(I2
I172
tp1126
a(I79
I157
tp1127
a(I34
I200
tp1128
a(I53
I200
tp1129
asg14
I200
sba(imain2
Polygon
p1130
(dp1131
g3
(I99
I149
tp1132
sg5
I200
sg6
(I190
I32
I204
I0
tp1133
sg8
(lp1134
(I110
I116
tp1135
a(I76
I160
tp1136
a(I94
I124
tp1137
a(I93
I183
tp1138
a(I94
I120
tp1139
a(I78
I105
tp1140
a(I115
I191
tp1141
a(I55
I199
tp1142
a(I103
I129
tp1143
a(I128
I177
tp1144
a(I131
I168
tp1145
a(I119
I122
tp1146
a(I103
I151
tp1147
a(I118
I115
tp1148
asg14
I200
sba(imain2
Polygon
p1149
(dp1150
g3
(I183
I115
tp1151
sg5
I200
sg6
(I22
I109
I181
I157
tp1152
sg8
(lp1153
(I200
I102
tp1154
a(I158
I83
tp1155
a(I200
I98
tp1156
a(I165
I93
tp1157
a(I200
I102
tp1158
a(I193
I132
tp1159
a(I181
I84
tp1160
asg14
I200
sba(imain2
Polygon
p1161
(dp1162
g3
(I141
I107
tp1163
sg5
I200
sg6
(I81
I148
I87
I160
tp1164
sg8
(lp1165
(I116
I131
tp1166
a(I115
I124
tp1167
a(I95
I75
tp1168
a(I111
I152
tp1169
asg14
I200
sba(imain2
Polygon
p1170
(dp1171
g3
(I149
I72
tp1172
sg5
I200
sg6
(I64
I109
I166
I50
tp1173
sg8
(lp1174
(I195
I60
tp1175
a(I192
I63
tp1176
a(I155
I38
tp1177
a(I141
I61
tp1178
a(I173
I40
tp1179
a(I182
I26
tp1180
a(I130
I80
tp1181
a(I99
I71
tp1182
a(I150
I68
tp1183
a(I153
I27
tp1184
asg14
I200
sba(imain2
Polygon
p1185
(dp1186
g3
(I67
I128
tp1187
sg5
I200
sg6
(I212
I148
I54
I47
tp1188
sg8
(lp1189
(I101
I96
tp1190
a(I80
I142
tp1191
a(I63
I86
tp1192
a(I108
I113
tp1193
a(I115
I152
tp1194
a(I46
I122
tp1195
a(I62
I84
tp1196
a(I46
I110
tp1197
asg14
I200
sba(imain2
Polygon
p1198
(dp1199
g3
(I183
I44
tp1200
sg5
I200
sg6
(I81
I13
I174
I0
tp1201
sg8
(lp1202
(I200
I56
tp1203
a(I200
I1
tp1204
a(I158
I68
tp1205
a(I200
I33
tp1206
a(I167
I15
tp1207
a(I187
I78
tp1208
a(I190
I1
tp1209
asg14
I200
sba(imain2
Polygon
p1210
(dp1211
g3
(I100
I61
tp1212
sg5
I200
sg6
(I203
I99
I42
I60
tp1213
sg8
(lp1214
(I105
I40
tp1215
a(I99
I64
tp1216
a(I111
I91
tp1217
a(I96
I24
tp1218
a(I127
I75
tp1219
a(I126
I64
tp1220
a(I74
I24
tp1221
a(I94
I61
tp1222
a(I135
I84
tp1223
a(I53
I108
tp1224
asg14
I200
sba(imain2
Polygon
p1225
(dp1226
g3
(I52
I190
tp1227
sg5
I200
sg6
(I177
I148
I50
I95
tp1228
sg8
(lp1229
(I73
I200
tp1230
a(I89
I171
tp1231
a(I96
I145
tp1232
a(I94
I200
tp1233
a(I40
I200
tp1234
a(I35
I200
tp1235
a(I7
I200
tp1236
asg14
I200
sba(imain2
Polygon
p1237
(dp1238
g3
(I151
I65
tp1239
sg5
I200
sg6
(I64
I180
I1
I110
tp1240
sg8
(lp1241
(I176
I54
tp1242
a(I132
I66
tp1243
a(I166
I54
tp1244
a(I176
I89
tp1245
a(I165
I61
tp1246
a(I111
I63
tp1247
a(I141
I95
tp1248
a(I119
I77
tp1249
a(I169
I49
tp1250
a(I169
I47
tp1251
a(I196
I93
tp1252
asg14
I200
sba(imain2
Polygon
p1253
(dp1254
g3
(I67
I20
tp1255
sg5
I200
sg6
(I166
I93
I190
I120
tp1256
sg8
(lp1257
(I17
I0
tp1258
a(I47
I0
tp1259
a(I29
I39
tp1260
a(I112
I0
tp1261
a(I27
I0
tp1262
asg14
I200
sba(imain2
Polygon
p1263
(dp1264
g3
(I199
I56
tp1265
sg5
I200
sg6
(I162
I1
I108
I0
tp1266
sg8
(lp1267
(I200
I61
tp1268
a(I160
I18
tp1269
a(I165
I73
tp1270
a(I157
I87
tp1271
a(I171
I66
tp1272
a(I181
I100
tp1273
a(I188
I9
tp1274
a(I198
I104
tp1275
a(I200
I18
tp1276
a(I200
I90
tp1277
asg14
I200
sba(imain2
Polygon
p1278
(dp1279
g3
(I185
I38
tp1280
sg5
I200
sg6
(I130
I218
I71
I170
tp1281
sg8
(lp1282
(I200
I69
tp1283
a(I200
I0
tp1284
a(I196
I0
tp1285
a(I154
I0
tp1286
a(I146
I42
tp1287
a(I200
I5
tp1288
a(I200
I5
tp1289
a(I142
I46
tp1290
a(I155
I22
tp1291
a(I181
I67
tp1292
a(I187
I70
tp1293
a(I138
I0
tp1294
a(I181
I63
tp1295
a(I141
I1
tp1296
a(I171
I85
tp1297
asg14
I200
sba(imain2
Polygon
p1298
(dp1299
g3
(I67
I149
tp1300
sg5
I200
sg6
(I94
I207
I216
I55
tp1301
sg8
(lp1302
(I111
I118
tp1303
a(I92
I149
tp1304
a(I45
I104
tp1305
a(I112
I135
tp1306
a(I108
I132
tp1307
a(I64
I107
tp1308
a(I107
I140
tp1309
a(I111
I166
tp1310
asg14
I200
sba(imain2
Polygon
p1311
(dp1312
g3
(I21
I182
tp1313
sg5
I200
sg6
(I113
I116
I0
I108
tp1314
sg8
(lp1315
(I67
I200
tp1316
a(I0
I160
tp1317
a(I44
I143
tp1318
a(I20
I169
tp1319
a(I14
I161
tp1320
a(I41
I200
tp1321
a(I0
I175
tp1322
a(I19
I200
tp1323
a(I16
I186
tp1324
a(I7
I175
tp1325
a(I0
I144
tp1326
a(I0
I194
tp1327
a(I36
I200
tp1328
a(I13
I195
tp1329
a(I16
I140
tp1330
a(I20
I188
tp1331
a(I0
I133
tp1332
a(I47
I191
tp1333
asg14
I200
sba(imain2
Polygon
p1334
(dp1335
g3
(I145
I176
tp1336
sg5
I200
sg6
(I186
I171
I1
I48
tp1337
sg8
(lp1338
(I109
I200
tp1339
a(I101
I200
tp1340
a(I138
I200
tp1341
a(I120
I137
tp1342
a(I98
I200
tp1343
asg14
I200
sba(imain2
Polygon
p1344
(dp1345
g3
(I102
I21
tp1346
sg5
I200
sg6
(I183
I179
I187
I64
tp1347
sg8
(lp1348
(I129
I69
tp1349
a(I61
I26
tp1350
a(I53
I14
tp1351
a(I104
I12
tp1352
a(I146
I25
tp1353
a(I143
I7
tp1354
a(I142
I0
tp1355
a(I59
I0
tp1356
a(I76
I62
tp1357
asg14
I200
sba(imain2
Polygon
p1358
(dp1359
g3
(I154
I30
tp1360
sg5
I200
sg6
(I50
I97
I61
I1
tp1361
sg8
(lp1362
(I188
I30
tp1363
a(I122
I61
tp1364
a(I124
I34
tp1365
a(I112
I63
tp1366
a(I118
I38
tp1367
a(I162
I48
tp1368
a(I140
I39
tp1369
a(I110
I28
tp1370
asg14
I200
sba(imain2
Polygon
p1371
(dp1372
g3
(I171
I178
tp1373
sg5
I200
sg6
(I95
I232
I34
I23
tp1374
sg8
(lp1375
(I121
I194
tp1376
a(I151
I200
tp1377
a(I122
I178
tp1378
a(I200
I200
tp1379
a(I198
I159
tp1380
a(I200
I135
tp1381
a(I150
I187
tp1382
a(I146
I200
tp1383
a(I134
I137
tp1384
asg14
I200
sba(imain2
Polygon
p1385
(dp1386
g3
(I189
I152
tp1387
sg5
I200
sg6
(I248
I71
I182
I11
tp1388
sg8
(lp1389
(I173
I200
tp1390
a(I200
I169
tp1391
a(I200
I166
tp1392
a(I167
I102
tp1393
a(I200
I198
tp1394
a(I181
I131
tp1395
a(I199
I164
tp1396
a(I184
I186
tp1397
a(I182
I182
tp1398
a(I190
I125
tp1399
a(I158
I146
tp1400
a(I200
I109
tp1401
a(I200
I124
tp1402
asg14
I200
sba(imain2
Polygon
p1403
(dp1404
g3
(I158
I122
tp1405
sg5
I200
sg6
(I45
I0
I159
I48
tp1406
sg8
(lp1407
(I200
I95
tp1408
a(I180
I97
tp1409
a(I172
I95
tp1410
a(I199
I82
tp1411
a(I166
I100
tp1412
a(I200
I140
tp1413
a(I139
I77
tp1414
a(I178
I130
tp1415
a(I190
I85
tp1416
a(I131
I110
tp1417
a(I139
I107
tp1418
a(I200
I74
tp1419
asg14
I200
sba(imain2
Polygon
p1420
(dp1421
g3
(I89
I194
tp1422
sg5
I200
sg6
(I229
I77
I39
I1
tp1423
sg8
(lp1424
(I98
I175
tp1425
a(I40
I200
tp1426
a(I70
I200
tp1427
a(I55
I200
tp1428
a(I130
I164
tp1429
a(I39
I172
tp1430
a(I50
I147
tp1431
a(I79
I190
tp1432
a(I40
I200
tp1433
a(I64
I164
tp1434
a(I98
I200
tp1435
asg14
I200
sba(imain2
Polygon
p1436
(dp1437
g3
(I185
I89
tp1438
sg5
I200
sg6
(I164
I1
I220
I1
tp1439
sg8
(lp1440
(I200
I102
tp1441
a(I200
I77
tp1442
a(I200
I55
tp1443
a(I200
I70
tp1444
a(I200
I52
tp1445
a(I200
I118
tp1446
a(I200
I57
tp1447
a(I153
I100
tp1448
a(I197
I122
tp1449
a(I200
I41
tp1450
asg14
I200
sba(imain2
Polygon
p1451
(dp1452
g3
(I67
I129
tp1453
sg5
I200
sg6
(I76
I192
I60
I141
tp1454
sg8
(lp1455
(I114
I100
tp1456
a(I66
I130
tp1457
a(I64
I104
tp1458
a(I114
I112
tp1459
a(I112
I100
tp1460
a(I101
I171
tp1461
a(I105
I94
tp1462
a(I59
I93
tp1463
a(I61
I148
tp1464
a(I109
I141
tp1465
a(I87
I119
tp1466
a(I87
I107
tp1467
a(I75
I92
tp1468
a(I84
I146
tp1469
a(I52
I135
tp1470
asg14
I200
sba(imain2
Polygon
p1471
(dp1472
g3
(I95
I80
tp1473
sg5
I200
sg6
(I220
I91
I23
I137
tp1474
sg8
(lp1475
(I121
I57
tp1476
a(I55
I30
tp1477
a(I58
I130
tp1478
a(I113
I109
tp1479
a(I61
I47
tp1480
a(I89
I57
tp1481
a(I133
I109
tp1482
asg14
I200
sba(imain2
Polygon
p1483
(dp1484
g3
(I14
I45
tp1485
sg5
I200
sg6
(I225
I1
I43
I117
tp1486
sg8
(lp1487
(I2
I89
tp1488
a(I19
I58
tp1489
a(I58
I24
tp1490
a(I17
I21
tp1491
a(I38
I90
tp1492
asg14
I200
sba(imain2
Polygon
p1493
(dp1494
g3
(I34
I35
tp1495
sg5
I200
sg6
(I108
I10
I202
I33
tp1496
sg8
(lp1497
(I2
I0
tp1498
a(I0
I84
tp1499
a(I51
I56
tp1500
a(I50
I0
tp1501
a(I51
I6
tp1502
a(I39
I34
tp1503
a(I34
I0
tp1504
asg14
I200
sba(imain2
Polygon
p1505
(dp1506
g3
(I127
I147
tp1507
sg5
I200
sg6
(I120
I173
I189
I98
tp1508
sg8
(lp1509
(I86
I137
tp1510
a(I112
I167
tp1511
a(I161
I125
tp1512
a(I99
I100
tp1513
a(I112
I159
tp1514
a(I126
I158
tp1515
a(I164
I118
tp1516
a(I80
I133
tp1517
a(I125
I141
tp1518
a(I106
I116
tp1519
a(I85
I144
tp1520
a(I112
I135
tp1521
a(I90
I144
tp1522
a(I148
I117
tp1523
a(I100
I111
tp1524
a(I96
I169
tp1525
asg14
I200
sba(imain2
Polygon
p1526
(dp1527
g3
(I88
I106
tp1528
sg5
I200
sg6
(I189
I13
I64
I133
tp1529
sg8
(lp1530
(I127
I64
tp1531
a(I90
I146
tp1532
a(I117
I112
tp1533
asg14
I200
sba(imain2
Polygon
p1534
(dp1535
g3
(I11
I134
tp1536
sg5
I200
sg6
(I75
I180
I95
I114
tp1537
sg8
(lp1538
(I0
I183
tp1539
a(I0
I156
tp1540
a(I0
I163
tp1541
a(I32
I141
tp1542
a(I0
I169
tp1543
a(I12
I180
tp1544
a(I18
I183
tp1545
asg14
I200
sba(imain2
Polygon
p1546
(dp1547
g3
(I174
I141
tp1548
sg5
I200
sg6
(I114
I240
I93
I93
tp1549
sg8
(lp1550
(I200
I172
tp1551
a(I200
I160
tp1552
a(I200
I117
tp1553
a(I192
I135
tp1554
asg14
I200
sba(imain2
Polygon
p1555
(dp1556
g3
(I68
I44
tp1557
sg5
I200
sg6
(I4
I229
I128
I61
tp1558
sg8
(lp1559
(I40
I52
tp1560
a(I53
I17
tp1561
a(I62
I45
tp1562
a(I75
I72
tp1563
asg14
I200
sba(imain2
Polygon
p1564
(dp1565
g3
(I80
I68
tp1566
sg5
I200
sg6
(I79
I16
I18
I55
tp1567
sg8
(lp1568
(I30
I48
tp1569
a(I52
I50
tp1570
a(I34
I66
tp1571
a(I53
I18
tp1572
a(I118
I28
tp1573
a(I103
I35
tp1574
a(I41
I31
tp1575
a(I52
I99
tp1576
a(I43
I18
tp1577
a(I106
I28
tp1578
a(I97
I30
tp1579
a(I37
I35
tp1580
a(I66
I42
tp1581
a(I83
I18
tp1582
asg14
I200
sba(imain2
Polygon
p1583
(dp1584
g3
(I120
I143
tp1585
sg5
I200
sg6
(I152
I159
I84
I0
tp1586
sg8
(lp1587
(I118
I167
tp1588
a(I157
I180
tp1589
a(I104
I174
tp1590
a(I143
I95
tp1591
a(I136
I122
tp1592
a(I154
I138
tp1593
a(I91
I159
tp1594
a(I161
I105
tp1595
a(I113
I149
tp1596
a(I167
I98
tp1597
a(I92
I133
tp1598
a(I139
I176
tp1599
a(I86
I100
tp1600
asg14
I200
sba(imain2
Polygon
p1601
(dp1602
g3
(I47
I43
tp1603
sg5
I200
sg6
(I225
I146
I63
I45
tp1604
sg8
(lp1605
(I94
I47
tp1606
a(I85
I78
tp1607
a(I7
I93
tp1608
a(I8
I45
tp1609
a(I20
I87
tp1610
a(I15
I0
tp1611
a(I69
I3
tp1612
a(I21
I40
tp1613
a(I8
I61
tp1614
a(I80
I33
tp1615
a(I39
I37
tp1616
a(I36
I77
tp1617
a(I49
I4
tp1618
a(I96
I0
tp1619
asg14
I200
sba(imain2
Polygon
p1620
(dp1621
g3
(I6
I165
tp1622
sg5
I200
sg6
(I195
I53
I159
I79
tp1623
sg8
(lp1624
(I0
I168
tp1625
a(I0
I123
tp1626
a(I0
I142
tp1627
asg14
I200
sba(imain2
Polygon
p1628
(dp1629
g3
(I125
I173
tp1630
sg5
I200
sg6
(I92
I30
I35
I134
tp1631
sg8
(lp1632
(I163
I200
tp1633
a(I132
I145
tp1634
a(I120
I145
tp1635
a(I125
I138
tp1636
a(I143
I200
tp1637
a(I165
I200
tp1638
a(I85
I166
tp1639
a(I93
I145
tp1640
a(I117
I134
tp1641
a(I124
I131
tp1642
a(I139
I163
tp1643
a(I129
I134
tp1644
asg14
I200
sba(imain2
Polygon
p1645
(dp1646
g3
(I63
I154
tp1647
sg5
I200
sg6
(I122
I161
I3
I1
tp1648
sg8
(lp1649
(I96
I189
tp1650
a(I79
I108
tp1651
a(I87
I186
tp1652
a(I70
I140
tp1653
a(I66
I117
tp1654
a(I27
I140
tp1655
a(I101
I144
tp1656
a(I45
I194
tp1657
a(I42
I149
tp1658
asg14
I200
sba(imain2
Polygon
p1659
(dp1660
g3
(I152
I171
tp1661
sg5
I200
sg6
(I193
I6
I227
I0
tp1662
sg8
(lp1663
(I131
I147
tp1664
a(I121
I180
tp1665
a(I143
I159
tp1666
a(I121
I165
tp1667
a(I116
I199
tp1668
a(I143
I200
tp1669
a(I171
I200
tp1670
a(I191
I153
tp1671
a(I146
I143
tp1672
a(I180
I200
tp1673
asg14
I200
sba(imain2
Polygon
p1674
(dp1675
g3
(I67
I143
tp1676
sg5
I200
sg6
(I74
I72
I133
I135
tp1677
sg8
(lp1678
(I100
I175
tp1679
a(I102
I173
tp1680
a(I113
I130
tp1681
asg14
I200
sba(imain2
Polygon
p1682
(dp1683
g3
(I153
I79
tp1684
sg5
I200
sg6
(I136
I30
I163
I1
tp1685
sg8
(lp1686
(I200
I90
tp1687
a(I129
I117
tp1688
a(I178
I67
tp1689
a(I139
I76
tp1690
a(I137
I35
tp1691
a(I105
I69
tp1692
a(I175
I77
tp1693
a(I178
I72
tp1694
a(I176
I102
tp1695
a(I148
I111
tp1696
asg14
I200
sba(imain2
Polygon
p1697
(dp1698
g3
(I142
I192
tp1699
sg5
I200
sg6
(I51
I239
I4
I25
tp1700
sg8
(lp1701
(I166
I200
tp1702
a(I93
I176
tp1703
a(I162
I200
tp1704
a(I170
I191
tp1705
a(I159
I195
tp1706
a(I119
I172
tp1707
a(I132
I148
tp1708
a(I115
I176
tp1709
asg14
I200
sba(imain2
Polygon
p1710
(dp1711
g3
(I144
I12
tp1712
sg5
I200
sg6
(I190
I75
I100
I0
tp1713
sg8
(lp1714
(I150
I22
tp1715
a(I176
I0
tp1716
a(I148
I6
tp1717
a(I191
I55
tp1718
a(I127
I44
tp1719
a(I178
I0
tp1720
a(I140
I28
tp1721
a(I176
I62
tp1722
a(I147
I12
tp1723
a(I133
I0
tp1724
a(I149
I42
tp1725
a(I108
I0
tp1726
asg14
I200
sba(imain2
Polygon
p1727
(dp1728
g3
(I144
I92
tp1729
sg5
I200
sg6
(I224
I45
I152
I163
tp1730
sg8
(lp1731
(I165
I66
tp1732
a(I181
I55
tp1733
a(I188
I72
tp1734
asg14
I200
sba(imain2
Polygon
p1735
(dp1736
g3
(I167
I23
tp1737
sg5
I200
sg6
(I171
I33
I244
I26
tp1738
sg8
(lp1739
(I170
I58
tp1740
a(I162
I59
tp1741
a(I200
I70
tp1742
a(I200
I14
tp1743
a(I155
I1
tp1744
a(I191
I17
tp1745
a(I136
I0
tp1746
a(I179
I63
tp1747
a(I161
I57
tp1748
a(I153
I8
tp1749
a(I200
I10
tp1750
asg14
I200
sba(imain2
Polygon
p1751
(dp1752
g3
(I200
I102
tp1753
sg5
I200
sg6
(I52
I234
I149
I62
tp1754
sg8
(lp1755
(I161
I70
tp1756
a(I178
I55
tp1757
a(I182
I77
tp1758
a(I200
I120
tp1759
a(I200
I145
tp1760
a(I200
I142
tp1761
a(I181
I124
tp1762
a(I200
I66
tp1763
a(I200
I76
tp1764
a(I170
I80
tp1765
a(I200
I61
tp1766
a(I200
I113
tp1767
a(I176
I121
tp1768
asg14
I200
sba(imain2
Polygon
p1769
(dp1770
g3
(I20
I176
tp1771
sg5
I200
sg6
(I13
I203
I1
I1
tp1772
sg8
(lp1773
(I26
I196
tp1774
a(I31
I176
tp1775
a(I0
I200
tp1776
a(I65
I153
tp1777
a(I6
I156
tp1778
a(I32
I175
tp1779
a(I19
I200
tp1780
a(I44
I147
tp1781
a(I5
I200
tp1782
a(I48
I148
tp1783
a(I0
I189
tp1784
a(I31
I140
tp1785
asg14
I200
sba(imain2
Polygon
p1786
(dp1787
g3
(I51
I87
tp1788
sg5
I200
sg6
(I99
I178
I47
I80
tp1789
sg8
(lp1790
(I79
I87
tp1791
a(I34
I48
tp1792
a(I30
I71
tp1793
a(I59
I118
tp1794
a(I60
I82
tp1795
a(I3
I114
tp1796
a(I4
I50
tp1797
a(I85
I81
tp1798
a(I78
I118
tp1799
a(I66
I122
tp1800
a(I94
I79
tp1801
a(I51
I133
tp1802
a(I90
I82
tp1803
asg14
I200
sba(imain2
Polygon
p1804
(dp1805
g3
(I124
I18
tp1806
sg5
I200
sg6
(I60
I205
I234
I4
tp1807
sg8
(lp1808
(I104
I18
tp1809
a(I139
I0
tp1810
a(I97
I0
tp1811
a(I134
I22
tp1812
asg14
I200
sba(imain2
Polygon
p1813
(dp1814
g3
(I170
I179
tp1815
sg5
I200
sg6
(I141
I193
I58
I23
tp1816
sg8
(lp1817
(I170
I150
tp1818
a(I131
I200
tp1819
a(I128
I177
tp1820
a(I200
I129
tp1821
a(I200
I200
tp1822
a(I200
I200
tp1823
a(I147
I142
tp1824
asg14
I200
sba(imain2
Polygon
p1825
(dp1826
g3
(I93
I4
tp1827
sg5
I200
sg6
(I125
I129
I1
I148
tp1828
sg8
(lp1829
(I107
I0
tp1830
a(I51
I53
tp1831
a(I50
I0
tp1832
a(I57
I28
tp1833
a(I47
I35
tp1834
a(I62
I48
tp1835
a(I51
I52
tp1836
a(I106
I0
tp1837
asg14
I200
sba(imain2
Polygon
p1838
(dp1839
g3
(I33
I157
tp1840
sg5
I200
sg6
(I41
I120
I129
I1
tp1841
sg8
(lp1842
(I46
I107
tp1843
a(I36
I149
tp1844
a(I5
I192
tp1845
a(I68
I171
tp1846
a(I46
I175
tp1847
a(I36
I200
tp1848
a(I43
I145
tp1849
a(I9
I140
tp1850
a(I1
I120
tp1851
a(I52
I150
tp1852
asg14
I200
sba(imain2
Polygon
p1853
(dp1854
g3
(I91
I9
tp1855
sg5
I200
sg6
(I69
I184
I14
I14
tp1856
sg8
(lp1857
(I117
I56
tp1858
a(I135
I0
tp1859
a(I59
I54
tp1860
a(I135
I0
tp1861
a(I120
I0
tp1862
a(I73
I39
tp1863
a(I126
I20
tp1864
a(I118
I18
tp1865
a(I122
I0
tp1866
a(I51
I0
tp1867
asg14
I200
sba(imain2
Polygon
p1868
(dp1869
g3
(I50
I13
tp1870
sg5
I200
sg6
(I92
I179
I162
I131
tp1871
sg8
(lp1872
(I31
I61
tp1873
a(I18
I56
tp1874
a(I8
I0
tp1875
a(I44
I0
tp1876
a(I7
I0
tp1877
a(I82
I0
tp1878
asg14
I200
sba(imain2
Polygon
p1879
(dp1880
g3
(I157
I108
tp1881
sg5
I200
sg6
(I130
I121
I4
I109
tp1882
sg8
(lp1883
(I168
I137
tp1884
a(I108
I127
tp1885
a(I123
I82
tp1886
a(I178
I106
tp1887
a(I135
I90
tp1888
a(I108
I149
tp1889
a(I172
I125
tp1890
a(I193
I83
tp1891
a(I200
I120
tp1892
a(I184
I155
tp1893
a(I169
I149
tp1894
asg14
I200
sba(imain2
Polygon
p1895
(dp1896
g3
(I7
I150
tp1897
sg5
I200
sg6
(I180
I12
I58
I37
tp1898
sg8
(lp1899
(I20
I124
tp1900
a(I0
I142
tp1901
a(I0
I182
tp1902
a(I0
I115
tp1903
a(I0
I139
tp1904
a(I45
I176
tp1905
a(I0
I184
tp1906
a(I0
I137
tp1907
a(I0
I158
tp1908
a(I0
I114
tp1909
a(I0
I118
tp1910
asg14
I200
sba(imain2
Polygon
p1911
(dp1912
g3
(I89
I125
tp1913
sg5
I200
sg6
(I44
I0
I216
I34
tp1914
sg8
(lp1915
(I82
I163
tp1916
a(I51
I118
tp1917
a(I85
I142
tp1918
a(I89
I136
tp1919
a(I94
I142
tp1920
a(I76
I125
tp1921
a(I45
I157
tp1922
a(I124
I113
tp1923
a(I54
I146
tp1924
asg14
I200
sba(imain2
Polygon
p1925
(dp1926
g3
(I18
I178
tp1927
sg5
I200
sg6
(I90
I165
I42
I123
tp1928
sg8
(lp1929
(I34
I181
tp1930
a(I50
I200
tp1931
a(I0
I148
tp1932
a(I44
I200
tp1933
a(I43
I193
tp1934
a(I10
I175
tp1935
a(I21
I150
tp1936
a(I37
I176
tp1937
a(I23
I175
tp1938
asg14
I200
sba(imain2
Polygon
p1939
(dp1940
g3
(I81
I53
tp1941
sg5
I200
sg6
(I220
I84
I82
I0
tp1942
sg8
(lp1943
(I124
I82
tp1944
a(I80
I7
tp1945
a(I110
I69
tp1946
a(I129
I88
tp1947
a(I130
I38
tp1948
a(I60
I86
tp1949
a(I95
I100
tp1950
a(I128
I64
tp1951
a(I66
I43
tp1952
a(I64
I89
tp1953
asg14
I200
sba(imain2
Polygon
p1954
(dp1955
g3
(I117
I32
tp1956
sg5
I200
sg6
(I168
I186
I83
I1
tp1957
sg8
(lp1958
(I71
I5
tp1959
a(I154
I0
tp1960
a(I141
I16
tp1961
asg14
I200
sba(imain2
Polygon
p1962
(dp1963
g3
(I79
I140
tp1964
sg5
I200
sg6
(I227
I1
I161
I61
tp1965
sg8
(lp1966
(I108
I95
tp1967
a(I107
I173
tp1968
a(I83
I170
tp1969
a(I123
I97
tp1970
a(I103
I189
tp1971
a(I75
I159
tp1972
a(I115
I149
tp1973
a(I57
I96
tp1974
asg14
I200
sba(imain2
Polygon
p1975
(dp1976
g3
(I26
I4
tp1977
sg5
I200
sg6
(I198
I74
I73
I0
tp1978
sg8
(lp1979
(I49
I0
tp1980
a(I24
I51
tp1981
a(I49
I23
tp1982
a(I0
I14
tp1983
a(I61
I40
tp1984
a(I37
I9
tp1985
a(I24
I12
tp1986
a(I21
I0
tp1987
a(I33
I2
tp1988
asg14
I200
sba(imain2
Polygon
p1989
(dp1990
g3
(I15
I121
tp1991
sg5
I200
sg6
(I1
I223
I152
I1
tp1992
sg8
(lp1993
(I18
I90
tp1994
a(I33
I98
tp1995
a(I0
I90
tp1996
a(I35
I71
tp1997
a(I0
I74
tp1998
a(I18
I75
tp1999
a(I46
I142
tp2000
a(I0
I113
tp2001
a(I59
I105
tp2002
a(I0
I164
tp2003
a(I65
I135
tp2004
a(I8
I120
tp2005
a(I21
I162
tp2006
asg14
I200
sba(imain2
Polygon
p2007
(dp2008
g3
(I163
I195
tp2009
sg5
I200
sg6
(I13
I152
I194
I32
tp2010
sg8
(lp2011
(I127
I200
tp2012
a(I125
I198
tp2013
a(I168
I200
tp2014
a(I194
I161
tp2015
a(I157
I200
tp2016
a(I122
I197
tp2017
a(I187
I200
tp2018
a(I149
I200
tp2019
a(I152
I163
tp2020
a(I196
I200
tp2021
asg14
I200
sba(imain2
Polygon
p2022
(dp2023
g3
(I118
I106
tp2024
sg5
I200
sg6
(I10
I135
I125
I139
tp2025
sg8
(lp2026
(I132
I104
tp2027
a(I163
I65
tp2028
a(I102
I87
tp2029
a(I125
I104
tp2030
a(I126
I62
tp2031
a(I123
I91
tp2032
a(I151
I66
tp2033
a(I130
I116
tp2034
a(I124
I115
tp2035
asg14
I200
sba(imain2
Polygon
p2036
(dp2037
g3
(I56
I6
tp2038
sg5
I200
sg6
(I201
I3
I178
I1
tp2039
sg8
(lp2040
(I44
I38
tp2041
a(I66
I0
tp2042
a(I95
I24
tp2043
a(I31
I32
tp2044
a(I16
I0
tp2045
a(I36
I33
tp2046
a(I7
I45
tp2047
a(I19
I0
tp2048
asg14
I200
sba(imain2
Polygon
p2049
(dp2050
g3
(I174
I69
tp2051
sg5
I200
sg6
(I123
I39
I49
I120
tp2052
sg8
(lp2053
(I167
I52
tp2054
a(I200
I44
tp2055
a(I160
I53
tp2056
a(I181
I115
tp2057
a(I196
I88
tp2058
a(I156
I32
tp2059
a(I156
I28
tp2060
a(I126
I41
tp2061
a(I130
I103
tp2062
a(I140
I51
tp2063
a(I194
I93
tp2064
a(I130
I47
tp2065
a(I135
I43
tp2066
a(I183
I53
tp2067
asg14
I200
sba(imain2
Polygon
p2068
(dp2069
g3
(I0
I30
tp2070
sg5
I200
sg6
(I173
I44
I104
I1
tp2071
sg8
(lp2072
(I0
I38
tp2073
a(I8
I59
tp2074
a(I2
I0
tp2075
a(I0
I73
tp2076
a(I0
I57
tp2077
a(I0
I25
tp2078
a(I0
I70
tp2079
asg14
I200
sba(imain2
Polygon
p2080
(dp2081
g3
(I134
I58
tp2082
sg5
I200
sg6
(I243
I180
I119
I127
tp2083
sg8
(lp2084
(I179
I47
tp2085
a(I110
I8
tp2086
a(I156
I8
tp2087
a(I179
I9
tp2088
asg14
I200
sba(imain2
Polygon
p2089
(dp2090
g3
(I142
I75
tp2091
sg5
I200
sg6
(I201
I61
I195
I109
tp2092
sg8
(lp2093
(I158
I47
tp2094
a(I191
I83
tp2095
a(I154
I36
tp2096
a(I166
I53
tp2097
a(I185
I48
tp2098
asg14
I200
sba(imain2
Polygon
p2099
(dp2100
g3
(I129
I65
tp2101
sg5
I200
sg6
(I93
I3
I166
I154
tp2102
sg8
(lp2103
(I122
I61
tp2104
a(I155
I65
tp2105
a(I159
I47
tp2106
a(I159
I69
tp2107
asg14
I200
sba(imain2
Polygon
p2108
(dp2109
g3
(I163
I171
tp2110
sg5
I200
sg6
(I199
I13
I133
I0
tp2111
sg8
(lp2112
(I171
I200
tp2113
a(I127
I183
tp2114
a(I173
I133
tp2115
a(I192
I143
tp2116
a(I193
I148
tp2117
a(I181
I200
tp2118
a(I170
I142
tp2119
a(I191
I152
tp2120
a(I200
I139
tp2121
a(I189
I200
tp2122
a(I158
I151
tp2123
a(I128
I180
tp2124
a(I134
I200
tp2125
a(I142
I200
tp2126
a(I114
I197
tp2127
asg14
I200
sba(imain2
Polygon
p2128
(dp2129
g3
(I184
I20
tp2130
sg5
I200
sg6
(I214
I93
I229
I90
tp2131
sg8
(lp2132
(I200
I0
tp2133
a(I199
I14
tp2134
a(I199
I0
tp2135
a(I200
I69
tp2136
a(I186
I49
tp2137
a(I189
I63
tp2138
a(I152
I52
tp2139
a(I166
I14
tp2140
a(I148
I0
tp2141
a(I153
I0
tp2142
a(I168
I0
tp2143
asg14
I200
sba(imain2
Polygon
p2144
(dp2145
g3
(I145
I135
tp2146
sg5
I200
sg6
(I33
I44
I62
I63
tp2147
sg8
(lp2148
(I179
I134
tp2149
a(I173
I132
tp2150
a(I183
I129
tp2151
a(I135
I88
tp2152
a(I123
I105
tp2153
a(I110
I168
tp2154
asg14
I200
sba(imain2
Polygon
p2155
(dp2156
g3
(I64
I74
tp2157
sg5
I200
sg6
(I138
I211
I150
I1
tp2158
sg8
(lp2159
(I111
I67
tp2160
a(I74
I124
tp2161
a(I19
I47
tp2162
a(I101
I34
tp2163
asg14
I200
sba(imain2
Polygon
p2164
(dp2165
g3
(I82
I104
tp2166
sg5
I200
sg6
(I49
I157
I201
I0
tp2167
sg8
(lp2168
(I44
I108
tp2169
a(I109
I135
tp2170
a(I92
I142
tp2171
a(I106
I85
tp2172
a(I96
I127
tp2173
a(I114
I102
tp2174
a(I87
I71
tp2175
a(I84
I118
tp2176
a(I68
I150
tp2177
asg14
I200
sba(imain2
Polygon
p2178
(dp2179
g3
(I176
I51
tp2180
sg5
I200
sg6
(I115
I211
I87
I2
tp2181
sg8
(lp2182
(I200
I6
tp2183
a(I144
I17
tp2184
a(I182
I99
tp2185
asg14
I200
sba(imain2
Polygon
p2186
(dp2187
g3
(I18
I179
tp2188
sg5
I200
sg6
(I11
I100
I97
I61
tp2189
sg8
(lp2190
(I26
I200
tp2191
a(I0
I168
tp2192
a(I28
I187
tp2193
a(I0
I198
tp2194
a(I21
I200
tp2195
a(I65
I200
tp2196
a(I48
I200
tp2197
a(I19
I154
tp2198
asg14
I200
sba(imain2
Polygon
p2199
(dp2200
g3
(I112
I97
tp2201
sg5
I200
sg6
(I98
I201
I68
I75
tp2202
sg8
(lp2203
(I117
I118
tp2204
a(I70
I139
tp2205
a(I97
I92
tp2206
a(I106
I74
tp2207
a(I76
I136
tp2208
a(I71
I104
tp2209
a(I93
I140
tp2210
a(I73
I120
tp2211
a(I80
I61
tp2212
asg14
I200
sba(imain2
Polygon
p2213
(dp2214
g3
(I3
I120
tp2215
sg5
I200
sg6
(I62
I89
I148
I118
tp2216
sg8
(lp2217
(I0
I86
tp2218
a(I0
I74
tp2219
a(I0
I94
tp2220
a(I36
I85
tp2221
a(I43
I80
tp2222
asg14
I200
sba(imain2
Polygon
p2223
(dp2224
g3
(I7
I32
tp2225
sg5
I200
sg6
(I149
I33
I188
I1
tp2226
sg8
(lp2227
(I0
I72
tp2228
a(I0
I27
tp2229
a(I0
I45
tp2230
a(I0
I75
tp2231
a(I38
I59
tp2232
a(I16
I3
tp2233
a(I0
I0
tp2234
a(I0
I66
tp2235
a(I0
I19
tp2236
a(I49
I73
tp2237
a(I7
I43
tp2238
a(I0
I75
tp2239
a(I37
I19
tp2240
a(I28
I43
tp2241
asg14
I200
sba(imain2
Polygon
p2242
(dp2243
g3
(I166
I95
tp2244
sg5
I200
sg6
(I188
I7
I144
I164
tp2245
sg8
(lp2246
(I192
I50
tp2247
a(I200
I127
tp2248
a(I200
I60
tp2249
asg14
I200
sba(imain2
Polygon
p2250
(dp2251
g3
(I197
I92
tp2252
sg5
I200
sg6
(I119
I7
I30
I0
tp2253
sg8
(lp2254
(I173
I45
tp2255
a(I187
I50
tp2256
a(I200
I83
tp2257
a(I200
I108
tp2258
a(I158
I100
tp2259
a(I177
I79
tp2260
a(I183
I56
tp2261
a(I148
I59
tp2262
a(I200
I126
tp2263
a(I200
I105
tp2264
a(I195
I105
tp2265
a(I200
I42
tp2266
a(I200
I102
tp2267
asg14
I200
sba(imain2
Polygon
p2268
(dp2269
g3
(I167
I132
tp2270
sg5
I200
sg6
(I220
I57
I87
I0
tp2271
sg8
(lp2272
(I168
I159
tp2273
a(I134
I85
tp2274
a(I159
I107
tp2275
a(I134
I127
tp2276
a(I157
I157
tp2277
a(I200
I112
tp2278
a(I188
I122
tp2279
a(I141
I117
tp2280
a(I117
I113
tp2281
a(I170
I164
tp2282
a(I196
I136
tp2283
a(I177
I144
tp2284
asg14
I200
sba(imain2
Polygon
p2285
(dp2286
g3
(I2
I175
tp2287
sg5
I200
sg6
(I102
I198
I107
I1
tp2288
sg8
(lp2289
(I9
I136
tp2290
a(I0
I128
tp2291
a(I31
I200
tp2292
asg14
I200
sba(imain2
Polygon
p2293
(dp2294
g3
(I148
I121
tp2295
sg5
I200
sg6
(I130
I199
I134
I35
tp2296
sg8
(lp2297
(I121
I139
tp2298
a(I118
I71
tp2299
a(I101
I103
tp2300
a(I128
I125
tp2301
a(I137
I105
tp2302
asg14
I200
sba(imain2
Polygon
p2303
(dp2304
g3
(I26
I154
tp2305
sg5
I200
sg6
(I144
I67
I227
I51
tp2306
sg8
(lp2307
(I35
I156
tp2308
a(I0
I196
tp2309
a(I20
I154
tp2310
asg14
I200
sba(imain2
Polygon
p2311
(dp2312
g3
(I188
I60
tp2313
sg5
I200
sg6
(I25
I82
I8
I68
tp2314
sg8
(lp2315
(I200
I59
tp2316
a(I148
I100
tp2317
a(I139
I27
tp2318
a(I200
I88
tp2319
a(I200
I73
tp2320
a(I200
I37
tp2321
a(I200
I80
tp2322
a(I200
I53
tp2323
a(I200
I42
tp2324
asg14
I200
sba(imain2
Polygon
p2325
(dp2326
g3
(I29
I0
tp2327
sg5
I200
sg6
(I202
I203
I9
I107
tp2328
sg8
(lp2329
(I77
I0
tp2330
a(I0
I0
tp2331
a(I50
I36
tp2332
a(I45
I18
tp2333
a(I61
I0
tp2334
a(I0
I0
tp2335
a(I0
I50
tp2336
a(I70
I50
tp2337
a(I0
I0
tp2338
a(I0
I0
tp2339
a(I62
I0
tp2340
a(I74
I14
tp2341
a(I36
I44
tp2342
a(I51
I8
tp2343
asg14
I200
sba(imain2
Polygon
p2344
(dp2345
g3
(I92
I198
tp2346
sg5
I200
sg6
(I141
I4
I14
I86
tp2347
sg8
(lp2348
(I74
I200
tp2349
a(I95
I158
tp2350
a(I104
I191
tp2351
a(I90
I200
tp2352
a(I119
I200
tp2353
a(I54
I157
tp2354
a(I99
I200
tp2355
a(I90
I200
tp2356
a(I108
I179
tp2357
asg14
I200
sba(imain2
Polygon
p2358
(dp2359
g3
(I149
I42
tp2360
sg5
I200
sg6
(I91
I16
I57
I68
tp2361
sg8
(lp2362
(I145
I16
tp2363
a(I99
I9
tp2364
a(I126
I90
tp2365
a(I167
I91
tp2366
a(I156
I44
tp2367
a(I135
I17
tp2368
a(I145
I8
tp2369
a(I113
I48
tp2370
a(I119
I35
tp2371
asg14
I200
sba(imain2
Polygon
p2372
(dp2373
g3
(I18
I189
tp2374
sg5
I200
sg6
(I71
I8
I171
I1
tp2375
sg8
(lp2376
(I0
I141
tp2377
a(I50
I142
tp2378
a(I47
I153
tp2379
a(I11
I160
tp2380
a(I0
I200
tp2381
a(I60
I200
tp2382
a(I0
I200
tp2383
a(I41
I199
tp2384
a(I56
I146
tp2385
a(I55
I200
tp2386
a(I31
I197
tp2387
a(I51
I200
tp2388
a(I52
I161
tp2389
a(I23
I182
tp2390
a(I0
I170
tp2391
a(I64
I164
tp2392
asg14
I200
sba(imain2
Polygon
p2393
(dp2394
g3
(I88
I199
tp2395
sg5
I200
sg6
(I16
I199
I81
I100
tp2396
sg8
(lp2397
(I125
I200
tp2398
a(I39
I200
tp2399
a(I136
I200
tp2400
a(I103
I197
tp2401
a(I136
I200
tp2402
a(I60
I200
tp2403
a(I84
I200
tp2404
a(I62
I200
tp2405
a(I136
I200
tp2406
a(I47
I200
tp2407
asg14
I200
sba(imain2
Polygon
p2408
(dp2409
g3
(I57
I178
tp2410
sg5
I200
sg6
(I22
I121
I164
I1
tp2411
sg8
(lp2412
(I96
I196
tp2413
a(I20
I200
tp2414
a(I55
I131
tp2415
a(I69
I128
tp2416
asg14
I200
sba(imain2
Polygon
p2417
(dp2418
g3
(I192
I63
tp2419
sg5
I200
sg6
(I116
I242
I124
I116
tp2420
sg8
(lp2421
(I200
I102
tp2422
a(I200
I19
tp2423
a(I200
I28
tp2424
a(I182
I49
tp2425
a(I142
I25
tp2426
a(I193
I97
tp2427
a(I161
I50
tp2428
a(I175
I96
tp2429
a(I183
I98
tp2430
asg14
I200
sba(imain2
Polygon
p2431
(dp2432
g3
(I115
I149
tp2433
sg5
I200
sg6
(I107
I197
I240
I13
tp2434
sg8
(lp2435
(I69
I124
tp2436
a(I146
I129
tp2437
a(I122
I123
tp2438
a(I67
I152
tp2439
a(I89
I102
tp2440
a(I94
I115
tp2441
a(I71
I108
tp2442
a(I84
I110
tp2443
a(I103
I101
tp2444
a(I65
I179
tp2445
asg14
I200
sba(imain2
Polygon
p2446
(dp2447
g3
(I89
I107
tp2448
sg5
I200
sg6
(I31
I12
I112
I127
tp2449
sg8
(lp2450
(I60
I119
tp2451
a(I106
I149
tp2452
a(I130
I113
tp2453
a(I96
I87
tp2454
a(I129
I120
tp2455
a(I136
I145
tp2456
asg14
I200
sba(imain2
Polygon
p2457
(dp2458
g3
(I87
I130
tp2459
sg5
I200
sg6
(I168
I110
I151
I1
tp2460
sg8
(lp2461
(I110
I147
tp2462
a(I128
I170
tp2463
a(I101
I179
tp2464
a(I54
I134
tp2465
a(I132
I110
tp2466
a(I74
I131
tp2467
a(I55
I149
tp2468
a(I54
I141
tp2469
a(I87
I159
tp2470
a(I106
I157
tp2471
a(I72
I107
tp2472
asg14
I200
sba(imain2
Polygon
p2473
(dp2474
g3
(I62
I187
tp2475
sg5
I200
sg6
(I112
I16
I178
I72
tp2476
sg8
(lp2477
(I29
I200
tp2478
a(I22
I200
tp2479
a(I97
I198
tp2480
a(I38
I200
tp2481
a(I17
I200
tp2482
a(I77
I200
tp2483
a(I58
I183
tp2484
a(I66
I189
tp2485
a(I65
I200
tp2486
a(I71
I200
tp2487
a(I30
I200
tp2488
a(I80
I182
tp2489
asg14
I200
sba(imain2
Polygon
p2490
(dp2491
g3
(I59
I26
tp2492
sg5
I200
sg6
(I63
I8
I239
I1
tp2493
sg8
(lp2494
(I14
I33
tp2495
a(I79
I49
tp2496
a(I13
I0
tp2497
a(I81
I0
tp2498
a(I33
I0
tp2499
a(I101
I6
tp2500
a(I92
I63
tp2501
a(I104
I10
tp2502
a(I102
I70
tp2503
asg14
I200
sba(imain2
Polygon
p2504
(dp2505
g3
(I74
I59
tp2506
sg5
I200
sg6
(I1
I49
I106
I0
tp2507
sg8
(lp2508
(I24
I97
tp2509
a(I67
I71
tp2510
a(I123
I50
tp2511
a(I58
I23
tp2512
a(I121
I75
tp2513
a(I79
I79
tp2514
a(I59
I94
tp2515
a(I93
I96
tp2516
a(I32
I27
tp2517
asg14
I200
sba(imain2
Polygon
p2518
(dp2519
g3
(I141
I175
tp2520
sg5
I200
sg6
(I88
I38
I13
I1
tp2521
sg8
(lp2522
(I138
I168
tp2523
a(I163
I150
tp2524
a(I130
I150
tp2525
a(I149
I186
tp2526
a(I118
I200
tp2527
a(I173
I200
tp2528
a(I102
I200
tp2529
a(I183
I174
tp2530
a(I155
I171
tp2531
a(I170
I198
tp2532
a(I114
I174
tp2533
a(I146
I186
tp2534
a(I185
I145
tp2535
a(I103
I137
tp2536
a(I180
I193
tp2537
a(I156
I182
tp2538
a(I167
I146
tp2539
a(I103
I195
tp2540
a(I191
I161
tp2541
asg14
I200
sba(imain2
Polygon
p2542
(dp2543
g3
(I114
I81
tp2544
sg5
I200
sg6
(I236
I19
I199
I94
tp2545
sg8
(lp2546
(I121
I101
tp2547
a(I107
I74
tp2548
a(I79
I35
tp2549
a(I125
I101
tp2550
a(I114
I100
tp2551
asg14
I200
sba(imain2
Polygon
p2552
(dp2553
g3
(I191
I128
tp2554
sg5
I200
sg6
(I244
I3
I245
I24
tp2555
sg8
(lp2556
(I156
I149
tp2557
a(I144
I170
tp2558
a(I190
I78
tp2559
a(I200
I164
tp2560
a(I200
I109
tp2561
a(I182
I162
tp2562
a(I187
I85
tp2563
asg14
I200
sba(imain2
Polygon
p2564
(dp2565
g3
(I40
I13
tp2566
sg5
I200
sg6
(I72
I182
I122
I0
tp2567
sg8
(lp2568
(I24
I51
tp2569
a(I0
I0
tp2570
a(I70
I22
tp2571
a(I16
I43
tp2572
a(I55
I27
tp2573
a(I31
I22
tp2574
a(I35
I57
tp2575
a(I26
I0
tp2576
a(I0
I0
tp2577
a(I40
I20
tp2578
a(I33
I50
tp2579
a(I30
I0
tp2580
a(I61
I0
tp2581
a(I4
I0
tp2582
a(I21
I31
tp2583
a(I46
I57
tp2584
a(I74
I32
tp2585
asg14
I200
sba(imain2
Polygon
p2586
(dp2587
g3
(I50
I145
tp2588
sg5
I200
sg6
(I57
I215
I127
I35
tp2589
sg8
(lp2590
(I65
I143
tp2591
a(I98
I163
tp2592
a(I98
I131
tp2593
a(I72
I108
tp2594
a(I67
I147
tp2595
a(I19
I190
tp2596
asg14
I200
sba(imain2
Polygon
p2597
(dp2598
g3
(I184
I69
tp2599
sg5
I200
sg6
(I124
I136
I36
I154
tp2600
sg8
(lp2601
(I193
I79
tp2602
a(I200
I86
tp2603
a(I200
I69
tp2604
a(I200
I31
tp2605
a(I200
I33
tp2606
a(I200
I67
tp2607
a(I164
I71
tp2608
a(I174
I114
tp2609
a(I200
I115
tp2610
a(I200
I101
tp2611
a(I195
I79
tp2612
asg14
I200
sba(imain2
Polygon
p2613
(dp2614
g3
(I6
I29
tp2615
sg5
I200
sg6
(I138
I36
I216
I1
tp2616
sg8
(lp2617
(I0
I65
tp2618
a(I0
I40
tp2619
a(I0
I41
tp2620
a(I0
I0
tp2621
a(I51
I0
tp2622
a(I39
I6
tp2623
a(I40
I50
tp2624
asg14
I200
sba(imain2
Polygon
p2625
(dp2626
g3
(I100
I197
tp2627
sg5
I200
sg6
(I30
I136
I61
I86
tp2628
sg8
(lp2629
(I110
I198
tp2630
a(I79
I200
tp2631
a(I50
I198
tp2632
a(I85
I200
tp2633
a(I74
I200
tp2634
a(I67
I200
tp2635
a(I63
I200
tp2636
asg14
I200
sba(imain2
Polygon
p2637
(dp2638
g3
(I102
I67
tp2639
sg5
I200
sg6
(I110
I66
I88
I1
tp2640
sg8
(lp2641
(I83
I42
tp2642
a(I72
I20
tp2643
a(I59
I86
tp2644
a(I119
I111
tp2645
a(I149
I22
tp2646
a(I134
I38
tp2647
a(I120
I94
tp2648
a(I152
I68
tp2649
a(I147
I53
tp2650
a(I64
I112
tp2651
asg14
I200
sba(imain2
Polygon
p2652
(dp2653
g3
(I91
I124
tp2654
sg5
I200
sg6
(I168
I67
I9
I138
tp2655
sg8
(lp2656
(I41
I114
tp2657
a(I80
I127
tp2658
a(I75
I116
tp2659
a(I83
I75
tp2660
a(I119
I114
tp2661
a(I111
I171
tp2662
a(I45
I142
tp2663
a(I66
I81
tp2664
a(I119
I80
tp2665
a(I141
I130
tp2666
a(I81
I119
tp2667
a(I76
I76
tp2668
a(I54
I89
tp2669
a(I76
I94
tp2670
asg14
I200
sba(imain2
Polygon
p2671
(dp2672
g3
(I133
I74
tp2673
sg5
I200
sg6
(I15
I175
I92
I1
tp2674
sg8
(lp2675
(I93
I104
tp2676
a(I179
I62
tp2677
a(I134
I83
tp2678
a(I183
I70
tp2679
a(I157
I110
tp2680
a(I160
I70
tp2681
a(I100
I99
tp2682
a(I126
I48
tp2683
a(I113
I112
tp2684
a(I133
I91
tp2685
a(I156
I95
tp2686
a(I133
I83
tp2687
a(I96
I88
tp2688
a(I168
I32
tp2689
a(I171
I91
tp2690
a(I140
I45
tp2691
asg14
I200
sba(imain2
Polygon
p2692
(dp2693
g3
(I181
I185
tp2694
sg5
I200
sg6
(I0
I137
I62
I25
tp2695
sg8
(lp2696
(I192
I200
tp2697
a(I200
I200
tp2698
a(I200
I199
tp2699
asg14
I200
sba(imain2
Polygon
p2700
(dp2701
g3
(I3
I9
tp2702
sg5
I200
sg6
(I115
I15
I44
I135
tp2703
sg8
(lp2704
(I0
I0
tp2705
a(I31
I0
tp2706
a(I0
I0
tp2707
asg14
I200
sba(imain2
Polygon
p2708
(dp2709
g3
(I154
I22
tp2710
sg5
I200
sg6
(I81
I181
I132
I0
tp2711
sg8
(lp2712
(I194
I10
tp2713
a(I127
I43
tp2714
a(I184
I0
tp2715
a(I181
I0
tp2716
asg14
I200
sba(imain2
Polygon
p2717
(dp2718
g3
(I3
I51
tp2719
sg5
I200
sg6
(I11
I168
I13
I56
tp2720
sg8
(lp2721
(I0
I44
tp2722
a(I0
I78
tp2723
a(I0
I74
tp2724
asg14
I200
sba(imain2
Polygon
p2725
(dp2726
g3
(I183
I123
tp2727
sg5
I200
sg6
(I44
I172
I189
I109
tp2728
sg8
(lp2729
(I200
I171
tp2730
a(I200
I140
tp2731
a(I200
I98
tp2732
a(I200
I85
tp2733
asg14
I200
sba.