(lp0
(imain2
Polygon
p1
(dp2
S'origin'
p3
(I100
I102
tp4
sS'h'
p5
I200
sS'color'
p6
(I136
I174
I192
I0
tp7
sS'corner_list'
p8
(lp9
(I106
I138
tp10
a(I136
I89
tp11
a(I102
I68
tp12
a(I90
I128
tp13
a(I90
I135
tp14
asS'w'
p15
I200
sba(imain2
Polygon
p16
(dp17
g3
(I142
I122
tp18
sg5
I200
sg6
(I21
I220
I130
I47
tp19
sg8
(lp20
(I121
I81
tp21
a(I95
I104
tp22
a(I106
I160
tp23
a(I155
I132
tp24
a(I109
I157
tp25
a(I93
I95
tp26
a(I119
I85
tp27
a(I188
I130
tp28
a(I172
I99
tp29
a(I115
I113
tp30
a(I136
I104
tp31
a(I134
I86
tp32
a(I120
I122
tp33
asg15
I200
sba(imain2
Polygon
p34
(dp35
g3
(I39
I24
tp36
sg5
I200
sg6
(I242
I164
I201
I0
tp37
sg8
(lp38
(I68
I69
tp39
a(I20
I46
tp40
a(I84
I0
tp41
a(I8
I21
tp42
a(I30
I10
tp43
a(I27
I74
tp44
a(I19
I48
tp45
a(I88
I48
tp46
a(I12
I49
tp47
asg15
I200
sba(imain2
Polygon
p48
(dp49
g3
(I87
I73
tp50
sg5
I200
sg6
(I160
I20
I200
I107
tp51
sg8
(lp52
(I103
I121
tp53
a(I130
I63
tp54
a(I82
I102
tp55
a(I73
I83
tp56
a(I62
I99
tp57
a(I56
I110
tp58
a(I69
I36
tp59
a(I64
I117
tp60
a(I47
I56
tp61
a(I41
I24
tp62
a(I111
I50
tp63
a(I84
I59
tp64
a(I128
I91
tp65
a(I102
I93
tp66
a(I37
I92
tp67
asg15
I200
sba(imain2
Polygon
p68
(dp69
g3
(I75
I185
tp70
sg5
I200
sg6
(I72
I1
I91
I101
tp71
sg8
(lp72
(I90
I200
tp73
a(I125
I163
tp74
a(I123
I140
tp75
a(I120
I200
tp76
a(I72
I200
tp77
a(I68
I195
tp78
a(I98
I174
tp79
asg15
I200
sba(imain2
Polygon
p80
(dp81
g3
(I51
I161
tp82
sg5
I200
sg6
(I131
I134
I18
I110
tp83
sg8
(lp84
(I86
I200
tp85
a(I55
I200
tp86
a(I89
I191
tp87
asg15
I200
sba(imain2
Polygon
p88
(dp89
g3
(I76
I107
tp90
sg5
I200
sg6
(I159
I40
I205
I130
tp91
sg8
(lp92
(I97
I129
tp93
a(I40
I71
tp94
a(I104
I92
tp95
a(I46
I105
tp96
a(I106
I86
tp97
a(I107
I154
tp98
a(I53
I141
tp99
a(I48
I92
tp100
a(I101
I62
tp101
a(I76
I59
tp102
a(I81
I137
tp103
a(I87
I117
tp104
asg15
I200
sba(imain2
Polygon
p105
(dp106
g3
(I79
I45
tp107
sg5
I200
sg6
(I224
I3
I244
I0
tp108
sg8
(lp109
(I103
I54
tp110
a(I83
I20
tp111
a(I73
I50
tp112
a(I55
I45
tp113
a(I102
I24
tp114
asg15
I200
sba(imain2
Polygon
p115
(dp116
g3
(I123
I186
tp117
sg5
I200
sg6
(I51
I18
I44
I0
tp118
sg8
(lp119
(I111
I145
tp120
a(I148
I200
tp121
a(I113
I143
tp122
a(I134
I143
tp123
a(I86
I200
tp124
asg15
I200
sba(imain2
Polygon
p125
(dp126
g3
(I74
I162
tp127
sg5
I200
sg6
(I155
I96
I213
I1
tp128
sg8
(lp129
(I103
I155
tp130
a(I25
I113
tp131
a(I66
I200
tp132
a(I65
I127
tp133
a(I77
I135
tp134
a(I49
I146
tp135
a(I100
I178
tp136
a(I46
I190
tp137
a(I90
I185
tp138
a(I112
I160
tp139
a(I93
I147
tp140
a(I101
I178
tp141
a(I69
I150
tp142
a(I67
I190
tp143
a(I33
I151
tp144
asg15
I200
sba(imain2
Polygon
p145
(dp146
g3
(I64
I120
tp147
sg5
I200
sg6
(I236
I41
I174
I1
tp148
sg8
(lp149
(I52
I110
tp150
a(I20
I135
tp151
a(I96
I124
tp152
a(I59
I111
tp153
a(I35
I139
tp154
a(I105
I141
tp155
asg15
I200
sba(imain2
Polygon
p156
(dp157
g3
(I2
I37
tp158
sg5
I200
sg6
(I135
I135
I101
I120
tp159
sg8
(lp160
(I0
I0
tp161
a(I36
I34
tp162
a(I40
I0
tp163
a(I20
I35
tp164
a(I0
I66
tp165
a(I41
I3
tp166
a(I36
I68
tp167
a(I4
I86
tp168
a(I0
I74
tp169
a(I0
I85
tp170
asg15
I200
sba(imain2
Polygon
p171
(dp172
g3
(I161
I116
tp173
sg5
I200
sg6
(I153
I95
I115
I70
tp174
sg8
(lp175
(I200
I142
tp176
a(I132
I143
tp177
a(I200
I152
tp178
a(I168
I90
tp179
a(I170
I71
tp180
a(I163
I108
tp181
a(I194
I136
tp182
a(I176
I87
tp183
asg15
I200
sba(imain2
Polygon
p184
(dp185
g3
(I171
I44
tp186
sg5
I200
sg6
(I135
I237
I106
I124
tp187
sg8
(lp188
(I200
I15
tp189
a(I152
I40
tp190
a(I200
I89
tp191
a(I200
I0
tp192
a(I132
I0
tp193
a(I134
I87
tp194
a(I133
I52
tp195
a(I161
I77
tp196
a(I200
I93
tp197
a(I143
I0
tp198
a(I170
I71
tp199
a(I148
I77
tp200
a(I125
I35
tp201
a(I169
I18
tp202
a(I135
I44
tp203
asg15
I200
sba(imain2
Polygon
p204
(dp205
g3
(I196
I163
tp206
sg5
I200
sg6
(I40
I168
I7
I40
tp207
sg8
(lp208
(I200
I176
tp209
a(I200
I197
tp210
a(I200
I133
tp211
a(I190
I199
tp212
a(I193
I170
tp213
a(I200
I141
tp214
a(I155
I170
tp215
a(I200
I182
tp216
a(I198
I171
tp217
a(I200
I143
tp218
a(I170
I173
tp219
a(I179
I115
tp220
a(I171
I129
tp221
asg15
I200
sba(imain2
Polygon
p222
(dp223
g3
(I123
I35
tp224
sg5
I200
sg6
(I146
I63
I72
I1
tp225
sg8
(lp226
(I150
I83
tp227
a(I132
I75
tp228
a(I86
I0
tp229
a(I162
I30
tp230
a(I87
I21
tp231
a(I90
I72
tp232
a(I170
I85
tp233
a(I120
I36
tp234
a(I89
I17
tp235
asg15
I200
sba(imain2
Polygon
p236
(dp237
g3
(I38
I152
tp238
sg5
I200
sg6
(I95
I166
I36
I145
tp239
sg8
(lp240
(I87
I136
tp241
a(I79
I127
tp242
a(I49
I126
tp243
a(I73
I158
tp244
asg15
I200
sba(imain2
Polygon
p245
(dp246
g3
(I118
I157
tp247
sg5
I200
sg6
(I89
I63
I45
I1
tp248
sg8
(lp249
(I75
I131
tp250
a(I151
I109
tp251
a(I115
I173
tp252
a(I132
I200
tp253
asg15
I200
sba(imain2
Polygon
p254
(dp255
g3
(I10
I175
tp256
sg5
I200
sg6
(I175
I55
I62
I33
tp257
sg8
(lp258
(I0
I200
tp259
a(I44
I200
tp260
a(I0
I200
tp261
a(I0
I168
tp262
a(I50
I183
tp263
a(I0
I200
tp264
asg15
I200
sba(imain2
Polygon
p265
(dp266
g3
(I4
I131
tp267
sg5
I200
sg6
(I124
I53
I63
I1
tp268
sg8
(lp269
(I10
I162
tp270
a(I25
I135
tp271
a(I24
I104
tp272
a(I29
I157
tp273
a(I0
I148
tp274
a(I0
I167
tp275
a(I0
I99
tp276
a(I18
I159
tp277
a(I9
I89
tp278
a(I0
I119
tp279
a(I20
I147
tp280
a(I0
I164
tp281
a(I8
I101
tp282
a(I0
I97
tp283
a(I40
I164
tp284
asg15
I200
sba(imain2
Polygon
p285
(dp286
g3
(I75
I51
tp287
sg5
I200
sg6
(I104
I198
I0
I19
tp288
sg8
(lp289
(I92
I83
tp290
a(I87
I78
tp291
a(I121
I74
tp292
a(I59
I24
tp293
a(I105
I56
tp294
a(I97
I32
tp295
a(I32
I21
tp296
asg15
I200
sba(imain2
Polygon
p297
(dp298
g3
(I18
I101
tp299
sg5
I200
sg6
(I0
I13
I72
I66
tp300
sg8
(lp301
(I28
I94
tp302
a(I0
I132
tp303
a(I0
I79
tp304
a(I5
I78
tp305
a(I4
I107
tp306
asg15
I200
sba(imain2
Polygon
p307
(dp308
g3
(I97
I199
tp309
sg5
I200
sg6
(I0
I110
I46
I132
tp310
sg8
(lp311
(I133
I197
tp312
a(I61
I200
tp313
a(I131
I200
tp314
a(I104
I200
tp315
a(I84
I200
tp316
a(I146
I200
tp317
a(I121
I200
tp318
a(I132
I189
tp319
a(I97
I158
tp320
a(I87
I180
tp321
a(I69
I200
tp322
a(I87
I171
tp323
a(I99
I160
tp324
asg15
I200
sba(imain2
Polygon
p325
(dp326
g3
(I102
I104
tp327
sg5
I200
sg6
(I220
I126
I131
I79
tp328
sg8
(lp329
(I105
I151
tp330
a(I105
I63
tp331
a(I59
I58
tp332
a(I57
I131
tp333
a(I74
I153
tp334
asg15
I200
sba(imain2
Polygon
p335
(dp336
g3
(I177
I176
tp337
sg5
I200
sg6
(I113
I207
I217
I55
tp338
sg8
(lp339
(I200
I138
tp340
a(I176
I126
tp341
a(I200
I200
tp342
asg15
I200
sba(imain2
Polygon
p343
(dp344
g3
(I99
I27
tp345
sg5
I200
sg6
(I74
I85
I0
I114
tp346
sg8
(lp347
(I134
I72
tp348
a(I53
I0
tp349
a(I97
I73
tp350
asg15
I200
sba(imain2
Polygon
p351
(dp352
g3
(I138
I156
tp353
sg5
I200
sg6
(I20
I59
I188
I1
tp354
sg8
(lp355
(I109
I162
tp356
a(I160
I180
tp357
a(I141
I197
tp358
a(I111
I148
tp359
a(I182
I117
tp360
asg15
I200
sba(imain2
Polygon
p361
(dp362
g3
(I100
I129
tp363
sg5
I200
sg6
(I113
I218
I221
I1
tp364
sg8
(lp365
(I84
I92
tp366
a(I101
I88
tp367
a(I85
I111
tp368
asg15
I200
sba(imain2
Polygon
p369
(dp370
g3
(I90
I2
tp371
sg5
I200
sg6
(I196
I195
I3
I6
tp372
sg8
(lp373
(I116
I0
tp374
a(I109
I43
tp375
a(I122
I0
tp376
a(I49
I48
tp377
a(I90
I51
tp378
a(I62
I0
tp379
a(I60
I1
tp380
a(I89
I0
tp381
a(I107
I0
tp382
asg15
I200
sba(imain2
Polygon
p383
(dp384
g3
(I76
I49
tp385
sg5
I200
sg6
(I246
I166
I178
I106
tp386
sg8
(lp387
(I45
I72
tp388
a(I62
I34
tp389
a(I99
I36
tp390
a(I124
I78
tp391
a(I91
I88
tp392
a(I47
I82
tp393
asg15
I200
sba(imain2
Polygon
p394
(dp395
g3
(I135
I193
tp396
sg5
I200
sg6
(I204
I201
I64
I1
tp397
sg8
(lp398
(I100
I154
tp399
a(I177
I200
tp400
a(I146
I155
tp401
a(I91
I200
tp402
a(I178
I191
tp403
a(I164
I200
tp404
a(I129
I171
tp405
a(I119
I183
tp406
asg15
I200
sba(imain2
Polygon
p407
(dp408
g3
(I156
I197
tp409
sg5
I200
sg6
(I79
I234
I83
I15
tp410
sg8
(lp411
(I183
I162
tp412
a(I198
I200
tp413
a(I122
I200
tp414
a(I110
I200
tp415
a(I167
I158
tp416
asg15
I200
sba(imain2
Polygon
p417
(dp418
g3
(I159
I95
tp419
sg5
I200
sg6
(I164
I26
I16
I1
tp420
sg8
(lp421
(I121
I79
tp422
a(I198
I135
tp423
a(I123
I72
tp424
a(I200
I98
tp425
a(I116
I98
tp426
a(I151
I123
tp427
a(I161
I108
tp428
asg15
I200
sba(imain2
Polygon
p429
(dp430
g3
(I130
I187
tp431
sg5
I200
sg6
(I178
I73
I86
I77
tp432
sg8
(lp433
(I138
I200
tp434
a(I152
I194
tp435
a(I100
I200
tp436
a(I168
I192
tp437
a(I148
I200
tp438
a(I96
I145
tp439
a(I90
I200
tp440
asg15
I200
sba(imain2
Polygon
p441
(dp442
g3
(I56
I194
tp443
sg5
I200
sg6
(I192
I173
I5
I46
tp444
sg8
(lp445
(I6
I200
tp446
a(I26
I200
tp447
a(I15
I171
tp448
a(I36
I176
tp449
a(I8
I172
tp450
a(I23
I200
tp451
a(I6
I200
tp452
a(I27
I200
tp453
asg15
I200
sba(imain2
Polygon
p454
(dp455
g3
(I180
I160
tp456
sg5
I200
sg6
(I31
I41
I109
I68
tp457
sg8
(lp458
(I192
I143
tp459
a(I162
I139
tp460
a(I184
I129
tp461
a(I200
I147
tp462
a(I196
I176
tp463
a(I200
I161
tp464
a(I197
I200
tp465
a(I161
I136
tp466
asg15
I200
sba(imain2
Polygon
p467
(dp468
g3
(I12
I87
tp469
sg5
I200
sg6
(I50
I131
I182
I15
tp470
sg8
(lp471
(I0
I89
tp472
a(I0
I54
tp473
a(I22
I67
tp474
a(I0
I109
tp475
a(I0
I82
tp476
a(I8
I123
tp477
a(I0
I82
tp478
a(I1
I124
tp479
asg15
I200
sba(imain2
Polygon
p480
(dp481
g3
(I123
I91
tp482
sg5
I200
sg6
(I233
I1
I184
I73
tp483
sg8
(lp484
(I93
I69
tp485
a(I117
I112
tp486
a(I124
I58
tp487
a(I77
I102
tp488
a(I122
I119
tp489
asg15
I200
sba(imain2
Polygon
p490
(dp491
g3
(I80
I122
tp492
sg5
I200
sg6
(I220
I176
I140
I81
tp493
sg8
(lp494
(I116
I143
tp495
a(I129
I85
tp496
a(I44
I101
tp497
a(I75
I158
tp498
asg15
I200
sba(imain2
Polygon
p499
(dp500
g3
(I119
I156
tp501
sg5
I200
sg6
(I125
I216
I195
I50
tp502
sg8
(lp503
(I96
I178
tp504
a(I141
I200
tp505
a(I121
I144
tp506
a(I90
I178
tp507
a(I70
I199
tp508
a(I133
I200
tp509
a(I69
I119
tp510
a(I111
I144
tp511
a(I86
I137
tp512
asg15
I200
sba(imain2
Polygon
p513
(dp514
g3
(I66
I96
tp515
sg5
I200
sg6
(I109
I73
I64
I115
tp516
sg8
(lp517
(I24
I133
tp518
a(I20
I88
tp519
a(I24
I60
tp520
a(I64
I124
tp521
a(I72
I129
tp522
a(I100
I145
tp523
a(I30
I82
tp524
a(I36
I114
tp525
asg15
I200
sba(imain2
Polygon
p526
(dp527
g3
(I17
I178
tp528
sg5
I200
sg6
(I82
I67
I14
I0
tp529
sg8
(lp530
(I0
I175
tp531
a(I0
I200
tp532
a(I0
I160
tp533
a(I0
I168
tp534
a(I23
I164
tp535
a(I34
I135
tp536
a(I5
I195
tp537
a(I0
I128
tp538
a(I24
I133
tp539
asg15
I200
sba(imain2
Polygon
p540
(dp541
g3
(I196
I157
tp542
sg5
I200
sg6
(I27
I207
I68
I0
tp543
sg8
(lp544
(I148
I153
tp545
a(I200
I130
tp546
a(I158
I111
tp547
a(I200
I195
tp548
a(I200
I149
tp549
a(I200
I120
tp550
a(I188
I123
tp551
a(I200
I168
tp552
a(I189
I185
tp553
a(I165
I144
tp554
a(I168
I182
tp555
a(I197
I138
tp556
a(I200
I174
tp557
a(I200
I134
tp558
a(I200
I166
tp559
a(I163
I117
tp560
a(I155
I146
tp561
a(I200
I140
tp562
asg15
I200
sba(imain2
Polygon
p563
(dp564
g3
(I7
I138
tp565
sg5
I200
sg6
(I209
I110
I10
I1
tp566
sg8
(lp567
(I32
I187
tp568
a(I54
I125
tp569
a(I14
I188
tp570
a(I0
I163
tp571
a(I11
I151
tp572
a(I0
I88
tp573
a(I14
I121
tp574
a(I37
I159
tp575
a(I0
I119
tp576
a(I17
I157
tp577
a(I29
I156
tp578
a(I15
I108
tp579
a(I0
I141
tp580
asg15
I200
sba(imain2
Polygon
p581
(dp582
g3
(I49
I75
tp583
sg5
I200
sg6
(I118
I229
I17
I31
tp584
sg8
(lp585
(I76
I115
tp586
a(I96
I95
tp587
a(I72
I90
tp588
a(I38
I118
tp589
a(I35
I74
tp590
a(I91
I46
tp591
a(I31
I41
tp592
a(I75
I88
tp593
a(I33
I106
tp594
a(I0
I118
tp595
a(I3
I64
tp596
a(I8
I49
tp597
a(I41
I49
tp598
a(I47
I83
tp599
asg15
I200
sba(imain2
Polygon
p600
(dp601
g3
(I75
I73
tp602
sg5
I200
sg6
(I161
I134
I136
I145
tp603
sg8
(lp604
(I108
I39
tp605
a(I122
I103
tp606
a(I56
I97
tp607
a(I62
I34
tp608
asg15
I200
sba(imain2
Polygon
p609
(dp610
g3
(I82
I103
tp611
sg5
I200
sg6
(I96
I97
I61
I1
tp612
sg8
(lp613
(I120
I107
tp614
a(I85
I103
tp615
a(I63
I125
tp616
a(I105
I62
tp617
a(I112
I100
tp618
a(I87
I68
tp619
a(I82
I106
tp620
a(I59
I68
tp621
a(I131
I64
tp622
a(I107
I93
tp623
a(I84
I100
tp624
a(I60
I69
tp625
a(I71
I97
tp626
a(I114
I87
tp627
a(I41
I99
tp628
a(I93
I107
tp629
a(I105
I53
tp630
a(I78
I116
tp631
a(I33
I114
tp632
a(I54
I64
tp633
asg15
I200
sba(imain2
Polygon
p634
(dp635
g3
(I126
I26
tp636
sg5
I200
sg6
(I238
I182
I126
I117
tp637
sg8
(lp638
(I138
I12
tp639
a(I156
I0
tp640
a(I122
I21
tp641
a(I87
I0
tp642
a(I148
I0
tp643
a(I77
I0
tp644
a(I162
I0
tp645
a(I175
I33
tp646
a(I168
I75
tp647
asg15
I200
sba(imain2
Polygon
p648
(dp649
g3
(I128
I23
tp650
sg5
I200
sg6
(I107
I1
I85
I0
tp651
sg8
(lp652
(I130
I53
tp653
a(I156
I0
tp654
a(I137
I0
tp655
a(I92
I73
tp656
a(I172
I0
tp657
a(I172
I68
tp658
a(I142
I0
tp659
a(I98
I33
tp660
a(I116
I0
tp661
a(I87
I56
tp662
a(I159
I31
tp663
a(I96
I51
tp664
a(I144
I0
tp665
a(I85
I3
tp666
asg15
I200
sba(imain2
Polygon
p667
(dp668
g3
(I147
I59
tp669
sg5
I200
sg6
(I1
I240
I190
I82
tp670
sg8
(lp671
(I174
I31
tp672
a(I155
I19
tp673
a(I167
I25
tp674
asg15
I200
sba(imain2
Polygon
p675
(dp676
g3
(I105
I192
tp677
sg5
I200
sg6
(I178
I21
I175
I1
tp678
sg8
(lp679
(I140
I189
tp680
a(I76
I200
tp681
a(I97
I200
tp682
asg15
I200
sba(imain2
Polygon
p683
(dp684
g3
(I144
I60
tp685
sg5
I200
sg6
(I61
I234
I9
I0
tp686
sg8
(lp687
(I100
I77
tp688
a(I160
I42
tp689
a(I131
I18
tp690
a(I136
I52
tp691
a(I115
I19
tp692
asg15
I200
sba(imain2
Polygon
p693
(dp694
g3
(I177
I86
tp695
sg5
I200
sg6
(I169
I33
I16
I0
tp696
sg8
(lp697
(I152
I97
tp698
a(I200
I117
tp699
a(I165
I74
tp700
a(I192
I40
tp701
a(I190
I96
tp702
a(I180
I119
tp703
a(I150
I49
tp704
a(I200
I118
tp705
asg15
I200
sba(imain2
Polygon
p706
(dp707
g3
(I157
I117
tp708
sg5
I200
sg6
(I43
I29
I0
I75
tp709
sg8
(lp710
(I188
I133
tp711
a(I162
I124
tp712
a(I128
I75
tp713
a(I150
I89
tp714
a(I170
I143
tp715
a(I183
I145
tp716
a(I124
I96
tp717
a(I195
I99
tp718
asg15
I200
sba(imain2
Polygon
p719
(dp720
g3
(I155
I192
tp721
sg5
I200
sg6
(I1
I39
I195
I1
tp722
sg8
(lp723
(I178
I179
tp724
a(I145
I200
tp725
a(I152
I200
tp726
a(I111
I200
tp727
a(I147
I154
tp728
a(I187
I169
tp729
a(I130
I176
tp730
a(I117
I158
tp731
a(I120
I188
tp732
a(I153
I200
tp733
asg15
I200
sba(imain2
Polygon
p734
(dp735
g3
(I103
I158
tp736
sg5
I200
sg6
(I13
I45
I119
I78
tp737
sg8
(lp738
(I131
I127
tp739
a(I87
I181
tp740
a(I135
I127
tp741
a(I86
I148
tp742
a(I92
I152
tp743
a(I132
I111
tp744
a(I66
I200
tp745
a(I105
I140
tp746
a(I96
I148
tp747
asg15
I200
sba(imain2
Polygon
p748
(dp749
g3
(I9
I151
tp750
sg5
I200
sg6
(I124
I83
I59
I47
tp751
sg8
(lp752
(I0
I133
tp753
a(I0
I189
tp754
a(I0
I115
tp755
a(I21
I130
tp756
a(I27
I114
tp757
a(I28
I177
tp758
a(I44
I122
tp759
a(I0
I181
tp760
asg15
I200
sba(imain2
Polygon
p761
(dp762
g3
(I114
I115
tp763
sg5
I200
sg6
(I168
I160
I140
I16
tp764
sg8
(lp765
(I66
I160
tp766
a(I64
I75
tp767
a(I64
I113
tp768
a(I74
I70
tp769
a(I71
I111
tp770
a(I89
I155
tp771
a(I64
I162
tp772
asg15
I200
sba(imain2
Polygon
p773
(dp774
g3
(I114
I99
tp775
sg5
I200
sg6
(I62
I242
I9
I58
tp776
sg8
(lp777
(I110
I120
tp778
a(I117
I134
tp779
a(I126
I70
tp780
a(I104
I71
tp781
a(I123
I102
tp782
a(I135
I58
tp783
a(I77
I146
tp784
a(I72
I108
tp785
a(I82
I55
tp786
a(I87
I128
tp787
a(I67
I105
tp788
a(I103
I135
tp789
a(I65
I93
tp790
a(I139
I67
tp791
asg15
I200
sba(imain2
Polygon
p792
(dp793
g3
(I173
I62
tp794
sg5
I200
sg6
(I2
I43
I169
I114
tp795
sg8
(lp796
(I200
I82
tp797
a(I200
I33
tp798
a(I200
I84
tp799
a(I162
I88
tp800
a(I192
I90
tp801
asg15
I200
sba(imain2
Polygon
p802
(dp803
g3
(I199
I171
tp804
sg5
I200
sg6
(I0
I236
I14
I35
tp805
sg8
(lp806
(I200
I200
tp807
a(I200
I186
tp808
a(I199
I149
tp809
asg15
I200
sba(imain2
Polygon
p810
(dp811
g3
(I195
I126
tp812
sg5
I200
sg6
(I211
I219
I29
I1
tp813
sg8
(lp814
(I194
I149
tp815
a(I199
I161
tp816
a(I197
I169
tp817
a(I200
I99
tp818
a(I196
I163
tp819
a(I185
I126
tp820
a(I200
I122
tp821
a(I200
I107
tp822
a(I188
I145
tp823
a(I180
I115
tp824
a(I183
I169
tp825
a(I199
I106
tp826
asg15
I200
sba(imain2
Polygon
p827
(dp828
g3
(I51
I190
tp829
sg5
I200
sg6
(I127
I173
I100
I79
tp830
sg8
(lp831
(I40
I200
tp832
a(I11
I200
tp833
a(I36
I200
tp834
a(I60
I200
tp835
a(I96
I168
tp836
a(I97
I200
tp837
a(I13
I200
tp838
a(I3
I200
tp839
a(I35
I200
tp840
a(I70
I200
tp841
asg15
I200
sba(imain2
Polygon
p842
(dp843
g3
(I200
I5
tp844
sg5
I200
sg6
(I187
I110
I45
I1
tp845
sg8
(lp846
(I200
I50
tp847
a(I191
I0
tp848
a(I165
I28
tp849
a(I194
I0
tp850
a(I185
I0
tp851
a(I167
I0
tp852
a(I200
I0
tp853
a(I200
I24
tp854
asg15
I200
sba(imain2
Polygon
p855
(dp856
g3
(I147
I166
tp857
sg5
I200
sg6
(I117
I241
I225
I28
tp858
sg8
(lp859
(I127
I142
tp860
a(I108
I131
tp861
a(I155
I192
tp862
a(I107
I165
tp863
a(I123
I166
tp864
a(I138
I182
tp865
a(I132
I125
tp866
a(I130
I122
tp867
asg15
I200
sba(imain2
Polygon
p868
(dp869
g3
(I16
I191
tp870
sg5
I200
sg6
(I129
I48
I223
I1
tp871
sg8
(lp872
(I26
I200
tp873
a(I0
I200
tp874
a(I48
I200
tp875
a(I59
I200
tp876
a(I0
I175
tp877
asg15
I200
sba(imain2
Polygon
p878
(dp879
g3
(I94
I9
tp880
sg5
I200
sg6
(I200
I52
I23
I1
tp881
sg8
(lp882
(I134
I41
tp883
a(I52
I39
tp884
a(I75
I35
tp885
a(I64
I48
tp886
a(I64
I11
tp887
a(I101
I37
tp888
a(I53
I5
tp889
a(I80
I23
tp890
a(I111
I1
tp891
a(I109
I0
tp892
a(I137
I18
tp893
asg15
I200
sba(imain2
Polygon
p894
(dp895
g3
(I111
I113
tp896
sg5
I200
sg6
(I90
I33
I146
I0
tp897
sg8
(lp898
(I83
I120
tp899
a(I85
I110
tp900
a(I161
I131
tp901
a(I99
I105
tp902
asg15
I200
sba(imain2
Polygon
p903
(dp904
g3
(I10
I81
tp905
sg5
I200
sg6
(I221
I165
I195
I1
tp906
sg8
(lp907
(I60
I131
tp908
a(I0
I33
tp909
a(I0
I85
tp910
a(I12
I107
tp911
a(I0
I101
tp912
a(I60
I111
tp913
a(I23
I40
tp914
a(I18
I76
tp915
a(I0
I48
tp916
asg15
I200
sba(imain2
Polygon
p917
(dp918
g3
(I10
I22
tp919
sg5
I200
sg6
(I220
I208
I108
I80
tp920
sg8
(lp921
(I13
I31
tp922
a(I10
I0
tp923
a(I52
I43
tp924
a(I8
I71
tp925
a(I0
I70
tp926
a(I12
I0
tp927
a(I0
I0
tp928
a(I0
I66
tp929
a(I13
I7
tp930
a(I39
I0
tp931
a(I26
I4
tp932
asg15
I200
sba(imain2
Polygon
p933
(dp934
g3
(I19
I169
tp935
sg5
I200
sg6
(I90
I218
I81
I3
tp936
sg8
(lp937
(I0
I148
tp938
a(I32
I130
tp939
a(I44
I183
tp940
a(I17
I185
tp941
asg15
I200
sba(imain2
Polygon
p942
(dp943
g3
(I194
I7
tp944
sg5
I200
sg6
(I167
I94
I134
I19
tp945
sg8
(lp946
(I200
I0
tp947
a(I200
I0
tp948
a(I200
I29
tp949
a(I200
I0
tp950
a(I200
I5
tp951
a(I200
I25
tp952
a(I200
I50
tp953
a(I200
I0
tp954
a(I172
I55
tp955
a(I180
I0
tp956
asg15
I200
sba(imain2
Polygon
p957
(dp958
g3
(I42
I15
tp959
sg5
I200
sg6
(I151
I137
I167
I0
tp960
sg8
(lp961
(I5
I49
tp962
a(I36
I34
tp963
a(I46
I30
tp964
a(I68
I0
tp965
a(I0
I65
tp966
a(I86
I8
tp967
a(I65
I65
tp968
a(I69
I30
tp969
a(I73
I0
tp970
a(I68
I0
tp971
a(I17
I0
tp972
asg15
I200
sba(imain2
Polygon
p973
(dp974
g3
(I183
I77
tp975
sg5
I200
sg6
(I25
I142
I28
I47
tp976
sg8
(lp977
(I176
I77
tp978
a(I200
I75
tp979
a(I200
I86
tp980
a(I168
I99
tp981
a(I156
I32
tp982
a(I200
I40
tp983
a(I190
I28
tp984
a(I197
I90
tp985
asg15
I200
sba(imain2
Polygon
p986
(dp987
g3
(I190
I45
tp988
sg5
I200
sg6
(I179
I46
I185
I0
tp989
sg8
(lp990
(I200
I75
tp991
a(I200
I26
tp992
a(I200
I81
tp993
a(I200
I14
tp994
a(I200
I31
tp995
a(I179
I86
tp996
a(I200
I67
tp997
a(I200
I87
tp998
a(I158
I35
tp999
a(I156
I30
tp1000
asg15
I200
sba(imain2
Polygon
p1001
(dp1002
g3
(I115
I69
tp1003
sg5
I200
sg6
(I0
I122
I194
I0
tp1004
sg8
(lp1005
(I77
I118
tp1006
a(I96
I111
tp1007
a(I143
I76
tp1008
a(I137
I38
tp1009
a(I115
I62
tp1010
a(I138
I27
tp1011
asg15
I200
sba(imain2
Polygon
p1012
(dp1013
g3
(I173
I121
tp1014
sg5
I200
sg6
(I244
I56
I23
I1
tp1015
sg8
(lp1016
(I164
I100
tp1017
a(I186
I130
tp1018
a(I173
I140
tp1019
a(I158
I152
tp1020
a(I176
I93
tp1021
a(I200
I136
tp1022
a(I200
I158
tp1023
a(I200
I89
tp1024
a(I200
I85
tp1025
asg15
I200
sba(imain2
Polygon
p1026
(dp1027
g3
(I45
I135
tp1028
sg5
I200
sg6
(I150
I127
I179
I62
tp1029
sg8
(lp1030
(I7
I177
tp1031
a(I21
I178
tp1032
a(I23
I86
tp1033
a(I0
I183
tp1034
a(I7
I176
tp1035
a(I16
I139
tp1036
a(I10
I100
tp1037
asg15
I200
sba(imain2
Polygon
p1038
(dp1039
g3
(I61
I48
tp1040
sg5
I200
sg6
(I78
I37
I123
I135
tp1041
sg8
(lp1042
(I71
I86
tp1043
a(I54
I35
tp1044
a(I73
I78
tp1045
a(I47
I85
tp1046
a(I68
I93
tp1047
a(I86
I72
tp1048
a(I85
I73
tp1049
a(I53
I98
tp1050
asg15
I200
sba(imain2
Polygon
p1051
(dp1052
g3
(I96
I154
tp1053
sg5
I200
sg6
(I149
I185
I187
I72
tp1054
sg8
(lp1055
(I51
I113
tp1056
a(I57
I106
tp1057
a(I90
I200
tp1058
a(I142
I200
tp1059
a(I53
I114
tp1060
a(I87
I119
tp1061
asg15
I200
sba(imain2
Polygon
p1062
(dp1063
g3
(I32
I146
tp1064
sg5
I200
sg6
(I62
I240
I72
I120
tp1065
sg8
(lp1066
(I0
I157
tp1067
a(I0
I165
tp1068
a(I0
I132
tp1069
asg15
I200
sba(imain2
Polygon
p1070
(dp1071
g3
(I3
I120
tp1072
sg5
I200
sg6
(I188
I179
I17
I66
tp1073
sg8
(lp1074
(I38
I71
tp1075
a(I0
I72
tp1076
a(I0
I90
tp1077
a(I0
I104
tp1078
a(I0
I132
tp1079
a(I20
I116
tp1080
asg15
I200
sba(imain2
Polygon
p1081
(dp1082
g3
(I74
I152
tp1083
sg5
I200
sg6
(I60
I81
I127
I1
tp1084
sg8
(lp1085
(I76
I114
tp1086
a(I80
I138
tp1087
a(I96
I106
tp1088
a(I101
I200
tp1089
a(I40
I166
tp1090
a(I81
I127
tp1091
a(I102
I147
tp1092
a(I58
I155
tp1093
a(I118
I127
tp1094
a(I81
I105
tp1095
a(I90
I121
tp1096
asg15
I200
sba(imain2
Polygon
p1097
(dp1098
g3
(I31
I192
tp1099
sg5
I200
sg6
(I154
I34
I138
I1
tp1100
sg8
(lp1101
(I0
I200
tp1102
a(I6
I186
tp1103
a(I51
I149
tp1104
a(I5
I196
tp1105
a(I36
I200
tp1106
a(I49
I158
tp1107
a(I31
I200
tp1108
a(I25
I200
tp1109
a(I51
I189
tp1110
a(I54
I177
tp1111
a(I41
I172
tp1112
a(I25
I181
tp1113
a(I17
I200
tp1114
a(I2
I172
tp1115
a(I79
I157
tp1116
a(I34
I200
tp1117
a(I64
I166
tp1118
asg15
I200
sba(imain2
Polygon
p1119
(dp1120
g3
(I99
I149
tp1121
sg5
I200
sg6
(I190
I32
I204
I0
tp1122
sg8
(lp1123
(I110
I116
tp1124
a(I76
I160
tp1125
a(I140
I139
tp1126
a(I91
I153
tp1127
a(I94
I120
tp1128
a(I78
I105
tp1129
a(I115
I191
tp1130
a(I55
I199
tp1131
a(I98
I155
tp1132
a(I128
I177
tp1133
a(I118
I113
tp1134
a(I123
I190
tp1135
a(I103
I151
tp1136
a(I98
I128
tp1137
asg15
I200
sba(imain2
Polygon
p1138
(dp1139
g3
(I183
I115
tp1140
sg5
I200
sg6
(I22
I109
I181
I156
tp1141
sg8
(lp1142
(I200
I102
tp1143
a(I158
I83
tp1144
a(I200
I98
tp1145
a(I165
I93
tp1146
a(I200
I102
tp1147
a(I193
I132
tp1148
a(I181
I84
tp1149
a(I200
I87
tp1150
asg15
I200
sba(imain2
Polygon
p1151
(dp1152
g3
(I141
I107
tp1153
sg5
I200
sg6
(I80
I147
I87
I155
tp1154
sg8
(lp1155
(I115
I124
tp1156
a(I95
I75
tp1157
a(I111
I152
tp1158
asg15
I200
sba(imain2
Polygon
p1159
(dp1160
g3
(I149
I72
tp1161
sg5
I200
sg6
(I64
I108
I166
I48
tp1162
sg8
(lp1163
(I195
I60
tp1164
a(I192
I63
tp1165
a(I155
I38
tp1166
a(I141
I61
tp1167
a(I173
I40
tp1168
a(I128
I80
tp1169
a(I130
I80
tp1170
a(I99
I71
tp1171
a(I150
I68
tp1172
a(I153
I27
tp1173
asg15
I200
sba(imain2
Polygon
p1174
(dp1175
g3
(I67
I128
tp1176
sg5
I200
sg6
(I212
I148
I54
I42
tp1177
sg8
(lp1178
(I101
I96
tp1179
a(I80
I142
tp1180
a(I63
I86
tp1181
a(I108
I113
tp1182
a(I115
I152
tp1183
a(I46
I122
tp1184
a(I62
I84
tp1185
a(I46
I110
tp1186
asg15
I200
sba(imain2
Polygon
p1187
(dp1188
g3
(I183
I44
tp1189
sg5
I200
sg6
(I81
I13
I173
I1
tp1190
sg8
(lp1191
(I200
I56
tp1192
a(I192
I31
tp1193
a(I200
I50
tp1194
a(I200
I33
tp1195
a(I167
I15
tp1196
a(I187
I78
tp1197
a(I190
I1
tp1198
asg15
I200
sba(imain2
Polygon
p1199
(dp1200
g3
(I100
I61
tp1201
sg5
I200
sg6
(I202
I99
I42
I57
tp1202
sg8
(lp1203
(I105
I40
tp1204
a(I99
I64
tp1205
a(I99
I12
tp1206
a(I96
I24
tp1207
a(I95
I52
tp1208
a(I126
I64
tp1209
a(I74
I24
tp1210
a(I135
I84
tp1211
a(I53
I108
tp1212
a(I82
I86
tp1213
asg15
I200
sba(imain2
Polygon
p1214
(dp1215
g3
(I52
I190
tp1216
sg5
I200
sg6
(I176
I148
I50
I92
tp1217
sg8
(lp1218
(I71
I200
tp1219
a(I89
I171
tp1220
a(I102
I200
tp1221
a(I94
I200
tp1222
a(I40
I200
tp1223
a(I95
I200
tp1224
a(I7
I200
tp1225
asg15
I200
sba(imain2
Polygon
p1226
(dp1227
g3
(I151
I65
tp1228
sg5
I200
sg6
(I64
I180
I1
I108
tp1229
sg8
(lp1230
(I176
I54
tp1231
a(I190
I82
tp1232
a(I166
I54
tp1233
a(I176
I89
tp1234
a(I165
I61
tp1235
a(I111
I63
tp1236
a(I119
I77
tp1237
a(I169
I47
tp1238
a(I196
I93
tp1239
asg15
I200
sba(imain2
Polygon
p1240
(dp1241
g3
(I67
I20
tp1242
sg5
I200
sg6
(I166
I93
I189
I115
tp1243
sg8
(lp1244
(I17
I0
tp1245
a(I47
I0
tp1246
a(I29
I39
tp1247
a(I112
I0
tp1248
a(I27
I0
tp1249
asg15
I200
sba(imain2
Polygon
p1250
(dp1251
g3
(I199
I56
tp1252
sg5
I200
sg6
(I161
I0
I108
I0
tp1253
sg8
(lp1254
(I200
I61
tp1255
a(I200
I66
tp1256
a(I165
I70
tp1257
a(I157
I87
tp1258
a(I171
I66
tp1259
a(I181
I100
tp1260
a(I188
I9
tp1261
a(I198
I104
tp1262
a(I188
I15
tp1263
a(I200
I90
tp1264
asg15
I200
sba(imain2
Polygon
p1265
(dp1266
g3
(I185
I38
tp1267
sg5
I200
sg6
(I129
I218
I69
I168
tp1268
sg8
(lp1269
(I200
I69
tp1270
a(I200
I0
tp1271
a(I196
I0
tp1272
a(I154
I0
tp1273
a(I146
I42
tp1274
a(I200
I5
tp1275
a(I200
I5
tp1276
a(I142
I46
tp1277
a(I155
I22
tp1278
a(I181
I67
tp1279
a(I187
I70
tp1280
a(I138
I0
tp1281
a(I200
I50
tp1282
a(I141
I1
tp1283
a(I171
I85
tp1284
asg15
I200
sba(imain2
Polygon
p1285
(dp1286
g3
(I67
I149
tp1287
sg5
I200
sg6
(I93
I207
I215
I54
tp1288
sg8
(lp1289
(I111
I118
tp1290
a(I92
I149
tp1291
a(I45
I104
tp1292
a(I59
I150
tp1293
a(I108
I132
tp1294
a(I64
I107
tp1295
a(I107
I140
tp1296
a(I111
I166
tp1297
asg15
I200
sba(imain2
Polygon
p1298
(dp1299
g3
(I21
I182
tp1300
sg5
I200
sg6
(I112
I116
I0
I103
tp1301
sg8
(lp1302
(I67
I200
tp1303
a(I0
I160
tp1304
a(I44
I143
tp1305
a(I20
I169
tp1306
a(I14
I161
tp1307
a(I41
I200
tp1308
a(I0
I175
tp1309
a(I19
I200
tp1310
a(I16
I186
tp1311
a(I7
I175
tp1312
a(I0
I144
tp1313
a(I0
I194
tp1314
a(I36
I200
tp1315
a(I13
I195
tp1316
a(I16
I140
tp1317
a(I68
I182
tp1318
a(I0
I133
tp1319
a(I47
I191
tp1320
asg15
I200
sba(imain2
Polygon
p1321
(dp1322
g3
(I145
I176
tp1323
sg5
I200
sg6
(I186
I171
I1
I46
tp1324
sg8
(lp1325
(I109
I200
tp1326
a(I101
I200
tp1327
a(I138
I200
tp1328
a(I120
I137
tp1329
a(I98
I200
tp1330
asg15
I200
sba(imain2
Polygon
p1331
(dp1332
g3
(I102
I21
tp1333
sg5
I200
sg6
(I182
I178
I187
I64
tp1334
sg8
(lp1335
(I129
I69
tp1336
a(I61
I26
tp1337
a(I53
I14
tp1338
a(I104
I12
tp1339
a(I146
I25
tp1340
a(I143
I7
tp1341
a(I142
I0
tp1342
a(I59
I0
tp1343
a(I76
I62
tp1344
asg15
I200
sba(imain2
Polygon
p1345
(dp1346
g3
(I154
I30
tp1347
sg5
I200
sg6
(I50
I97
I61
I0
tp1348
sg8
(lp1349
(I188
I30
tp1350
a(I122
I61
tp1351
a(I124
I34
tp1352
a(I200
I56
tp1353
a(I118
I38
tp1354
a(I162
I48
tp1355
a(I140
I39
tp1356
a(I110
I28
tp1357
a(I195
I27
tp1358
a(I154
I21
tp1359
asg15
I200
sba(imain2
Polygon
p1360
(dp1361
g3
(I171
I178
tp1362
sg5
I200
sg6
(I94
I231
I34
I22
tp1363
sg8
(lp1364
(I121
I194
tp1365
a(I151
I200
tp1366
a(I122
I178
tp1367
a(I200
I200
tp1368
a(I200
I151
tp1369
a(I200
I135
tp1370
a(I150
I187
tp1371
a(I184
I186
tp1372
asg15
I200
sba(imain2
Polygon
p1373
(dp1374
g3
(I189
I152
tp1375
sg5
I200
sg6
(I248
I71
I182
I4
tp1376
sg8
(lp1377
(I170
I164
tp1378
a(I163
I148
tp1379
a(I200
I166
tp1380
a(I167
I102
tp1381
a(I181
I131
tp1382
a(I199
I164
tp1383
a(I184
I186
tp1384
a(I182
I182
tp1385
a(I190
I125
tp1386
a(I158
I146
tp1387
a(I200
I150
tp1388
asg15
I200
sba(imain2
Polygon
p1389
(dp1390
g3
(I158
I122
tp1391
sg5
I200
sg6
(I44
I1
I157
I46
tp1392
sg8
(lp1393
(I182
I80
tp1394
a(I180
I97
tp1395
a(I200
I145
tp1396
a(I199
I82
tp1397
a(I166
I100
tp1398
a(I200
I140
tp1399
a(I184
I82
tp1400
a(I178
I130
tp1401
a(I190
I85
tp1402
a(I131
I110
tp1403
a(I139
I107
tp1404
a(I200
I74
tp1405
asg15
I200
sba(imain2
Polygon
p1406
(dp1407
g3
(I89
I194
tp1408
sg5
I200
sg6
(I229
I77
I38
I1
tp1409
sg8
(lp1410
(I121
I200
tp1411
a(I61
I194
tp1412
a(I70
I200
tp1413
a(I124
I176
tp1414
a(I130
I164
tp1415
a(I113
I192
tp1416
a(I50
I147
tp1417
a(I79
I190
tp1418
a(I108
I183
tp1419
a(I64
I164
tp1420
a(I98
I200
tp1421
a(I134
I187
tp1422
asg15
I200
sba(imain2
Polygon
p1423
(dp1424
g3
(I185
I89
tp1425
sg5
I200
sg6
(I164
I1
I220
I0
tp1426
sg8
(lp1427
(I200
I102
tp1428
a(I200
I77
tp1429
a(I200
I55
tp1430
a(I200
I70
tp1431
a(I200
I52
tp1432
a(I200
I118
tp1433
a(I200
I57
tp1434
a(I200
I61
tp1435
a(I197
I122
tp1436
a(I200
I41
tp1437
asg15
I200
sba(imain2
Polygon
p1438
(dp1439
g3
(I67
I129
tp1440
sg5
I200
sg6
(I74
I192
I60
I138
tp1441
sg8
(lp1442
(I62
I136
tp1443
a(I66
I130
tp1444
a(I64
I104
tp1445
a(I114
I112
tp1446
a(I112
I100
tp1447
a(I42
I111
tp1448
a(I105
I94
tp1449
a(I59
I93
tp1450
a(I61
I148
tp1451
a(I109
I141
tp1452
a(I87
I119
tp1453
a(I87
I107
tp1454
a(I75
I92
tp1455
a(I84
I146
tp1456
a(I52
I135
tp1457
a(I91
I173
tp1458
asg15
I200
sba(imain2
Polygon
p1459
(dp1460
g3
(I95
I80
tp1461
sg5
I200
sg6
(I220
I90
I23
I132
tp1462
sg8
(lp1463
(I121
I57
tp1464
a(I55
I30
tp1465
a(I58
I130
tp1466
a(I113
I109
tp1467
a(I61
I47
tp1468
a(I89
I57
tp1469
a(I133
I109
tp1470
asg15
I200
sba(imain2
Polygon
p1471
(dp1472
g3
(I14
I45
tp1473
sg5
I200
sg6
(I224
I0
I43
I115
tp1474
sg8
(lp1475
(I2
I89
tp1476
a(I19
I58
tp1477
a(I58
I24
tp1478
a(I17
I21
tp1479
a(I38
I90
tp1480
a(I25
I95
tp1481
asg15
I200
sba(imain2
Polygon
p1482
(dp1483
g3
(I34
I35
tp1484
sg5
I200
sg6
(I108
I10
I202
I30
tp1485
sg8
(lp1486
(I2
I0
tp1487
a(I0
I84
tp1488
a(I51
I56
tp1489
a(I42
I28
tp1490
a(I53
I81
tp1491
a(I39
I34
tp1492
a(I34
I0
tp1493
asg15
I200
sba(imain2
Polygon
p1494
(dp1495
g3
(I127
I147
tp1496
sg5
I200
sg6
(I119
I173
I189
I92
tp1497
sg8
(lp1498
(I86
I137
tp1499
a(I112
I167
tp1500
a(I161
I125
tp1501
a(I99
I100
tp1502
a(I112
I159
tp1503
a(I126
I158
tp1504
a(I164
I118
tp1505
a(I80
I133
tp1506
a(I125
I141
tp1507
a(I106
I116
tp1508
a(I85
I144
tp1509
a(I112
I135
tp1510
a(I105
I137
tp1511
a(I148
I117
tp1512
a(I100
I111
tp1513
a(I88
I127
tp1514
asg15
I200
sba(imain2
Polygon
p1515
(dp1516
g3
(I88
I106
tp1517
sg5
I200
sg6
(I189
I13
I60
I128
tp1518
sg8
(lp1519
(I127
I64
tp1520
a(I90
I146
tp1521
a(I117
I112
tp1522
asg15
I200
sba(imain2
Polygon
p1523
(dp1524
g3
(I11
I134
tp1525
sg5
I200
sg6
(I75
I180
I94
I111
tp1526
sg8
(lp1527
(I0
I183
tp1528
a(I0
I156
tp1529
a(I0
I163
tp1530
a(I0
I157
tp1531
a(I0
I169
tp1532
a(I12
I180
tp1533
a(I18
I183
tp1534
asg15
I200
sba(imain2
Polygon
p1535
(dp1536
g3
(I174
I141
tp1537
sg5
I200
sg6
(I114
I239
I93
I91
tp1538
sg8
(lp1539
(I200
I172
tp1540
a(I200
I160
tp1541
a(I192
I135
tp1542
asg15
I200
sba(imain2
Polygon
p1543
(dp1544
g3
(I68
I44
tp1545
sg5
I200
sg6
(I3
I229
I128
I58
tp1546
sg8
(lp1547
(I40
I52
tp1548
a(I55
I58
tp1549
a(I62
I45
tp1550
a(I75
I72
tp1551
asg15
I200
sba(imain2
Polygon
p1552
(dp1553
g3
(I80
I68
tp1554
sg5
I200
sg6
(I79
I16
I18
I50
tp1555
sg8
(lp1556
(I35
I25
tp1557
a(I52
I50
tp1558
a(I34
I66
tp1559
a(I53
I18
tp1560
a(I118
I28
tp1561
a(I103
I35
tp1562
a(I41
I31
tp1563
a(I52
I99
tp1564
a(I43
I18
tp1565
a(I106
I28
tp1566
a(I97
I30
tp1567
a(I37
I35
tp1568
a(I66
I42
tp1569
a(I83
I18
tp1570
asg15
I200
sba(imain2
Polygon
p1571
(dp1572
g3
(I120
I143
tp1573
sg5
I200
sg6
(I152
I159
I84
I0
tp1574
sg8
(lp1575
(I118
I167
tp1576
a(I157
I180
tp1577
a(I104
I174
tp1578
a(I143
I95
tp1579
a(I91
I139
tp1580
a(I154
I138
tp1581
a(I91
I159
tp1582
a(I161
I105
tp1583
a(I145
I181
tp1584
a(I111
I169
tp1585
a(I92
I133
tp1586
a(I141
I96
tp1587
a(I86
I100
tp1588
asg15
I200
sba(imain2
Polygon
p1589
(dp1590
g3
(I47
I43
tp1591
sg5
I200
sg6
(I225
I146
I62
I45
tp1592
sg8
(lp1593
(I94
I47
tp1594
a(I85
I78
tp1595
a(I7
I93
tp1596
a(I8
I45
tp1597
a(I5
I0
tp1598
a(I15
I0
tp1599
a(I69
I3
tp1600
a(I21
I40
tp1601
a(I8
I61
tp1602
a(I80
I33
tp1603
a(I39
I37
tp1604
a(I25
I26
tp1605
a(I49
I4
tp1606
a(I96
I0
tp1607
asg15
I200
sba(imain2
Polygon
p1608
(dp1609
g3
(I6
I165
tp1610
sg5
I200
sg6
(I194
I52
I159
I76
tp1611
sg8
(lp1612
(I0
I168
tp1613
a(I0
I123
tp1614
a(I0
I142
tp1615
asg15
I200
sba(imain2
Polygon
p1616
(dp1617
g3
(I125
I173
tp1618
sg5
I200
sg6
(I92
I30
I33
I131
tp1619
sg8
(lp1620
(I163
I200
tp1621
a(I132
I145
tp1622
a(I161
I166
tp1623
a(I125
I138
tp1624
a(I143
I200
tp1625
a(I165
I200
tp1626
a(I85
I166
tp1627
a(I93
I145
tp1628
a(I117
I134
tp1629
a(I124
I131
tp1630
a(I139
I163
tp1631
a(I129
I134
tp1632
a(I143
I189
tp1633
asg15
I200
sba(imain2
Polygon
p1634
(dp1635
g3
(I63
I154
tp1636
sg5
I200
sg6
(I122
I161
I3
I0
tp1637
sg8
(lp1638
(I96
I189
tp1639
a(I79
I108
tp1640
a(I87
I186
tp1641
a(I70
I140
tp1642
a(I13
I125
tp1643
a(I27
I140
tp1644
a(I55
I143
tp1645
a(I45
I194
tp1646
a(I42
I149
tp1647
asg15
I200
sba(imain2
Polygon
p1648
(dp1649
g3
(I152
I171
tp1650
sg5
I200
sg6
(I193
I6
I227
I1
tp1651
sg8
(lp1652
(I131
I147
tp1653
a(I121
I180
tp1654
a(I143
I159
tp1655
a(I116
I199
tp1656
a(I121
I192
tp1657
a(I171
I200
tp1658
a(I191
I153
tp1659
a(I183
I200
tp1660
a(I180
I200
tp1661
a(I171
I163
tp1662
asg15
I200
sba(imain2
Polygon
p1663
(dp1664
g3
(I67
I143
tp1665
sg5
I200
sg6
(I73
I72
I132
I132
tp1666
sg8
(lp1667
(I100
I175
tp1668
a(I102
I173
tp1669
a(I113
I130
tp1670
asg15
I200
sba(imain2
Polygon
p1671
(dp1672
g3
(I153
I79
tp1673
sg5
I200
sg6
(I136
I30
I162
I0
tp1674
sg8
(lp1675
(I200
I90
tp1676
a(I129
I117
tp1677
a(I192
I83
tp1678
a(I139
I76
tp1679
a(I133
I29
tp1680
a(I105
I69
tp1681
a(I175
I77
tp1682
a(I178
I72
tp1683
a(I176
I102
tp1684
a(I148
I111
tp1685
a(I132
I57
tp1686
asg15
I200
sba(imain2
Polygon
p1687
(dp1688
g3
(I142
I192
tp1689
sg5
I200
sg6
(I51
I238
I3
I18
tp1690
sg8
(lp1691
(I175
I159
tp1692
a(I93
I176
tp1693
a(I162
I200
tp1694
a(I170
I191
tp1695
a(I159
I195
tp1696
a(I119
I172
tp1697
a(I130
I200
tp1698
a(I115
I176
tp1699
asg15
I200
sba(imain2
Polygon
p1700
(dp1701
g3
(I144
I12
tp1702
sg5
I200
sg6
(I190
I75
I100
I0
tp1703
sg8
(lp1704
(I176
I18
tp1705
a(I176
I0
tp1706
a(I148
I6
tp1707
a(I143
I52
tp1708
a(I127
I44
tp1709
a(I178
I0
tp1710
a(I140
I28
tp1711
a(I176
I62
tp1712
a(I147
I12
tp1713
a(I133
I0
tp1714
a(I173
I39
tp1715
a(I108
I0
tp1716
a(I111
I37
tp1717
asg15
I200
sba(imain2
Polygon
p1718
(dp1719
g3
(I144
I92
tp1720
sg5
I200
sg6
(I224
I45
I152
I162
tp1721
sg8
(lp1722
(I165
I66
tp1723
a(I181
I55
tp1724
a(I188
I72
tp1725
asg15
I200
sba(imain2
Polygon
p1726
(dp1727
g3
(I167
I23
tp1728
sg5
I200
sg6
(I171
I33
I244
I22
tp1729
sg8
(lp1730
(I170
I58
tp1731
a(I162
I59
tp1732
a(I200
I70
tp1733
a(I200
I14
tp1734
a(I155
I1
tp1735
a(I191
I17
tp1736
a(I136
I0
tp1737
a(I179
I63
tp1738
a(I200
I0
tp1739
a(I190
I67
tp1740
a(I200
I10
tp1741
asg15
I200
sba(imain2
Polygon
p1742
(dp1743
g3
(I200
I102
tp1744
sg5
I200
sg6
(I52
I233
I149
I61
tp1745
sg8
(lp1746
(I161
I70
tp1747
a(I178
I55
tp1748
a(I182
I77
tp1749
a(I200
I120
tp1750
a(I200
I145
tp1751
a(I181
I124
tp1752
a(I200
I66
tp1753
a(I200
I76
tp1754
a(I170
I80
tp1755
a(I200
I61
tp1756
a(I200
I99
tp1757
a(I200
I61
tp1758
asg15
I200
sba(imain2
Polygon
p1759
(dp1760
g3
(I20
I176
tp1761
sg5
I200
sg6
(I13
I203
I1
I1
tp1762
sg8
(lp1763
(I26
I196
tp1764
a(I25
I159
tp1765
a(I0
I200
tp1766
a(I65
I153
tp1767
a(I6
I156
tp1768
a(I0
I155
tp1769
a(I44
I147
tp1770
a(I5
I200
tp1771
a(I48
I148
tp1772
a(I0
I189
tp1773
a(I31
I140
tp1774
asg15
I200
sba(imain2
Polygon
p1775
(dp1776
g3
(I51
I87
tp1777
sg5
I200
sg6
(I99
I178
I47
I79
tp1778
sg8
(lp1779
(I79
I87
tp1780
a(I34
I48
tp1781
a(I30
I71
tp1782
a(I59
I118
tp1783
a(I60
I82
tp1784
a(I3
I114
tp1785
a(I4
I50
tp1786
a(I85
I81
tp1787
a(I40
I55
tp1788
a(I66
I122
tp1789
a(I94
I79
tp1790
a(I51
I133
tp1791
a(I90
I82
tp1792
asg15
I200
sba(imain2
Polygon
p1793
(dp1794
g3
(I124
I18
tp1795
sg5
I200
sg6
(I60
I205
I234
I1
tp1796
sg8
(lp1797
(I104
I18
tp1798
a(I86
I4
tp1799
a(I97
I0
tp1800
a(I134
I22
tp1801
a(I126
I35
tp1802
a(I137
I0
tp1803
asg15
I200
sba(imain2
Polygon
p1804
(dp1805
g3
(I170
I179
tp1806
sg5
I200
sg6
(I141
I192
I58
I17
tp1807
sg8
(lp1808
(I170
I150
tp1809
a(I131
I200
tp1810
a(I128
I177
tp1811
a(I200
I129
tp1812
a(I200
I200
tp1813
a(I200
I200
tp1814
a(I147
I142
tp1815
asg15
I200
sba(imain2
Polygon
p1816
(dp1817
g3
(I93
I4
tp1818
sg5
I200
sg6
(I125
I128
I1
I147
tp1819
sg8
(lp1820
(I107
I0
tp1821
a(I51
I53
tp1822
a(I63
I0
tp1823
a(I57
I28
tp1824
a(I47
I35
tp1825
a(I62
I48
tp1826
a(I51
I52
tp1827
asg15
I200
sba(imain2
Polygon
p1828
(dp1829
g3
(I33
I157
tp1830
sg5
I200
sg6
(I40
I120
I128
I1
tp1831
sg8
(lp1832
(I46
I107
tp1833
a(I36
I149
tp1834
a(I5
I192
tp1835
a(I68
I171
tp1836
a(I66
I120
tp1837
a(I0
I200
tp1838
a(I43
I145
tp1839
a(I9
I140
tp1840
a(I1
I120
tp1841
a(I52
I150
tp1842
asg15
I200
sba(imain2
Polygon
p1843
(dp1844
g3
(I91
I9
tp1845
sg5
I200
sg6
(I68
I184
I14
I10
tp1846
sg8
(lp1847
(I117
I56
tp1848
a(I135
I0
tp1849
a(I59
I54
tp1850
a(I135
I0
tp1851
a(I120
I0
tp1852
a(I73
I39
tp1853
a(I126
I20
tp1854
a(I118
I18
tp1855
a(I122
I0
tp1856
a(I51
I0
tp1857
asg15
I200
sba(imain2
Polygon
p1858
(dp1859
g3
(I50
I13
tp1860
sg5
I200
sg6
(I92
I179
I162
I129
tp1861
sg8
(lp1862
(I31
I61
tp1863
a(I18
I56
tp1864
a(I8
I0
tp1865
a(I75
I18
tp1866
a(I7
I0
tp1867
a(I82
I0
tp1868
asg15
I200
sba(imain2
Polygon
p1869
(dp1870
g3
(I157
I108
tp1871
sg5
I200
sg6
(I129
I120
I3
I106
tp1872
sg8
(lp1873
(I168
I137
tp1874
a(I108
I127
tp1875
a(I123
I82
tp1876
a(I135
I90
tp1877
a(I108
I149
tp1878
a(I172
I125
tp1879
a(I193
I83
tp1880
a(I200
I120
tp1881
a(I184
I155
tp1882
a(I169
I149
tp1883
a(I182
I143
tp1884
asg15
I200
sba(imain2
Polygon
p1885
(dp1886
g3
(I7
I150
tp1887
sg5
I200
sg6
(I178
I12
I58
I33
tp1888
sg8
(lp1889
(I20
I124
tp1890
a(I0
I142
tp1891
a(I0
I167
tp1892
a(I0
I115
tp1893
a(I12
I187
tp1894
a(I45
I176
tp1895
a(I0
I184
tp1896
a(I0
I137
tp1897
a(I0
I158
tp1898
a(I0
I111
tp1899
a(I0
I118
tp1900
a(I0
I147
tp1901
asg15
I200
sba(imain2
Polygon
p1902
(dp1903
g3
(I89
I125
tp1904
sg5
I200
sg6
(I43
I0
I216
I31
tp1905
sg8
(lp1906
(I82
I163
tp1907
a(I51
I118
tp1908
a(I85
I142
tp1909
a(I89
I136
tp1910
a(I80
I107
tp1911
a(I76
I125
tp1912
a(I45
I157
tp1913
a(I54
I146
tp1914
a(I105
I162
tp1915
asg15
I200
sba(imain2
Polygon
p1916
(dp1917
g3
(I18
I178
tp1918
sg5
I200
sg6
(I88
I165
I42
I117
tp1919
sg8
(lp1920
(I0
I148
tp1921
a(I44
I200
tp1922
a(I43
I193
tp1923
a(I10
I175
tp1924
a(I0
I137
tp1925
a(I37
I176
tp1926
a(I23
I175
tp1927
asg15
I200
sba(imain2
Polygon
p1928
(dp1929
g3
(I81
I53
tp1930
sg5
I200
sg6
(I220
I84
I81
I0
tp1931
sg8
(lp1932
(I89
I81
tp1933
a(I80
I7
tp1934
a(I110
I69
tp1935
a(I129
I88
tp1936
a(I130
I38
tp1937
a(I60
I86
tp1938
a(I95
I100
tp1939
a(I128
I64
tp1940
a(I66
I43
tp1941
a(I31
I48
tp1942
a(I65
I35
tp1943
asg15
I200
sba(imain2
Polygon
p1944
(dp1945
g3
(I117
I32
tp1946
sg5
I200
sg6
(I168
I186
I83
I0
tp1947
sg8
(lp1948
(I71
I5
tp1949
a(I154
I0
tp1950
a(I94
I46
tp1951
asg15
I200
sba(imain2
Polygon
p1952
(dp1953
g3
(I79
I140
tp1954
sg5
I200
sg6
(I227
I1
I161
I60
tp1955
sg8
(lp1956
(I108
I95
tp1957
a(I107
I173
tp1958
a(I83
I170
tp1959
a(I123
I97
tp1960
a(I103
I189
tp1961
a(I75
I159
tp1962
a(I115
I149
tp1963
a(I57
I96
tp1964
asg15
I200
sba(imain2
Polygon
p1965
(dp1966
g3
(I26
I4
tp1967
sg5
I200
sg6
(I198
I74
I72
I1
tp1968
sg8
(lp1969
(I49
I0
tp1970
a(I24
I51
tp1971
a(I49
I23
tp1972
a(I0
I14
tp1973
a(I0
I0
tp1974
a(I37
I9
tp1975
a(I24
I12
tp1976
a(I21
I0
tp1977
a(I0
I33
tp1978
asg15
I200
sba(imain2
Polygon
p1979
(dp1980
g3
(I15
I121
tp1981
sg5
I200
sg6
(I0
I223
I152
I0
tp1982
sg8
(lp1983
(I18
I90
tp1984
a(I33
I98
tp1985
a(I0
I90
tp1986
a(I0
I170
tp1987
a(I0
I74
tp1988
a(I1
I71
tp1989
a(I46
I142
tp1990
a(I0
I113
tp1991
a(I59
I105
tp1992
a(I65
I135
tp1993
a(I8
I120
tp1994
a(I0
I107
tp1995
asg15
I200
sba(imain2
Polygon
p1996
(dp1997
g3
(I163
I195
tp1998
sg5
I200
sg6
(I12
I151
I194
I28
tp1999
sg8
(lp2000
(I127
I200
tp2001
a(I125
I198
tp2002
a(I168
I200
tp2003
a(I178
I174
tp2004
a(I157
I200
tp2005
a(I122
I197
tp2006
a(I187
I200
tp2007
a(I149
I200
tp2008
a(I136
I200
tp2009
a(I196
I200
tp2010
asg15
I200
sba(imain2
Polygon
p2011
(dp2012
g3
(I118
I106
tp2013
sg5
I200
sg6
(I9
I134
I125
I135
tp2014
sg8
(lp2015
(I132
I104
tp2016
a(I163
I65
tp2017
a(I102
I87
tp2018
a(I125
I104
tp2019
a(I139
I123
tp2020
a(I123
I91
tp2021
a(I151
I66
tp2022
a(I130
I116
tp2023
a(I124
I115
tp2024
a(I140
I99
tp2025
asg15
I200
sba(imain2
Polygon
p2026
(dp2027
g3
(I56
I6
tp2028
sg5
I200
sg6
(I201
I3
I177
I0
tp2029
sg8
(lp2030
(I44
I38
tp2031
a(I66
I0
tp2032
a(I95
I24
tp2033
a(I49
I0
tp2034
a(I16
I0
tp2035
a(I36
I33
tp2036
a(I69
I0
tp2037
a(I19
I0
tp2038
asg15
I200
sba(imain2
Polygon
p2039
(dp2040
g3
(I174
I69
tp2041
sg5
I200
sg6
(I121
I39
I49
I120
tp2042
sg8
(lp2043
(I167
I52
tp2044
a(I200
I44
tp2045
a(I160
I53
tp2046
a(I139
I70
tp2047
a(I196
I88
tp2048
a(I200
I90
tp2049
a(I200
I74
tp2050
a(I126
I41
tp2051
a(I130
I103
tp2052
a(I140
I51
tp2053
a(I194
I93
tp2054
a(I130
I47
tp2055
a(I135
I43
tp2056
a(I183
I53
tp2057
asg15
I200
sba(imain2
Polygon
p2058
(dp2059
g3
(I0
I30
tp2060
sg5
I200
sg6
(I173
I43
I103
I0
tp2061
sg8
(lp2062
(I0
I38
tp2063
a(I8
I59
tp2064
a(I44
I18
tp2065
a(I0
I57
tp2066
a(I0
I25
tp2067
a(I0
I19
tp2068
asg15
I200
sba(imain2
Polygon
p2069
(dp2070
g3
(I134
I58
tp2071
sg5
I200
sg6
(I243
I180
I118
I123
tp2072
sg8
(lp2073
(I179
I47
tp2074
a(I110
I8
tp2075
a(I156
I8
tp2076
a(I179
I9
tp2077
asg15
I200
sba(imain2
Polygon
p2078
(dp2079
g3
(I142
I75
tp2080
sg5
I200
sg6
(I201
I61
I194
I101
tp2081
sg8
(lp2082
(I191
I83
tp2083
a(I154
I36
tp2084
a(I181
I54
tp2085
a(I185
I48
tp2086
asg15
I200
sba(imain2
Polygon
p2087
(dp2088
g3
(I129
I65
tp2089
sg5
I200
sg6
(I91
I1
I166
I151
tp2090
sg8
(lp2091
(I122
I61
tp2092
a(I155
I65
tp2093
a(I159
I47
tp2094
a(I159
I69
tp2095
a(I151
I68
tp2096
asg15
I200
sba(imain2
Polygon
p2097
(dp2098
g3
(I163
I171
tp2099
sg5
I200
sg6
(I199
I13
I133
I1
tp2100
sg8
(lp2101
(I176
I200
tp2102
a(I127
I183
tp2103
a(I119
I155
tp2104
a(I132
I180
tp2105
a(I193
I148
tp2106
a(I181
I200
tp2107
a(I170
I142
tp2108
a(I191
I152
tp2109
a(I149
I167
tp2110
a(I189
I200
tp2111
a(I125
I167
tp2112
a(I128
I180
tp2113
a(I123
I148
tp2114
a(I142
I200
tp2115
a(I119
I200
tp2116
asg15
I200
sba(imain2
Polygon
p2117
(dp2118
g3
(I184
I20
tp2119
sg5
I200
sg6
(I214
I93
I229
I88
tp2120
sg8
(lp2121
(I200
I0
tp2122
a(I199
I14
tp2123
a(I199
I0
tp2124
a(I200
I69
tp2125
a(I189
I63
tp2126
a(I152
I52
tp2127
a(I166
I14
tp2128
a(I148
I0
tp2129
a(I153
I0
tp2130
a(I200
I0
tp2131
asg15
I200
sba(imain2
Polygon
p2132
(dp2133
g3
(I145
I135
tp2134
sg5
I200
sg6
(I32
I43
I62
I59
tp2135
sg8
(lp2136
(I160
I178
tp2137
a(I183
I129
tp2138
a(I135
I88
tp2139
a(I123
I105
tp2140
a(I110
I168
tp2141
asg15
I200
sba(imain2
Polygon
p2142
(dp2143
g3
(I64
I74
tp2144
sg5
I200
sg6
(I138
I210
I150
I1
tp2145
sg8
(lp2146
(I111
I67
tp2147
a(I74
I124
tp2148
a(I19
I47
tp2149
a(I101
I34
tp2150
asg15
I200
sba(imain2
Polygon
p2151
(dp2152
g3
(I82
I104
tp2153
sg5
I200
sg6
(I49
I157
I199
I0
tp2154
sg8
(lp2155
(I44
I108
tp2156
a(I109
I135
tp2157
a(I92
I142
tp2158
a(I106
I85
tp2159
a(I96
I127
tp2160
a(I114
I102
tp2161
a(I87
I71
tp2162
a(I84
I118
tp2163
a(I68
I150
tp2164
a(I60
I69
tp2165
a(I33
I77
tp2166
asg15
I200
sba(imain2
Polygon
p2167
(dp2168
g3
(I176
I51
tp2169
sg5
I200
sg6
(I115
I211
I87
I0
tp2170
sg8
(lp2171
(I200
I6
tp2172
a(I144
I17
tp2173
a(I126
I56
tp2174
a(I157
I85
tp2175
asg15
I200
sba(imain2
Polygon
p2176
(dp2177
g3
(I18
I179
tp2178
sg5
I200
sg6
(I11
I99
I97
I58
tp2179
sg8
(lp2180
(I26
I200
tp2181
a(I0
I168
tp2182
a(I28
I187
tp2183
a(I0
I198
tp2184
a(I21
I200
tp2185
a(I38
I177
tp2186
a(I48
I200
tp2187
a(I19
I154
tp2188
asg15
I200
sba(imain2
Polygon
p2189
(dp2190
g3
(I112
I97
tp2191
sg5
I200
sg6
(I98
I199
I68
I72
tp2192
sg8
(lp2193
(I117
I118
tp2194
a(I70
I139
tp2195
a(I97
I92
tp2196
a(I106
I74
tp2197
a(I76
I136
tp2198
a(I71
I104
tp2199
a(I93
I140
tp2200
a(I73
I120
tp2201
a(I80
I61
tp2202
a(I129
I124
tp2203
asg15
I200
sba(imain2
Polygon
p2204
(dp2205
g3
(I3
I120
tp2206
sg5
I200
sg6
(I62
I89
I148
I116
tp2207
sg8
(lp2208
(I0
I86
tp2209
a(I0
I74
tp2210
a(I0
I94
tp2211
a(I0
I109
tp2212
a(I43
I80
tp2213
asg15
I200
sba(imain2
Polygon
p2214
(dp2215
g3
(I7
I32
tp2216
sg5
I200
sg6
(I149
I33
I188
I1
tp2217
sg8
(lp2218
(I47
I28
tp2219
a(I0
I27
tp2220
a(I0
I45
tp2221
a(I0
I75
tp2222
a(I38
I59
tp2223
a(I16
I3
tp2224
a(I0
I0
tp2225
a(I0
I66
tp2226
a(I0
I19
tp2227
a(I48
I81
tp2228
a(I7
I43
tp2229
a(I0
I75
tp2230
a(I37
I19
tp2231
a(I0
I25
tp2232
asg15
I200
sba(imain2
Polygon
p2233
(dp2234
g3
(I166
I95
tp2235
sg5
I200
sg6
(I187
I6
I144
I161
tp2236
sg8
(lp2237
(I192
I50
tp2238
a(I200
I127
tp2239
a(I200
I60
tp2240
asg15
I200
sba(imain2
Polygon
p2241
(dp2242
g3
(I197
I92
tp2243
sg5
I200
sg6
(I119
I7
I30
I1
tp2244
sg8
(lp2245
(I153
I126
tp2246
a(I199
I90
tp2247
a(I200
I99
tp2248
a(I200
I108
tp2249
a(I158
I100
tp2250
a(I177
I79
tp2251
a(I183
I56
tp2252
a(I148
I59
tp2253
a(I200
I126
tp2254
a(I200
I105
tp2255
a(I200
I42
tp2256
a(I200
I102
tp2257
asg15
I200
sba(imain2
Polygon
p2258
(dp2259
g3
(I167
I132
tp2260
sg5
I200
sg6
(I220
I57
I87
I0
tp2261
sg8
(lp2262
(I168
I159
tp2263
a(I130
I126
tp2264
a(I159
I107
tp2265
a(I134
I127
tp2266
a(I157
I157
tp2267
a(I200
I112
tp2268
a(I188
I122
tp2269
a(I141
I117
tp2270
a(I117
I113
tp2271
a(I170
I164
tp2272
a(I159
I118
tp2273
a(I177
I144
tp2274
a(I200
I112
tp2275
a(I135
I154
tp2276
a(I161
I84
tp2277
asg15
I200
sba(imain2
Polygon
p2278
(dp2279
g3
(I2
I175
tp2280
sg5
I200
sg6
(I102
I198
I107
I1
tp2281
sg8
(lp2282
(I0
I125
tp2283
a(I0
I128
tp2284
a(I4
I200
tp2285
asg15
I200
sba(imain2
Polygon
p2286
(dp2287
g3
(I148
I121
tp2288
sg5
I200
sg6
(I130
I199
I134
I33
tp2289
sg8
(lp2290
(I121
I139
tp2291
a(I118
I71
tp2292
a(I101
I103
tp2293
a(I128
I125
tp2294
a(I137
I105
tp2295
asg15
I200
sba(imain2
Polygon
p2296
(dp2297
g3
(I26
I154
tp2298
sg5
I200
sg6
(I144
I67
I227
I50
tp2299
sg8
(lp2300
(I35
I156
tp2301
a(I0
I196
tp2302
a(I20
I155
tp2303
a(I0
I149
tp2304
asg15
I200
sba(imain2
Polygon
p2305
(dp2306
g3
(I188
I60
tp2307
sg5
I200
sg6
(I24
I82
I8
I68
tp2308
sg8
(lp2309
(I200
I59
tp2310
a(I148
I100
tp2311
a(I139
I27
tp2312
a(I200
I88
tp2313
a(I200
I73
tp2314
a(I200
I37
tp2315
a(I200
I12
tp2316
a(I200
I53
tp2317
a(I200
I42
tp2318
asg15
I200
sba(imain2
Polygon
p2319
(dp2320
g3
(I29
I0
tp2321
sg5
I200
sg6
(I202
I203
I9
I106
tp2322
sg8
(lp2323
(I77
I0
tp2324
a(I0
I0
tp2325
a(I50
I36
tp2326
a(I45
I18
tp2327
a(I61
I0
tp2328
a(I0
I0
tp2329
a(I0
I50
tp2330
a(I70
I50
tp2331
a(I0
I0
tp2332
a(I0
I0
tp2333
a(I62
I0
tp2334
a(I74
I14
tp2335
a(I36
I44
tp2336
a(I51
I8
tp2337
asg15
I200
sba(imain2
Polygon
p2338
(dp2339
g3
(I92
I198
tp2340
sg5
I200
sg6
(I140
I4
I14
I84
tp2341
sg8
(lp2342
(I96
I170
tp2343
a(I95
I158
tp2344
a(I67
I151
tp2345
a(I90
I200
tp2346
a(I116
I195
tp2347
a(I99
I200
tp2348
a(I90
I200
tp2349
a(I108
I179
tp2350
asg15
I200
sba(imain2
Polygon
p2351
(dp2352
g3
(I149
I42
tp2353
sg5
I200
sg6
(I91
I16
I55
I67
tp2354
sg8
(lp2355
(I145
I16
tp2356
a(I99
I9
tp2357
a(I126
I90
tp2358
a(I167
I91
tp2359
a(I156
I44
tp2360
a(I135
I17
tp2361
a(I145
I8
tp2362
a(I113
I48
tp2363
a(I119
I35
tp2364
asg15
I200
sba(imain2
Polygon
p2365
(dp2366
g3
(I18
I189
tp2367
sg5
I200
sg6
(I71
I8
I171
I1
tp2368
sg8
(lp2369
(I0
I200
tp2370
a(I50
I142
tp2371
a(I9
I200
tp2372
a(I11
I160
tp2373
a(I0
I200
tp2374
a(I5
I167
tp2375
a(I0
I200
tp2376
a(I32
I181
tp2377
a(I62
I173
tp2378
a(I55
I200
tp2379
a(I31
I197
tp2380
a(I56
I183
tp2381
a(I52
I161
tp2382
a(I23
I182
tp2383
a(I52
I146
tp2384
a(I58
I153
tp2385
asg15
I200
sba(imain2
Polygon
p2386
(dp2387
g3
(I88
I199
tp2388
sg5
I200
sg6
(I16
I199
I78
I96
tp2389
sg8
(lp2390
(I125
I200
tp2391
a(I39
I200
tp2392
a(I44
I200
tp2393
a(I103
I197
tp2394
a(I52
I200
tp2395
a(I60
I200
tp2396
a(I84
I200
tp2397
a(I62
I200
tp2398
a(I47
I200
tp2399
asg15
I200
sba(imain2
Polygon
p2400
(dp2401
g3
(I57
I178
tp2402
sg5
I200
sg6
(I22
I121
I163
I1
tp2403
sg8
(lp2404
(I96
I196
tp2405
a(I20
I200
tp2406
a(I55
I131
tp2407
a(I90
I143
tp2408
a(I20
I200
tp2409
asg15
I200
sba(imain2
Polygon
p2410
(dp2411
g3
(I192
I63
tp2412
sg5
I200
sg6
(I115
I242
I124
I112
tp2413
sg8
(lp2414
(I200
I102
tp2415
a(I200
I19
tp2416
a(I200
I28
tp2417
a(I174
I19
tp2418
a(I142
I25
tp2419
a(I193
I97
tp2420
a(I161
I50
tp2421
a(I175
I96
tp2422
a(I183
I98
tp2423
asg15
I200
sba(imain2
Polygon
p2424
(dp2425
g3
(I115
I149
tp2426
sg5
I200
sg6
(I107
I196
I239
I9
tp2427
sg8
(lp2428
(I69
I124
tp2429
a(I98
I114
tp2430
a(I67
I152
tp2431
a(I89
I102
tp2432
a(I94
I115
tp2433
a(I71
I108
tp2434
a(I84
I110
tp2435
a(I103
I101
tp2436
a(I65
I179
tp2437
asg15
I200
sba(imain2
Polygon
p2438
(dp2439
g3
(I89
I107
tp2440
sg5
I200
sg6
(I31
I11
I112
I125
tp2441
sg8
(lp2442
(I135
I96
tp2443
a(I106
I149
tp2444
a(I130
I113
tp2445
a(I137
I85
tp2446
a(I129
I120
tp2447
a(I136
I145
tp2448
asg15
I200
sba(imain2
Polygon
p2449
(dp2450
g3
(I87
I130
tp2451
sg5
I200
sg6
(I168
I110
I151
I1
tp2452
sg8
(lp2453
(I110
I147
tp2454
a(I93
I84
tp2455
a(I101
I179
tp2456
a(I59
I117
tp2457
a(I132
I110
tp2458
a(I48
I126
tp2459
a(I123
I146
tp2460
a(I54
I141
tp2461
a(I87
I159
tp2462
a(I106
I157
tp2463
a(I72
I107
tp2464
a(I103
I85
tp2465
asg15
I200
sba(imain2
Polygon
p2466
(dp2467
g3
(I62
I187
tp2468
sg5
I200
sg6
(I112
I16
I177
I69
tp2469
sg8
(lp2470
(I29
I200
tp2471
a(I22
I200
tp2472
a(I97
I198
tp2473
a(I38
I200
tp2474
a(I17
I200
tp2475
a(I77
I200
tp2476
a(I58
I183
tp2477
a(I66
I189
tp2478
a(I65
I200
tp2479
a(I71
I200
tp2480
a(I24
I200
tp2481
a(I21
I200
tp2482
asg15
I200
sba(imain2
Polygon
p2483
(dp2484
g3
(I59
I26
tp2485
sg5
I200
sg6
(I62
I8
I238
I0
tp2486
sg8
(lp2487
(I14
I33
tp2488
a(I79
I49
tp2489
a(I13
I0
tp2490
a(I81
I0
tp2491
a(I33
I0
tp2492
a(I101
I6
tp2493
a(I92
I63
tp2494
a(I104
I10
tp2495
a(I102
I70
tp2496
asg15
I200
sba(imain2
Polygon
p2497
(dp2498
g3
(I74
I59
tp2499
sg5
I200
sg6
(I1
I48
I105
I1
tp2500
sg8
(lp2501
(I100
I108
tp2502
a(I67
I71
tp2503
a(I76
I11
tp2504
a(I92
I21
tp2505
a(I121
I75
tp2506
a(I79
I79
tp2507
a(I24
I96
tp2508
a(I90
I67
tp2509
a(I32
I27
tp2510
asg15
I200
sba(imain2
Polygon
p2511
(dp2512
g3
(I141
I175
tp2513
sg5
I200
sg6
(I88
I38
I12
I0
tp2514
sg8
(lp2515
(I138
I168
tp2516
a(I163
I150
tp2517
a(I130
I150
tp2518
a(I149
I186
tp2519
a(I118
I200
tp2520
a(I173
I200
tp2521
a(I129
I200
tp2522
a(I183
I174
tp2523
a(I155
I171
tp2524
a(I170
I198
tp2525
a(I114
I174
tp2526
a(I146
I186
tp2527
a(I112
I145
tp2528
a(I180
I193
tp2529
a(I156
I182
tp2530
a(I167
I146
tp2531
a(I103
I195
tp2532
a(I141
I176
tp2533
asg15
I200
sba(imain2
Polygon
p2534
(dp2535
g3
(I114
I81
tp2536
sg5
I200
sg6
(I236
I18
I199
I89
tp2537
sg8
(lp2538
(I121
I101
tp2539
a(I107
I74
tp2540
a(I79
I35
tp2541
a(I125
I101
tp2542
a(I114
I100
tp2543
asg15
I200
sba(imain2
Polygon
p2544
(dp2545
g3
(I191
I128
tp2546
sg5
I200
sg6
(I244
I3
I244
I20
tp2547
sg8
(lp2548
(I156
I149
tp2549
a(I144
I170
tp2550
a(I190
I78
tp2551
a(I200
I164
tp2552
a(I200
I109
tp2553
a(I182
I162
tp2554
a(I187
I85
tp2555
asg15
I200
sba(imain2
Polygon
p2556
(dp2557
g3
(I40
I13
tp2558
sg5
I200
sg6
(I71
I182
I122
I0
tp2559
sg8
(lp2560
(I24
I51
tp2561
a(I0
I0
tp2562
a(I29
I0
tp2563
a(I16
I43
tp2564
a(I55
I27
tp2565
a(I31
I22
tp2566
a(I35
I57
tp2567
a(I26
I0
tp2568
a(I0
I0
tp2569
a(I40
I20
tp2570
a(I1
I44
tp2571
a(I13
I0
tp2572
a(I64
I34
tp2573
a(I4
I0
tp2574
a(I86
I9
tp2575
a(I46
I57
tp2576
a(I74
I32
tp2577
asg15
I200
sba(imain2
Polygon
p2578
(dp2579
g3
(I50
I145
tp2580
sg5
I200
sg6
(I57
I214
I126
I31
tp2581
sg8
(lp2582
(I65
I143
tp2583
a(I98
I131
tp2584
a(I100
I145
tp2585
a(I65
I150
tp2586
a(I19
I190
tp2587
asg15
I200
sba(imain2
Polygon
p2588
(dp2589
g3
(I184
I69
tp2590
sg5
I200
sg6
(I124
I136
I36
I149
tp2591
sg8
(lp2592
(I189
I89
tp2593
a(I200
I86
tp2594
a(I200
I82
tp2595
a(I200
I31
tp2596
a(I200
I33
tp2597
a(I200
I67
tp2598
a(I164
I71
tp2599
a(I174
I114
tp2600
a(I200
I115
tp2601
a(I200
I101
tp2602
a(I195
I79
tp2603
asg15
I200
sba(imain2
Polygon
p2604
(dp2605
g3
(I6
I29
tp2606
sg5
I200
sg6
(I138
I36
I216
I1
tp2607
sg8
(lp2608
(I0
I65
tp2609
a(I0
I40
tp2610
a(I0
I41
tp2611
a(I0
I0
tp2612
a(I51
I0
tp2613
a(I39
I6
tp2614
a(I40
I50
tp2615
asg15
I200
sba(imain2
Polygon
p2616
(dp2617
g3
(I100
I197
tp2618
sg5
I200
sg6
(I30
I136
I61
I84
tp2619
sg8
(lp2620
(I110
I198
tp2621
a(I79
I200
tp2622
a(I50
I198
tp2623
a(I85
I200
tp2624
a(I74
I200
tp2625
a(I67
I200
tp2626
a(I63
I200
tp2627
a(I68
I200
tp2628
asg15
I200
sba(imain2
Polygon
p2629
(dp2630
g3
(I102
I67
tp2631
sg5
I200
sg6
(I110
I66
I88
I0
tp2632
sg8
(lp2633
(I85
I34
tp2634
a(I90
I53
tp2635
a(I59
I86
tp2636
a(I119
I111
tp2637
a(I149
I22
tp2638
a(I134
I38
tp2639
a(I73
I48
tp2640
a(I152
I68
tp2641
a(I84
I36
tp2642
a(I64
I112
tp2643
a(I112
I44
tp2644
asg15
I200
sba(imain2
Polygon
p2645
(dp2646
g3
(I91
I124
tp2647
sg5
I200
sg6
(I166
I67
I9
I132
tp2648
sg8
(lp2649
(I41
I114
tp2650
a(I80
I127
tp2651
a(I75
I116
tp2652
a(I83
I75
tp2653
a(I119
I114
tp2654
a(I111
I171
tp2655
a(I45
I142
tp2656
a(I66
I81
tp2657
a(I119
I80
tp2658
a(I141
I130
tp2659
a(I81
I119
tp2660
a(I76
I76
tp2661
a(I54
I89
tp2662
a(I76
I94
tp2663
asg15
I200
sba(imain2
Polygon
p2664
(dp2665
g3
(I133
I74
tp2666
sg5
I200
sg6
(I15
I174
I92
I0
tp2667
sg8
(lp2668
(I93
I104
tp2669
a(I179
I62
tp2670
a(I134
I83
tp2671
a(I183
I70
tp2672
a(I157
I110
tp2673
a(I107
I107
tp2674
a(I154
I94
tp2675
a(I163
I77
tp2676
a(I113
I112
tp2677
a(I89
I88
tp2678
a(I156
I95
tp2679
a(I133
I83
tp2680
a(I181
I26
tp2681
a(I168
I32
tp2682
a(I171
I91
tp2683
a(I140
I45
tp2684
asg15
I200
sba(imain2
Polygon
p2685
(dp2686
g3
(I181
I185
tp2687
sg5
I200
sg6
(I1
I136
I61
I21
tp2688
sg8
(lp2689
(I192
I200
tp2690
a(I200
I200
tp2691
a(I196
I152
tp2692
asg15
I200
sba(imain2
Polygon
p2693
(dp2694
g3
(I3
I9
tp2695
sg5
I200
sg6
(I114
I15
I43
I132
tp2696
sg8
(lp2697
(I0
I0
tp2698
a(I31
I0
tp2699
a(I0
I0
tp2700
asg15
I200
sba(imain2
Polygon
p2701
(dp2702
g3
(I154
I22
tp2703
sg5
I200
sg6
(I81
I180
I132
I1
tp2704
sg8
(lp2705
(I194
I10
tp2706
a(I184
I0
tp2707
a(I181
I0
tp2708
asg15
I200
sba(imain2
Polygon
p2709
(dp2710
g3
(I3
I51
tp2711
sg5
I200
sg6
(I10
I168
I13
I54
tp2712
sg8
(lp2713
(I0
I44
tp2714
a(I0
I78
tp2715
a(I0
I74
tp2716
asg15
I200
sba(imain2
Polygon
p2717
(dp2718
g3
(I183
I123
tp2719
sg5
I200
sg6
(I44
I171
I189
I107
tp2720
sg8
(lp2721
(I200
I171
tp2722
a(I200
I140
tp2723
a(I200
I98
tp2724
a(I200
I85
tp2725
asg15
I200
sba.