(lp0
(imain2
Polygon
p1
(dp2
S'origin'
p3
(I100
I102
tp4
sS'h'
p5
I200
sS'color'
p6
(I132
I173
I191
I0
tp7
sS'corner_list'
p8
(lp9
(I77
I128
tp10
a(I102
I68
tp11
a(I130
I64
tp12
a(I126
I102
tp13
a(I128
I118
tp14
asS'w'
p15
I200
sba(imain2
Polygon
p16
(dp17
g3
(I142
I122
tp18
sg5
I200
sg6
(I20
I220
I130
I35
tp19
sg8
(lp20
(I101
I108
tp21
a(I95
I104
tp22
a(I106
I160
tp23
a(I177
I137
tp24
a(I109
I157
tp25
a(I93
I95
tp26
a(I119
I85
tp27
a(I188
I130
tp28
a(I166
I82
tp29
a(I192
I113
tp30
a(I136
I104
tp31
a(I134
I86
tp32
a(I102
I138
tp33
asg15
I200
sba(imain2
Polygon
p34
(dp35
g3
(I39
I24
tp36
sg5
I200
sg6
(I241
I164
I200
I1
tp37
sg8
(lp38
(I88
I73
tp39
a(I20
I46
tp40
a(I61
I39
tp41
a(I66
I60
tp42
a(I50
I25
tp43
a(I57
I0
tp44
asg15
I200
sba(imain2
Polygon
p45
(dp46
g3
(I87
I73
tp47
sg5
I200
sg6
(I160
I18
I198
I99
tp48
sg8
(lp49
(I103
I121
tp50
a(I130
I63
tp51
a(I82
I102
tp52
a(I62
I79
tp53
a(I68
I47
tp54
a(I56
I110
tp55
a(I73
I103
tp56
a(I64
I117
tp57
a(I47
I56
tp58
a(I77
I37
tp59
a(I131
I68
tp60
a(I59
I104
tp61
a(I128
I91
tp62
a(I37
I92
tp63
asg15
I200
sba(imain2
Polygon
p64
(dp65
g3
(I75
I185
tp66
sg5
I200
sg6
(I70
I1
I89
I89
tp67
sg8
(lp68
(I90
I200
tp69
a(I125
I163
tp70
a(I123
I140
tp71
a(I120
I200
tp72
a(I72
I200
tp73
a(I68
I195
tp74
a(I98
I174
tp75
asg15
I200
sba(imain2
Polygon
p76
(dp77
g3
(I51
I161
tp78
sg5
I200
sg6
(I131
I133
I16
I97
tp79
sg8
(lp80
(I86
I200
tp81
a(I55
I200
tp82
a(I96
I190
tp83
a(I67
I140
tp84
a(I76
I152
tp85
asg15
I200
sba(imain2
Polygon
p86
(dp87
g3
(I76
I107
tp88
sg5
I200
sg6
(I159
I39
I202
I119
tp89
sg8
(lp90
(I113
I136
tp91
a(I40
I71
tp92
a(I37
I76
tp93
a(I55
I67
tp94
a(I106
I86
tp95
a(I107
I154
tp96
a(I53
I141
tp97
a(I48
I92
tp98
a(I101
I62
tp99
a(I76
I59
tp100
a(I113
I77
tp101
a(I87
I117
tp102
asg15
I200
sba(imain2
Polygon
p103
(dp104
g3
(I79
I45
tp105
sg5
I200
sg6
(I222
I2
I243
I0
tp106
sg8
(lp107
(I52
I93
tp108
a(I121
I88
tp109
a(I37
I47
tp110
a(I39
I66
tp111
a(I102
I24
tp112
asg15
I200
sba(imain2
Polygon
p113
(dp114
g3
(I123
I186
tp115
sg5
I200
sg6
(I49
I15
I43
I0
tp116
sg8
(lp117
(I167
I200
tp118
a(I148
I200
tp119
a(I113
I143
tp120
a(I153
I138
tp121
a(I124
I200
tp122
asg15
I200
sba(imain2
Polygon
p123
(dp124
g3
(I74
I162
tp125
sg5
I200
sg6
(I155
I94
I212
I0
tp126
sg8
(lp127
(I96
I141
tp128
a(I100
I168
tp129
a(I37
I128
tp130
a(I79
I200
tp131
a(I48
I137
tp132
a(I44
I183
tp133
a(I112
I160
tp134
a(I45
I191
tp135
a(I60
I180
tp136
a(I95
I167
tp137
a(I110
I141
tp138
a(I105
I152
tp139
asg15
I200
sba(imain2
Polygon
p140
(dp141
g3
(I64
I120
tp142
sg5
I200
sg6
(I233
I41
I171
I0
tp143
sg8
(lp144
(I113
I141
tp145
a(I33
I157
tp146
a(I92
I162
tp147
a(I105
I141
tp148
asg15
I200
sba(imain2
Polygon
p149
(dp150
g3
(I2
I37
tp151
sg5
I200
sg6
(I135
I135
I101
I112
tp152
sg8
(lp153
(I0
I0
tp154
a(I36
I34
tp155
a(I4
I47
tp156
a(I20
I35
tp157
a(I0
I66
tp158
a(I41
I3
tp159
a(I36
I68
tp160
a(I21
I15
tp161
a(I39
I86
tp162
a(I0
I85
tp163
asg15
I200
sba(imain2
Polygon
p164
(dp165
g3
(I161
I116
tp166
sg5
I200
sg6
(I152
I94
I114
I58
tp167
sg8
(lp168
(I113
I144
tp169
a(I200
I152
tp170
a(I168
I90
tp171
a(I170
I71
tp172
a(I163
I108
tp173
a(I194
I136
tp174
a(I176
I87
tp175
a(I182
I147
tp176
asg15
I200
sba(imain2
Polygon
p177
(dp178
g3
(I171
I44
tp179
sg5
I200
sg6
(I133
I236
I105
I113
tp180
sg8
(lp181
(I200
I15
tp182
a(I157
I22
tp183
a(I200
I89
tp184
a(I200
I0
tp185
a(I132
I0
tp186
a(I134
I87
tp187
a(I133
I52
tp188
a(I161
I77
tp189
a(I200
I93
tp190
a(I143
I0
tp191
a(I170
I71
tp192
a(I148
I77
tp193
a(I125
I35
tp194
asg15
I200
sba(imain2
Polygon
p195
(dp196
g3
(I196
I163
tp197
sg5
I200
sg6
(I37
I167
I6
I34
tp198
sg8
(lp199
(I200
I176
tp200
a(I200
I197
tp201
a(I200
I191
tp202
a(I200
I134
tp203
a(I193
I170
tp204
a(I200
I141
tp205
a(I155
I170
tp206
a(I200
I182
tp207
a(I199
I172
tp208
a(I200
I113
tp209
a(I170
I173
tp210
a(I179
I115
tp211
a(I171
I129
tp212
asg15
I200
sba(imain2
Polygon
p213
(dp214
g3
(I123
I35
tp215
sg5
I200
sg6
(I144
I61
I71
I0
tp216
sg8
(lp217
(I150
I83
tp218
a(I148
I40
tp219
a(I159
I54
tp220
a(I98
I0
tp221
a(I158
I15
tp222
a(I90
I72
tp223
a(I93
I22
tp224
a(I94
I0
tp225
a(I172
I74
tp226
asg15
I200
sba(imain2
Polygon
p227
(dp228
g3
(I38
I152
tp229
sg5
I200
sg6
(I94
I165
I34
I134
tp230
sg8
(lp231
(I87
I136
tp232
a(I53
I103
tp233
a(I49
I126
tp234
a(I73
I158
tp235
asg15
I200
sba(imain2
Polygon
p236
(dp237
g3
(I118
I157
tp238
sg5
I200
sg6
(I87
I63
I44
I0
tp239
sg8
(lp240
(I152
I159
tp241
a(I115
I173
tp242
a(I150
I150
tp243
asg15
I200
sba(imain2
Polygon
p244
(dp245
g3
(I10
I175
tp246
sg5
I200
sg6
(I175
I54
I61
I17
tp247
sg8
(lp248
(I0
I141
tp249
a(I56
I147
tp250
a(I0
I200
tp251
a(I0
I168
tp252
a(I0
I183
tp253
a(I0
I200
tp254
asg15
I200
sba(imain2
Polygon
p255
(dp256
g3
(I4
I131
tp257
sg5
I200
sg6
(I124
I52
I62
I0
tp258
sg8
(lp259
(I25
I135
tp260
a(I41
I127
tp261
a(I29
I157
tp262
a(I0
I148
tp263
a(I0
I167
tp264
a(I18
I159
tp265
a(I0
I176
tp266
a(I0
I119
tp267
a(I37
I152
tp268
a(I0
I164
tp269
a(I53
I167
tp270
a(I0
I136
tp271
asg15
I200
sba(imain2
Polygon
p272
(dp273
g3
(I75
I51
tp274
sg5
I200
sg6
(I103
I198
I1
I15
tp275
sg8
(lp276
(I73
I93
tp277
a(I27
I68
tp278
a(I60
I74
tp279
a(I34
I7
tp280
a(I105
I56
tp281
a(I115
I39
tp282
asg15
I200
sba(imain2
Polygon
p283
(dp284
g3
(I18
I101
tp285
sg5
I200
sg6
(I0
I11
I70
I52
tp286
sg8
(lp287
(I28
I94
tp288
a(I15
I116
tp289
a(I0
I56
tp290
a(I5
I78
tp291
a(I4
I107
tp292
a(I37
I67
tp293
a(I0
I130
tp294
a(I45
I64
tp295
asg15
I200
sba(imain2
Polygon
p296
(dp297
g3
(I97
I199
tp298
sg5
I200
sg6
(I0
I109
I46
I116
tp299
sg8
(lp300
(I91
I200
tp301
a(I104
I199
tp302
a(I131
I200
tp303
a(I135
I171
tp304
a(I77
I191
tp305
a(I122
I200
tp306
a(I97
I158
tp307
a(I87
I180
tp308
a(I69
I200
tp309
a(I87
I171
tp310
a(I99
I160
tp311
a(I132
I156
tp312
a(I88
I200
tp313
asg15
I200
sba(imain2
Polygon
p314
(dp315
g3
(I102
I104
tp316
sg5
I200
sg6
(I220
I122
I127
I73
tp317
sg8
(lp318
(I105
I151
tp319
a(I105
I63
tp320
a(I59
I58
tp321
a(I57
I131
tp322
a(I74
I153
tp323
a(I78
I110
tp324
asg15
I200
sba(imain2
Polygon
p325
(dp326
g3
(I177
I176
tp327
sg5
I200
sg6
(I112
I207
I215
I43
tp328
sg8
(lp329
(I200
I138
tp330
a(I167
I145
tp331
a(I200
I200
tp332
asg15
I200
sba(imain2
Polygon
p333
(dp334
g3
(I99
I27
tp335
sg5
I200
sg6
(I72
I84
I0
I108
tp336
sg8
(lp337
(I143
I0
tp338
a(I53
I0
tp339
a(I97
I73
tp340
a(I139
I50
tp341
asg15
I200
sba(imain2
Polygon
p342
(dp343
g3
(I138
I156
tp344
sg5
I200
sg6
(I19
I57
I187
I0
tp345
sg8
(lp346
(I134
I187
tp347
a(I141
I197
tp348
a(I111
I148
tp349
asg15
I200
sba(imain2
Polygon
p350
(dp351
g3
(I100
I129
tp352
sg5
I200
sg6
(I113
I215
I220
I0
tp353
sg8
(lp354
(I64
I131
tp355
a(I85
I161
tp356
a(I102
I174
tp357
asg15
I200
sba(imain2
Polygon
p358
(dp359
g3
(I90
I2
tp360
sg5
I200
sg6
(I195
I195
I2
I1
tp361
sg8
(lp362
(I132
I0
tp363
a(I84
I39
tp364
a(I122
I0
tp365
a(I49
I48
tp366
a(I90
I51
tp367
a(I89
I45
tp368
a(I49
I18
tp369
a(I115
I17
tp370
a(I107
I0
tp371
asg15
I200
sba(imain2
Polygon
p372
(dp373
g3
(I76
I49
tp374
sg5
I200
sg6
(I246
I164
I177
I99
tp375
sg8
(lp376
(I52
I54
tp377
a(I62
I34
tp378
a(I99
I36
tp379
a(I124
I78
tp380
a(I91
I88
tp381
a(I47
I82
tp382
asg15
I200
sba(imain2
Polygon
p383
(dp384
g3
(I135
I193
tp385
sg5
I200
sg6
(I204
I201
I63
I1
tp386
sg8
(lp387
(I150
I200
tp388
a(I124
I200
tp389
a(I132
I166
tp390
a(I91
I200
tp391
a(I178
I191
tp392
a(I113
I200
tp393
a(I129
I171
tp394
a(I132
I200
tp395
a(I149
I200
tp396
asg15
I200
sba(imain2
Polygon
p397
(dp398
g3
(I156
I197
tp399
sg5
I200
sg6
(I79
I232
I80
I11
tp400
sg8
(lp401
(I183
I162
tp402
a(I198
I200
tp403
a(I112
I200
tp404
a(I108
I171
tp405
a(I200
I200
tp406
asg15
I200
sba(imain2
Polygon
p407
(dp408
g3
(I159
I95
tp409
sg5
I200
sg6
(I163
I24
I16
I0
tp410
sg8
(lp411
(I176
I110
tp412
a(I142
I142
tp413
a(I114
I45
tp414
a(I200
I98
tp415
a(I116
I98
tp416
a(I154
I110
tp417
a(I153
I85
tp418
a(I163
I133
tp419
a(I111
I61
tp420
asg15
I200
sba(imain2
Polygon
p421
(dp422
g3
(I130
I187
tp423
sg5
I200
sg6
(I177
I73
I86
I72
tp424
sg8
(lp425
(I138
I200
tp426
a(I152
I194
tp427
a(I150
I166
tp428
a(I168
I192
tp429
a(I164
I200
tp430
a(I97
I159
tp431
a(I90
I200
tp432
asg15
I200
sba(imain2
Polygon
p433
(dp434
g3
(I56
I194
tp435
sg5
I200
sg6
(I191
I173
I1
I36
tp436
sg8
(lp437
(I6
I200
tp438
a(I26
I200
tp439
a(I15
I171
tp440
a(I36
I176
tp441
a(I17
I200
tp442
a(I23
I200
tp443
a(I6
I200
tp444
a(I75
I169
tp445
asg15
I200
sba(imain2
Polygon
p446
(dp447
g3
(I180
I160
tp448
sg5
I200
sg6
(I29
I39
I108
I58
tp449
sg8
(lp450
(I192
I143
tp451
a(I162
I139
tp452
a(I182
I184
tp453
a(I200
I167
tp454
a(I196
I176
tp455
a(I200
I161
tp456
a(I163
I153
tp457
a(I161
I136
tp458
a(I200
I128
tp459
asg15
I200
sba(imain2
Polygon
p460
(dp461
g3
(I12
I87
tp462
sg5
I200
sg6
(I49
I129
I182
I10
tp463
sg8
(lp464
(I0
I89
tp465
a(I0
I54
tp466
a(I53
I118
tp467
a(I36
I59
tp468
a(I18
I37
tp469
a(I0
I121
tp470
a(I1
I124
tp471
asg15
I200
sba(imain2
Polygon
p472
(dp473
g3
(I123
I91
tp474
sg5
I200
sg6
(I230
I0
I184
I62
tp475
sg8
(lp476
(I93
I69
tp477
a(I99
I140
tp478
a(I124
I58
tp479
a(I77
I123
tp480
a(I112
I65
tp481
asg15
I200
sba(imain2
Polygon
p482
(dp483
g3
(I80
I122
tp484
sg5
I200
sg6
(I220
I176
I139
I77
tp485
sg8
(lp486
(I116
I143
tp487
a(I129
I85
tp488
a(I44
I101
tp489
a(I75
I158
tp490
a(I123
I146
tp491
asg15
I200
sba(imain2
Polygon
p492
(dp493
g3
(I119
I156
tp494
sg5
I200
sg6
(I125
I214
I195
I45
tp495
sg8
(lp496
(I96
I178
tp497
a(I141
I200
tp498
a(I103
I123
tp499
a(I90
I178
tp500
a(I70
I199
tp501
a(I133
I200
tp502
a(I69
I119
tp503
a(I111
I144
tp504
a(I69
I110
tp505
a(I111
I199
tp506
asg15
I200
sba(imain2
Polygon
p507
(dp508
g3
(I66
I96
tp509
sg5
I200
sg6
(I109
I72
I64
I104
tp510
sg8
(lp511
(I24
I133
tp512
a(I20
I88
tp513
a(I59
I80
tp514
a(I64
I124
tp515
a(I72
I129
tp516
a(I100
I145
tp517
a(I30
I82
tp518
a(I36
I114
tp519
asg15
I200
sba(imain2
Polygon
p520
(dp521
g3
(I17
I178
tp522
sg5
I200
sg6
(I82
I65
I13
I1
tp523
sg8
(lp524
(I0
I175
tp525
a(I1
I200
tp526
a(I0
I174
tp527
a(I17
I200
tp528
a(I20
I150
tp529
a(I0
I128
tp530
a(I24
I133
tp531
asg15
I200
sba(imain2
Polygon
p532
(dp533
g3
(I196
I157
tp534
sg5
I200
sg6
(I26
I207
I68
I0
tp535
sg8
(lp536
(I147
I199
tp537
a(I200
I139
tp538
a(I200
I161
tp539
a(I200
I170
tp540
a(I200
I120
tp541
a(I200
I146
tp542
a(I200
I199
tp543
a(I189
I185
tp544
a(I165
I144
tp545
a(I168
I182
tp546
a(I183
I146
tp547
a(I200
I174
tp548
a(I200
I134
tp549
a(I200
I166
tp550
a(I163
I117
tp551
a(I200
I185
tp552
a(I161
I119
tp553
a(I200
I151
tp554
a(I163
I139
tp555
asg15
I200
sba(imain2
Polygon
p556
(dp557
g3
(I7
I138
tp558
sg5
I200
sg6
(I209
I109
I9
I0
tp559
sg8
(lp560
(I0
I180
tp561
a(I47
I188
tp562
a(I30
I114
tp563
a(I0
I163
tp564
a(I11
I151
tp565
a(I0
I88
tp566
a(I0
I180
tp567
a(I37
I159
tp568
a(I0
I157
tp569
a(I0
I98
tp570
a(I29
I156
tp571
a(I15
I108
tp572
a(I0
I141
tp573
a(I23
I119
tp574
asg15
I200
sba(imain2
Polygon
p575
(dp576
g3
(I49
I75
tp577
sg5
I200
sg6
(I117
I229
I14
I26
tp578
sg8
(lp579
(I97
I31
tp580
a(I96
I95
tp581
a(I60
I123
tp582
a(I38
I118
tp583
a(I35
I74
tp584
a(I91
I46
tp585
a(I35
I64
tp586
a(I75
I88
tp587
a(I0
I118
tp588
a(I3
I64
tp589
a(I8
I49
tp590
a(I41
I49
tp591
a(I47
I83
tp592
a(I93
I71
tp593
a(I41
I61
tp594
asg15
I200
sba(imain2
Polygon
p595
(dp596
g3
(I75
I73
tp597
sg5
I200
sg6
(I161
I134
I136
I136
tp598
sg8
(lp599
(I108
I39
tp600
a(I122
I103
tp601
a(I47
I117
tp602
a(I62
I34
tp603
asg15
I200
sba(imain2
Polygon
p604
(dp605
g3
(I82
I103
tp606
sg5
I200
sg6
(I96
I96
I59
I0
tp607
sg8
(lp608
(I49
I116
tp609
a(I86
I105
tp610
a(I53
I131
tp611
a(I124
I68
tp612
a(I36
I91
tp613
a(I67
I133
tp614
a(I92
I71
tp615
a(I95
I67
tp616
a(I131
I64
tp617
a(I118
I113
tp618
a(I60
I69
tp619
a(I61
I89
tp620
a(I114
I87
tp621
a(I41
I99
tp622
a(I93
I107
tp623
a(I128
I131
tp624
a(I72
I77
tp625
a(I132
I87
tp626
a(I54
I64
tp627
a(I55
I149
tp628
asg15
I200
sba(imain2
Polygon
p629
(dp630
g3
(I126
I26
tp631
sg5
I200
sg6
(I238
I182
I126
I112
tp632
sg8
(lp633
(I138
I12
tp634
a(I156
I0
tp635
a(I122
I21
tp636
a(I78
I4
tp637
a(I77
I0
tp638
a(I162
I0
tp639
a(I176
I38
tp640
a(I168
I75
tp641
asg15
I200
sba(imain2
Polygon
p642
(dp643
g3
(I128
I23
tp644
sg5
I200
sg6
(I106
I0
I85
I0
tp645
sg8
(lp646
(I125
I0
tp647
a(I116
I49
tp648
a(I137
I0
tp649
a(I147
I0
tp650
a(I102
I0
tp651
a(I103
I28
tp652
a(I155
I58
tp653
a(I153
I43
tp654
a(I116
I0
tp655
a(I87
I56
tp656
a(I153
I0
tp657
a(I144
I0
tp658
a(I92
I33
tp659
a(I97
I59
tp660
asg15
I200
sba(imain2
Polygon
p661
(dp662
g3
(I147
I59
tp663
sg5
I200
sg6
(I1
I240
I189
I68
tp664
sg8
(lp665
(I164
I32
tp666
a(I155
I19
tp667
a(I196
I104
tp668
asg15
I200
sba(imain2
Polygon
p669
(dp670
g3
(I105
I192
tp671
sg5
I200
sg6
(I178
I20
I174
I0
tp672
sg8
(lp673
(I150
I178
tp674
a(I76
I200
tp675
a(I97
I200
tp676
a(I101
I200
tp677
asg15
I200
sba(imain2
Polygon
p678
(dp679
g3
(I144
I60
tp680
sg5
I200
sg6
(I59
I234
I8
I0
tp681
sg8
(lp682
(I100
I77
tp683
a(I160
I42
tp684
a(I131
I18
tp685
a(I108
I75
tp686
a(I186
I102
tp687
asg15
I200
sba(imain2
Polygon
p688
(dp689
g3
(I177
I86
tp690
sg5
I200
sg6
(I168
I33
I16
I1
tp691
sg8
(lp692
(I179
I46
tp693
a(I165
I74
tp694
a(I192
I40
tp695
a(I200
I88
tp696
a(I200
I55
tp697
a(I141
I67
tp698
asg15
I200
sba(imain2
Polygon
p699
(dp700
g3
(I157
I117
tp701
sg5
I200
sg6
(I43
I28
I0
I68
tp702
sg8
(lp703
(I188
I133
tp704
a(I200
I147
tp705
a(I128
I75
tp706
a(I142
I67
tp707
a(I198
I74
tp708
a(I183
I145
tp709
a(I200
I151
tp710
a(I189
I84
tp711
asg15
I200
sba(imain2
Polygon
p712
(dp713
g3
(I155
I192
tp714
sg5
I200
sg6
(I1
I36
I195
I0
tp715
sg8
(lp716
(I200
I165
tp717
a(I145
I200
tp718
a(I137
I160
tp719
a(I111
I200
tp720
a(I187
I169
tp721
a(I176
I183
tp722
a(I110
I173
tp723
a(I153
I200
tp724
a(I156
I200
tp725
asg15
I200
sba(imain2
Polygon
p726
(dp727
g3
(I103
I158
tp728
sg5
I200
sg6
(I13
I45
I119
I66
tp729
sg8
(lp730
(I107
I154
tp731
a(I87
I181
tp732
a(I57
I174
tp733
a(I121
I144
tp734
a(I99
I154
tp735
a(I131
I117
tp736
a(I66
I200
tp737
a(I96
I148
tp738
asg15
I200
sba(imain2
Polygon
p739
(dp740
g3
(I9
I151
tp741
sg5
I200
sg6
(I123
I83
I57
I37
tp742
sg8
(lp743
(I0
I173
tp744
a(I0
I173
tp745
a(I0
I126
tp746
a(I21
I130
tp747
a(I0
I157
tp748
a(I6
I192
tp749
a(I44
I122
tp750
a(I0
I159
tp751
a(I0
I102
tp752
asg15
I200
sba(imain2
Polygon
p753
(dp754
g3
(I114
I115
tp755
sg5
I200
sg6
(I166
I159
I140
I5
tp756
sg8
(lp757
(I74
I83
tp758
a(I75
I107
tp759
a(I64
I113
tp760
a(I142
I125
tp761
a(I89
I155
tp762
a(I64
I162
tp763
asg15
I200
sba(imain2
Polygon
p764
(dp765
g3
(I114
I99
tp766
sg5
I200
sg6
(I61
I240
I8
I53
tp767
sg8
(lp768
(I128
I108
tp769
a(I126
I70
tp770
a(I104
I71
tp771
a(I150
I79
tp772
a(I95
I94
tp773
a(I72
I108
tp774
a(I82
I55
tp775
a(I70
I56
tp776
a(I67
I105
tp777
a(I103
I135
tp778
a(I69
I62
tp779
a(I139
I67
tp780
asg15
I200
sba(imain2
Polygon
p781
(dp782
g3
(I173
I62
tp783
sg5
I200
sg6
(I1
I41
I168
I106
tp784
sg8
(lp785
(I200
I82
tp786
a(I200
I84
tp787
a(I153
I79
tp788
a(I192
I90
tp789
asg15
I200
sba(imain2
Polygon
p790
(dp791
g3
(I199
I171
tp792
sg5
I200
sg6
(I1
I235
I13
I32
tp793
sg8
(lp794
(I200
I200
tp795
a(I200
I186
tp796
a(I199
I149
tp797
asg15
I200
sba(imain2
Polygon
p798
(dp799
g3
(I195
I126
tp800
sg5
I200
sg6
(I211
I217
I28
I0
tp801
sg8
(lp802
(I146
I99
tp803
a(I200
I116
tp804
a(I200
I114
tp805
a(I200
I164
tp806
a(I200
I129
tp807
a(I200
I114
tp808
a(I175
I79
tp809
a(I200
I91
tp810
a(I188
I145
tp811
a(I179
I163
tp812
a(I183
I169
tp813
a(I199
I106
tp814
a(I170
I145
tp815
a(I187
I122
tp816
asg15
I200
sba(imain2
Polygon
p817
(dp818
g3
(I51
I190
tp819
sg5
I200
sg6
(I125
I173
I100
I70
tp820
sg8
(lp821
(I40
I200
tp822
a(I11
I200
tp823
a(I36
I200
tp824
a(I60
I200
tp825
a(I96
I168
tp826
a(I97
I200
tp827
a(I55
I200
tp828
a(I3
I200
tp829
a(I70
I200
tp830
asg15
I200
sba(imain2
Polygon
p831
(dp832
g3
(I200
I5
tp833
sg5
I200
sg6
(I187
I108
I44
I1
tp834
sg8
(lp835
(I200
I50
tp836
a(I165
I53
tp837
a(I165
I28
tp838
a(I200
I17
tp839
a(I185
I0
tp840
a(I167
I0
tp841
a(I193
I6
tp842
a(I200
I24
tp843
asg15
I200
sba(imain2
Polygon
p844
(dp845
g3
(I147
I166
tp846
sg5
I200
sg6
(I115
I241
I223
I15
tp847
sg8
(lp848
(I108
I131
tp849
a(I136
I187
tp850
a(I107
I165
tp851
a(I123
I166
tp852
a(I132
I125
tp853
a(I103
I176
tp854
a(I124
I199
tp855
asg15
I200
sba(imain2
Polygon
p856
(dp857
g3
(I16
I191
tp858
sg5
I200
sg6
(I129
I47
I222
I0
tp859
sg8
(lp860
(I0
I154
tp861
a(I59
I200
tp862
a(I55
I168
tp863
asg15
I200
sba(imain2
Polygon
p864
(dp865
g3
(I94
I9
tp866
sg5
I200
sg6
(I199
I51
I20
I1
tp867
sg8
(lp868
(I134
I41
tp869
a(I78
I0
tp870
a(I64
I48
tp871
a(I105
I0
tp872
a(I101
I37
tp873
a(I46
I24
tp874
a(I116
I28
tp875
a(I109
I0
tp876
a(I137
I18
tp877
a(I75
I11
tp878
asg15
I200
sba(imain2
Polygon
p879
(dp880
g3
(I111
I113
tp881
sg5
I200
sg6
(I90
I31
I146
I1
tp882
sg8
(lp883
(I83
I120
tp884
a(I85
I110
tp885
a(I158
I91
tp886
a(I74
I126
tp887
asg15
I200
sba(imain2
Polygon
p888
(dp889
g3
(I10
I81
tp890
sg5
I200
sg6
(I220
I163
I194
I1
tp891
sg8
(lp892
(I60
I131
tp893
a(I0
I33
tp894
a(I0
I62
tp895
a(I12
I107
tp896
a(I0
I101
tp897
a(I60
I111
tp898
a(I0
I116
tp899
a(I0
I111
tp900
a(I0
I105
tp901
a(I46
I129
tp902
a(I2
I80
tp903
asg15
I200
sba(imain2
Polygon
p904
(dp905
g3
(I10
I22
tp906
sg5
I200
sg6
(I218
I205
I107
I73
tp907
sg8
(lp908
(I13
I31
tp909
a(I41
I0
tp910
a(I47
I58
tp911
a(I8
I71
tp912
a(I0
I70
tp913
a(I12
I0
tp914
a(I0
I0
tp915
a(I0
I66
tp916
a(I13
I7
tp917
a(I0
I14
tp918
a(I26
I4
tp919
asg15
I200
sba(imain2
Polygon
p920
(dp921
g3
(I19
I169
tp922
sg5
I200
sg6
(I89
I217
I80
I1
tp923
sg8
(lp924
(I49
I128
tp925
a(I44
I183
tp926
a(I20
I192
tp927
a(I0
I200
tp928
asg15
I200
sba(imain2
Polygon
p929
(dp930
g3
(I194
I7
tp931
sg5
I200
sg6
(I163
I91
I134
I8
tp932
sg8
(lp933
(I200
I0
tp934
a(I200
I0
tp935
a(I200
I29
tp936
a(I160
I25
tp937
a(I200
I5
tp938
a(I158
I0
tp939
a(I200
I0
tp940
a(I200
I29
tp941
a(I180
I0
tp942
a(I153
I25
tp943
asg15
I200
sba(imain2
Polygon
p944
(dp945
g3
(I42
I15
tp946
sg5
I200
sg6
(I148
I137
I164
I1
tp947
sg8
(lp948
(I55
I36
tp949
a(I61
I9
tp950
a(I74
I10
tp951
a(I0
I65
tp952
a(I0
I8
tp953
a(I20
I46
tp954
a(I88
I8
tp955
a(I68
I0
tp956
a(I17
I0
tp957
asg15
I200
sba(imain2
Polygon
p958
(dp959
g3
(I183
I77
tp960
sg5
I200
sg6
(I25
I141
I28
I36
tp961
sg8
(lp962
(I156
I35
tp963
a(I200
I86
tp964
a(I156
I32
tp965
a(I200
I40
tp966
a(I192
I65
tp967
a(I200
I90
tp968
asg15
I200
sba(imain2
Polygon
p969
(dp970
g3
(I190
I45
tp971
sg5
I200
sg6
(I178
I46
I185
I0
tp972
sg8
(lp973
(I200
I8
tp974
a(I200
I26
tp975
a(I200
I14
tp976
a(I200
I31
tp977
a(I179
I86
tp978
a(I200
I7
tp979
a(I200
I81
tp980
a(I196
I11
tp981
a(I200
I70
tp982
asg15
I200
sba(imain2
Polygon
p983
(dp984
g3
(I115
I69
tp985
sg5
I200
sg6
(I0
I121
I192
I0
tp986
sg8
(lp987
(I77
I118
tp988
a(I67
I86
tp989
a(I84
I62
tp990
a(I91
I116
tp991
a(I128
I106
tp992
asg15
I200
sba(imain2
Polygon
p993
(dp994
g3
(I173
I121
tp995
sg5
I200
sg6
(I243
I56
I22
I0
tp996
sg8
(lp997
(I164
I100
tp998
a(I161
I155
tp999
a(I185
I134
tp1000
a(I164
I125
tp1001
a(I200
I144
tp1002
a(I200
I89
tp1003
a(I192
I111
tp1004
a(I156
I114
tp1005
a(I144
I170
tp1006
asg15
I200
sba(imain2
Polygon
p1007
(dp1008
g3
(I45
I135
tp1009
sg5
I200
sg6
(I149
I127
I178
I49
tp1010
sg8
(lp1011
(I7
I177
tp1012
a(I21
I178
tp1013
a(I23
I86
tp1014
a(I0
I183
tp1015
a(I35
I86
tp1016
a(I9
I89
tp1017
asg15
I200
sba(imain2
Polygon
p1018
(dp1019
g3
(I61
I48
tp1020
sg5
I200
sg6
(I77
I34
I123
I123
tp1021
sg8
(lp1022
(I71
I86
tp1023
a(I81
I91
tp1024
a(I73
I78
tp1025
a(I47
I85
tp1026
a(I68
I93
tp1027
a(I86
I72
tp1028
a(I85
I73
tp1029
a(I53
I98
tp1030
asg15
I200
sba(imain2
Polygon
p1031
(dp1032
g3
(I96
I154
tp1033
sg5
I200
sg6
(I149
I185
I186
I66
tp1034
sg8
(lp1035
(I51
I113
tp1036
a(I75
I149
tp1037
a(I90
I200
tp1038
a(I142
I200
tp1039
a(I53
I114
tp1040
a(I124
I143
tp1041
asg15
I200
sba(imain2
Polygon
p1042
(dp1043
g3
(I32
I146
tp1044
sg5
I200
sg6
(I62
I240
I71
I109
tp1045
sg8
(lp1046
(I0
I157
tp1047
a(I0
I165
tp1048
a(I0
I132
tp1049
asg15
I200
sba(imain2
Polygon
p1050
(dp1051
g3
(I3
I120
tp1052
sg5
I200
sg6
(I186
I177
I17
I56
tp1053
sg8
(lp1054
(I38
I71
tp1055
a(I0
I72
tp1056
a(I0
I90
tp1057
a(I0
I104
tp1058
a(I0
I132
tp1059
a(I20
I116
tp1060
asg15
I200
sba(imain2
Polygon
p1061
(dp1062
g3
(I74
I152
tp1063
sg5
I200
sg6
(I59
I80
I126
I0
tp1064
sg8
(lp1065
(I76
I114
tp1066
a(I80
I138
tp1067
a(I39
I140
tp1068
a(I123
I177
tp1069
a(I81
I127
tp1070
a(I35
I167
tp1071
a(I58
I155
tp1072
a(I118
I127
tp1073
a(I81
I105
tp1074
a(I88
I139
tp1075
a(I87
I200
tp1076
asg15
I200
sba(imain2
Polygon
p1077
(dp1078
g3
(I31
I192
tp1079
sg5
I200
sg6
(I154
I33
I134
I1
tp1080
sg8
(lp1081
(I0
I181
tp1082
a(I8
I189
tp1083
a(I0
I200
tp1084
a(I5
I196
tp1085
a(I36
I200
tp1086
a(I80
I200
tp1087
a(I53
I200
tp1088
a(I75
I161
tp1089
a(I59
I150
tp1090
a(I41
I172
tp1091
a(I22
I162
tp1092
a(I17
I200
tp1093
a(I7
I200
tp1094
a(I79
I157
tp1095
a(I34
I200
tp1096
a(I31
I164
tp1097
a(I0
I200
tp1098
asg15
I200
sba(imain2
Polygon
p1099
(dp1100
g3
(I99
I149
tp1101
sg5
I200
sg6
(I189
I32
I204
I1
tp1102
sg8
(lp1103
(I110
I116
tp1104
a(I83
I160
tp1105
a(I101
I127
tp1106
a(I124
I139
tp1107
a(I114
I142
tp1108
a(I79
I154
tp1109
a(I115
I191
tp1110
a(I49
I180
tp1111
a(I149
I178
tp1112
a(I124
I194
tp1113
a(I133
I121
tp1114
a(I103
I151
tp1115
a(I123
I124
tp1116
a(I78
I148
tp1117
a(I121
I174
tp1118
asg15
I200
sba(imain2
Polygon
p1119
(dp1120
g3
(I183
I115
tp1121
sg5
I200
sg6
(I20
I108
I177
I148
tp1122
sg8
(lp1123
(I200
I102
tp1124
a(I200
I102
tp1125
a(I193
I132
tp1126
a(I181
I84
tp1127
a(I200
I87
tp1128
a(I178
I134
tp1129
asg15
I200
sba(imain2
Polygon
p1130
(dp1131
g3
(I141
I107
tp1132
sg5
I200
sg6
(I78
I146
I85
I148
tp1133
sg8
(lp1134
(I119
I86
tp1135
a(I95
I75
tp1136
a(I111
I152
tp1137
asg15
I200
sba(imain2
Polygon
p1138
(dp1139
g3
(I149
I72
tp1140
sg5
I200
sg6
(I64
I107
I165
I35
tp1141
sg8
(lp1142
(I160
I35
tp1143
a(I195
I56
tp1144
a(I155
I38
tp1145
a(I99
I25
tp1146
a(I173
I40
tp1147
a(I176
I38
tp1148
a(I150
I68
tp1149
a(I99
I71
tp1150
a(I150
I68
tp1151
a(I153
I27
tp1152
a(I107
I42
tp1153
asg15
I200
sba(imain2
Polygon
p1154
(dp1155
g3
(I67
I128
tp1156
sg5
I200
sg6
(I212
I148
I53
I36
tp1157
sg8
(lp1158
(I106
I157
tp1159
a(I63
I86
tp1160
a(I108
I113
tp1161
a(I115
I152
tp1162
a(I62
I84
tp1163
a(I27
I94
tp1164
a(I55
I110
tp1165
a(I44
I110
tp1166
asg15
I200
sba(imain2
Polygon
p1167
(dp1168
g3
(I183
I44
tp1169
sg5
I200
sg6
(I81
I11
I171
I1
tp1170
sg8
(lp1171
(I200
I4
tp1172
a(I200
I50
tp1173
a(I184
I85
tp1174
a(I200
I25
tp1175
a(I190
I1
tp1176
a(I153
I88
tp1177
asg15
I200
sba(imain2
Polygon
p1178
(dp1179
g3
(I100
I61
tp1180
sg5
I200
sg6
(I201
I97
I42
I46
tp1181
sg8
(lp1182
(I56
I38
tp1183
a(I99
I64
tp1184
a(I91
I106
tp1185
a(I131
I96
tp1186
a(I95
I52
tp1187
a(I86
I79
tp1188
a(I74
I24
tp1189
a(I135
I84
tp1190
a(I53
I108
tp1191
a(I109
I45
tp1192
a(I143
I70
tp1193
asg15
I200
sba(imain2
Polygon
p1194
(dp1195
g3
(I52
I190
tp1196
sg5
I200
sg6
(I175
I148
I50
I86
tp1197
sg8
(lp1198
(I71
I200
tp1199
a(I89
I171
tp1200
a(I102
I200
tp1201
a(I94
I200
tp1202
a(I95
I200
tp1203
a(I42
I200
tp1204
asg15
I200
sba(imain2
Polygon
p1205
(dp1206
g3
(I151
I65
tp1207
sg5
I200
sg6
(I64
I180
I1
I104
tp1208
sg8
(lp1209
(I176
I54
tp1210
a(I179
I51
tp1211
a(I192
I90
tp1212
a(I186
I39
tp1213
a(I165
I61
tp1214
a(I111
I63
tp1215
a(I119
I77
tp1216
a(I169
I47
tp1217
a(I193
I72
tp1218
asg15
I200
sba(imain2
Polygon
p1219
(dp1220
g3
(I67
I20
tp1221
sg5
I200
sg6
(I165
I93
I189
I107
tp1222
sg8
(lp1223
(I17
I0
tp1224
a(I29
I39
tp1225
a(I114
I0
tp1226
a(I27
I0
tp1227
a(I55
I0
tp1228
a(I113
I0
tp1229
asg15
I200
sba(imain2
Polygon
p1230
(dp1231
g3
(I199
I56
tp1232
sg5
I200
sg6
(I160
I0
I107
I0
tp1233
sg8
(lp1234
(I200
I8
tp1235
a(I165
I70
tp1236
a(I200
I46
tp1237
a(I200
I83
tp1238
a(I181
I100
tp1239
a(I188
I9
tp1240
a(I198
I104
tp1241
a(I188
I15
tp1242
a(I200
I90
tp1243
a(I200
I16
tp1244
a(I168
I34
tp1245
asg15
I200
sba(imain2
Polygon
p1246
(dp1247
g3
(I185
I38
tp1248
sg5
I200
sg6
(I128
I218
I68
I162
tp1249
sg8
(lp1250
(I200
I69
tp1251
a(I200
I0
tp1252
a(I196
I0
tp1253
a(I154
I0
tp1254
a(I146
I42
tp1255
a(I200
I5
tp1256
a(I168
I28
tp1257
a(I142
I46
tp1258
a(I155
I22
tp1259
a(I181
I67
tp1260
a(I187
I70
tp1261
a(I138
I0
tp1262
a(I200
I50
tp1263
a(I141
I1
tp1264
a(I171
I85
tp1265
a(I189
I82
tp1266
asg15
I200
sba(imain2
Polygon
p1267
(dp1268
g3
(I67
I149
tp1269
sg5
I200
sg6
(I92
I206
I214
I45
tp1270
sg8
(lp1271
(I111
I118
tp1272
a(I92
I149
tp1273
a(I45
I104
tp1274
a(I59
I150
tp1275
a(I47
I101
tp1276
a(I64
I107
tp1277
a(I75
I131
tp1278
a(I69
I155
tp1279
asg15
I200
sba(imain2
Polygon
p1280
(dp1281
g3
(I21
I182
tp1282
sg5
I200
sg6
(I111
I116
I0
I86
tp1283
sg8
(lp1284
(I67
I200
tp1285
a(I0
I160
tp1286
a(I59
I164
tp1287
a(I20
I169
tp1288
a(I19
I200
tp1289
a(I0
I181
tp1290
a(I19
I200
tp1291
a(I0
I143
tp1292
a(I13
I200
tp1293
a(I0
I144
tp1294
a(I0
I194
tp1295
a(I27
I167
tp1296
a(I0
I200
tp1297
a(I28
I152
tp1298
a(I0
I133
tp1299
a(I47
I191
tp1300
asg15
I200
sba(imain2
Polygon
p1301
(dp1302
g3
(I145
I176
tp1303
sg5
I200
sg6
(I184
I171
I0
I39
tp1304
sg8
(lp1305
(I116
I200
tp1306
a(I101
I200
tp1307
a(I138
I200
tp1308
a(I120
I137
tp1309
a(I98
I200
tp1310
a(I105
I200
tp1311
asg15
I200
sba(imain2
Polygon
p1312
(dp1313
g3
(I102
I21
tp1314
sg5
I200
sg6
(I181
I178
I186
I58
tp1315
sg8
(lp1316
(I129
I69
tp1317
a(I61
I26
tp1318
a(I53
I14
tp1319
a(I104
I12
tp1320
a(I146
I25
tp1321
a(I143
I7
tp1322
a(I142
I0
tp1323
a(I59
I0
tp1324
a(I54
I68
tp1325
asg15
I200
sba(imain2
Polygon
p1326
(dp1327
g3
(I154
I30
tp1328
sg5
I200
sg6
(I49
I96
I59
I0
tp1329
sg8
(lp1330
(I145
I6
tp1331
a(I196
I13
tp1332
a(I190
I0
tp1333
a(I200
I56
tp1334
a(I169
I73
tp1335
a(I162
I48
tp1336
a(I140
I39
tp1337
a(I195
I27
tp1338
a(I155
I0
tp1339
a(I156
I27
tp1340
asg15
I200
sba(imain2
Polygon
p1341
(dp1342
g3
(I171
I178
tp1343
sg5
I200
sg6
(I94
I229
I32
I8
tp1344
sg8
(lp1345
(I200
I200
tp1346
a(I200
I200
tp1347
a(I200
I195
tp1348
a(I200
I135
tp1349
a(I133
I189
tp1350
asg15
I200
sba(imain2
Polygon
p1351
(dp1352
g3
(I189
I152
tp1353
sg5
I200
sg6
(I248
I70
I182
I1
tp1354
sg8
(lp1355
(I200
I132
tp1356
a(I173
I117
tp1357
a(I200
I166
tp1358
a(I200
I155
tp1359
a(I176
I108
tp1360
a(I182
I182
tp1361
a(I200
I166
tp1362
a(I162
I141
tp1363
a(I149
I177
tp1364
asg15
I200
sba(imain2
Polygon
p1365
(dp1366
g3
(I158
I122
tp1367
sg5
I200
sg6
(I42
I1
I156
I43
tp1368
sg8
(lp1369
(I182
I80
tp1370
a(I180
I97
tp1371
a(I200
I145
tp1372
a(I199
I82
tp1373
a(I166
I100
tp1374
a(I200
I140
tp1375
a(I200
I99
tp1376
a(I190
I85
tp1377
a(I131
I110
tp1378
a(I139
I107
tp1379
a(I200
I74
tp1380
asg15
I200
sba(imain2
Polygon
p1381
(dp1382
g3
(I89
I194
tp1383
sg5
I200
sg6
(I227
I76
I38
I0
tp1384
sg8
(lp1385
(I121
I200
tp1386
a(I61
I194
tp1387
a(I129
I168
tp1388
a(I124
I176
tp1389
a(I130
I164
tp1390
a(I122
I200
tp1391
a(I104
I200
tp1392
a(I111
I200
tp1393
a(I64
I164
tp1394
a(I93
I163
tp1395
a(I68
I191
tp1396
asg15
I200
sba(imain2
Polygon
p1397
(dp1398
g3
(I185
I89
tp1399
sg5
I200
sg6
(I164
I1
I220
I1
tp1400
sg8
(lp1401
(I200
I39
tp1402
a(I197
I67
tp1403
a(I190
I122
tp1404
a(I200
I70
tp1405
a(I200
I43
tp1406
a(I200
I118
tp1407
a(I200
I94
tp1408
a(I200
I128
tp1409
a(I200
I121
tp1410
a(I154
I50
tp1411
a(I138
I104
tp1412
a(I187
I87
tp1413
asg15
I200
sba(imain2
Polygon
p1414
(dp1415
g3
(I67
I129
tp1416
sg5
I200
sg6
(I72
I192
I59
I126
tp1417
sg8
(lp1418
(I96
I97
tp1419
a(I112
I141
tp1420
a(I78
I170
tp1421
a(I114
I112
tp1422
a(I112
I100
tp1423
a(I49
I126
tp1424
a(I93
I98
tp1425
a(I110
I107
tp1426
a(I61
I148
tp1427
a(I109
I141
tp1428
a(I87
I119
tp1429
a(I87
I107
tp1430
a(I75
I92
tp1431
a(I84
I146
tp1432
a(I52
I135
tp1433
a(I91
I173
tp1434
asg15
I200
sba(imain2
Polygon
p1435
(dp1436
g3
(I95
I80
tp1437
sg5
I200
sg6
(I219
I89
I22
I131
tp1438
sg8
(lp1439
(I121
I57
tp1440
a(I47
I53
tp1441
a(I58
I130
tp1442
a(I113
I109
tp1443
a(I126
I95
tp1444
a(I133
I109
tp1445
a(I129
I87
tp1446
asg15
I200
sba(imain2
Polygon
p1447
(dp1448
g3
(I14
I45
tp1449
sg5
I200
sg6
(I224
I0
I43
I108
tp1450
sg8
(lp1451
(I2
I89
tp1452
a(I58
I24
tp1453
a(I17
I21
tp1454
a(I38
I90
tp1455
a(I10
I95
tp1456
asg15
I200
sba(imain2
Polygon
p1457
(dp1458
g3
(I34
I35
tp1459
sg5
I200
sg6
(I107
I9
I201
I25
tp1460
sg8
(lp1461
(I2
I0
tp1462
a(I0
I84
tp1463
a(I51
I56
tp1464
a(I42
I28
tp1465
a(I53
I81
tp1466
a(I39
I34
tp1467
a(I34
I0
tp1468
asg15
I200
sba(imain2
Polygon
p1469
(dp1470
g3
(I127
I147
tp1471
sg5
I200
sg6
(I118
I172
I188
I79
tp1472
sg8
(lp1473
(I112
I151
tp1474
a(I112
I167
tp1475
a(I161
I125
tp1476
a(I99
I100
tp1477
a(I112
I159
tp1478
a(I126
I158
tp1479
a(I164
I118
tp1480
a(I80
I133
tp1481
a(I125
I141
tp1482
a(I92
I99
tp1483
a(I85
I144
tp1484
a(I105
I137
tp1485
a(I148
I117
tp1486
a(I108
I109
tp1487
a(I88
I127
tp1488
a(I120
I132
tp1489
asg15
I200
sba(imain2
Polygon
p1490
(dp1491
g3
(I88
I106
tp1492
sg5
I200
sg6
(I189
I11
I60
I117
tp1493
sg8
(lp1494
(I127
I64
tp1495
a(I119
I93
tp1496
a(I117
I112
tp1497
asg15
I200
sba(imain2
Polygon
p1498
(dp1499
g3
(I11
I134
tp1500
sg5
I200
sg6
(I75
I179
I94
I99
tp1501
sg8
(lp1502
(I0
I183
tp1503
a(I0
I95
tp1504
a(I0
I108
tp1505
a(I0
I157
tp1506
a(I0
I145
tp1507
a(I12
I180
tp1508
a(I41
I142
tp1509
asg15
I200
sba(imain2
Polygon
p1510
(dp1511
g3
(I174
I141
tp1512
sg5
I200
sg6
(I114
I237
I93
I82
tp1513
sg8
(lp1514
(I200
I134
tp1515
a(I200
I120
tp1516
a(I192
I135
tp1517
a(I175
I139
tp1518
a(I200
I190
tp1519
asg15
I200
sba(imain2
Polygon
p1520
(dp1521
g3
(I68
I44
tp1522
sg5
I200
sg6
(I3
I228
I128
I48
tp1523
sg8
(lp1524
(I40
I52
tp1525
a(I19
I82
tp1526
a(I62
I45
tp1527
a(I75
I72
tp1528
asg15
I200
sba(imain2
Polygon
p1529
(dp1530
g3
(I80
I68
tp1531
sg5
I200
sg6
(I77
I15
I16
I41
tp1532
sg8
(lp1533
(I35
I25
tp1534
a(I52
I50
tp1535
a(I34
I66
tp1536
a(I53
I18
tp1537
a(I117
I21
tp1538
a(I40
I26
tp1539
a(I52
I99
tp1540
a(I43
I18
tp1541
a(I106
I28
tp1542
a(I97
I30
tp1543
a(I37
I35
tp1544
a(I66
I42
tp1545
a(I83
I18
tp1546
asg15
I200
sba(imain2
Polygon
p1547
(dp1548
g3
(I120
I143
tp1549
sg5
I200
sg6
(I152
I158
I83
I0
tp1550
sg8
(lp1551
(I157
I118
tp1552
a(I157
I180
tp1553
a(I104
I174
tp1554
a(I143
I95
tp1555
a(I91
I139
tp1556
a(I154
I138
tp1557
a(I91
I159
tp1558
a(I161
I105
tp1559
a(I110
I93
tp1560
a(I111
I169
tp1561
a(I131
I151
tp1562
a(I86
I100
tp1563
a(I157
I112
tp1564
a(I169
I110
tp1565
asg15
I200
sba(imain2
Polygon
p1566
(dp1567
g3
(I47
I43
tp1568
sg5
I200
sg6
(I224
I145
I62
I45
tp1569
sg8
(lp1570
(I94
I47
tp1571
a(I85
I78
tp1572
a(I7
I93
tp1573
a(I8
I45
tp1574
a(I5
I0
tp1575
a(I26
I10
tp1576
a(I20
I39
tp1577
a(I21
I40
tp1578
a(I74
I3
tp1579
a(I52
I53
tp1580
a(I45
I0
tp1581
a(I49
I4
tp1582
a(I96
I0
tp1583
asg15
I200
sba(imain2
Polygon
p1584
(dp1585
g3
(I6
I165
tp1586
sg5
I200
sg6
(I194
I51
I158
I59
tp1587
sg8
(lp1588
(I0
I157
tp1589
a(I0
I123
tp1590
a(I0
I200
tp1591
asg15
I200
sba(imain2
Polygon
p1592
(dp1593
g3
(I125
I173
tp1594
sg5
I200
sg6
(I91
I30
I33
I125
tp1595
sg8
(lp1596
(I145
I181
tp1597
a(I132
I145
tp1598
a(I105
I138
tp1599
a(I125
I138
tp1600
a(I143
I200
tp1601
a(I165
I200
tp1602
a(I85
I166
tp1603
a(I93
I145
tp1604
a(I79
I141
tp1605
a(I139
I163
tp1606
a(I157
I200
tp1607
a(I143
I189
tp1608
asg15
I200
sba(imain2
Polygon
p1609
(dp1610
g3
(I63
I154
tp1611
sg5
I200
sg6
(I122
I159
I3
I1
tp1612
sg8
(lp1613
(I96
I189
tp1614
a(I79
I108
tp1615
a(I64
I124
tp1616
a(I70
I140
tp1617
a(I26
I177
tp1618
a(I27
I140
tp1619
a(I66
I149
tp1620
a(I45
I194
tp1621
a(I109
I112
tp1622
a(I94
I172
tp1623
asg15
I200
sba(imain2
Polygon
p1624
(dp1625
g3
(I152
I171
tp1626
sg5
I200
sg6
(I192
I4
I227
I1
tp1627
sg8
(lp1628
(I130
I170
tp1629
a(I142
I132
tp1630
a(I151
I190
tp1631
a(I105
I165
tp1632
a(I158
I122
tp1633
a(I114
I145
tp1634
a(I139
I139
tp1635
a(I180
I200
tp1636
a(I171
I163
tp1637
asg15
I200
sba(imain2
Polygon
p1638
(dp1639
g3
(I67
I143
tp1640
sg5
I200
sg6
(I71
I72
I132
I119
tp1641
sg8
(lp1642
(I100
I175
tp1643
a(I102
I173
tp1644
a(I113
I130
tp1645
a(I111
I131
tp1646
asg15
I200
sba(imain2
Polygon
p1647
(dp1648
g3
(I153
I79
tp1649
sg5
I200
sg6
(I135
I30
I161
I0
tp1650
sg8
(lp1651
(I140
I47
tp1652
a(I178
I118
tp1653
a(I163
I87
tp1654
a(I105
I69
tp1655
a(I175
I77
tp1656
a(I178
I72
tp1657
a(I151
I121
tp1658
a(I148
I111
tp1659
a(I110
I29
tp1660
a(I131
I113
tp1661
a(I154
I125
tp1662
asg15
I200
sba(imain2
Polygon
p1663
(dp1664
g3
(I142
I192
tp1665
sg5
I200
sg6
(I51
I237
I1
I3
tp1666
sg8
(lp1667
(I120
I200
tp1668
a(I94
I200
tp1669
a(I151
I200
tp1670
a(I170
I191
tp1671
a(I159
I195
tp1672
a(I123
I197
tp1673
a(I115
I176
tp1674
a(I170
I144
tp1675
a(I112
I200
tp1676
asg15
I200
sba(imain2
Polygon
p1677
(dp1678
g3
(I144
I12
tp1679
sg5
I200
sg6
(I188
I74
I99
I0
tp1680
sg8
(lp1681
(I142
I44
tp1682
a(I176
I0
tp1683
a(I104
I0
tp1684
a(I143
I52
tp1685
a(I127
I44
tp1686
a(I140
I27
tp1687
a(I176
I62
tp1688
a(I147
I12
tp1689
a(I190
I2
tp1690
a(I107
I0
tp1691
a(I108
I0
tp1692
a(I111
I37
tp1693
a(I163
I0
tp1694
asg15
I200
sba(imain2
Polygon
p1695
(dp1696
g3
(I144
I92
tp1697
sg5
I200
sg6
(I224
I44
I149
I150
tp1698
sg8
(lp1699
(I165
I66
tp1700
a(I181
I55
tp1701
a(I190
I118
tp1702
a(I171
I70
tp1703
a(I159
I52
tp1704
asg15
I200
sba(imain2
Polygon
p1705
(dp1706
g3
(I167
I23
tp1707
sg5
I200
sg6
(I171
I31
I241
I10
tp1708
sg8
(lp1709
(I170
I58
tp1710
a(I142
I0
tp1711
a(I200
I70
tp1712
a(I200
I14
tp1713
a(I155
I0
tp1714
a(I200
I50
tp1715
a(I177
I46
tp1716
a(I166
I58
tp1717
a(I200
I0
tp1718
a(I122
I65
tp1719
a(I200
I10
tp1720
a(I119
I0
tp1721
asg15
I200
sba(imain2
Polygon
p1722
(dp1723
g3
(I200
I102
tp1724
sg5
I200
sg6
(I50
I232
I149
I53
tp1725
sg8
(lp1726
(I161
I70
tp1727
a(I178
I55
tp1728
a(I200
I103
tp1729
a(I200
I120
tp1730
a(I200
I145
tp1731
a(I181
I124
tp1732
a(I167
I86
tp1733
a(I200
I76
tp1734
a(I175
I81
tp1735
a(I200
I61
tp1736
a(I200
I99
tp1737
a(I180
I53
tp1738
asg15
I200
sba(imain2
Polygon
p1739
(dp1740
g3
(I20
I176
tp1741
sg5
I200
sg6
(I11
I203
I0
I1
tp1742
sg8
(lp1743
(I26
I196
tp1744
a(I28
I200
tp1745
a(I0
I200
tp1746
a(I65
I153
tp1747
a(I0
I196
tp1748
a(I0
I200
tp1749
a(I43
I145
tp1750
a(I0
I185
tp1751
a(I0
I200
tp1752
a(I34
I200
tp1753
a(I31
I140
tp1754
a(I59
I184
tp1755
a(I45
I161
tp1756
a(I67
I190
tp1757
asg15
I200
sba(imain2
Polygon
p1758
(dp1759
g3
(I51
I87
tp1760
sg5
I200
sg6
(I98
I177
I47
I75
tp1761
sg8
(lp1762
(I68
I80
tp1763
a(I34
I48
tp1764
a(I30
I71
tp1765
a(I59
I118
tp1766
a(I60
I82
tp1767
a(I3
I114
tp1768
a(I4
I50
tp1769
a(I33
I62
tp1770
a(I40
I55
tp1771
a(I63
I97
tp1772
a(I94
I79
tp1773
a(I73
I95
tp1774
a(I90
I82
tp1775
asg15
I200
sba(imain2
Polygon
p1776
(dp1777
g3
(I124
I18
tp1778
sg5
I200
sg6
(I59
I202
I231
I0
tp1779
sg8
(lp1780
(I104
I18
tp1781
a(I112
I30
tp1782
a(I81
I43
tp1783
a(I103
I0
tp1784
a(I147
I0
tp1785
asg15
I200
sba(imain2
Polygon
p1786
(dp1787
g3
(I170
I179
tp1788
sg5
I200
sg6
(I139
I190
I58
I13
tp1789
sg8
(lp1790
(I170
I150
tp1791
a(I140
I155
tp1792
a(I146
I200
tp1793
a(I200
I129
tp1794
a(I200
I200
tp1795
a(I125
I200
tp1796
a(I129
I168
tp1797
a(I156
I140
tp1798
asg15
I200
sba(imain2
Polygon
p1799
(dp1800
g3
(I93
I4
tp1801
sg5
I200
sg6
(I125
I127
I1
I136
tp1802
sg8
(lp1803
(I78
I36
tp1804
a(I51
I53
tp1805
a(I57
I28
tp1806
a(I47
I35
tp1807
a(I62
I48
tp1808
a(I51
I52
tp1809
asg15
I200
sba(imain2
Polygon
p1810
(dp1811
g3
(I33
I157
tp1812
sg5
I200
sg6
(I38
I119
I127
I0
tp1813
sg8
(lp1814
(I32
I159
tp1815
a(I21
I190
tp1816
a(I67
I128
tp1817
a(I55
I146
tp1818
a(I66
I120
tp1819
a(I55
I190
tp1820
a(I43
I145
tp1821
a(I9
I140
tp1822
a(I1
I120
tp1823
a(I69
I135
tp1824
a(I72
I117
tp1825
a(I76
I193
tp1826
asg15
I200
sba(imain2
Polygon
p1827
(dp1828
g3
(I91
I9
tp1829
sg5
I200
sg6
(I68
I183
I13
I1
tp1830
sg8
(lp1831
(I135
I0
tp1832
a(I84
I0
tp1833
a(I135
I0
tp1834
a(I51
I25
tp1835
a(I54
I0
tp1836
a(I134
I0
tp1837
a(I132
I0
tp1838
a(I122
I0
tp1839
a(I103
I52
tp1840
a(I93
I27
tp1841
a(I53
I5
tp1842
asg15
I200
sba(imain2
Polygon
p1843
(dp1844
g3
(I50
I13
tp1845
sg5
I200
sg6
(I92
I178
I162
I124
tp1846
sg8
(lp1847
(I31
I61
tp1848
a(I3
I50
tp1849
a(I8
I0
tp1850
a(I11
I0
tp1851
a(I7
I0
tp1852
a(I82
I0
tp1853
asg15
I200
sba(imain2
Polygon
p1854
(dp1855
g3
(I157
I108
tp1856
sg5
I200
sg6
(I128
I118
I1
I92
tp1857
sg8
(lp1858
(I168
I137
tp1859
a(I108
I127
tp1860
a(I123
I82
tp1861
a(I135
I90
tp1862
a(I108
I149
tp1863
a(I172
I125
tp1864
a(I193
I83
tp1865
a(I200
I120
tp1866
a(I184
I155
tp1867
a(I184
I147
tp1868
a(I188
I141
tp1869
asg15
I200
sba(imain2
Polygon
p1870
(dp1871
g3
(I7
I150
tp1872
sg5
I200
sg6
(I177
I11
I55
I20
tp1873
sg8
(lp1874
(I20
I124
tp1875
a(I39
I115
tp1876
a(I57
I154
tp1877
a(I0
I115
tp1878
a(I0
I123
tp1879
a(I45
I176
tp1880
a(I0
I184
tp1881
a(I0
I137
tp1882
a(I32
I102
tp1883
a(I0
I157
tp1884
a(I0
I118
tp1885
a(I0
I147
tp1886
a(I51
I116
tp1887
asg15
I200
sba(imain2
Polygon
p1888
(dp1889
g3
(I89
I125
tp1890
sg5
I200
sg6
(I42
I0
I214
I21
tp1891
sg8
(lp1892
(I82
I163
tp1893
a(I51
I118
tp1894
a(I89
I136
tp1895
a(I56
I165
tp1896
a(I76
I125
tp1897
a(I45
I157
tp1898
a(I89
I111
tp1899
asg15
I200
sba(imain2
Polygon
p1900
(dp1901
g3
(I18
I178
tp1902
sg5
I200
sg6
(I88
I164
I42
I106
tp1903
sg8
(lp1904
(I0
I148
tp1905
a(I43
I193
tp1906
a(I10
I175
tp1907
a(I0
I137
tp1908
a(I4
I137
tp1909
a(I23
I175
tp1910
asg15
I200
sba(imain2
Polygon
p1911
(dp1912
g3
(I81
I53
tp1913
sg5
I200
sg6
(I217
I83
I79
I1
tp1914
sg8
(lp1915
(I89
I81
tp1916
a(I32
I82
tp1917
a(I89
I58
tp1918
a(I66
I39
tp1919
a(I57
I40
tp1920
a(I58
I52
tp1921
a(I62
I57
tp1922
a(I38
I32
tp1923
a(I73
I54
tp1924
a(I65
I35
tp1925
asg15
I200
sba(imain2
Polygon
p1926
(dp1927
g3
(I117
I32
tp1928
sg5
I200
sg6
(I167
I186
I83
I1
tp1929
sg8
(lp1930
(I71
I5
tp1931
a(I132
I4
tp1932
a(I134
I30
tp1933
asg15
I200
sba(imain2
Polygon
p1934
(dp1935
g3
(I79
I140
tp1936
sg5
I200
sg6
(I226
I1
I161
I41
tp1937
sg8
(lp1938
(I108
I95
tp1939
a(I107
I173
tp1940
a(I52
I148
tp1941
a(I123
I97
tp1942
a(I103
I173
tp1943
a(I75
I159
tp1944
a(I65
I114
tp1945
a(I80
I158
tp1946
asg15
I200
sba(imain2
Polygon
p1947
(dp1948
g3
(I26
I4
tp1949
sg5
I200
sg6
(I197
I73
I70
I0
tp1950
sg8
(lp1951
(I49
I0
tp1952
a(I23
I0
tp1953
a(I7
I0
tp1954
a(I0
I0
tp1955
a(I0
I0
tp1956
a(I34
I0
tp1957
a(I60
I17
tp1958
a(I0
I33
tp1959
asg15
I200
sba(imain2
Polygon
p1960
(dp1961
g3
(I15
I121
tp1962
sg5
I200
sg6
(I1
I223
I150
I1
tp1963
sg8
(lp1964
(I58
I148
tp1965
a(I33
I98
tp1966
a(I0
I99
tp1967
a(I0
I118
tp1968
a(I0
I74
tp1969
a(I1
I112
tp1970
a(I46
I142
tp1971
a(I57
I155
tp1972
a(I59
I105
tp1973
a(I65
I135
tp1974
a(I0
I154
tp1975
a(I0
I107
tp1976
asg15
I200
sba(imain2
Polygon
p1977
(dp1978
g3
(I163
I195
tp1979
sg5
I200
sg6
(I11
I150
I193
I19
tp1980
sg8
(lp1981
(I191
I150
tp1982
a(I125
I198
tp1983
a(I169
I200
tp1984
a(I178
I174
tp1985
a(I135
I161
tp1986
a(I137
I182
tp1987
a(I127
I200
tp1988
a(I196
I200
tp1989
a(I200
I200
tp1990
asg15
I200
sba(imain2
Polygon
p1991
(dp1992
g3
(I118
I106
tp1993
sg5
I200
sg6
(I6
I134
I123
I124
tp1994
sg8
(lp1995
(I132
I104
tp1996
a(I163
I65
tp1997
a(I102
I87
tp1998
a(I125
I104
tp1999
a(I139
I123
tp2000
a(I123
I91
tp2001
a(I151
I66
tp2002
a(I130
I116
tp2003
a(I127
I105
tp2004
a(I140
I99
tp2005
asg15
I200
sba(imain2
Polygon
p2006
(dp2007
g3
(I56
I6
tp2008
sg5
I200
sg6
(I198
I0
I175
I1
tp2009
sg8
(lp2010
(I26
I35
tp2011
a(I79
I0
tp2012
a(I71
I0
tp2013
a(I10
I8
tp2014
a(I49
I0
tp2015
a(I75
I2
tp2016
asg15
I200
sba(imain2
Polygon
p2017
(dp2018
g3
(I174
I69
tp2019
sg5
I200
sg6
(I120
I37
I48
I109
tp2020
sg8
(lp2021
(I167
I52
tp2022
a(I200
I29
tp2023
a(I160
I53
tp2024
a(I200
I119
tp2025
a(I196
I88
tp2026
a(I200
I90
tp2027
a(I151
I40
tp2028
a(I126
I41
tp2029
a(I140
I30
tp2030
a(I128
I48
tp2031
a(I130
I47
tp2032
a(I191
I41
tp2033
a(I183
I53
tp2034
asg15
I200
sba(imain2
Polygon
p2035
(dp2036
g3
(I0
I30
tp2037
sg5
I200
sg6
(I173
I42
I102
I1
tp2038
sg8
(lp2039
(I0
I38
tp2040
a(I0
I43
tp2041
a(I0
I48
tp2042
a(I35
I21
tp2043
a(I0
I25
tp2044
a(I0
I19
tp2045
asg15
I200
sba(imain2
Polygon
p2046
(dp2047
g3
(I134
I58
tp2048
sg5
I200
sg6
(I242
I179
I117
I115
tp2049
sg8
(lp2050
(I179
I58
tp2051
a(I110
I8
tp2052
a(I156
I8
tp2053
a(I179
I9
tp2054
asg15
I200
sba(imain2
Polygon
p2055
(dp2056
g3
(I142
I75
tp2057
sg5
I200
sg6
(I201
I61
I194
I90
tp2058
sg8
(lp2059
(I191
I83
tp2060
a(I154
I36
tp2061
a(I185
I48
tp2062
asg15
I200
sba(imain2
Polygon
p2063
(dp2064
g3
(I129
I65
tp2065
sg5
I200
sg6
(I89
I1
I164
I139
tp2066
sg8
(lp2067
(I155
I65
tp2068
a(I159
I69
tp2069
a(I151
I68
tp2070
asg15
I200
sba(imain2
Polygon
p2071
(dp2072
g3
(I163
I171
tp2073
sg5
I200
sg6
(I199
I12
I131
I1
tp2074
sg8
(lp2075
(I176
I200
tp2076
a(I183
I200
tp2077
a(I136
I147
tp2078
a(I125
I138
tp2079
a(I193
I148
tp2080
a(I200
I169
tp2081
a(I170
I142
tp2082
a(I200
I183
tp2083
a(I129
I187
tp2084
a(I189
I200
tp2085
a(I175
I200
tp2086
a(I128
I180
tp2087
a(I188
I187
tp2088
a(I141
I126
tp2089
a(I113
I200
tp2090
asg15
I200
sba(imain2
Polygon
p2091
(dp2092
g3
(I184
I20
tp2093
sg5
I200
sg6
(I214
I93
I228
I81
tp2094
sg8
(lp2095
(I196
I58
tp2096
a(I200
I0
tp2097
a(I200
I69
tp2098
a(I160
I57
tp2099
a(I166
I14
tp2100
a(I144
I0
tp2101
a(I200
I0
tp2102
a(I200
I0
tp2103
asg15
I200
sba(imain2
Polygon
p2104
(dp2105
g3
(I145
I135
tp2106
sg5
I200
sg6
(I31
I41
I59
I45
tp2107
sg8
(lp2108
(I160
I178
tp2109
a(I183
I129
tp2110
a(I135
I88
tp2111
a(I110
I168
tp2112
a(I166
I183
tp2113
asg15
I200
sba(imain2
Polygon
p2114
(dp2115
g3
(I64
I74
tp2116
sg5
I200
sg6
(I138
I209
I150
I1
tp2117
sg8
(lp2118
(I111
I67
tp2119
a(I74
I124
tp2120
a(I19
I47
tp2121
a(I101
I34
tp2122
asg15
I200
sba(imain2
Polygon
p2123
(dp2124
g3
(I82
I104
tp2125
sg5
I200
sg6
(I48
I155
I199
I1
tp2126
sg8
(lp2127
(I68
I123
tp2128
a(I112
I114
tp2129
a(I80
I128
tp2130
a(I121
I69
tp2131
a(I87
I71
tp2132
a(I92
I82
tp2133
a(I105
I79
tp2134
a(I74
I119
tp2135
a(I51
I70
tp2136
a(I39
I79
tp2137
a(I77
I96
tp2138
asg15
I200
sba(imain2
Polygon
p2139
(dp2140
g3
(I176
I51
tp2141
sg5
I200
sg6
(I114
I211
I85
I0
tp2142
sg8
(lp2143
(I200
I6
tp2144
a(I144
I17
tp2145
a(I157
I85
tp2146
a(I200
I14
tp2147
a(I178
I12
tp2148
asg15
I200
sba(imain2
Polygon
p2149
(dp2150
g3
(I18
I179
tp2151
sg5
I200
sg6
(I11
I98
I96
I47
tp2152
sg8
(lp2153
(I6
I200
tp2154
a(I0
I168
tp2155
a(I0
I198
tp2156
a(I21
I200
tp2157
a(I17
I200
tp2158
a(I48
I200
tp2159
a(I19
I154
tp2160
a(I34
I156
tp2161
asg15
I200
sba(imain2
Polygon
p2162
(dp2163
g3
(I112
I97
tp2164
sg5
I200
sg6
(I96
I199
I68
I61
tp2165
sg8
(lp2166
(I117
I118
tp2167
a(I70
I139
tp2168
a(I97
I92
tp2169
a(I106
I74
tp2170
a(I76
I136
tp2171
a(I93
I140
tp2172
a(I98
I68
tp2173
a(I89
I89
tp2174
a(I130
I88
tp2175
asg15
I200
sba(imain2
Polygon
p2176
(dp2177
g3
(I3
I120
tp2178
sg5
I200
sg6
(I62
I88
I146
I102
tp2179
sg8
(lp2180
(I0
I86
tp2181
a(I0
I74
tp2182
a(I0
I159
tp2183
a(I0
I109
tp2184
a(I43
I80
tp2185
asg15
I200
sba(imain2
Polygon
p2186
(dp2187
g3
(I7
I32
tp2188
sg5
I200
sg6
(I148
I32
I187
I1
tp2189
sg8
(lp2190
(I0
I0
tp2191
a(I0
I27
tp2192
a(I0
I45
tp2193
a(I38
I80
tp2194
a(I38
I59
tp2195
a(I27
I38
tp2196
a(I0
I0
tp2197
a(I0
I62
tp2198
a(I40
I24
tp2199
a(I0
I15
tp2200
a(I0
I75
tp2201
a(I37
I19
tp2202
a(I0
I0
tp2203
a(I36
I4
tp2204
a(I44
I0
tp2205
asg15
I200
sba(imain2
Polygon
p2206
(dp2207
g3
(I166
I95
tp2208
sg5
I200
sg6
(I186
I4
I142
I153
tp2209
sg8
(lp2210
(I192
I50
tp2211
a(I200
I127
tp2212
a(I200
I60
tp2213
asg15
I200
sba(imain2
Polygon
p2214
(dp2215
g3
(I197
I92
tp2216
sg5
I200
sg6
(I119
I6
I30
I0
tp2217
sg8
(lp2218
(I174
I138
tp2219
a(I185
I80
tp2220
a(I200
I99
tp2221
a(I161
I97
tp2222
a(I158
I100
tp2223
a(I200
I94
tp2224
a(I200
I78
tp2225
a(I200
I66
tp2226
a(I191
I56
tp2227
a(I200
I66
tp2228
a(I176
I90
tp2229
a(I162
I59
tp2230
a(I200
I49
tp2231
asg15
I200
sba(imain2
Polygon
p2232
(dp2233
g3
(I167
I132
tp2234
sg5
I200
sg6
(I220
I56
I86
I1
tp2235
sg8
(lp2236
(I147
I85
tp2237
a(I157
I116
tp2238
a(I141
I105
tp2239
a(I134
I127
tp2240
a(I130
I182
tp2241
a(I200
I112
tp2242
a(I188
I122
tp2243
a(I175
I142
tp2244
a(I117
I113
tp2245
a(I170
I164
tp2246
a(I154
I153
tp2247
a(I132
I168
tp2248
a(I184
I111
tp2249
a(I200
I101
tp2250
a(I144
I132
tp2251
asg15
I200
sba(imain2
Polygon
p2252
(dp2253
g3
(I2
I175
tp2254
sg5
I200
sg6
(I101
I198
I107
I0
tp2255
sg8
(lp2256
(I19
I200
tp2257
a(I0
I128
tp2258
a(I4
I200
tp2259
asg15
I200
sba(imain2
Polygon
p2260
(dp2261
g3
(I148
I121
tp2262
sg5
I200
sg6
(I129
I198
I133
I26
tp2263
sg8
(lp2264
(I120
I135
tp2265
a(I118
I71
tp2266
a(I101
I103
tp2267
a(I128
I125
tp2268
a(I137
I105
tp2269
asg15
I200
sba(imain2
Polygon
p2270
(dp2271
g3
(I26
I154
tp2272
sg5
I200
sg6
(I144
I63
I225
I40
tp2273
sg8
(lp2274
(I52
I148
tp2275
a(I0
I196
tp2276
a(I20
I155
tp2277
asg15
I200
sba(imain2
Polygon
p2278
(dp2279
g3
(I188
I60
tp2280
sg5
I200
sg6
(I23
I76
I8
I60
tp2281
sg8
(lp2282
(I200
I100
tp2283
a(I148
I100
tp2284
a(I139
I27
tp2285
a(I200
I98
tp2286
a(I200
I37
tp2287
a(I200
I12
tp2288
a(I200
I49
tp2289
asg15
I200
sba(imain2
Polygon
p2290
(dp2291
g3
(I29
I0
tp2292
sg5
I200
sg6
(I200
I202
I9
I95
tp2293
sg8
(lp2294
(I29
I0
tp2295
a(I0
I0
tp2296
a(I50
I36
tp2297
a(I45
I18
tp2298
a(I61
I0
tp2299
a(I0
I0
tp2300
a(I0
I50
tp2301
a(I70
I50
tp2302
a(I0
I0
tp2303
a(I0
I0
tp2304
a(I77
I0
tp2305
a(I74
I14
tp2306
a(I36
I44
tp2307
a(I51
I8
tp2308
a(I74
I0
tp2309
a(I5
I0
tp2310
asg15
I200
sba(imain2
Polygon
p2311
(dp2312
g3
(I92
I198
tp2313
sg5
I200
sg6
(I139
I3
I13
I70
tp2314
sg8
(lp2315
(I96
I170
tp2316
a(I95
I158
tp2317
a(I67
I151
tp2318
a(I90
I200
tp2319
a(I44
I200
tp2320
a(I99
I200
tp2321
a(I73
I181
tp2322
a(I108
I179
tp2323
asg15
I200
sba(imain2
Polygon
p2324
(dp2325
g3
(I149
I42
tp2326
sg5
I200
sg6
(I91
I14
I54
I57
tp2327
sg8
(lp2328
(I145
I16
tp2329
a(I99
I9
tp2330
a(I127
I88
tp2331
a(I167
I91
tp2332
a(I156
I44
tp2333
a(I135
I17
tp2334
a(I145
I8
tp2335
a(I113
I48
tp2336
a(I119
I35
tp2337
asg15
I200
sba(imain2
Polygon
p2338
(dp2339
g3
(I18
I189
tp2340
sg5
I200
sg6
(I70
I8
I171
I1
tp2341
sg8
(lp2342
(I0
I200
tp2343
a(I50
I142
tp2344
a(I9
I200
tp2345
a(I11
I160
tp2346
a(I0
I200
tp2347
a(I5
I167
tp2348
a(I62
I200
tp2349
a(I26
I188
tp2350
a(I62
I173
tp2351
a(I0
I200
tp2352
a(I68
I200
tp2353
a(I56
I183
tp2354
a(I23
I152
tp2355
a(I62
I157
tp2356
a(I0
I178
tp2357
a(I52
I147
tp2358
asg15
I200
sba(imain2
Polygon
p2359
(dp2360
g3
(I88
I199
tp2361
sg5
I200
sg6
(I16
I199
I77
I86
tp2362
sg8
(lp2363
(I90
I200
tp2364
a(I39
I200
tp2365
a(I49
I200
tp2366
a(I103
I197
tp2367
a(I52
I200
tp2368
a(I46
I200
tp2369
a(I126
I200
tp2370
a(I62
I200
tp2371
a(I70
I200
tp2372
a(I39
I200
tp2373
asg15
I200
sba(imain2
Polygon
p2374
(dp2375
g3
(I57
I178
tp2376
sg5
I200
sg6
(I22
I120
I163
I0
tp2377
sg8
(lp2378
(I38
I182
tp2379
a(I21
I164
tp2380
a(I55
I131
tp2381
a(I14
I171
tp2382
a(I47
I135
tp2383
a(I21
I200
tp2384
asg15
I200
sba(imain2
Polygon
p2385
(dp2386
g3
(I192
I63
tp2387
sg5
I200
sg6
(I115
I241
I124
I110
tp2388
sg8
(lp2389
(I200
I102
tp2390
a(I200
I19
tp2391
a(I200
I28
tp2392
a(I169
I43
tp2393
a(I142
I25
tp2394
a(I200
I102
tp2395
a(I161
I50
tp2396
a(I175
I96
tp2397
a(I183
I98
tp2398
a(I182
I96
tp2399
asg15
I200
sba(imain2
Polygon
p2400
(dp2401
g3
(I115
I149
tp2402
sg5
I200
sg6
(I106
I195
I239
I1
tp2403
sg8
(lp2404
(I118
I155
tp2405
a(I100
I164
tp2406
a(I102
I100
tp2407
a(I94
I115
tp2408
a(I91
I131
tp2409
a(I84
I110
tp2410
a(I68
I102
tp2411
a(I128
I176
tp2412
a(I67
I194
tp2413
asg15
I200
sba(imain2
Polygon
p2414
(dp2415
g3
(I89
I107
tp2416
sg5
I200
sg6
(I31
I11
I111
I109
tp2417
sg8
(lp2418
(I106
I149
tp2419
a(I137
I85
tp2420
a(I129
I120
tp2421
a(I138
I81
tp2422
asg15
I200
sba(imain2
Polygon
p2423
(dp2424
g3
(I87
I130
tp2425
sg5
I200
sg6
(I167
I110
I148
I0
tp2426
sg8
(lp2427
(I97
I162
tp2428
a(I93
I84
tp2429
a(I91
I118
tp2430
a(I114
I131
tp2431
a(I70
I91
tp2432
a(I111
I140
tp2433
a(I54
I141
tp2434
a(I87
I159
tp2435
a(I134
I156
tp2436
a(I91
I179
tp2437
a(I49
I139
tp2438
asg15
I200
sba(imain2
Polygon
p2439
(dp2440
g3
(I62
I187
tp2441
sg5
I200
sg6
(I112
I14
I175
I58
tp2442
sg8
(lp2443
(I22
I200
tp2444
a(I97
I198
tp2445
a(I38
I200
tp2446
a(I17
I200
tp2447
a(I77
I200
tp2448
a(I98
I200
tp2449
a(I71
I196
tp2450
a(I85
I194
tp2451
a(I71
I200
tp2452
a(I24
I200
tp2453
a(I45
I197
tp2454
asg15
I200
sba(imain2
Polygon
p2455
(dp2456
g3
(I59
I26
tp2457
sg5
I200
sg6
(I62
I6
I237
I1
tp2458
sg8
(lp2459
(I83
I0
tp2460
a(I21
I56
tp2461
a(I81
I0
tp2462
a(I33
I0
tp2463
a(I92
I63
tp2464
a(I104
I10
tp2465
a(I67
I25
tp2466
a(I14
I12
tp2467
asg15
I200
sba(imain2
Polygon
p2468
(dp2469
g3
(I74
I59
tp2470
sg5
I200
sg6
(I1
I47
I104
I0
tp2471
sg8
(lp2472
(I84
I47
tp2473
a(I67
I71
tp2474
a(I76
I11
tp2475
a(I99
I13
tp2476
a(I34
I11
tp2477
a(I79
I79
tp2478
a(I86
I46
tp2479
a(I39
I17
tp2480
a(I117
I36
tp2481
a(I58
I60
tp2482
asg15
I200
sba(imain2
Polygon
p2483
(dp2484
g3
(I141
I175
tp2485
sg5
I200
sg6
(I87
I37
I11
I1
tp2486
sg8
(lp2487
(I169
I200
tp2488
a(I159
I193
tp2489
a(I119
I183
tp2490
a(I149
I186
tp2491
a(I112
I195
tp2492
a(I173
I200
tp2493
a(I160
I198
tp2494
a(I190
I127
tp2495
a(I155
I171
tp2496
a(I128
I200
tp2497
a(I98
I200
tp2498
a(I136
I145
tp2499
a(I126
I198
tp2500
a(I92
I137
tp2501
a(I162
I196
tp2502
a(I100
I200
tp2503
a(I138
I192
tp2504
a(I146
I197
tp2505
asg15
I200
sba(imain2
Polygon
p2506
(dp2507
g3
(I114
I81
tp2508
sg5
I200
sg6
(I234
I18
I199
I77
tp2509
sg8
(lp2510
(I121
I101
tp2511
a(I107
I74
tp2512
a(I79
I35
tp2513
a(I125
I101
tp2514
a(I121
I83
tp2515
asg15
I200
sba(imain2
Polygon
p2516
(dp2517
g3
(I191
I128
tp2518
sg5
I200
sg6
(I244
I3
I244
I14
tp2519
sg8
(lp2520
(I156
I149
tp2521
a(I144
I170
tp2522
a(I200
I104
tp2523
a(I200
I148
tp2524
a(I182
I162
tp2525
a(I187
I85
tp2526
asg15
I200
sba(imain2
Polygon
p2527
(dp2528
g3
(I40
I13
tp2529
sg5
I200
sg6
(I70
I181
I121
I0
tp2530
sg8
(lp2531
(I24
I51
tp2532
a(I25
I54
tp2533
a(I62
I16
tp2534
a(I16
I43
tp2535
a(I84
I0
tp2536
a(I76
I9
tp2537
a(I15
I55
tp2538
a(I0
I0
tp2539
a(I40
I20
tp2540
a(I1
I44
tp2541
a(I45
I0
tp2542
a(I7
I27
tp2543
a(I0
I43
tp2544
a(I46
I57
tp2545
a(I76
I0
tp2546
a(I79
I0
tp2547
a(I19
I16
tp2548
a(I0
I0
tp2549
asg15
I200
sba(imain2
Polygon
p2550
(dp2551
g3
(I50
I145
tp2552
sg5
I200
sg6
(I57
I210
I124
I22
tp2553
sg8
(lp2554
(I90
I110
tp2555
a(I87
I159
tp2556
a(I100
I145
tp2557
asg15
I200
sba(imain2
Polygon
p2558
(dp2559
g3
(I184
I69
tp2560
sg5
I200
sg6
(I122
I136
I36
I146
tp2561
sg8
(lp2562
(I200
I63
tp2563
a(I200
I31
tp2564
a(I200
I33
tp2565
a(I200
I67
tp2566
a(I164
I71
tp2567
a(I174
I114
tp2568
a(I200
I115
tp2569
a(I200
I101
tp2570
a(I195
I79
tp2571
asg15
I200
sba(imain2
Polygon
p2572
(dp2573
g3
(I6
I29
tp2574
sg5
I200
sg6
(I138
I36
I215
I1
tp2575
sg8
(lp2576
(I56
I14
tp2577
a(I46
I13
tp2578
a(I0
I41
tp2579
a(I0
I0
tp2580
a(I48
I0
tp2581
a(I18
I43
tp2582
a(I21
I47
tp2583
asg15
I200
sba(imain2
Polygon
p2584
(dp2585
g3
(I100
I197
tp2586
sg5
I200
sg6
(I28
I135
I60
I75
tp2587
sg8
(lp2588
(I143
I200
tp2589
a(I79
I200
tp2590
a(I85
I200
tp2591
a(I74
I200
tp2592
a(I80
I200
tp2593
a(I67
I193
tp2594
a(I68
I200
tp2595
a(I50
I200
tp2596
asg15
I200
sba(imain2
Polygon
p2597
(dp2598
g3
(I102
I67
tp2599
sg5
I200
sg6
(I108
I65
I87
I0
tp2600
sg8
(lp2601
(I59
I86
tp2602
a(I149
I22
tp2603
a(I134
I38
tp2604
a(I73
I48
tp2605
a(I152
I68
tp2606
a(I84
I36
tp2607
a(I86
I100
tp2608
a(I84
I99
tp2609
a(I85
I70
tp2610
asg15
I200
sba(imain2
Polygon
p2611
(dp2612
g3
(I91
I124
tp2613
sg5
I200
sg6
(I166
I67
I8
I124
tp2614
sg8
(lp2615
(I41
I114
tp2616
a(I80
I127
tp2617
a(I83
I75
tp2618
a(I119
I114
tp2619
a(I111
I171
tp2620
a(I45
I142
tp2621
a(I66
I81
tp2622
a(I119
I80
tp2623
a(I129
I117
tp2624
a(I81
I119
tp2625
a(I76
I76
tp2626
a(I54
I89
tp2627
a(I76
I94
tp2628
asg15
I200
sba(imain2
Polygon
p2629
(dp2630
g3
(I133
I74
tp2631
sg5
I200
sg6
(I15
I174
I91
I0
tp2632
sg8
(lp2633
(I93
I104
tp2634
a(I95
I118
tp2635
a(I134
I83
tp2636
a(I176
I108
tp2637
a(I157
I40
tp2638
a(I132
I33
tp2639
a(I137
I43
tp2640
a(I178
I48
tp2641
a(I117
I90
tp2642
a(I104
I86
tp2643
a(I136
I101
tp2644
a(I129
I57
tp2645
a(I181
I26
tp2646
a(I95
I85
tp2647
a(I136
I85
tp2648
a(I166
I88
tp2649
a(I171
I56
tp2650
asg15
I200
sba(imain2
Polygon
p2651
(dp2652
g3
(I181
I185
tp2653
sg5
I200
sg6
(I1
I135
I61
I13
tp2654
sg8
(lp2655
(I192
I200
tp2656
a(I200
I200
tp2657
a(I197
I153
tp2658
asg15
I200
sba(imain2
Polygon
p2659
(dp2660
g3
(I3
I9
tp2661
sg5
I200
sg6
(I113
I13
I43
I119
tp2662
sg8
(lp2663
(I37
I0
tp2664
a(I49
I0
tp2665
a(I0
I0
tp2666
asg15
I200
sba(imain2
Polygon
p2667
(dp2668
g3
(I154
I22
tp2669
sg5
I200
sg6
(I81
I179
I129
I0
tp2670
sg8
(lp2671
(I198
I7
tp2672
a(I149
I69
tp2673
a(I167
I71
tp2674
a(I193
I61
tp2675
asg15
I200
sba(imain2
Polygon
p2676
(dp2677
g3
(I3
I51
tp2678
sg5
I200
sg6
(I9
I166
I11
I42
tp2679
sg8
(lp2680
(I0
I44
tp2681
a(I0
I78
tp2682
a(I0
I74
tp2683
a(I0
I15
tp2684
asg15
I200
sba(imain2
Polygon
p2685
(dp2686
g3
(I183
I123
tp2687
sg5
I200
sg6
(I43
I171
I188
I102
tp2688
sg8
(lp2689
(I200
I171
tp2690
a(I200
I140
tp2691
a(I200
I152
tp2692
asg15
I200
sba.