(lp0
(imain2
Polygon
p1
(dp2
S'origin'
p3
(I100
I102
tp4
sS'h'
p5
I200
sS'color'
p6
(I132
I172
I187
I0
tp7
sS'corner_list'
p8
(lp9
(I77
I128
tp10
a(I139
I81
tp11
a(I128
I109
tp12
a(I148
I118
tp13
a(I83
I86
tp14
a(I62
I111
tp15
a(I106
I72
tp16
asS'w'
p17
I200
sba(imain2
Polygon
p18
(dp19
g3
(I142
I122
tp20
sg5
I200
sg6
(I20
I220
I130
I25
tp21
sg8
(lp22
(I101
I108
tp23
a(I95
I104
tp24
a(I106
I160
tp25
a(I147
I155
tp26
a(I109
I157
tp27
a(I109
I92
tp28
a(I119
I85
tp29
a(I188
I130
tp30
a(I164
I94
tp31
a(I192
I113
tp32
a(I136
I104
tp33
a(I134
I86
tp34
a(I102
I138
tp35
asg17
I200
sba(imain2
Polygon
p36
(dp37
g3
(I39
I24
tp38
sg5
I200
sg6
(I239
I162
I199
I1
tp39
sg8
(lp40
(I58
I0
tp41
a(I42
I0
tp42
a(I43
I65
tp43
a(I50
I25
tp44
asg17
I200
sba(imain2
Polygon
p45
(dp46
g3
(I87
I73
tp47
sg5
I200
sg6
(I159
I17
I197
I85
tp48
sg8
(lp49
(I103
I121
tp50
a(I74
I69
tp51
a(I82
I102
tp52
a(I62
I79
tp53
a(I68
I47
tp54
a(I56
I110
tp55
a(I92
I70
tp56
a(I63
I114
tp57
a(I47
I56
tp58
a(I77
I37
tp59
a(I131
I68
tp60
a(I58
I120
tp61
a(I69
I107
tp62
a(I80
I99
tp63
a(I53
I119
tp64
asg17
I200
sba(imain2
Polygon
p65
(dp66
g3
(I75
I185
tp67
sg5
I200
sg6
(I70
I0
I88
I76
tp68
sg8
(lp69
(I84
I199
tp70
a(I125
I163
tp71
a(I123
I140
tp72
a(I120
I200
tp73
a(I75
I200
tp74
a(I68
I195
tp75
a(I98
I174
tp76
a(I100
I200
tp77
asg17
I200
sba(imain2
Polygon
p78
(dp79
g3
(I51
I161
tp80
sg5
I200
sg6
(I130
I131
I13
I89
tp81
sg8
(lp82
(I86
I200
tp83
a(I55
I200
tp84
a(I96
I190
tp85
a(I67
I140
tp86
a(I76
I152
tp87
asg17
I200
sba(imain2
Polygon
p88
(dp89
g3
(I76
I107
tp90
sg5
I200
sg6
(I159
I37
I202
I108
tp91
sg8
(lp92
(I113
I136
tp93
a(I40
I71
tp94
a(I56
I71
tp95
a(I55
I67
tp96
a(I115
I57
tp97
a(I107
I154
tp98
a(I53
I141
tp99
a(I48
I92
tp100
a(I101
I62
tp101
a(I75
I123
tp102
a(I85
I132
tp103
a(I87
I117
tp104
asg17
I200
sba(imain2
Polygon
p105
(dp106
g3
(I79
I45
tp107
sg5
I200
sg6
(I221
I1
I240
I1
tp108
sg8
(lp109
(I84
I11
tp110
a(I121
I88
tp111
a(I37
I47
tp112
a(I70
I64
tp113
a(I88
I9
tp114
asg17
I200
sba(imain2
Polygon
p115
(dp116
g3
(I123
I186
tp117
sg5
I200
sg6
(I46
I14
I42
I1
tp118
sg8
(lp119
(I93
I159
tp120
a(I119
I194
tp121
a(I86
I200
tp122
asg17
I200
sba(imain2
Polygon
p123
(dp124
g3
(I74
I162
tp125
sg5
I200
sg6
(I155
I93
I211
I1
tp126
sg8
(lp127
(I111
I187
tp128
a(I28
I142
tp129
a(I74
I188
tp130
a(I60
I138
tp131
a(I124
I140
tp132
a(I43
I200
tp133
a(I54
I193
tp134
a(I62
I188
tp135
a(I124
I196
tp136
a(I110
I141
tp137
a(I120
I166
tp138
asg17
I200
sba(imain2
Polygon
p139
(dp140
g3
(I64
I120
tp141
sg5
I200
sg6
(I232
I39
I170
I0
tp142
sg8
(lp143
(I113
I141
tp144
a(I100
I116
tp145
a(I104
I125
tp146
asg17
I200
sba(imain2
Polygon
p147
(dp148
g3
(I2
I37
tp149
sg5
I200
sg6
(I134
I133
I101
I108
tp150
sg8
(lp151
(I0
I0
tp152
a(I45
I3
tp153
a(I4
I47
tp154
a(I20
I35
tp155
a(I0
I66
tp156
a(I41
I3
tp157
a(I36
I68
tp158
a(I21
I15
tp159
a(I39
I86
tp160
a(I0
I85
tp161
a(I0
I9
tp162
asg17
I200
sba(imain2
Polygon
p163
(dp164
g3
(I161
I116
tp165
sg5
I200
sg6
(I150
I91
I113
I49
tp166
sg8
(lp167
(I191
I88
tp168
a(I154
I98
tp169
a(I168
I90
tp170
a(I170
I71
tp171
a(I163
I108
tp172
a(I174
I126
tp173
a(I198
I163
tp174
a(I182
I147
tp175
a(I200
I152
tp176
asg17
I200
sba(imain2
Polygon
p177
(dp178
g3
(I171
I44
tp179
sg5
I200
sg6
(I130
I233
I105
I107
tp180
sg8
(lp181
(I151
I30
tp182
a(I157
I22
tp183
a(I200
I89
tp184
a(I200
I0
tp185
a(I132
I0
tp186
a(I134
I21
tp187
a(I132
I4
tp188
a(I161
I77
tp189
a(I200
I93
tp190
a(I143
I0
tp191
a(I170
I71
tp192
a(I157
I81
tp193
a(I146
I0
tp194
asg17
I200
sba(imain2
Polygon
p195
(dp196
g3
(I196
I163
tp197
sg5
I200
sg6
(I37
I166
I6
I18
tp198
sg8
(lp199
(I195
I117
tp200
a(I200
I197
tp201
a(I200
I191
tp202
a(I200
I134
tp203
a(I193
I170
tp204
a(I200
I141
tp205
a(I155
I170
tp206
a(I200
I182
tp207
a(I200
I148
tp208
a(I152
I136
tp209
a(I170
I173
tp210
a(I179
I115
tp211
a(I191
I200
tp212
asg17
I200
sba(imain2
Polygon
p213
(dp214
g3
(I123
I35
tp215
sg5
I200
sg6
(I142
I61
I71
I1
tp216
sg8
(lp217
(I73
I77
tp218
a(I134
I57
tp219
a(I79
I65
tp220
a(I158
I15
tp221
a(I90
I72
tp222
a(I140
I0
tp223
a(I94
I0
tp224
a(I100
I0
tp225
asg17
I200
sba(imain2
Polygon
p226
(dp227
g3
(I38
I152
tp228
sg5
I200
sg6
(I92
I164
I32
I129
tp229
sg8
(lp230
(I87
I136
tp231
a(I53
I103
tp232
a(I49
I126
tp233
a(I73
I158
tp234
asg17
I200
sba(imain2
Polygon
p235
(dp236
g3
(I118
I157
tp237
sg5
I200
sg6
(I85
I63
I43
I1
tp238
sg8
(lp239
(I79
I185
tp240
a(I115
I173
tp241
a(I168
I133
tp242
a(I160
I116
tp243
a(I154
I175
tp244
asg17
I200
sba(imain2
Polygon
p245
(dp246
g3
(I10
I175
tp247
sg5
I200
sg6
(I174
I52
I59
I12
tp248
sg8
(lp249
(I0
I141
tp250
a(I0
I148
tp251
a(I0
I200
tp252
a(I29
I188
tp253
asg17
I200
sba(imain2
Polygon
p254
(dp255
g3
(I4
I131
tp256
sg5
I200
sg6
(I122
I51
I61
I1
tp257
sg8
(lp258
(I25
I135
tp259
a(I2
I88
tp260
a(I0
I173
tp261
a(I45
I150
tp262
a(I0
I145
tp263
a(I18
I159
tp264
a(I41
I133
tp265
a(I0
I159
tp266
a(I19
I89
tp267
a(I0
I108
tp268
a(I12
I86
tp269
a(I0
I92
tp270
a(I0
I87
tp271
asg17
I200
sba(imain2
Polygon
p272
(dp273
g3
(I75
I51
tp274
sg5
I200
sg6
(I101
I195
I0
I8
tp275
sg8
(lp276
(I73
I93
tp277
a(I28
I87
tp278
a(I34
I7
tp279
a(I105
I56
tp280
a(I112
I100
tp281
asg17
I200
sba(imain2
Polygon
p282
(dp283
g3
(I18
I101
tp284
sg5
I200
sg6
(I0
I11
I65
I41
tp285
sg8
(lp286
(I56
I62
tp287
a(I15
I116
tp288
a(I0
I56
tp289
a(I5
I78
tp290
a(I20
I101
tp291
a(I0
I111
tp292
a(I45
I64
tp293
asg17
I200
sba(imain2
Polygon
p294
(dp295
g3
(I97
I199
tp296
sg5
I200
sg6
(I0
I106
I44
I104
tp297
sg8
(lp298
(I91
I200
tp299
a(I134
I200
tp300
a(I135
I171
tp301
a(I78
I156
tp302
a(I97
I158
tp303
a(I127
I200
tp304
a(I118
I173
tp305
a(I87
I171
tp306
a(I99
I160
tp307
a(I95
I152
tp308
a(I97
I200
tp309
a(I82
I188
tp310
asg17
I200
sba(imain2
Polygon
p311
(dp312
g3
(I102
I104
tp313
sg5
I200
sg6
(I219
I121
I126
I63
tp314
sg8
(lp315
(I105
I151
tp316
a(I126
I71
tp317
a(I59
I58
tp318
a(I57
I131
tp319
a(I74
I153
tp320
asg17
I200
sba(imain2
Polygon
p321
(dp322
g3
(I177
I176
tp323
sg5
I200
sg6
(I112
I206
I213
I41
tp324
sg8
(lp325
(I200
I138
tp326
a(I167
I145
tp327
a(I200
I200
tp328
asg17
I200
sba(imain2
Polygon
p329
(dp330
g3
(I99
I27
tp331
sg5
I200
sg6
(I71
I83
I1
I103
tp332
sg8
(lp333
(I143
I0
tp334
a(I53
I0
tp335
a(I97
I73
tp336
a(I139
I50
tp337
a(I73
I29
tp338
asg17
I200
sba(imain2
Polygon
p339
(dp340
g3
(I138
I156
tp341
sg5
I200
sg6
(I16
I57
I186
I0
tp342
sg8
(lp343
(I134
I187
tp344
a(I91
I144
tp345
a(I111
I148
tp346
a(I101
I146
tp347
asg17
I200
sba(imain2
Polygon
p348
(dp349
g3
(I100
I129
tp350
sg5
I200
sg6
(I113
I214
I219
I0
tp351
sg8
(lp352
(I93
I100
tp353
a(I85
I161
tp354
a(I66
I171
tp355
a(I97
I125
tp356
a(I67
I109
tp357
asg17
I200
sba(imain2
Polygon
p358
(dp359
g3
(I90
I2
tp360
sg5
I200
sg6
(I194
I194
I1
I1
tp361
sg8
(lp362
(I91
I29
tp363
a(I109
I0
tp364
a(I88
I0
tp365
a(I82
I20
tp366
a(I90
I51
tp367
a(I65
I45
tp368
a(I79
I40
tp369
a(I66
I0
tp370
a(I55
I0
tp371
a(I52
I0
tp372
asg17
I200
sba(imain2
Polygon
p373
(dp374
g3
(I76
I49
tp375
sg5
I200
sg6
(I245
I163
I175
I97
tp376
sg8
(lp377
(I52
I54
tp378
a(I62
I34
tp379
a(I99
I36
tp380
a(I124
I78
tp381
a(I91
I88
tp382
a(I47
I82
tp383
asg17
I200
sba(imain2
Polygon
p384
(dp385
g3
(I135
I193
tp386
sg5
I200
sg6
(I199
I198
I62
I0
tp387
sg8
(lp388
(I131
I160
tp389
a(I146
I200
tp390
a(I87
I200
tp391
a(I91
I200
tp392
a(I178
I191
tp393
a(I174
I190
tp394
a(I129
I171
tp395
a(I149
I200
tp396
a(I150
I200
tp397
asg17
I200
sba(imain2
Polygon
p398
(dp399
g3
(I156
I197
tp400
sg5
I200
sg6
(I78
I232
I78
I1
tp401
sg8
(lp402
(I183
I162
tp403
a(I198
I200
tp404
a(I152
I200
tp405
a(I108
I171
tp406
asg17
I200
sba(imain2
Polygon
p407
(dp408
g3
(I159
I95
tp409
sg5
I200
sg6
(I160
I19
I13
I1
tp410
sg8
(lp411
(I196
I80
tp412
a(I177
I72
tp413
a(I114
I45
tp414
a(I184
I46
tp415
a(I184
I145
tp416
a(I154
I110
tp417
a(I130
I98
tp418
a(I171
I87
tp419
a(I136
I123
tp420
asg17
I200
sba(imain2
Polygon
p421
(dp422
g3
(I130
I187
tp423
sg5
I200
sg6
(I177
I73
I86
I66
tp424
sg8
(lp425
(I138
I200
tp426
a(I161
I187
tp427
a(I161
I161
tp428
a(I168
I192
tp429
a(I164
I200
tp430
a(I97
I159
tp431
a(I90
I200
tp432
asg17
I200
sba(imain2
Polygon
p433
(dp434
g3
(I56
I194
tp435
sg5
I200
sg6
(I191
I172
I1
I30
tp436
sg8
(lp437
(I99
I158
tp438
a(I59
I200
tp439
a(I15
I171
tp440
a(I36
I176
tp441
a(I24
I145
tp442
a(I7
I195
tp443
a(I6
I200
tp444
a(I75
I169
tp445
a(I20
I200
tp446
a(I102
I200
tp447
a(I101
I170
tp448
a(I70
I200
tp449
asg17
I200
sba(imain2
Polygon
p450
(dp451
g3
(I180
I160
tp452
sg5
I200
sg6
(I28
I39
I107
I47
tp453
sg8
(lp454
(I160
I132
tp455
a(I175
I200
tp456
a(I200
I200
tp457
a(I159
I131
tp458
a(I200
I132
tp459
a(I200
I161
tp460
a(I200
I118
tp461
a(I161
I136
tp462
a(I200
I128
tp463
a(I200
I139
tp464
asg17
I200
sba(imain2
Polygon
p465
(dp466
g3
(I12
I87
tp467
sg5
I200
sg6
(I48
I129
I181
I1
tp468
sg8
(lp469
(I0
I54
tp470
a(I20
I73
tp471
a(I0
I107
tp472
a(I0
I121
tp473
asg17
I200
sba(imain2
Polygon
p474
(dp475
g3
(I123
I91
tp476
sg5
I200
sg6
(I229
I0
I184
I52
tp477
sg8
(lp478
(I93
I69
tp479
a(I99
I140
tp480
a(I88
I106
tp481
a(I77
I123
tp482
a(I134
I104
tp483
asg17
I200
sba(imain2
Polygon
p484
(dp485
g3
(I80
I122
tp486
sg5
I200
sg6
(I220
I175
I139
I72
tp487
sg8
(lp488
(I116
I143
tp489
a(I129
I85
tp490
a(I44
I101
tp491
a(I75
I158
tp492
a(I123
I146
tp493
asg17
I200
sba(imain2
Polygon
p494
(dp495
g3
(I119
I156
tp496
sg5
I200
sg6
(I125
I213
I195
I44
tp497
sg8
(lp498
(I96
I178
tp499
a(I141
I200
tp500
a(I103
I123
tp501
a(I90
I178
tp502
a(I70
I199
tp503
a(I133
I200
tp504
a(I69
I119
tp505
a(I102
I114
tp506
a(I114
I170
tp507
a(I88
I157
tp508
asg17
I200
sba(imain2
Polygon
p509
(dp510
g3
(I66
I96
tp511
sg5
I200
sg6
(I106
I72
I64
I91
tp512
sg8
(lp513
(I24
I133
tp514
a(I20
I88
tp515
a(I59
I80
tp516
a(I72
I129
tp517
a(I100
I145
tp518
a(I30
I82
tp519
a(I36
I114
tp520
asg17
I200
sba(imain2
Polygon
p521
(dp522
g3
(I17
I178
tp523
sg5
I200
sg6
(I81
I63
I11
I1
tp524
sg8
(lp525
(I63
I167
tp526
a(I0
I174
tp527
a(I21
I149
tp528
a(I20
I150
tp529
a(I0
I128
tp530
a(I11
I166
tp531
a(I45
I141
tp532
a(I63
I188
tp533
asg17
I200
sba(imain2
Polygon
p534
(dp535
g3
(I196
I157
tp536
sg5
I200
sg6
(I26
I207
I67
I0
tp537
sg8
(lp538
(I147
I199
tp539
a(I200
I112
tp540
a(I200
I131
tp541
a(I195
I135
tp542
a(I200
I158
tp543
a(I200
I123
tp544
a(I147
I107
tp545
a(I165
I144
tp546
a(I200
I113
tp547
a(I200
I173
tp548
a(I200
I143
tp549
a(I200
I195
tp550
a(I200
I151
tp551
a(I200
I195
tp552
a(I161
I119
tp553
a(I200
I151
tp554
a(I200
I135
tp555
a(I158
I128
tp556
asg17
I200
sba(imain2
Polygon
p557
(dp558
g3
(I7
I138
tp559
sg5
I200
sg6
(I208
I109
I8
I0
tp560
sg8
(lp561
(I0
I174
tp562
a(I0
I103
tp563
a(I0
I109
tp564
a(I43
I88
tp565
a(I11
I151
tp566
a(I0
I88
tp567
a(I0
I180
tp568
a(I44
I169
tp569
a(I0
I157
tp570
a(I0
I147
tp571
a(I21
I180
tp572
a(I0
I158
tp573
a(I24
I89
tp574
a(I41
I89
tp575
asg17
I200
sba(imain2
Polygon
p576
(dp577
g3
(I49
I75
tp578
sg5
I200
sg6
(I117
I227
I9
I19
tp579
sg8
(lp580
(I97
I31
tp581
a(I96
I95
tp582
a(I60
I123
tp583
a(I28
I81
tp584
a(I35
I74
tp585
a(I91
I46
tp586
a(I35
I64
tp587
a(I75
I88
tp588
a(I0
I118
tp589
a(I3
I64
tp590
a(I8
I49
tp591
a(I41
I49
tp592
a(I53
I73
tp593
a(I77
I48
tp594
a(I41
I61
tp595
a(I63
I36
tp596
a(I7
I38
tp597
asg17
I200
sba(imain2
Polygon
p598
(dp599
g3
(I75
I73
tp600
sg5
I200
sg6
(I161
I134
I134
I133
tp601
sg8
(lp602
(I108
I39
tp603
a(I123
I118
tp604
a(I47
I117
tp605
a(I62
I34
tp606
asg17
I200
sba(imain2
Polygon
p607
(dp608
g3
(I82
I103
tp609
sg5
I200
sg6
(I94
I95
I57
I0
tp610
sg8
(lp611
(I123
I116
tp612
a(I83
I145
tp613
a(I53
I131
tp614
a(I124
I68
tp615
a(I71
I103
tp616
a(I67
I133
tp617
a(I98
I99
tp618
a(I95
I67
tp619
a(I97
I112
tp620
a(I78
I128
tp621
a(I39
I61
tp622
a(I43
I63
tp623
a(I41
I99
tp624
a(I132
I75
tp625
a(I128
I131
tp626
a(I107
I59
tp627
a(I91
I128
tp628
a(I55
I149
tp629
asg17
I200
sba(imain2
Polygon
p630
(dp631
g3
(I126
I26
tp632
sg5
I200
sg6
(I237
I182
I126
I105
tp633
sg8
(lp634
(I138
I12
tp635
a(I148
I21
tp636
a(I124
I16
tp637
a(I83
I10
tp638
a(I77
I0
tp639
a(I162
I0
tp640
a(I176
I38
tp641
a(I168
I75
tp642
asg17
I200
sba(imain2
Polygon
p643
(dp644
g3
(I128
I23
tp645
sg5
I200
sg6
(I105
I1
I83
I0
tp646
sg8
(lp647
(I125
I0
tp648
a(I97
I3
tp649
a(I101
I52
tp650
a(I154
I0
tp651
a(I124
I60
tp652
a(I170
I34
tp653
a(I100
I9
tp654
a(I116
I0
tp655
a(I84
I17
tp656
a(I157
I34
tp657
a(I144
I0
tp658
a(I92
I33
tp659
a(I172
I71
tp660
a(I107
I22
tp661
asg17
I200
sba(imain2
Polygon
p662
(dp663
g3
(I147
I59
tp664
sg5
I200
sg6
(I1
I240
I188
I60
tp665
sg8
(lp666
(I191
I38
tp667
a(I155
I19
tp668
a(I190
I84
tp669
asg17
I200
sba(imain2
Polygon
p670
(dp671
g3
(I105
I192
tp672
sg5
I200
sg6
(I177
I19
I173
I1
tp673
sg8
(lp674
(I150
I178
tp675
a(I68
I169
tp676
a(I146
I145
tp677
a(I118
I200
tp678
a(I59
I200
tp679
asg17
I200
sba(imain2
Polygon
p680
(dp681
g3
(I144
I60
tp682
sg5
I200
sg6
(I58
I233
I7
I0
tp683
sg8
(lp684
(I100
I77
tp685
a(I157
I97
tp686
a(I151
I46
tp687
a(I135
I106
tp688
a(I122
I34
tp689
a(I180
I75
tp690
a(I143
I104
tp691
a(I114
I17
tp692
asg17
I200
sba(imain2
Polygon
p693
(dp694
g3
(I177
I86
tp695
sg5
I200
sg6
(I168
I32
I16
I1
tp696
sg8
(lp697
(I179
I46
tp698
a(I165
I74
tp699
a(I200
I62
tp700
a(I167
I118
tp701
a(I200
I65
tp702
a(I141
I67
tp703
a(I174
I90
tp704
asg17
I200
sba(imain2
Polygon
p705
(dp706
g3
(I157
I117
tp707
sg5
I200
sg6
(I42
I28
I0
I53
tp708
sg8
(lp709
(I187
I153
tp710
a(I200
I147
tp711
a(I128
I75
tp712
a(I191
I152
tp713
a(I142
I67
tp714
a(I183
I145
tp715
a(I198
I87
tp716
a(I200
I166
tp717
a(I132
I108
tp718
a(I107
I95
tp719
asg17
I200
sba(imain2
Polygon
p720
(dp721
g3
(I155
I192
tp722
sg5
I200
sg6
(I1
I33
I194
I0
tp723
sg8
(lp724
(I200
I165
tp725
a(I192
I163
tp726
a(I128
I195
tp727
a(I132
I200
tp728
a(I175
I200
tp729
a(I178
I193
tp730
a(I110
I173
tp731
a(I153
I200
tp732
a(I155
I187
tp733
a(I194
I181
tp734
a(I158
I185
tp735
a(I195
I184
tp736
asg17
I200
sba(imain2
Polygon
p737
(dp738
g3
(I103
I158
tp739
sg5
I200
sg6
(I13
I44
I118
I56
tp740
sg8
(lp741
(I107
I154
tp742
a(I87
I136
tp743
a(I127
I113
tp744
a(I98
I169
tp745
a(I82
I153
tp746
a(I131
I117
tp747
a(I66
I200
tp748
a(I96
I148
tp749
asg17
I200
sba(imain2
Polygon
p750
(dp751
g3
(I9
I151
tp752
sg5
I200
sg6
(I120
I83
I56
I32
tp753
sg8
(lp754
(I0
I194
tp755
a(I0
I173
tp756
a(I0
I126
tp757
a(I14
I129
tp758
a(I0
I157
tp759
a(I0
I200
tp760
a(I44
I122
tp761
a(I0
I159
tp762
a(I28
I192
tp763
asg17
I200
sba(imain2
Polygon
p764
(dp765
g3
(I114
I115
tp766
sg5
I200
sg6
(I165
I156
I137
I1
tp767
sg8
(lp768
(I136
I133
tp769
a(I156
I103
tp770
a(I64
I113
tp771
a(I76
I151
tp772
a(I75
I83
tp773
a(I144
I106
tp774
a(I99
I110
tp775
asg17
I200
sba(imain2
Polygon
p776
(dp777
g3
(I114
I99
tp778
sg5
I200
sg6
(I60
I240
I7
I44
tp779
sg8
(lp780
(I128
I108
tp781
a(I104
I71
tp782
a(I68
I97
tp783
a(I85
I70
tp784
a(I72
I108
tp785
a(I117
I58
tp786
a(I70
I56
tp787
a(I109
I134
tp788
a(I103
I135
tp789
a(I69
I62
tp790
a(I139
I67
tp791
a(I84
I133
tp792
asg17
I200
sba(imain2
Polygon
p793
(dp794
g3
(I173
I62
tp795
sg5
I200
sg6
(I1
I40
I167
I96
tp796
sg8
(lp797
(I200
I82
tp798
a(I200
I84
tp799
a(I168
I49
tp800
a(I146
I31
tp801
a(I162
I46
tp802
asg17
I200
sba(imain2
Polygon
p803
(dp804
g3
(I199
I171
tp805
sg5
I200
sg6
(I0
I233
I13
I20
tp806
sg8
(lp807
(I200
I164
tp808
a(I200
I174
tp809
a(I162
I194
tp810
asg17
I200
sba(imain2
Polygon
p811
(dp812
g3
(I195
I126
tp813
sg5
I200
sg6
(I211
I215
I27
I0
tp814
sg8
(lp815
(I182
I167
tp816
a(I176
I160
tp817
a(I172
I118
tp818
a(I200
I164
tp819
a(I200
I93
tp820
a(I200
I82
tp821
a(I175
I79
tp822
a(I200
I91
tp823
a(I188
I145
tp824
a(I170
I107
tp825
a(I183
I169
tp826
a(I199
I106
tp827
a(I200
I123
tp828
a(I180
I87
tp829
a(I200
I143
tp830
a(I200
I156
tp831
a(I200
I136
tp832
asg17
I200
sba(imain2
Polygon
p833
(dp834
g3
(I51
I190
tp835
sg5
I200
sg6
(I124
I172
I99
I56
tp836
sg8
(lp837
(I63
I200
tp838
a(I11
I200
tp839
a(I86
I200
tp840
a(I60
I200
tp841
a(I96
I168
tp842
a(I97
I200
tp843
a(I14
I192
tp844
a(I88
I200
tp845
asg17
I200
sba(imain2
Polygon
p846
(dp847
g3
(I200
I5
tp848
sg5
I200
sg6
(I187
I107
I44
I0
tp849
sg8
(lp850
(I200
I50
tp851
a(I200
I17
tp852
a(I200
I0
tp853
a(I196
I26
tp854
a(I171
I11
tp855
a(I200
I0
tp856
a(I200
I0
tp857
a(I186
I29
tp858
a(I200
I0
tp859
a(I186
I38
tp860
asg17
I200
sba(imain2
Polygon
p861
(dp862
g3
(I147
I166
tp863
sg5
I200
sg6
(I114
I241
I223
I6
tp864
sg8
(lp865
(I108
I131
tp866
a(I109
I190
tp867
a(I179
I180
tp868
a(I123
I166
tp869
a(I132
I125
tp870
a(I110
I196
tp871
a(I108
I150
tp872
a(I150
I117
tp873
asg17
I200
sba(imain2
Polygon
p874
(dp875
g3
(I16
I191
tp876
sg5
I200
sg6
(I128
I46
I221
I1
tp877
sg8
(lp878
(I9
I161
tp879
a(I59
I200
tp880
a(I55
I168
tp881
asg17
I200
sba(imain2
Polygon
p882
(dp883
g3
(I94
I9
tp884
sg5
I200
sg6
(I199
I50
I20
I0
tp885
sg8
(lp886
(I82
I0
tp887
a(I131
I0
tp888
a(I130
I0
tp889
a(I83
I0
tp890
a(I123
I3
tp891
a(I62
I0
tp892
a(I67
I26
tp893
a(I87
I56
tp894
a(I99
I22
tp895
a(I109
I25
tp896
a(I137
I19
tp897
a(I50
I53
tp898
a(I103
I57
tp899
asg17
I200
sba(imain2
Polygon
p900
(dp901
g3
(I111
I113
tp902
sg5
I200
sg6
(I89
I30
I145
I1
tp903
sg8
(lp904
(I95
I159
tp905
a(I120
I136
tp906
a(I150
I136
tp907
asg17
I200
sba(imain2
Polygon
p908
(dp909
g3
(I10
I81
tp910
sg5
I200
sg6
(I218
I162
I192
I1
tp911
sg8
(lp912
(I60
I131
tp913
a(I0
I44
tp914
a(I0
I129
tp915
a(I12
I107
tp916
a(I11
I125
tp917
a(I59
I45
tp918
a(I0
I116
tp919
a(I21
I59
tp920
a(I22
I107
tp921
a(I46
I129
tp922
a(I2
I80
tp923
a(I24
I55
tp924
asg17
I200
sba(imain2
Polygon
p925
(dp926
g3
(I10
I22
tp927
sg5
I200
sg6
(I217
I204
I104
I67
tp928
sg8
(lp929
(I0
I19
tp930
a(I41
I0
tp931
a(I47
I58
tp932
a(I19
I72
tp933
a(I0
I72
tp934
a(I12
I0
tp935
a(I0
I0
tp936
a(I0
I66
tp937
a(I13
I7
tp938
a(I0
I14
tp939
a(I26
I4
tp940
a(I0
I13
tp941
a(I15
I70
tp942
asg17
I200
sba(imain2
Polygon
p943
(dp944
g3
(I19
I169
tp945
sg5
I200
sg6
(I89
I215
I78
I1
tp946
sg8
(lp947
(I41
I147
tp948
a(I68
I169
tp949
a(I20
I192
tp950
a(I7
I200
tp951
a(I0
I166
tp952
asg17
I200
sba(imain2
Polygon
p953
(dp954
g3
(I194
I7
tp955
sg5
I200
sg6
(I161
I88
I133
I1
tp956
sg8
(lp957
(I200
I44
tp958
a(I200
I0
tp959
a(I200
I35
tp960
a(I160
I25
tp961
a(I170
I0
tp962
a(I184
I0
tp963
a(I200
I0
tp964
a(I174
I0
tp965
a(I200
I0
tp966
a(I180
I5
tp967
asg17
I200
sba(imain2
Polygon
p968
(dp969
g3
(I42
I15
tp970
sg5
I200
sg6
(I147
I135
I162
I1
tp971
sg8
(lp972
(I55
I36
tp973
a(I61
I9
tp974
a(I73
I63
tp975
a(I0
I65
tp976
a(I11
I0
tp977
a(I12
I32
tp978
a(I91
I0
tp979
a(I20
I58
tp980
asg17
I200
sba(imain2
Polygon
p981
(dp982
g3
(I183
I77
tp983
sg5
I200
sg6
(I25
I140
I27
I26
tp984
sg8
(lp985
(I170
I55
tp986
a(I200
I86
tp987
a(I156
I32
tp988
a(I189
I40
tp989
a(I161
I65
tp990
a(I196
I42
tp991
a(I200
I43
tp992
asg17
I200
sba(imain2
Polygon
p993
(dp994
g3
(I190
I45
tp995
sg5
I200
sg6
(I176
I45
I183
I1
tp996
sg8
(lp997
(I200
I8
tp998
a(I200
I26
tp999
a(I153
I42
tp1000
a(I200
I46
tp1001
a(I179
I86
tp1002
a(I199
I57
tp1003
a(I183
I37
tp1004
a(I200
I7
tp1005
a(I200
I66
tp1006
asg17
I200
sba(imain2
Polygon
p1007
(dp1008
g3
(I115
I69
tp1009
sg5
I200
sg6
(I0
I121
I192
I0
tp1010
sg8
(lp1011
(I121
I86
tp1012
a(I84
I62
tp1013
a(I118
I32
tp1014
asg17
I200
sba(imain2
Polygon
p1015
(dp1016
g3
(I173
I121
tp1017
sg5
I200
sg6
(I242
I53
I20
I0
tp1018
sg8
(lp1019
(I155
I105
tp1020
a(I137
I112
tp1021
a(I175
I87
tp1022
a(I169
I95
tp1023
a(I184
I89
tp1024
a(I200
I116
tp1025
a(I192
I122
tp1026
a(I144
I170
tp1027
asg17
I200
sba(imain2
Polygon
p1028
(dp1029
g3
(I45
I135
tp1030
sg5
I200
sg6
(I147
I126
I175
I36
tp1031
sg8
(lp1032
(I7
I177
tp1033
a(I21
I178
tp1034
a(I23
I86
tp1035
a(I14
I133
tp1036
a(I35
I86
tp1037
a(I9
I89
tp1038
asg17
I200
sba(imain2
Polygon
p1039
(dp1040
g3
(I61
I48
tp1041
sg5
I200
sg6
(I76
I33
I123
I111
tp1042
sg8
(lp1043
(I81
I91
tp1044
a(I73
I78
tp1045
a(I47
I85
tp1046
a(I68
I93
tp1047
a(I86
I72
tp1048
a(I85
I73
tp1049
a(I45
I93
tp1050
a(I66
I90
tp1051
a(I106
I80
tp1052
asg17
I200
sba(imain2
Polygon
p1053
(dp1054
g3
(I96
I154
tp1055
sg5
I200
sg6
(I149
I182
I184
I61
tp1056
sg8
(lp1057
(I53
I107
tp1058
a(I75
I149
tp1059
a(I90
I200
tp1060
a(I142
I200
tp1061
a(I53
I114
tp1062
a(I107
I120
tp1063
asg17
I200
sba(imain2
Polygon
p1064
(dp1065
g3
(I32
I146
tp1066
sg5
I200
sg6
(I62
I240
I70
I94
tp1067
sg8
(lp1068
(I0
I157
tp1069
a(I0
I178
tp1070
a(I0
I132
tp1071
asg17
I200
sba(imain2
Polygon
p1072
(dp1073
g3
(I3
I120
tp1074
sg5
I200
sg6
(I186
I176
I16
I55
tp1075
sg8
(lp1076
(I38
I71
tp1077
a(I0
I72
tp1078
a(I0
I121
tp1079
a(I0
I132
tp1080
a(I20
I116
tp1081
asg17
I200
sba(imain2
Polygon
p1082
(dp1083
g3
(I74
I152
tp1084
sg5
I200
sg6
(I59
I79
I125
I0
tp1085
sg8
(lp1086
(I107
I180
tp1087
a(I80
I138
tp1088
a(I39
I140
tp1089
a(I117
I121
tp1090
a(I35
I167
tp1091
a(I118
I127
tp1092
a(I32
I179
tp1093
a(I33
I191
tp1094
a(I87
I200
tp1095
a(I56
I110
tp1096
a(I60
I153
tp1097
a(I76
I188
tp1098
asg17
I200
sba(imain2
Polygon
p1099
(dp1100
g3
(I31
I192
tp1101
sg5
I200
sg6
(I153
I32
I134
I1
tp1102
sg8
(lp1103
(I0
I181
tp1104
a(I7
I200
tp1105
a(I0
I200
tp1106
a(I0
I175
tp1107
a(I80
I200
tp1108
a(I17
I200
tp1109
a(I0
I142
tp1110
a(I41
I172
tp1111
a(I57
I200
tp1112
a(I28
I166
tp1113
a(I55
I200
tp1114
a(I0
I187
tp1115
a(I34
I200
tp1116
a(I54
I200
tp1117
a(I21
I181
tp1118
a(I56
I200
tp1119
a(I0
I195
tp1120
asg17
I200
sba(imain2
Polygon
p1121
(dp1122
g3
(I99
I149
tp1123
sg5
I200
sg6
(I189
I31
I203
I0
tp1124
sg8
(lp1125
(I110
I116
tp1126
a(I136
I173
tp1127
a(I101
I127
tp1128
a(I82
I109
tp1129
a(I114
I142
tp1130
a(I79
I154
tp1131
a(I51
I112
tp1132
a(I55
I173
tp1133
a(I92
I139
tp1134
a(I101
I140
tp1135
a(I109
I193
tp1136
a(I103
I151
tp1137
a(I123
I124
tp1138
a(I78
I148
tp1139
a(I52
I171
tp1140
a(I131
I198
tp1141
a(I76
I153
tp1142
asg17
I200
sba(imain2
Polygon
p1143
(dp1144
g3
(I183
I115
tp1145
sg5
I200
sg6
(I17
I108
I176
I135
tp1146
sg8
(lp1147
(I200
I102
tp1148
a(I193
I132
tp1149
a(I181
I84
tp1150
a(I200
I87
tp1151
a(I200
I142
tp1152
asg17
I200
sba(imain2
Polygon
p1153
(dp1154
g3
(I141
I107
tp1155
sg5
I200
sg6
(I78
I145
I85
I139
tp1156
sg8
(lp1157
(I119
I86
tp1158
a(I112
I86
tp1159
a(I111
I152
tp1160
asg17
I200
sba(imain2
Polygon
p1161
(dp1162
g3
(I149
I72
tp1163
sg5
I200
sg6
(I62
I107
I163
I25
tp1164
sg8
(lp1165
(I160
I35
tp1166
a(I195
I56
tp1167
a(I155
I38
tp1168
a(I99
I25
tp1169
a(I173
I40
tp1170
a(I176
I38
tp1171
a(I195
I35
tp1172
a(I127
I88
tp1173
a(I150
I68
tp1174
a(I194
I104
tp1175
a(I169
I57
tp1176
asg17
I200
sba(imain2
Polygon
p1177
(dp1178
g3
(I67
I128
tp1179
sg5
I200
sg6
(I210
I147
I52
I25
tp1180
sg8
(lp1181
(I106
I157
tp1182
a(I73
I95
tp1183
a(I108
I113
tp1184
a(I115
I152
tp1185
a(I62
I84
tp1186
a(I62
I102
tp1187
a(I63
I145
tp1188
a(I82
I157
tp1189
asg17
I200
sba(imain2
Polygon
p1190
(dp1191
g3
(I183
I44
tp1192
sg5
I200
sg6
(I80
I9
I171
I1
tp1193
sg8
(lp1194
(I200
I43
tp1195
a(I138
I92
tp1196
a(I184
I85
tp1197
a(I175
I30
tp1198
a(I136
I16
tp1199
a(I179
I0
tp1200
asg17
I200
sba(imain2
Polygon
p1201
(dp1202
g3
(I100
I61
tp1203
sg5
I200
sg6
(I199
I96
I41
I37
tp1204
sg8
(lp1205
(I56
I38
tp1206
a(I99
I64
tp1207
a(I91
I106
tp1208
a(I131
I96
tp1209
a(I95
I52
tp1210
a(I80
I38
tp1211
a(I74
I24
tp1212
a(I146
I15
tp1213
a(I96
I45
tp1214
a(I109
I45
tp1215
a(I143
I70
tp1216
a(I84
I63
tp1217
a(I126
I79
tp1218
asg17
I200
sba(imain2
Polygon
p1219
(dp1220
g3
(I52
I190
tp1221
sg5
I200
sg6
(I175
I147
I49
I76
tp1222
sg8
(lp1223
(I71
I200
tp1224
a(I89
I171
tp1225
a(I102
I200
tp1226
a(I94
I200
tp1227
a(I95
I200
tp1228
a(I34
I200
tp1229
asg17
I200
sba(imain2
Polygon
p1230
(dp1231
g3
(I151
I65
tp1232
sg5
I200
sg6
(I62
I179
I0
I97
tp1233
sg8
(lp1234
(I176
I54
tp1235
a(I179
I51
tp1236
a(I192
I90
tp1237
a(I186
I39
tp1238
a(I139
I65
tp1239
a(I111
I63
tp1240
a(I119
I77
tp1241
a(I169
I47
tp1242
a(I182
I28
tp1243
a(I162
I60
tp1244
asg17
I200
sba(imain2
Polygon
p1245
(dp1246
g3
(I67
I20
tp1247
sg5
I200
sg6
(I165
I92
I187
I99
tp1248
sg8
(lp1249
(I17
I0
tp1250
a(I29
I39
tp1251
a(I114
I0
tp1252
a(I110
I0
tp1253
a(I95
I23
tp1254
a(I113
I0
tp1255
a(I74
I0
tp1256
asg17
I200
sba(imain2
Polygon
p1257
(dp1258
g3
(I199
I56
tp1259
sg5
I200
sg6
(I159
I0
I107
I0
tp1260
sg8
(lp1261
(I200
I8
tp1262
a(I165
I70
tp1263
a(I200
I46
tp1264
a(I200
I83
tp1265
a(I181
I100
tp1266
a(I186
I53
tp1267
a(I198
I104
tp1268
a(I200
I46
tp1269
a(I200
I28
tp1270
a(I149
I58
tp1271
a(I168
I34
tp1272
asg17
I200
sba(imain2
Polygon
p1273
(dp1274
g3
(I185
I38
tp1275
sg5
I200
sg6
(I128
I217
I66
I157
tp1276
sg8
(lp1277
(I200
I69
tp1278
a(I200
I0
tp1279
a(I177
I0
tp1280
a(I154
I0
tp1281
a(I146
I42
tp1282
a(I200
I5
tp1283
a(I168
I28
tp1284
a(I142
I46
tp1285
a(I155
I22
tp1286
a(I181
I67
tp1287
a(I187
I70
tp1288
a(I138
I0
tp1289
a(I200
I50
tp1290
a(I141
I1
tp1291
a(I171
I85
tp1292
a(I189
I82
tp1293
asg17
I200
sba(imain2
Polygon
p1294
(dp1295
g3
(I67
I149
tp1296
sg5
I200
sg6
(I90
I205
I212
I37
tp1297
sg8
(lp1298
(I20
I169
tp1299
a(I92
I149
tp1300
a(I45
I104
tp1301
a(I47
I101
tp1302
a(I64
I107
tp1303
a(I75
I131
tp1304
a(I69
I155
tp1305
asg17
I200
sba(imain2
Polygon
p1306
(dp1307
g3
(I21
I182
tp1308
sg5
I200
sg6
(I110
I114
I1
I77
tp1309
sg8
(lp1310
(I67
I200
tp1311
a(I0
I166
tp1312
a(I30
I184
tp1313
a(I20
I169
tp1314
a(I19
I200
tp1315
a(I41
I195
tp1316
a(I19
I200
tp1317
a(I31
I141
tp1318
a(I13
I200
tp1319
a(I0
I144
tp1320
a(I0
I194
tp1321
a(I27
I167
tp1322
a(I8
I162
tp1323
a(I28
I152
tp1324
a(I0
I133
tp1325
a(I47
I191
tp1326
asg17
I200
sba(imain2
Polygon
p1327
(dp1328
g3
(I145
I176
tp1329
sg5
I200
sg6
(I183
I171
I1
I35
tp1330
sg8
(lp1331
(I116
I200
tp1332
a(I101
I200
tp1333
a(I177
I200
tp1334
a(I120
I137
tp1335
a(I95
I200
tp1336
asg17
I200
sba(imain2
Polygon
p1337
(dp1338
g3
(I102
I21
tp1339
sg5
I200
sg6
(I180
I177
I184
I55
tp1340
sg8
(lp1341
(I129
I69
tp1342
a(I61
I26
tp1343
a(I88
I12
tp1344
a(I104
I12
tp1345
a(I146
I25
tp1346
a(I143
I7
tp1347
a(I142
I0
tp1348
a(I59
I0
tp1349
a(I54
I68
tp1350
asg17
I200
sba(imain2
Polygon
p1351
(dp1352
g3
(I154
I30
tp1353
sg5
I200
sg6
(I49
I94
I58
I0
tp1354
sg8
(lp1355
(I135
I63
tp1356
a(I126
I17
tp1357
a(I107
I66
tp1358
a(I173
I45
tp1359
a(I162
I48
tp1360
a(I140
I39
tp1361
a(I195
I27
tp1362
a(I135
I57
tp1363
a(I156
I27
tp1364
a(I132
I0
tp1365
asg17
I200
sba(imain2
Polygon
p1366
(dp1367
g3
(I171
I178
tp1368
sg5
I200
sg6
(I93
I228
I32
I0
tp1369
sg8
(lp1370
(I200
I200
tp1371
a(I200
I200
tp1372
a(I200
I195
tp1373
a(I200
I135
tp1374
a(I179
I151
tp1375
a(I176
I162
tp1376
a(I172
I153
tp1377
asg17
I200
sba(imain2
Polygon
p1378
(dp1379
g3
(I189
I152
tp1380
sg5
I200
sg6
(I245
I70
I178
I1
tp1381
sg8
(lp1382
(I184
I192
tp1383
a(I200
I134
tp1384
a(I200
I166
tp1385
a(I200
I155
tp1386
a(I176
I108
tp1387
a(I182
I182
tp1388
a(I200
I166
tp1389
a(I156
I189
tp1390
a(I149
I177
tp1391
asg17
I200
sba(imain2
Polygon
p1392
(dp1393
g3
(I158
I122
tp1394
sg5
I200
sg6
(I42
I0
I155
I35
tp1395
sg8
(lp1396
(I182
I80
tp1397
a(I174
I137
tp1398
a(I200
I145
tp1399
a(I166
I100
tp1400
a(I141
I111
tp1401
a(I124
I81
tp1402
a(I140
I142
tp1403
a(I131
I110
tp1404
a(I189
I78
tp1405
a(I200
I74
tp1406
a(I124
I95
tp1407
asg17
I200
sba(imain2
Polygon
p1408
(dp1409
g3
(I89
I194
tp1410
sg5
I200
sg6
(I226
I74
I38
I1
tp1411
sg8
(lp1412
(I120
I150
tp1413
a(I69
I166
tp1414
a(I81
I189
tp1415
a(I76
I177
tp1416
a(I107
I177
tp1417
a(I122
I200
tp1418
a(I104
I200
tp1419
a(I39
I200
tp1420
a(I64
I164
tp1421
a(I126
I166
tp1422
a(I68
I191
tp1423
a(I84
I198
tp1424
asg17
I200
sba(imain2
Polygon
p1425
(dp1426
g3
(I185
I89
tp1427
sg5
I200
sg6
(I163
I1
I218
I1
tp1428
sg8
(lp1429
(I136
I51
tp1430
a(I200
I98
tp1431
a(I190
I122
tp1432
a(I200
I70
tp1433
a(I152
I101
tp1434
a(I155
I131
tp1435
a(I187
I137
tp1436
a(I197
I79
tp1437
a(I200
I121
tp1438
a(I200
I68
tp1439
a(I175
I68
tp1440
a(I200
I47
tp1441
a(I174
I136
tp1442
asg17
I200
sba(imain2
Polygon
p1443
(dp1444
g3
(I67
I129
tp1445
sg5
I200
sg6
(I72
I191
I56
I112
tp1446
sg8
(lp1447
(I96
I97
tp1448
a(I112
I141
tp1449
a(I78
I170
tp1450
a(I81
I160
tp1451
a(I112
I100
tp1452
a(I67
I121
tp1453
a(I93
I98
tp1454
a(I99
I143
tp1455
a(I96
I122
tp1456
a(I109
I141
tp1457
a(I87
I119
tp1458
a(I87
I107
tp1459
a(I75
I92
tp1460
a(I84
I146
tp1461
a(I52
I135
tp1462
a(I91
I173
tp1463
asg17
I200
sba(imain2
Polygon
p1464
(dp1465
g3
(I95
I80
tp1466
sg5
I200
sg6
(I219
I88
I19
I129
tp1467
sg8
(lp1468
(I121
I57
tp1469
a(I47
I53
tp1470
a(I58
I130
tp1471
a(I123
I114
tp1472
a(I126
I95
tp1473
a(I129
I87
tp1474
asg17
I200
sba(imain2
Polygon
p1475
(dp1476
g3
(I14
I45
tp1477
sg5
I200
sg6
(I223
I0
I43
I104
tp1478
sg8
(lp1479
(I0
I94
tp1480
a(I58
I24
tp1481
a(I8
I15
tp1482
a(I38
I90
tp1483
a(I10
I95
tp1484
asg17
I200
sba(imain2
Polygon
p1485
(dp1486
g3
(I34
I35
tp1487
sg5
I200
sg6
(I107
I9
I201
I17
tp1488
sg8
(lp1489
(I0
I0
tp1490
a(I0
I84
tp1491
a(I51
I56
tp1492
a(I37
I58
tp1493
a(I53
I81
tp1494
a(I24
I1
tp1495
a(I56
I7
tp1496
a(I63
I21
tp1497
asg17
I200
sba(imain2
Polygon
p1498
(dp1499
g3
(I127
I147
tp1500
sg5
I200
sg6
(I115
I171
I188
I71
tp1501
sg8
(lp1502
(I112
I151
tp1503
a(I112
I167
tp1504
a(I161
I125
tp1505
a(I99
I100
tp1506
a(I112
I159
tp1507
a(I126
I158
tp1508
a(I164
I118
tp1509
a(I80
I133
tp1510
a(I125
I141
tp1511
a(I92
I99
tp1512
a(I85
I144
tp1513
a(I105
I137
tp1514
a(I148
I117
tp1515
a(I108
I109
tp1516
a(I100
I118
tp1517
a(I120
I132
tp1518
a(I93
I123
tp1519
asg17
I200
sba(imain2
Polygon
p1520
(dp1521
g3
(I88
I106
tp1522
sg5
I200
sg6
(I189
I11
I58
I108
tp1523
sg8
(lp1524
(I127
I64
tp1525
a(I119
I93
tp1526
a(I117
I112
tp1527
asg17
I200
sba(imain2
Polygon
p1528
(dp1529
g3
(I11
I134
tp1530
sg5
I200
sg6
(I74
I179
I93
I90
tp1531
sg8
(lp1532
(I0
I183
tp1533
a(I0
I169
tp1534
a(I0
I108
tp1535
a(I0
I162
tp1536
a(I12
I180
tp1537
asg17
I200
sba(imain2
Polygon
p1538
(dp1539
g3
(I174
I141
tp1540
sg5
I200
sg6
(I113
I234
I92
I73
tp1541
sg8
(lp1542
(I200
I120
tp1543
a(I187
I97
tp1544
a(I170
I160
tp1545
a(I200
I190
tp1546
asg17
I200
sba(imain2
Polygon
p1547
(dp1548
g3
(I68
I44
tp1549
sg5
I200
sg6
(I2
I228
I127
I32
tp1550
sg8
(lp1551
(I26
I22
tp1552
a(I19
I82
tp1553
a(I62
I45
tp1554
a(I75
I72
tp1555
a(I22
I45
tp1556
a(I83
I85
tp1557
asg17
I200
sba(imain2
Polygon
p1558
(dp1559
g3
(I80
I68
tp1560
sg5
I200
sg6
(I74
I15
I15
I31
tp1561
sg8
(lp1562
(I52
I50
tp1563
a(I34
I66
tp1564
a(I53
I18
tp1565
a(I117
I21
tp1566
a(I40
I26
tp1567
a(I52
I99
tp1568
a(I37
I27
tp1569
a(I47
I36
tp1570
a(I97
I30
tp1571
a(I37
I35
tp1572
a(I66
I42
tp1573
a(I83
I18
tp1574
asg17
I200
sba(imain2
Polygon
p1575
(dp1576
g3
(I120
I143
tp1577
sg5
I200
sg6
(I151
I157
I82
I1
tp1578
sg8
(lp1579
(I167
I184
tp1580
a(I157
I180
tp1581
a(I104
I174
tp1582
a(I92
I178
tp1583
a(I129
I155
tp1584
a(I119
I179
tp1585
a(I123
I178
tp1586
a(I145
I127
tp1587
a(I120
I158
tp1588
a(I86
I100
tp1589
a(I157
I112
tp1590
a(I170
I95
tp1591
a(I147
I127
tp1592
asg17
I200
sba(imain2
Polygon
p1593
(dp1594
g3
(I47
I43
tp1595
sg5
I200
sg6
(I224
I145
I62
I44
tp1596
sg8
(lp1597
(I85
I78
tp1598
a(I7
I93
tp1599
a(I0
I83
tp1600
a(I5
I0
tp1601
a(I26
I10
tp1602
a(I13
I2
tp1603
a(I74
I3
tp1604
a(I52
I53
tp1605
a(I45
I0
tp1606
a(I96
I0
tp1607
a(I96
I74
tp1608
asg17
I200
sba(imain2
Polygon
p1609
(dp1610
g3
(I6
I165
tp1611
sg5
I200
sg6
(I192
I49
I158
I47
tp1612
sg8
(lp1613
(I0
I191
tp1614
a(I34
I177
tp1615
a(I7
I145
tp1616
asg17
I200
sba(imain2
Polygon
p1617
(dp1618
g3
(I125
I173
tp1619
sg5
I200
sg6
(I90
I28
I31
I116
tp1620
sg8
(lp1621
(I145
I181
tp1622
a(I132
I145
tp1623
a(I128
I157
tp1624
a(I135
I166
tp1625
a(I143
I200
tp1626
a(I165
I200
tp1627
a(I85
I166
tp1628
a(I93
I145
tp1629
a(I79
I141
tp1630
a(I145
I159
tp1631
a(I157
I200
tp1632
a(I130
I140
tp1633
asg17
I200
sba(imain2
Polygon
p1634
(dp1635
g3
(I63
I154
tp1636
sg5
I200
sg6
(I122
I158
I2
I1
tp1637
sg8
(lp1638
(I90
I156
tp1639
a(I61
I175
tp1640
a(I112
I105
tp1641
a(I100
I174
tp1642
a(I110
I126
tp1643
a(I66
I149
tp1644
a(I45
I194
tp1645
a(I85
I125
tp1646
a(I27
I122
tp1647
a(I101
I117
tp1648
asg17
I200
sba(imain2
Polygon
p1649
(dp1650
g3
(I152
I171
tp1651
sg5
I200
sg6
(I192
I3
I226
I0
tp1652
sg8
(lp1653
(I106
I145
tp1654
a(I119
I163
tp1655
a(I200
I191
tp1656
a(I105
I165
tp1657
a(I114
I145
tp1658
a(I193
I126
tp1659
a(I180
I200
tp1660
a(I171
I163
tp1661
a(I107
I200
tp1662
a(I118
I180
tp1663
asg17
I200
sba(imain2
Polygon
p1664
(dp1665
g3
(I67
I143
tp1666
sg5
I200
sg6
(I71
I71
I132
I111
tp1667
sg8
(lp1668
(I100
I175
tp1669
a(I113
I120
tp1670
a(I113
I130
tp1671
asg17
I200
sba(imain2
Polygon
p1672
(dp1673
g3
(I153
I79
tp1674
sg5
I200
sg6
(I134
I29
I161
I0
tp1675
sg8
(lp1676
(I178
I118
tp1677
a(I198
I89
tp1678
a(I140
I45
tp1679
a(I133
I77
tp1680
a(I112
I71
tp1681
a(I142
I107
tp1682
a(I148
I111
tp1683
a(I175
I118
tp1684
a(I159
I100
tp1685
a(I154
I32
tp1686
a(I130
I94
tp1687
asg17
I200
sba(imain2
Polygon
p1688
(dp1689
g3
(I142
I192
tp1690
sg5
I200
sg6
(I49
I236
I1
I1
tp1691
sg8
(lp1692
(I130
I200
tp1693
a(I94
I200
tp1694
a(I151
I200
tp1695
a(I170
I191
tp1696
a(I122
I151
tp1697
a(I140
I162
tp1698
a(I115
I176
tp1699
a(I94
I200
tp1700
a(I104
I188
tp1701
asg17
I200
sba(imain2
Polygon
p1702
(dp1703
g3
(I144
I12
tp1704
sg5
I200
sg6
(I185
I74
I98
I1
tp1705
sg8
(lp1706
(I115
I0
tp1707
a(I131
I0
tp1708
a(I184
I0
tp1709
a(I135
I0
tp1710
a(I166
I26
tp1711
a(I140
I27
tp1712
a(I166
I23
tp1713
a(I184
I13
tp1714
a(I190
I2
tp1715
a(I138
I0
tp1716
a(I133
I0
tp1717
a(I167
I46
tp1718
a(I122
I5
tp1719
asg17
I200
sba(imain2
Polygon
p1720
(dp1721
g3
(I144
I92
tp1722
sg5
I200
sg6
(I223
I44
I149
I140
tp1723
sg8
(lp1724
(I175
I55
tp1725
a(I181
I55
tp1726
a(I190
I118
tp1727
a(I178
I108
tp1728
a(I159
I52
tp1729
asg17
I200
sba(imain2
Polygon
p1730
(dp1731
g3
(I167
I23
tp1732
sg5
I200
sg6
(I169
I30
I240
I0
tp1733
sg8
(lp1734
(I174
I4
tp1735
a(I156
I11
tp1736
a(I200
I70
tp1737
a(I200
I14
tp1738
a(I197
I0
tp1739
a(I139
I19
tp1740
a(I166
I58
tp1741
a(I200
I0
tp1742
a(I164
I43
tp1743
a(I200
I32
tp1744
a(I194
I34
tp1745
a(I156
I3
tp1746
a(I168
I30
tp1747
asg17
I200
sba(imain2
Polygon
p1748
(dp1749
g3
(I200
I102
tp1750
sg5
I200
sg6
(I50
I231
I149
I32
tp1751
sg8
(lp1752
(I161
I70
tp1753
a(I171
I83
tp1754
a(I193
I55
tp1755
a(I200
I120
tp1756
a(I200
I145
tp1757
a(I200
I118
tp1758
a(I167
I86
tp1759
a(I200
I76
tp1760
a(I200
I100
tp1761
a(I199
I68
tp1762
a(I155
I69
tp1763
a(I159
I62
tp1764
a(I170
I125
tp1765
a(I177
I108
tp1766
a(I200
I127
tp1767
asg17
I200
sba(imain2
Polygon
p1768
(dp1769
g3
(I20
I176
tp1770
sg5
I200
sg6
(I11
I201
I0
I1
tp1771
sg8
(lp1772
(I0
I200
tp1773
a(I4
I200
tp1774
a(I0
I164
tp1775
a(I65
I153
tp1776
a(I0
I166
tp1777
a(I30
I200
tp1778
a(I43
I145
tp1779
a(I17
I200
tp1780
a(I18
I130
tp1781
a(I0
I200
tp1782
a(I67
I130
tp1783
a(I15
I152
tp1784
a(I45
I161
tp1785
a(I44
I189
tp1786
a(I1
I173
tp1787
a(I4
I200
tp1788
asg17
I200
sba(imain2
Polygon
p1789
(dp1790
g3
(I51
I87
tp1791
sg5
I200
sg6
(I98
I176
I45
I75
tp1792
sg8
(lp1793
(I14
I70
tp1794
a(I30
I71
tp1795
a(I35
I93
tp1796
a(I19
I105
tp1797
a(I3
I114
tp1798
a(I4
I50
tp1799
a(I40
I55
tp1800
a(I63
I97
tp1801
a(I59
I88
tp1802
a(I73
I95
tp1803
a(I30
I52
tp1804
a(I37
I81
tp1805
asg17
I200
sba(imain2
Polygon
p1806
(dp1807
g3
(I124
I18
tp1808
sg5
I200
sg6
(I57
I202
I228
I1
tp1809
sg8
(lp1810
(I104
I18
tp1811
a(I97
I67
tp1812
a(I94
I26
tp1813
a(I160
I36
tp1814
asg17
I200
sba(imain2
Polygon
p1815
(dp1816
g3
(I170
I179
tp1817
sg5
I200
sg6
(I139
I190
I55
I7
tp1818
sg8
(lp1819
(I186
I184
tp1820
a(I146
I200
tp1821
a(I200
I129
tp1822
a(I200
I200
tp1823
a(I125
I200
tp1824
a(I129
I168
tp1825
a(I177
I200
tp1826
a(I155
I179
tp1827
a(I200
I200
tp1828
a(I200
I160
tp1829
asg17
I200
sba(imain2
Polygon
p1830
(dp1831
g3
(I93
I4
tp1832
sg5
I200
sg6
(I124
I127
I1
I125
tp1833
sg8
(lp1834
(I46
I0
tp1835
a(I51
I53
tp1836
a(I57
I28
tp1837
a(I47
I35
tp1838
a(I62
I48
tp1839
a(I51
I52
tp1840
asg17
I200
sba(imain2
Polygon
p1841
(dp1842
g3
(I33
I157
tp1843
sg5
I200
sg6
(I38
I117
I125
I0
tp1844
sg8
(lp1845
(I43
I167
tp1846
a(I50
I130
tp1847
a(I67
I128
tp1848
a(I42
I136
tp1849
a(I66
I120
tp1850
a(I9
I140
tp1851
a(I79
I175
tp1852
a(I69
I135
tp1853
a(I50
I162
tp1854
asg17
I200
sba(imain2
Polygon
p1855
(dp1856
g3
(I91
I9
tp1857
sg5
I200
sg6
(I66
I183
I12
I1
tp1858
sg8
(lp1859
(I124
I35
tp1860
a(I135
I0
tp1861
a(I115
I0
tp1862
a(I54
I0
tp1863
a(I134
I0
tp1864
a(I132
I0
tp1865
a(I72
I0
tp1866
a(I42
I0
tp1867
a(I122
I0
tp1868
a(I55
I45
tp1869
asg17
I200
sba(imain2
Polygon
p1870
(dp1871
g3
(I50
I13
tp1872
sg5
I200
sg6
(I92
I178
I161
I115
tp1873
sg8
(lp1874
(I31
I61
tp1875
a(I3
I50
tp1876
a(I0
I0
tp1877
a(I11
I0
tp1878
a(I7
I0
tp1879
a(I82
I0
tp1880
asg17
I200
sba(imain2
Polygon
p1881
(dp1882
g3
(I157
I108
tp1883
sg5
I200
sg6
(I128
I116
I1
I75
tp1884
sg8
(lp1885
(I168
I137
tp1886
a(I108
I127
tp1887
a(I123
I82
tp1888
a(I135
I90
tp1889
a(I108
I149
tp1890
a(I172
I125
tp1891
a(I166
I61
tp1892
a(I200
I120
tp1893
a(I184
I155
tp1894
a(I168
I127
tp1895
a(I188
I141
tp1896
a(I158
I120
tp1897
asg17
I200
sba(imain2
Polygon
p1898
(dp1899
g3
(I7
I150
tp1900
sg5
I200
sg6
(I177
I10
I55
I11
tp1901
sg8
(lp1902
(I0
I184
tp1903
a(I0
I112
tp1904
a(I57
I154
tp1905
a(I22
I183
tp1906
a(I0
I123
tp1907
a(I0
I149
tp1908
a(I4
I171
tp1909
a(I55
I115
tp1910
a(I32
I102
tp1911
a(I49
I122
tp1912
a(I24
I105
tp1913
a(I23
I114
tp1914
a(I26
I151
tp1915
asg17
I200
sba(imain2
Polygon
p1916
(dp1917
g3
(I89
I125
tp1918
sg5
I200
sg6
(I42
I1
I214
I12
tp1919
sg8
(lp1920
(I59
I165
tp1921
a(I101
I135
tp1922
a(I56
I165
tp1923
a(I76
I125
tp1924
asg17
I200
sba(imain2
Polygon
p1925
(dp1926
g3
(I18
I178
tp1927
sg5
I200
sg6
(I85
I163
I41
I91
tp1928
sg8
(lp1929
(I0
I148
tp1930
a(I6
I154
tp1931
a(I10
I175
tp1932
a(I0
I137
tp1933
a(I30
I144
tp1934
a(I23
I175
tp1935
a(I24
I189
tp1936
a(I0
I167
tp1937
asg17
I200
sba(imain2
Polygon
p1938
(dp1939
g3
(I81
I53
tp1940
sg5
I200
sg6
(I217
I83
I79
I0
tp1941
sg8
(lp1942
(I80
I31
tp1943
a(I89
I58
tp1944
a(I66
I39
tp1945
a(I42
I77
tp1946
a(I37
I46
tp1947
a(I119
I4
tp1948
a(I97
I100
tp1949
a(I73
I54
tp1950
a(I96
I16
tp1951
a(I71
I87
tp1952
a(I89
I26
tp1953
asg17
I200
sba(imain2
Polygon
p1954
(dp1955
g3
(I117
I32
tp1956
sg5
I200
sg6
(I165
I186
I81
I1
tp1957
sg8
(lp1958
(I89
I46
tp1959
a(I147
I0
tp1960
a(I134
I30
tp1961
asg17
I200
sba(imain2
Polygon
p1962
(dp1963
g3
(I79
I140
tp1964
sg5
I200
sg6
(I224
I0
I161
I25
tp1965
sg8
(lp1966
(I108
I95
tp1967
a(I107
I173
tp1968
a(I52
I148
tp1969
a(I123
I97
tp1970
a(I103
I173
tp1971
a(I75
I159
tp1972
a(I80
I158
tp1973
a(I127
I127
tp1974
asg17
I200
sba(imain2
Polygon
p1975
(dp1976
g3
(I26
I4
tp1977
sg5
I200
sg6
(I196
I73
I69
I1
tp1978
sg8
(lp1979
(I64
I27
tp1980
a(I7
I0
tp1981
a(I69
I0
tp1982
a(I0
I0
tp1983
a(I69
I0
tp1984
a(I0
I0
tp1985
a(I4
I0
tp1986
a(I38
I0
tp1987
asg17
I200
sba(imain2
Polygon
p1988
(dp1989
g3
(I15
I121
tp1990
sg5
I200
sg6
(I1
I223
I148
I0
tp1991
sg8
(lp1992
(I36
I104
tp1993
a(I16
I84
tp1994
a(I51
I75
tp1995
a(I60
I87
tp1996
a(I0
I74
tp1997
a(I1
I112
tp1998
a(I46
I142
tp1999
a(I31
I72
tp2000
a(I54
I97
tp2001
a(I61
I107
tp2002
a(I0
I154
tp2003
a(I16
I86
tp2004
a(I35
I105
tp2005
a(I43
I154
tp2006
a(I5
I124
tp2007
asg17
I200
sba(imain2
Polygon
p2008
(dp2009
g3
(I163
I195
tp2010
sg5
I200
sg6
(I8
I147
I193
I4
tp2011
sg8
(lp2012
(I187
I200
tp2013
a(I191
I191
tp2014
a(I169
I200
tp2015
a(I200
I194
tp2016
a(I127
I200
tp2017
a(I198
I192
tp2018
a(I172
I200
tp2019
a(I193
I191
tp2020
a(I200
I160
tp2021
asg17
I200
sba(imain2
Polygon
p2022
(dp2023
g3
(I118
I106
tp2024
sg5
I200
sg6
(I6
I133
I123
I114
tp2025
sg8
(lp2026
(I132
I104
tp2027
a(I145
I78
tp2028
a(I102
I87
tp2029
a(I125
I104
tp2030
a(I121
I98
tp2031
a(I123
I91
tp2032
a(I151
I66
tp2033
a(I132
I101
tp2034
a(I127
I105
tp2035
a(I140
I99
tp2036
asg17
I200
sba(imain2
Polygon
p2037
(dp2038
g3
(I56
I6
tp2039
sg5
I200
sg6
(I197
I1
I174
I1
tp2040
sg8
(lp2041
(I88
I24
tp2042
a(I79
I0
tp2043
a(I71
I0
tp2044
a(I21
I0
tp2045
a(I75
I2
tp2046
a(I10
I41
tp2047
asg17
I200
sba(imain2
Polygon
p2048
(dp2049
g3
(I174
I69
tp2050
sg5
I200
sg6
(I118
I35
I47
I101
tp2051
sg8
(lp2052
(I200
I23
tp2053
a(I200
I29
tp2054
a(I160
I53
tp2055
a(I199
I86
tp2056
a(I196
I88
tp2057
a(I200
I90
tp2058
a(I151
I40
tp2059
a(I126
I41
tp2060
a(I189
I42
tp2061
a(I171
I43
tp2062
a(I130
I47
tp2063
a(I191
I41
tp2064
a(I183
I53
tp2065
a(I173
I86
tp2066
a(I165
I92
tp2067
asg17
I200
sba(imain2
Polygon
p2068
(dp2069
g3
(I0
I30
tp2070
sg5
I200
sg6
(I170
I39
I99
I1
tp2071
sg8
(lp2072
(I0
I69
tp2073
a(I0
I48
tp2074
a(I39
I78
tp2075
a(I29
I6
tp2076
a(I0
I35
tp2077
asg17
I200
sba(imain2
Polygon
p2078
(dp2079
g3
(I134
I58
tp2080
sg5
I200
sg6
(I241
I178
I117
I112
tp2081
sg8
(lp2082
(I179
I58
tp2083
a(I110
I8
tp2084
a(I156
I8
tp2085
a(I179
I9
tp2086
asg17
I200
sba(imain2
Polygon
p2087
(dp2088
g3
(I142
I75
tp2089
sg5
I200
sg6
(I201
I59
I194
I76
tp2090
sg8
(lp2091
(I191
I83
tp2092
a(I154
I36
tp2093
a(I163
I54
tp2094
a(I192
I28
tp2095
asg17
I200
sba(imain2
Polygon
p2096
(dp2097
g3
(I129
I65
tp2098
sg5
I200
sg6
(I88
I0
I164
I129
tp2099
sg8
(lp2100
(I155
I65
tp2101
a(I158
I67
tp2102
a(I151
I68
tp2103
asg17
I200
sba(imain2
Polygon
p2104
(dp2105
g3
(I163
I171
tp2106
sg5
I200
sg6
(I196
I10
I130
I1
tp2107
sg8
(lp2108
(I145
I198
tp2109
a(I161
I200
tp2110
a(I200
I190
tp2111
a(I178
I200
tp2112
a(I193
I148
tp2113
a(I127
I200
tp2114
a(I170
I142
tp2115
a(I165
I165
tp2116
a(I158
I178
tp2117
a(I189
I200
tp2118
a(I161
I197
tp2119
a(I200
I124
tp2120
a(I200
I191
tp2121
a(I141
I126
tp2122
a(I113
I200
tp2123
asg17
I200
sba(imain2
Polygon
p2124
(dp2125
g3
(I184
I20
tp2126
sg5
I200
sg6
(I213
I92
I227
I77
tp2127
sg8
(lp2128
(I200
I60
tp2129
a(I200
I0
tp2130
a(I200
I69
tp2131
a(I160
I57
tp2132
a(I140
I0
tp2133
a(I144
I0
tp2134
a(I200
I0
tp2135
a(I200
I0
tp2136
asg17
I200
sba(imain2
Polygon
p2137
(dp2138
g3
(I145
I135
tp2139
sg5
I200
sg6
(I31
I41
I59
I39
tp2140
sg8
(lp2141
(I160
I178
tp2142
a(I183
I129
tp2143
a(I135
I88
tp2144
a(I110
I168
tp2145
a(I166
I183
tp2146
asg17
I200
sba(imain2
Polygon
p2147
(dp2148
g3
(I64
I74
tp2149
sg5
I200
sg6
(I134
I208
I148
I1
tp2150
sg8
(lp2151
(I111
I67
tp2152
a(I74
I124
tp2153
a(I19
I47
tp2154
a(I94
I61
tp2155
asg17
I200
sba(imain2
Polygon
p2156
(dp2157
g3
(I82
I104
tp2158
sg5
I200
sg6
(I48
I155
I198
I1
tp2159
sg8
(lp2160
(I129
I123
tp2161
a(I98
I78
tp2162
a(I60
I150
tp2163
a(I61
I58
tp2164
a(I87
I71
tp2165
a(I37
I116
tp2166
a(I105
I79
tp2167
a(I131
I77
tp2168
a(I51
I70
tp2169
a(I76
I62
tp2170
asg17
I200
sba(imain2
Polygon
p2171
(dp2172
g3
(I176
I51
tp2173
sg5
I200
sg6
(I114
I211
I85
I1
tp2174
sg8
(lp2175
(I200
I6
tp2176
a(I143
I9
tp2177
a(I148
I79
tp2178
a(I174
I33
tp2179
a(I171
I13
tp2180
a(I200
I28
tp2181
asg17
I200
sba(imain2
Polygon
p2182
(dp2183
g3
(I18
I179
tp2184
sg5
I200
sg6
(I8
I98
I96
I32
tp2185
sg8
(lp2186
(I0
I146
tp2187
a(I0
I200
tp2188
a(I0
I198
tp2189
a(I21
I200
tp2190
a(I22
I196
tp2191
a(I36
I190
tp2192
a(I19
I154
tp2193
a(I23
I153
tp2194
asg17
I200
sba(imain2
Polygon
p2195
(dp2196
g3
(I112
I97
tp2197
sg5
I200
sg6
(I96
I198
I67
I51
tp2198
sg8
(lp2199
(I117
I118
tp2200
a(I70
I139
tp2201
a(I97
I92
tp2202
a(I122
I146
tp2203
a(I76
I136
tp2204
a(I79
I54
tp2205
a(I98
I68
tp2206
a(I123
I104
tp2207
a(I130
I88
tp2208
a(I96
I146
tp2209
asg17
I200
sba(imain2
Polygon
p2210
(dp2211
g3
(I3
I120
tp2212
sg5
I200
sg6
(I62
I87
I145
I90
tp2213
sg8
(lp2214
(I0
I86
tp2215
a(I0
I74
tp2216
a(I0
I159
tp2217
a(I0
I109
tp2218
a(I43
I80
tp2219
asg17
I200
sba(imain2
Polygon
p2220
(dp2221
g3
(I7
I32
tp2222
sg5
I200
sg6
(I148
I30
I185
I1
tp2223
sg8
(lp2224
(I0
I45
tp2225
a(I0
I27
tp2226
a(I0
I0
tp2227
a(I8
I32
tp2228
a(I0
I17
tp2229
a(I27
I38
tp2230
a(I0
I62
tp2231
a(I0
I49
tp2232
a(I0
I15
tp2233
a(I0
I75
tp2234
a(I56
I76
tp2235
a(I0
I7
tp2236
a(I0
I0
tp2237
asg17
I200
sba(imain2
Polygon
p2238
(dp2239
g3
(I166
I95
tp2240
sg5
I200
sg6
(I185
I1
I141
I145
tp2241
sg8
(lp2242
(I192
I50
tp2243
a(I200
I127
tp2244
a(I200
I60
tp2245
asg17
I200
sba(imain2
Polygon
p2246
(dp2247
g3
(I197
I92
tp2248
sg5
I200
sg6
(I116
I6
I30
I0
tp2249
sg8
(lp2250
(I154
I60
tp2251
a(I200
I65
tp2252
a(I200
I70
tp2253
a(I161
I97
tp2254
a(I158
I100
tp2255
a(I147
I82
tp2256
a(I200
I78
tp2257
a(I200
I131
tp2258
a(I187
I130
tp2259
a(I154
I82
tp2260
a(I155
I44
tp2261
a(I197
I58
tp2262
a(I147
I62
tp2263
a(I176
I122
tp2264
asg17
I200
sba(imain2
Polygon
p2265
(dp2266
g3
(I167
I132
tp2267
sg5
I200
sg6
(I220
I55
I85
I1
tp2268
sg8
(lp2269
(I166
I121
tp2270
a(I157
I116
tp2271
a(I169
I137
tp2272
a(I134
I127
tp2273
a(I174
I140
tp2274
a(I197
I112
tp2275
a(I155
I152
tp2276
a(I175
I142
tp2277
a(I117
I113
tp2278
a(I178
I149
tp2279
a(I136
I156
tp2280
a(I132
I168
tp2281
a(I128
I111
tp2282
a(I132
I148
tp2283
asg17
I200
sba(imain2
Polygon
p2284
(dp2285
g3
(I2
I175
tp2286
sg5
I200
sg6
(I101
I198
I106
I1
tp2287
sg8
(lp2288
(I34
I200
tp2289
a(I4
I200
tp2290
a(I28
I126
tp2291
asg17
I200
sba(imain2
Polygon
p2292
(dp2293
g3
(I148
I121
tp2294
sg5
I200
sg6
(I127
I196
I133
I20
tp2295
sg8
(lp2296
(I120
I135
tp2297
a(I118
I71
tp2298
a(I101
I103
tp2299
asg17
I200
sba(imain2
Polygon
p2300
(dp2301
g3
(I26
I154
tp2302
sg5
I200
sg6
(I140
I62
I224
I27
tp2303
sg8
(lp2304
(I52
I148
tp2305
a(I0
I196
tp2306
a(I20
I155
tp2307
asg17
I200
sba(imain2
Polygon
p2308
(dp2309
g3
(I188
I60
tp2310
sg5
I200
sg6
(I21
I75
I8
I47
tp2311
sg8
(lp2312
(I148
I100
tp2313
a(I139
I27
tp2314
a(I200
I98
tp2315
a(I200
I21
tp2316
a(I200
I63
tp2317
a(I200
I22
tp2318
a(I200
I105
tp2319
asg17
I200
sba(imain2
Polygon
p2320
(dp2321
g3
(I29
I0
tp2322
sg5
I200
sg6
(I200
I201
I8
I87
tp2323
sg8
(lp2324
(I29
I0
tp2325
a(I0
I0
tp2326
a(I50
I36
tp2327
a(I45
I18
tp2328
a(I61
I0
tp2329
a(I0
I0
tp2330
a(I0
I50
tp2331
a(I70
I50
tp2332
a(I0
I0
tp2333
a(I0
I0
tp2334
a(I77
I0
tp2335
a(I74
I14
tp2336
a(I36
I44
tp2337
a(I58
I0
tp2338
a(I74
I0
tp2339
a(I5
I0
tp2340
asg17
I200
sba(imain2
Polygon
p2341
(dp2342
g3
(I92
I198
tp2343
sg5
I200
sg6
(I138
I2
I12
I58
tp2344
sg8
(lp2345
(I96
I170
tp2346
a(I67
I151
tp2347
a(I90
I200
tp2348
a(I122
I155
tp2349
a(I99
I200
tp2350
a(I73
I181
tp2351
a(I108
I179
tp2352
asg17
I200
sba(imain2
Polygon
p2353
(dp2354
g3
(I149
I42
tp2355
sg5
I200
sg6
(I90
I12
I53
I52
tp2356
sg8
(lp2357
(I99
I9
tp2358
a(I127
I88
tp2359
a(I167
I91
tp2360
a(I167
I66
tp2361
a(I135
I17
tp2362
a(I145
I8
tp2363
a(I113
I48
tp2364
a(I119
I35
tp2365
asg17
I200
sba(imain2
Polygon
p2366
(dp2367
g3
(I18
I189
tp2368
sg5
I200
sg6
(I70
I6
I170
I0
tp2369
sg8
(lp2370
(I0
I200
tp2371
a(I36
I189
tp2372
a(I61
I197
tp2373
a(I11
I160
tp2374
a(I0
I200
tp2375
a(I5
I167
tp2376
a(I59
I181
tp2377
a(I8
I175
tp2378
a(I8
I170
tp2379
a(I40
I174
tp2380
a(I68
I200
tp2381
a(I56
I183
tp2382
a(I0
I162
tp2383
a(I19
I163
tp2384
a(I0
I178
tp2385
asg17
I200
sba(imain2
Polygon
p2386
(dp2387
g3
(I88
I199
tp2388
sg5
I200
sg6
(I15
I199
I77
I74
tp2389
sg8
(lp2390
(I40
I200
tp2391
a(I39
I200
tp2392
a(I108
I200
tp2393
a(I46
I200
tp2394
a(I126
I200
tp2395
a(I62
I200
tp2396
a(I70
I200
tp2397
a(I39
I200
tp2398
a(I84
I200
tp2399
asg17
I200
sba(imain2
Polygon
p2400
(dp2401
g3
(I57
I178
tp2402
sg5
I200
sg6
(I19
I117
I163
I1
tp2403
sg8
(lp2404
(I54
I200
tp2405
a(I21
I164
tp2406
a(I14
I171
tp2407
a(I47
I135
tp2408
a(I41
I200
tp2409
a(I105
I163
tp2410
asg17
I200
sba(imain2
Polygon
p2411
(dp2412
g3
(I192
I63
tp2413
sg5
I200
sg6
(I115
I239
I124
I106
tp2414
sg8
(lp2415
(I200
I102
tp2416
a(I200
I19
tp2417
a(I200
I28
tp2418
a(I169
I43
tp2419
a(I142
I25
tp2420
a(I200
I102
tp2421
a(I161
I50
tp2422
a(I175
I96
tp2423
a(I200
I41
tp2424
a(I181
I96
tp2425
asg17
I200
sba(imain2
Polygon
p2426
(dp2427
g3
(I115
I149
tp2428
sg5
I200
sg6
(I104
I195
I239
I0
tp2429
sg8
(lp2430
(I118
I155
tp2431
a(I138
I198
tp2432
a(I102
I100
tp2433
a(I125
I181
tp2434
a(I129
I132
tp2435
a(I84
I110
tp2436
a(I68
I102
tp2437
a(I85
I145
tp2438
a(I77
I169
tp2439
a(I130
I139
tp2440
asg17
I200
sba(imain2
Polygon
p2441
(dp2442
g3
(I89
I107
tp2443
sg5
I200
sg6
(I30
I9
I110
I96
tp2444
sg8
(lp2445
(I137
I85
tp2446
a(I129
I120
tp2447
a(I138
I81
tp2448
asg17
I200
sba(imain2
Polygon
p2449
(dp2450
g3
(I87
I130
tp2451
sg5
I200
sg6
(I167
I110
I147
I0
tp2452
sg8
(lp2453
(I42
I113
tp2454
a(I49
I92
tp2455
a(I70
I91
tp2456
a(I111
I140
tp2457
a(I96
I151
tp2458
a(I132
I117
tp2459
a(I132
I175
tp2460
a(I91
I179
tp2461
a(I53
I89
tp2462
asg17
I200
sba(imain2
Polygon
p2463
(dp2464
g3
(I62
I187
tp2465
sg5
I200
sg6
(I112
I14
I175
I52
tp2466
sg8
(lp2467
(I22
I200
tp2468
a(I110
I200
tp2469
a(I38
I200
tp2470
a(I77
I200
tp2471
a(I98
I200
tp2472
a(I71
I196
tp2473
a(I71
I200
tp2474
a(I13
I197
tp2475
a(I69
I200
tp2476
a(I45
I197
tp2477
asg17
I200
sba(imain2
Polygon
p2478
(dp2479
g3
(I59
I26
tp2480
sg5
I200
sg6
(I58
I3
I237
I0
tp2481
sg8
(lp2482
(I26
I72
tp2483
a(I103
I17
tp2484
a(I81
I0
tp2485
a(I76
I0
tp2486
a(I104
I10
tp2487
a(I79
I61
tp2488
a(I80
I5
tp2489
a(I41
I24
tp2490
asg17
I200
sba(imain2
Polygon
p2491
(dp2492
g3
(I74
I59
tp2493
sg5
I200
sg6
(I1
I47
I103
I0
tp2494
sg8
(lp2495
(I84
I47
tp2496
a(I36
I36
tp2497
a(I99
I13
tp2498
a(I95
I86
tp2499
a(I79
I79
tp2500
a(I120
I40
tp2501
a(I39
I17
tp2502
a(I27
I50
tp2503
a(I58
I60
tp2504
a(I44
I35
tp2505
asg17
I200
sba(imain2
Polygon
p2506
(dp2507
g3
(I141
I175
tp2508
sg5
I200
sg6
(I87
I37
I8
I1
tp2509
sg8
(lp2510
(I169
I200
tp2511
a(I134
I138
tp2512
a(I119
I183
tp2513
a(I149
I186
tp2514
a(I115
I184
tp2515
a(I149
I162
tp2516
a(I131
I125
tp2517
a(I169
I161
tp2518
a(I160
I187
tp2519
a(I128
I200
tp2520
a(I160
I169
tp2521
a(I136
I145
tp2522
a(I137
I186
tp2523
a(I136
I165
tp2524
a(I143
I165
tp2525
a(I94
I176
tp2526
a(I103
I156
tp2527
a(I146
I197
tp2528
a(I167
I133
tp2529
asg17
I200
sba(imain2
Polygon
p2530
(dp2531
g3
(I114
I81
tp2532
sg5
I200
sg6
(I234
I16
I199
I70
tp2533
sg8
(lp2534
(I121
I101
tp2535
a(I81
I76
tp2536
a(I125
I101
tp2537
a(I121
I83
tp2538
asg17
I200
sba(imain2
Polygon
p2539
(dp2540
g3
(I191
I128
tp2541
sg5
I200
sg6
(I244
I3
I243
I7
tp2542
sg8
(lp2543
(I200
I162
tp2544
a(I144
I170
tp2545
a(I200
I89
tp2546
a(I200
I148
tp2547
a(I153
I103
tp2548
a(I147
I78
tp2549
a(I173
I163
tp2550
asg17
I200
sba(imain2
Polygon
p2551
(dp2552
g3
(I40
I13
tp2553
sg5
I200
sg6
(I69
I180
I117
I0
tp2554
sg8
(lp2555
(I87
I0
tp2556
a(I55
I33
tp2557
a(I62
I16
tp2558
a(I0
I0
tp2559
a(I84
I0
tp2560
a(I0
I0
tp2561
a(I29
I47
tp2562
a(I0
I0
tp2563
a(I67
I7
tp2564
a(I68
I27
tp2565
a(I75
I36
tp2566
a(I7
I27
tp2567
a(I0
I43
tp2568
a(I44
I9
tp2569
a(I76
I0
tp2570
a(I0
I0
tp2571
a(I40
I25
tp2572
a(I0
I0
tp2573
a(I27
I8
tp2574
a(I53
I0
tp2575
a(I12
I0
tp2576
asg17
I200
sba(imain2
Polygon
p2577
(dp2578
g3
(I50
I145
tp2579
sg5
I200
sg6
(I55
I210
I123
I12
tp2580
sg8
(lp2581
(I3
I96
tp2582
a(I87
I159
tp2583
a(I82
I95
tp2584
asg17
I200
sba(imain2
Polygon
p2585
(dp2586
g3
(I184
I69
tp2587
sg5
I200
sg6
(I121
I136
I35
I142
tp2588
sg8
(lp2589
(I200
I63
tp2590
a(I200
I31
tp2591
a(I200
I33
tp2592
a(I200
I67
tp2593
a(I164
I71
tp2594
a(I174
I114
tp2595
a(I200
I115
tp2596
a(I200
I101
tp2597
a(I195
I79
tp2598
asg17
I200
sba(imain2
Polygon
p2599
(dp2600
g3
(I6
I29
tp2601
sg5
I200
sg6
(I137
I34
I214
I0
tp2602
sg8
(lp2603
(I56
I14
tp2604
a(I42
I0
tp2605
a(I0
I41
tp2606
a(I0
I11
tp2607
a(I48
I0
tp2608
a(I28
I0
tp2609
asg17
I200
sba(imain2
Polygon
p2610
(dp2611
g3
(I100
I197
tp2612
sg5
I200
sg6
(I28
I135
I60
I69
tp2613
sg8
(lp2614
(I123
I200
tp2615
a(I79
I200
tp2616
a(I74
I200
tp2617
a(I130
I200
tp2618
a(I68
I200
tp2619
a(I62
I200
tp2620
a(I148
I200
tp2621
asg17
I200
sba(imain2
Polygon
p2622
(dp2623
g3
(I102
I67
tp2624
sg5
I200
sg6
(I107
I63
I86
I0
tp2625
sg8
(lp2626
(I136
I109
tp2627
a(I78
I100
tp2628
a(I144
I70
tp2629
a(I83
I63
tp2630
a(I116
I116
tp2631
a(I84
I99
tp2632
a(I85
I70
tp2633
asg17
I200
sba(imain2
Polygon
p2634
(dp2635
g3
(I91
I124
tp2636
sg5
I200
sg6
(I165
I66
I8
I109
tp2637
sg8
(lp2638
(I41
I114
tp2639
a(I80
I127
tp2640
a(I83
I75
tp2641
a(I119
I114
tp2642
a(I115
I160
tp2643
a(I45
I142
tp2644
a(I66
I81
tp2645
a(I119
I80
tp2646
a(I129
I117
tp2647
a(I81
I119
tp2648
a(I76
I76
tp2649
a(I54
I89
tp2650
a(I76
I94
tp2651
a(I51
I90
tp2652
asg17
I200
sba(imain2
Polygon
p2653
(dp2654
g3
(I133
I74
tp2655
sg5
I200
sg6
(I15
I173
I91
I0
tp2656
sg8
(lp2657
(I93
I104
tp2658
a(I116
I102
tp2659
a(I176
I108
tp2660
a(I157
I40
tp2661
a(I132
I33
tp2662
a(I106
I93
tp2663
a(I153
I122
tp2664
a(I137
I81
tp2665
a(I116
I66
tp2666
a(I90
I44
tp2667
a(I181
I26
tp2668
a(I134
I86
tp2669
a(I154
I71
tp2670
a(I166
I88
tp2671
a(I171
I56
tp2672
asg17
I200
sba(imain2
Polygon
p2673
(dp2674
g3
(I181
I185
tp2675
sg5
I200
sg6
(I0
I135
I60
I1
tp2676
sg8
(lp2677
(I192
I200
tp2678
a(I197
I153
tp2679
a(I200
I157
tp2680
asg17
I200
sba(imain2
Polygon
p2681
(dp2682
g3
(I3
I9
tp2683
sg5
I200
sg6
(I112
I13
I41
I110
tp2684
sg8
(lp2685
(I0
I0
tp2686
a(I49
I0
tp2687
a(I0
I0
tp2688
asg17
I200
sba(imain2
Polygon
p2689
(dp2690
g3
(I154
I22
tp2691
sg5
I200
sg6
(I80
I179
I129
I0
tp2692
sg8
(lp2693
(I198
I49
tp2694
a(I180
I27
tp2695
a(I193
I61
tp2696
a(I124
I56
tp2697
a(I149
I0
tp2698
asg17
I200
sba(imain2
Polygon
p2699
(dp2700
g3
(I3
I51
tp2701
sg5
I200
sg6
(I8
I164
I11
I26
tp2702
sg8
(lp2703
(I0
I63
tp2704
a(I0
I78
tp2705
a(I0
I34
tp2706
a(I0
I93
tp2707
asg17
I200
sba(imain2
Polygon
p2708
(dp2709
g3
(I183
I123
tp2710
sg5
I200
sg6
(I43
I171
I187
I89
tp2711
sg8
(lp2712
(I200
I171
tp2713
a(I200
I140
tp2714
a(I200
I152
tp2715
a(I200
I132
tp2716
asg17
I200
sba.