(lp0
(imain2
Polygon
p1
(dp2
S'origin'
p3
(I100
I102
tp4
sS'h'
p5
I200
sS'color'
p6
(I132
I173
I189
I0
tp7
sS'corner_list'
p8
(lp9
(I77
I128
tp10
a(I102
I68
tp11
a(I130
I64
tp12
a(I126
I102
tp13
a(I83
I86
tp14
a(I62
I111
tp15
asS'w'
p16
I200
sba(imain2
Polygon
p17
(dp18
g3
(I142
I122
tp19
sg5
I200
sg6
(I20
I220
I130
I34
tp20
sg8
(lp21
(I101
I108
tp22
a(I95
I104
tp23
a(I106
I160
tp24
a(I177
I137
tp25
a(I109
I157
tp26
a(I93
I95
tp27
a(I119
I85
tp28
a(I188
I130
tp29
a(I164
I94
tp30
a(I192
I113
tp31
a(I136
I104
tp32
a(I134
I86
tp33
a(I102
I138
tp34
asg16
I200
sba(imain2
Polygon
p35
(dp36
g3
(I39
I24
tp37
sg5
I200
sg6
(I240
I163
I200
I1
tp38
sg8
(lp39
(I58
I0
tp40
a(I20
I46
tp41
a(I41
I25
tp42
a(I43
I65
tp43
a(I50
I25
tp44
a(I57
I0
tp45
asg16
I200
sba(imain2
Polygon
p46
(dp47
g3
(I87
I73
tp48
sg5
I200
sg6
(I160
I18
I197
I95
tp49
sg8
(lp50
(I103
I121
tp51
a(I130
I63
tp52
a(I82
I102
tp53
a(I62
I79
tp54
a(I68
I47
tp55
a(I56
I110
tp56
a(I92
I70
tp57
a(I64
I117
tp58
a(I47
I56
tp59
a(I77
I37
tp60
a(I131
I68
tp61
a(I98
I32
tp62
a(I128
I91
tp63
a(I80
I99
tp64
asg16
I200
sba(imain2
Polygon
p65
(dp66
g3
(I75
I185
tp67
sg5
I200
sg6
(I70
I1
I89
I83
tp68
sg8
(lp69
(I84
I199
tp70
a(I125
I163
tp71
a(I123
I140
tp72
a(I120
I200
tp73
a(I72
I200
tp74
a(I68
I195
tp75
a(I98
I174
tp76
asg16
I200
sba(imain2
Polygon
p77
(dp78
g3
(I51
I161
tp79
sg5
I200
sg6
(I130
I132
I15
I93
tp80
sg8
(lp81
(I86
I200
tp82
a(I55
I200
tp83
a(I96
I190
tp84
a(I67
I140
tp85
a(I76
I152
tp86
asg16
I200
sba(imain2
Polygon
p87
(dp88
g3
(I76
I107
tp89
sg5
I200
sg6
(I159
I37
I202
I115
tp90
sg8
(lp91
(I113
I136
tp92
a(I40
I71
tp93
a(I37
I76
tp94
a(I55
I67
tp95
a(I115
I57
tp96
a(I107
I154
tp97
a(I53
I141
tp98
a(I48
I92
tp99
a(I101
I62
tp100
a(I75
I123
tp101
a(I85
I132
tp102
a(I87
I117
tp103
asg16
I200
sba(imain2
Polygon
p104
(dp105
g3
(I79
I45
tp106
sg5
I200
sg6
(I222
I1
I242
I1
tp107
sg8
(lp108
(I84
I11
tp109
a(I121
I88
tp110
a(I37
I47
tp111
a(I73
I32
tp112
a(I102
I24
tp113
asg16
I200
sba(imain2
Polygon
p114
(dp115
g3
(I123
I186
tp116
sg5
I200
sg6
(I49
I15
I43
I0
tp117
sg8
(lp118
(I139
I167
tp119
a(I148
I200
tp120
a(I95
I187
tp121
a(I153
I138
tp122
asg16
I200
sba(imain2
Polygon
p123
(dp124
g3
(I74
I162
tp125
sg5
I200
sg6
(I155
I94
I212
I1
tp126
sg8
(lp127
(I39
I126
tp128
a(I77
I195
tp129
a(I28
I142
tp130
a(I79
I200
tp131
a(I48
I137
tp132
a(I64
I197
tp133
a(I112
I160
tp134
a(I54
I193
tp135
a(I65
I158
tp136
a(I95
I167
tp137
a(I110
I141
tp138
a(I105
I152
tp139
asg16
I200
sba(imain2
Polygon
p140
(dp141
g3
(I64
I120
tp142
sg5
I200
sg6
(I233
I41
I170
I1
tp143
sg8
(lp144
(I113
I141
tp145
a(I33
I157
tp146
a(I92
I162
tp147
a(I105
I141
tp148
asg16
I200
sba(imain2
Polygon
p149
(dp150
g3
(I2
I37
tp151
sg5
I200
sg6
(I135
I133
I101
I110
tp152
sg8
(lp153
(I0
I0
tp154
a(I45
I3
tp155
a(I4
I47
tp156
a(I20
I35
tp157
a(I0
I66
tp158
a(I41
I3
tp159
a(I36
I68
tp160
a(I21
I15
tp161
a(I39
I86
tp162
a(I0
I85
tp163
asg16
I200
sba(imain2
Polygon
p164
(dp165
g3
(I161
I116
tp166
sg5
I200
sg6
(I151
I93
I113
I55
tp167
sg8
(lp168
(I113
I144
tp169
a(I200
I152
tp170
a(I168
I90
tp171
a(I170
I71
tp172
a(I163
I108
tp173
a(I174
I126
tp174
a(I198
I163
tp175
a(I182
I147
tp176
a(I200
I152
tp177
asg16
I200
sba(imain2
Polygon
p178
(dp179
g3
(I171
I44
tp180
sg5
I200
sg6
(I133
I236
I105
I112
tp181
sg8
(lp182
(I151
I30
tp183
a(I157
I22
tp184
a(I200
I89
tp185
a(I200
I0
tp186
a(I132
I0
tp187
a(I134
I21
tp188
a(I133
I52
tp189
a(I161
I77
tp190
a(I200
I93
tp191
a(I143
I0
tp192
a(I170
I71
tp193
a(I157
I81
tp194
a(I125
I35
tp195
asg16
I200
sba(imain2
Polygon
p196
(dp197
g3
(I196
I163
tp198
sg5
I200
sg6
(I37
I166
I6
I24
tp199
sg8
(lp200
(I200
I176
tp201
a(I200
I197
tp202
a(I200
I191
tp203
a(I200
I134
tp204
a(I193
I170
tp205
a(I200
I141
tp206
a(I155
I170
tp207
a(I200
I182
tp208
a(I200
I172
tp209
a(I200
I114
tp210
a(I170
I173
tp211
a(I179
I115
tp212
a(I171
I129
tp213
asg16
I200
sba(imain2
Polygon
p214
(dp215
g3
(I123
I35
tp216
sg5
I200
sg6
(I143
I61
I71
I0
tp217
sg8
(lp218
(I150
I83
tp219
a(I134
I57
tp220
a(I98
I0
tp221
a(I158
I15
tp222
a(I90
I72
tp223
a(I143
I1
tp224
a(I94
I0
tp225
a(I100
I0
tp226
a(I130
I0
tp227
asg16
I200
sba(imain2
Polygon
p228
(dp229
g3
(I38
I152
tp230
sg5
I200
sg6
(I92
I165
I33
I131
tp231
sg8
(lp232
(I87
I136
tp233
a(I53
I103
tp234
a(I49
I126
tp235
a(I73
I158
tp236
asg16
I200
sba(imain2
Polygon
p237
(dp238
g3
(I118
I157
tp239
sg5
I200
sg6
(I86
I63
I44
I1
tp240
sg8
(lp241
(I152
I159
tp242
a(I115
I173
tp243
a(I152
I191
tp244
a(I160
I116
tp245
asg16
I200
sba(imain2
Polygon
p246
(dp247
g3
(I10
I175
tp248
sg5
I200
sg6
(I175
I52
I61
I14
tp249
sg8
(lp250
(I0
I141
tp251
a(I56
I147
tp252
a(I0
I183
tp253
a(I0
I200
tp254
a(I29
I188
tp255
asg16
I200
sba(imain2
Polygon
p256
(dp257
g3
(I4
I131
tp258
sg5
I200
sg6
(I122
I52
I62
I0
tp259
sg8
(lp260
(I25
I135
tp261
a(I2
I88
tp262
a(I0
I96
tp263
a(I0
I148
tp264
a(I0
I167
tp265
a(I18
I159
tp266
a(I11
I157
tp267
a(I31
I145
tp268
a(I19
I89
tp269
a(I0
I108
tp270
a(I12
I86
tp271
a(I0
I136
tp272
asg16
I200
sba(imain2
Polygon
p273
(dp274
g3
(I75
I51
tp275
sg5
I200
sg6
(I103
I197
I0
I15
tp276
sg8
(lp277
(I73
I93
tp278
a(I60
I74
tp279
a(I34
I7
tp280
a(I105
I56
tp281
a(I93
I52
tp282
asg16
I200
sba(imain2
Polygon
p283
(dp284
g3
(I18
I101
tp285
sg5
I200
sg6
(I1
I11
I68
I49
tp286
sg8
(lp287
(I0
I99
tp288
a(I15
I116
tp289
a(I0
I56
tp290
a(I5
I78
tp291
a(I20
I101
tp292
a(I0
I130
tp293
a(I45
I64
tp294
asg16
I200
sba(imain2
Polygon
p295
(dp296
g3
(I97
I199
tp297
sg5
I200
sg6
(I0
I107
I44
I112
tp298
sg8
(lp299
(I91
I200
tp300
a(I104
I199
tp301
a(I134
I200
tp302
a(I135
I171
tp303
a(I78
I156
tp304
a(I122
I200
tp305
a(I97
I158
tp306
a(I135
I155
tp307
a(I118
I173
tp308
a(I87
I171
tp309
a(I99
I160
tp310
a(I132
I156
tp311
a(I118
I192
tp312
a(I75
I200
tp313
asg16
I200
sba(imain2
Polygon
p314
(dp315
g3
(I102
I104
tp316
sg5
I200
sg6
(I220
I121
I127
I70
tp317
sg8
(lp318
(I105
I151
tp319
a(I105
I63
tp320
a(I59
I58
tp321
a(I57
I131
tp322
a(I74
I153
tp323
asg16
I200
sba(imain2
Polygon
p324
(dp325
g3
(I177
I176
tp326
sg5
I200
sg6
(I112
I207
I214
I43
tp327
sg8
(lp328
(I200
I138
tp329
a(I167
I145
tp330
a(I200
I200
tp331
asg16
I200
sba(imain2
Polygon
p332
(dp333
g3
(I99
I27
tp334
sg5
I200
sg6
(I71
I83
I1
I105
tp335
sg8
(lp336
(I143
I0
tp337
a(I53
I0
tp338
a(I97
I73
tp339
a(I139
I50
tp340
a(I73
I29
tp341
asg16
I200
sba(imain2
Polygon
p342
(dp343
g3
(I138
I156
tp344
sg5
I200
sg6
(I18
I57
I186
I1
tp345
sg8
(lp346
(I134
I187
tp347
a(I142
I107
tp348
a(I111
I148
tp349
a(I111
I157
tp350
asg16
I200
sba(imain2
Polygon
p351
(dp352
g3
(I100
I129
tp353
sg5
I200
sg6
(I113
I215
I219
I0
tp354
sg8
(lp355
(I57
I172
tp356
a(I85
I161
tp357
a(I102
I174
tp358
asg16
I200
sba(imain2
Polygon
p359
(dp360
g3
(I90
I2
tp361
sg5
I200
sg6
(I194
I195
I2
I1
tp362
sg8
(lp363
(I132
I0
tp364
a(I109
I0
tp365
a(I122
I0
tp366
a(I82
I20
tp367
a(I90
I51
tp368
a(I89
I45
tp369
a(I79
I40
tp370
a(I48
I49
tp371
a(I104
I26
tp372
a(I128
I15
tp373
asg16
I200
sba(imain2
Polygon
p374
(dp375
g3
(I76
I49
tp376
sg5
I200
sg6
(I246
I164
I176
I98
tp377
sg8
(lp378
(I52
I54
tp379
a(I62
I34
tp380
a(I99
I36
tp381
a(I124
I78
tp382
a(I91
I88
tp383
a(I47
I82
tp384
asg16
I200
sba(imain2
Polygon
p385
(dp386
g3
(I135
I193
tp387
sg5
I200
sg6
(I203
I199
I62
I1
tp388
sg8
(lp389
(I150
I200
tp390
a(I124
I200
tp391
a(I93
I171
tp392
a(I91
I200
tp393
a(I178
I191
tp394
a(I113
I200
tp395
a(I129
I171
tp396
a(I132
I200
tp397
a(I149
I200
tp398
asg16
I200
sba(imain2
Polygon
p399
(dp400
g3
(I156
I197
tp401
sg5
I200
sg6
(I78
I232
I79
I5
tp402
sg8
(lp403
(I183
I162
tp404
a(I198
I200
tp405
a(I112
I200
tp406
a(I108
I171
tp407
a(I183
I181
tp408
asg16
I200
sba(imain2
Polygon
p409
(dp410
g3
(I159
I95
tp411
sg5
I200
sg6
(I162
I22
I16
I1
tp412
sg8
(lp413
(I196
I80
tp414
a(I142
I142
tp415
a(I114
I45
tp416
a(I184
I46
tp417
a(I170
I56
tp418
a(I154
I110
tp419
a(I186
I126
tp420
a(I163
I133
tp421
a(I173
I67
tp422
asg16
I200
sba(imain2
Polygon
p423
(dp424
g3
(I130
I187
tp425
sg5
I200
sg6
(I177
I73
I86
I70
tp426
sg8
(lp427
(I138
I200
tp428
a(I161
I187
tp429
a(I150
I166
tp430
a(I168
I192
tp431
a(I164
I200
tp432
a(I97
I159
tp433
a(I90
I200
tp434
asg16
I200
sba(imain2
Polygon
p435
(dp436
g3
(I56
I194
tp437
sg5
I200
sg6
(I191
I173
I0
I34
tp438
sg8
(lp439
(I6
I200
tp440
a(I59
I200
tp441
a(I15
I171
tp442
a(I36
I176
tp443
a(I24
I145
tp444
a(I23
I200
tp445
a(I6
I200
tp446
a(I75
I169
tp447
a(I20
I200
tp448
a(I102
I200
tp449
a(I105
I191
tp450
asg16
I200
sba(imain2
Polygon
p451
(dp452
g3
(I180
I160
tp453
sg5
I200
sg6
(I29
I39
I108
I54
tp454
sg8
(lp455
(I192
I143
tp456
a(I163
I195
tp457
a(I200
I200
tp458
a(I159
I131
tp459
a(I196
I176
tp460
a(I200
I161
tp461
a(I200
I118
tp462
a(I161
I136
tp463
a(I200
I128
tp464
asg16
I200
sba(imain2
Polygon
p465
(dp466
g3
(I12
I87
tp467
sg5
I200
sg6
(I49
I129
I182
I5
tp468
sg8
(lp469
(I0
I133
tp470
a(I0
I54
tp471
a(I53
I118
tp472
a(I0
I107
tp473
a(I0
I121
tp474
a(I1
I124
tp475
asg16
I200
sba(imain2
Polygon
p476
(dp477
g3
(I123
I91
tp478
sg5
I200
sg6
(I229
I1
I184
I56
tp479
sg8
(lp480
(I93
I69
tp481
a(I99
I140
tp482
a(I130
I51
tp483
a(I77
I123
tp484
a(I112
I65
tp485
asg16
I200
sba(imain2
Polygon
p486
(dp487
g3
(I80
I122
tp488
sg5
I200
sg6
(I220
I176
I139
I75
tp489
sg8
(lp490
(I116
I143
tp491
a(I129
I85
tp492
a(I44
I101
tp493
a(I75
I158
tp494
a(I123
I146
tp495
asg16
I200
sba(imain2
Polygon
p496
(dp497
g3
(I119
I156
tp498
sg5
I200
sg6
(I125
I214
I195
I45
tp499
sg8
(lp500
(I96
I178
tp501
a(I141
I200
tp502
a(I103
I123
tp503
a(I90
I178
tp504
a(I70
I199
tp505
a(I133
I200
tp506
a(I69
I119
tp507
a(I102
I114
tp508
a(I69
I110
tp509
a(I88
I157
tp510
asg16
I200
sba(imain2
Polygon
p511
(dp512
g3
(I66
I96
tp513
sg5
I200
sg6
(I107
I72
I64
I96
tp514
sg8
(lp515
(I24
I133
tp516
a(I20
I88
tp517
a(I59
I80
tp518
a(I72
I129
tp519
a(I100
I145
tp520
a(I30
I82
tp521
a(I36
I114
tp522
asg16
I200
sba(imain2
Polygon
p523
(dp524
g3
(I17
I178
tp525
sg5
I200
sg6
(I81
I65
I13
I0
tp526
sg8
(lp527
(I0
I175
tp528
a(I1
I200
tp529
a(I0
I174
tp530
a(I17
I200
tp531
a(I20
I150
tp532
a(I0
I128
tp533
a(I24
I133
tp534
a(I45
I141
tp535
asg16
I200
sba(imain2
Polygon
p536
(dp537
g3
(I196
I157
tp538
sg5
I200
sg6
(I26
I207
I67
I0
tp539
sg8
(lp540
(I147
I199
tp541
a(I200
I112
tp542
a(I200
I161
tp543
a(I183
I187
tp544
a(I200
I158
tp545
a(I200
I107
tp546
a(I200
I123
tp547
a(I147
I107
tp548
a(I165
I144
tp549
a(I200
I113
tp550
a(I200
I173
tp551
a(I200
I174
tp552
a(I189
I174
tp553
a(I200
I166
tp554
a(I200
I151
tp555
a(I200
I185
tp556
a(I161
I119
tp557
a(I200
I151
tp558
a(I163
I139
tp559
a(I158
I128
tp560
asg16
I200
sba(imain2
Polygon
p561
(dp562
g3
(I7
I138
tp563
sg5
I200
sg6
(I208
I109
I9
I1
tp564
sg8
(lp565
(I0
I174
tp566
a(I47
I188
tp567
a(I0
I109
tp568
a(I0
I127
tp569
a(I11
I151
tp570
a(I0
I88
tp571
a(I0
I180
tp572
a(I25
I106
tp573
a(I0
I157
tp574
a(I0
I147
tp575
a(I29
I156
tp576
a(I15
I108
tp577
a(I0
I158
tp578
a(I24
I89
tp579
a(I41
I89
tp580
asg16
I200
sba(imain2
Polygon
p581
(dp582
g3
(I49
I75
tp583
sg5
I200
sg6
(I117
I228
I12
I22
tp584
sg8
(lp585
(I97
I31
tp586
a(I96
I95
tp587
a(I60
I123
tp588
a(I90
I62
tp589
a(I35
I74
tp590
a(I91
I46
tp591
a(I35
I64
tp592
a(I75
I88
tp593
a(I0
I118
tp594
a(I3
I64
tp595
a(I8
I49
tp596
a(I41
I49
tp597
a(I53
I73
tp598
a(I93
I71
tp599
a(I41
I61
tp600
asg16
I200
sba(imain2
Polygon
p601
(dp602
g3
(I75
I73
tp603
sg5
I200
sg6
(I161
I134
I134
I134
tp604
sg8
(lp605
(I108
I39
tp606
a(I122
I103
tp607
a(I47
I117
tp608
a(I62
I34
tp609
asg16
I200
sba(imain2
Polygon
p610
(dp611
g3
(I82
I103
tp612
sg5
I200
sg6
(I95
I95
I59
I0
tp613
sg8
(lp614
(I49
I116
tp615
a(I48
I146
tp616
a(I53
I131
tp617
a(I124
I68
tp618
a(I36
I91
tp619
a(I67
I133
tp620
a(I92
I71
tp621
a(I95
I67
tp622
a(I97
I112
tp623
a(I60
I69
tp624
a(I61
I89
tp625
a(I114
I87
tp626
a(I41
I99
tp627
a(I93
I107
tp628
a(I128
I131
tp629
a(I102
I131
tp630
a(I132
I87
tp631
a(I54
I64
tp632
a(I55
I149
tp633
asg16
I200
sba(imain2
Polygon
p634
(dp635
g3
(I126
I26
tp636
sg5
I200
sg6
(I237
I182
I126
I110
tp637
sg8
(lp638
(I138
I12
tp639
a(I148
I21
tp640
a(I124
I16
tp641
a(I78
I4
tp642
a(I77
I0
tp643
a(I162
I0
tp644
a(I176
I38
tp645
a(I168
I75
tp646
asg16
I200
sba(imain2
Polygon
p647
(dp648
g3
(I128
I23
tp649
sg5
I200
sg6
(I105
I0
I84
I0
tp650
sg8
(lp651
(I125
I0
tp652
a(I92
I0
tp653
a(I137
I0
tp654
a(I147
I0
tp655
a(I126
I22
tp656
a(I103
I28
tp657
a(I155
I58
tp658
a(I153
I43
tp659
a(I116
I0
tp660
a(I172
I37
tp661
a(I157
I34
tp662
a(I144
I0
tp663
a(I92
I33
tp664
a(I172
I71
tp665
a(I132
I58
tp666
asg16
I200
sba(imain2
Polygon
p667
(dp668
g3
(I147
I59
tp669
sg5
I200
sg6
(I1
I240
I189
I64
tp670
sg8
(lp671
(I186
I35
tp672
a(I155
I19
tp673
a(I190
I84
tp674
asg16
I200
sba(imain2
Polygon
p675
(dp676
g3
(I105
I192
tp677
sg5
I200
sg6
(I178
I20
I174
I1
tp678
sg8
(lp679
(I150
I178
tp680
a(I76
I200
tp681
a(I97
I200
tp682
a(I118
I200
tp683
asg16
I200
sba(imain2
Polygon
p684
(dp685
g3
(I144
I60
tp686
sg5
I200
sg6
(I59
I233
I8
I0
tp687
sg8
(lp688
(I100
I77
tp689
a(I160
I42
tp690
a(I131
I18
tp691
a(I108
I75
tp692
a(I186
I102
tp693
a(I180
I75
tp694
asg16
I200
sba(imain2
Polygon
p695
(dp696
g3
(I177
I86
tp697
sg5
I200
sg6
(I168
I32
I16
I0
tp698
sg8
(lp699
(I179
I46
tp700
a(I165
I74
tp701
a(I192
I40
tp702
a(I166
I62
tp703
a(I200
I115
tp704
a(I141
I67
tp705
a(I156
I64
tp706
asg16
I200
sba(imain2
Polygon
p707
(dp708
g3
(I157
I117
tp709
sg5
I200
sg6
(I43
I28
I1
I62
tp710
sg8
(lp711
(I187
I153
tp712
a(I200
I147
tp713
a(I128
I75
tp714
a(I191
I152
tp715
a(I198
I74
tp716
a(I183
I145
tp717
a(I133
I77
tp718
a(I200
I166
tp719
asg16
I200
sba(imain2
Polygon
p720
(dp721
g3
(I155
I192
tp722
sg5
I200
sg6
(I1
I34
I195
I1
tp723
sg8
(lp724
(I200
I165
tp725
a(I145
I200
tp726
a(I128
I195
tp727
a(I111
I200
tp728
a(I175
I200
tp729
a(I176
I183
tp730
a(I110
I173
tp731
a(I153
I200
tp732
a(I155
I187
tp733
asg16
I200
sba(imain2
Polygon
p734
(dp735
g3
(I103
I158
tp736
sg5
I200
sg6
(I13
I44
I119
I60
tp737
sg8
(lp738
(I107
I154
tp739
a(I87
I181
tp740
a(I127
I113
tp741
a(I121
I144
tp742
a(I99
I154
tp743
a(I131
I117
tp744
a(I66
I200
tp745
a(I96
I148
tp746
asg16
I200
sba(imain2
Polygon
p747
(dp748
g3
(I9
I151
tp749
sg5
I200
sg6
(I122
I83
I56
I36
tp750
sg8
(lp751
(I0
I173
tp752
a(I0
I173
tp753
a(I0
I126
tp754
a(I21
I130
tp755
a(I0
I157
tp756
a(I6
I192
tp757
a(I44
I122
tp758
a(I0
I159
tp759
a(I0
I191
tp760
asg16
I200
sba(imain2
Polygon
p761
(dp762
g3
(I114
I115
tp763
sg5
I200
sg6
(I165
I158
I139
I0
tp764
sg8
(lp765
(I74
I83
tp766
a(I156
I103
tp767
a(I64
I113
tp768
a(I134
I133
tp769
a(I97
I150
tp770
a(I144
I106
tp771
a(I99
I110
tp772
asg16
I200
sba(imain2
Polygon
p773
(dp774
g3
(I114
I99
tp775
sg5
I200
sg6
(I61
I240
I7
I50
tp776
sg8
(lp777
(I128
I108
tp778
a(I104
I71
tp779
a(I95
I126
tp780
a(I95
I94
tp781
a(I72
I108
tp782
a(I82
I55
tp783
a(I70
I56
tp784
a(I109
I134
tp785
a(I103
I135
tp786
a(I69
I62
tp787
a(I139
I67
tp788
a(I84
I133
tp789
asg16
I200
sba(imain2
Polygon
p790
(dp791
g3
(I173
I62
tp792
sg5
I200
sg6
(I1
I41
I168
I98
tp793
sg8
(lp794
(I200
I82
tp795
a(I200
I84
tp796
a(I153
I79
tp797
a(I192
I90
tp798
asg16
I200
sba(imain2
Polygon
p799
(dp800
g3
(I199
I171
tp801
sg5
I200
sg6
(I0
I234
I13
I26
tp802
sg8
(lp803
(I200
I164
tp804
a(I200
I174
tp805
a(I162
I194
tp806
asg16
I200
sba(imain2
Polygon
p807
(dp808
g3
(I195
I126
tp809
sg5
I200
sg6
(I211
I216
I27
I0
tp810
sg8
(lp811
(I146
I99
tp812
a(I200
I116
tp813
a(I196
I122
tp814
a(I200
I164
tp815
a(I200
I93
tp816
a(I200
I114
tp817
a(I175
I79
tp818
a(I200
I91
tp819
a(I188
I145
tp820
a(I179
I163
tp821
a(I183
I169
tp822
a(I199
I106
tp823
a(I170
I145
tp824
a(I187
I122
tp825
a(I186
I158
tp826
a(I200
I156
tp827
asg16
I200
sba(imain2
Polygon
p828
(dp829
g3
(I51
I190
tp830
sg5
I200
sg6
(I124
I172
I100
I65
tp831
sg8
(lp832
(I53
I200
tp833
a(I11
I200
tp834
a(I86
I200
tp835
a(I60
I200
tp836
a(I96
I168
tp837
a(I97
I200
tp838
a(I3
I200
tp839
a(I70
I200
tp840
asg16
I200
sba(imain2
Polygon
p841
(dp842
g3
(I200
I5
tp843
sg5
I200
sg6
(I187
I108
I44
I0
tp844
sg8
(lp845
(I200
I50
tp846
a(I200
I17
tp847
a(I165
I28
tp848
a(I200
I17
tp849
a(I185
I0
tp850
a(I200
I0
tp851
a(I200
I0
tp852
asg16
I200
sba(imain2
Polygon
p853
(dp854
g3
(I147
I166
tp855
sg5
I200
sg6
(I115
I241
I223
I11
tp856
sg8
(lp857
(I108
I131
tp858
a(I159
I200
tp859
a(I120
I165
tp860
a(I123
I166
tp861
a(I132
I125
tp862
a(I103
I176
tp863
a(I124
I199
tp864
asg16
I200
sba(imain2
Polygon
p865
(dp866
g3
(I16
I191
tp867
sg5
I200
sg6
(I128
I47
I221
I0
tp868
sg8
(lp869
(I0
I154
tp870
a(I59
I200
tp871
a(I55
I168
tp872
asg16
I200
sba(imain2
Polygon
p873
(dp874
g3
(I94
I9
tp875
sg5
I200
sg6
(I199
I51
I20
I1
tp876
sg8
(lp877
(I59
I24
tp878
a(I78
I0
tp879
a(I89
I0
tp880
a(I83
I0
tp881
a(I101
I37
tp882
a(I62
I0
tp883
a(I67
I26
tp884
a(I87
I56
tp885
a(I121
I30
tp886
a(I85
I7
tp887
a(I144
I14
tp888
a(I50
I53
tp889
asg16
I200
sba(imain2
Polygon
p890
(dp891
g3
(I111
I113
tp892
sg5
I200
sg6
(I90
I30
I146
I0
tp893
sg8
(lp894
(I83
I120
tp895
a(I95
I159
tp896
a(I74
I126
tp897
a(I150
I136
tp898
asg16
I200
sba(imain2
Polygon
p899
(dp900
g3
(I10
I81
tp901
sg5
I200
sg6
(I220
I162
I193
I1
tp902
sg8
(lp903
(I60
I131
tp904
a(I0
I33
tp905
a(I0
I62
tp906
a(I12
I107
tp907
a(I0
I101
tp908
a(I60
I111
tp909
a(I0
I116
tp910
a(I0
I111
tp911
a(I0
I105
tp912
a(I46
I129
tp913
a(I2
I80
tp914
asg16
I200
sba(imain2
Polygon
p915
(dp916
g3
(I10
I22
tp917
sg5
I200
sg6
(I218
I204
I106
I71
tp918
sg8
(lp919
(I27
I0
tp920
a(I41
I0
tp921
a(I47
I58
tp922
a(I8
I71
tp923
a(I0
I70
tp924
a(I12
I0
tp925
a(I0
I0
tp926
a(I0
I66
tp927
a(I13
I7
tp928
a(I0
I14
tp929
a(I26
I4
tp930
asg16
I200
sba(imain2
Polygon
p931
(dp932
g3
(I19
I169
tp933
sg5
I200
sg6
(I89
I216
I79
I0
tp934
sg8
(lp935
(I49
I128
tp936
a(I44
I183
tp937
a(I20
I192
tp938
a(I0
I200
tp939
a(I42
I200
tp940
asg16
I200
sba(imain2
Polygon
p941
(dp942
g3
(I194
I7
tp943
sg5
I200
sg6
(I162
I89
I134
I5
tp944
sg8
(lp945
(I200
I44
tp946
a(I200
I0
tp947
a(I200
I29
tp948
a(I160
I25
tp949
a(I200
I5
tp950
a(I145
I0
tp951
a(I200
I0
tp952
a(I200
I29
tp953
a(I180
I0
tp954
a(I200
I45
tp955
asg16
I200
sba(imain2
Polygon
p956
(dp957
g3
(I42
I15
tp958
sg5
I200
sg6
(I148
I136
I164
I1
tp959
sg8
(lp960
(I55
I36
tp961
a(I61
I9
tp962
a(I73
I63
tp963
a(I0
I65
tp964
a(I0
I8
tp965
a(I20
I46
tp966
a(I88
I8
tp967
a(I91
I0
tp968
a(I40
I32
tp969
asg16
I200
sba(imain2
Polygon
p970
(dp971
g3
(I183
I77
tp972
sg5
I200
sg6
(I25
I141
I27
I33
tp973
sg8
(lp974
(I141
I91
tp975
a(I200
I86
tp976
a(I156
I32
tp977
a(I200
I40
tp978
a(I200
I100
tp979
a(I200
I90
tp980
a(I178
I51
tp981
asg16
I200
sba(imain2
Polygon
p982
(dp983
g3
(I190
I45
tp984
sg5
I200
sg6
(I178
I46
I184
I1
tp985
sg8
(lp986
(I200
I8
tp987
a(I200
I26
tp988
a(I200
I14
tp989
a(I200
I46
tp990
a(I179
I86
tp991
a(I200
I56
tp992
a(I196
I11
tp993
a(I200
I70
tp994
a(I153
I38
tp995
asg16
I200
sba(imain2
Polygon
p996
(dp997
g3
(I115
I69
tp998
sg5
I200
sg6
(I0
I121
I192
I0
tp999
sg8
(lp1000
(I77
I118
tp1001
a(I104
I77
tp1002
a(I84
I62
tp1003
a(I128
I106
tp1004
a(I118
I32
tp1005
asg16
I200
sba(imain2
Polygon
p1006
(dp1007
g3
(I173
I121
tp1008
sg5
I200
sg6
(I242
I55
I21
I1
tp1009
sg8
(lp1010
(I164
I100
tp1011
a(I128
I72
tp1012
a(I151
I97
tp1013
a(I164
I125
tp1014
a(I169
I95
tp1015
a(I200
I143
tp1016
a(I180
I71
tp1017
a(I166
I129
tp1018
a(I144
I170
tp1019
asg16
I200
sba(imain2
Polygon
p1020
(dp1021
g3
(I45
I135
tp1022
sg5
I200
sg6
(I149
I126
I177
I45
tp1023
sg8
(lp1024
(I7
I177
tp1025
a(I21
I178
tp1026
a(I23
I86
tp1027
a(I14
I133
tp1028
a(I35
I86
tp1029
a(I9
I89
tp1030
asg16
I200
sba(imain2
Polygon
p1031
(dp1032
g3
(I61
I48
tp1033
sg5
I200
sg6
(I76
I34
I123
I114
tp1034
sg8
(lp1035
(I71
I86
tp1036
a(I81
I91
tp1037
a(I73
I78
tp1038
a(I47
I85
tp1039
a(I68
I93
tp1040
a(I86
I72
tp1041
a(I85
I73
tp1042
a(I53
I98
tp1043
asg16
I200
sba(imain2
Polygon
p1044
(dp1045
g3
(I96
I154
tp1046
sg5
I200
sg6
(I149
I183
I185
I65
tp1047
sg8
(lp1048
(I51
I113
tp1049
a(I75
I149
tp1050
a(I90
I200
tp1051
a(I142
I200
tp1052
a(I53
I114
tp1053
a(I124
I143
tp1054
asg16
I200
sba(imain2
Polygon
p1055
(dp1056
g3
(I32
I146
tp1057
sg5
I200
sg6
(I62
I240
I71
I101
tp1058
sg8
(lp1059
(I0
I157
tp1060
a(I0
I165
tp1061
a(I0
I132
tp1062
asg16
I200
sba(imain2
Polygon
p1063
(dp1064
g3
(I3
I120
tp1065
sg5
I200
sg6
(I186
I176
I16
I55
tp1066
sg8
(lp1067
(I38
I71
tp1068
a(I0
I72
tp1069
a(I0
I90
tp1070
a(I0
I132
tp1071
a(I20
I116
tp1072
asg16
I200
sba(imain2
Polygon
p1073
(dp1074
g3
(I74
I152
tp1075
sg5
I200
sg6
(I59
I80
I126
I0
tp1076
sg8
(lp1077
(I107
I180
tp1078
a(I80
I138
tp1079
a(I39
I140
tp1080
a(I99
I121
tp1081
a(I81
I127
tp1082
a(I35
I167
tp1083
a(I118
I127
tp1084
a(I62
I200
tp1085
a(I33
I191
tp1086
a(I87
I200
tp1087
a(I56
I110
tp1088
a(I60
I153
tp1089
asg16
I200
sba(imain2
Polygon
p1090
(dp1091
g3
(I31
I192
tp1092
sg5
I200
sg6
(I154
I33
I134
I1
tp1093
sg8
(lp1094
(I0
I181
tp1095
a(I7
I200
tp1096
a(I0
I200
tp1097
a(I36
I200
tp1098
a(I80
I200
tp1099
a(I53
I200
tp1100
a(I75
I161
tp1101
a(I41
I172
tp1102
a(I54
I171
tp1103
a(I0
I145
tp1104
a(I0
I200
tp1105
a(I79
I157
tp1106
a(I34
I200
tp1107
a(I31
I164
tp1108
a(I21
I181
tp1109
asg16
I200
sba(imain2
Polygon
p1110
(dp1111
g3
(I99
I149
tp1112
sg5
I200
sg6
(I189
I32
I203
I0
tp1113
sg8
(lp1114
(I110
I116
tp1115
a(I83
I160
tp1116
a(I101
I127
tp1117
a(I82
I109
tp1118
a(I114
I142
tp1119
a(I79
I154
tp1120
a(I51
I112
tp1121
a(I93
I155
tp1122
a(I149
I178
tp1123
a(I124
I194
tp1124
a(I133
I121
tp1125
a(I103
I151
tp1126
a(I123
I124
tp1127
a(I78
I148
tp1128
a(I52
I171
tp1129
asg16
I200
sba(imain2
Polygon
p1130
(dp1131
g3
(I183
I115
tp1132
sg5
I200
sg6
(I19
I108
I177
I144
tp1133
sg8
(lp1134
(I200
I102
tp1135
a(I200
I102
tp1136
a(I193
I132
tp1137
a(I181
I84
tp1138
a(I200
I87
tp1139
a(I200
I142
tp1140
asg16
I200
sba(imain2
Polygon
p1141
(dp1142
g3
(I141
I107
tp1143
sg5
I200
sg6
(I78
I146
I85
I146
tp1144
sg8
(lp1145
(I119
I86
tp1146
a(I95
I75
tp1147
a(I111
I152
tp1148
asg16
I200
sba(imain2
Polygon
p1149
(dp1150
g3
(I149
I72
tp1151
sg5
I200
sg6
(I64
I107
I165
I31
tp1152
sg8
(lp1153
(I160
I35
tp1154
a(I195
I56
tp1155
a(I155
I38
tp1156
a(I99
I25
tp1157
a(I173
I40
tp1158
a(I176
I38
tp1159
a(I102
I83
tp1160
a(I99
I71
tp1161
a(I150
I68
tp1162
a(I153
I27
tp1163
a(I148
I88
tp1164
asg16
I200
sba(imain2
Polygon
p1165
(dp1166
g3
(I67
I128
tp1167
sg5
I200
sg6
(I211
I148
I53
I29
tp1168
sg8
(lp1169
(I106
I157
tp1170
a(I73
I95
tp1171
a(I108
I113
tp1172
a(I115
I152
tp1173
a(I62
I84
tp1174
a(I27
I99
tp1175
a(I55
I110
tp1176
a(I44
I110
tp1177
asg16
I200
sba(imain2
Polygon
p1178
(dp1179
g3
(I183
I44
tp1180
sg5
I200
sg6
(I81
I10
I171
I0
tp1181
sg8
(lp1182
(I200
I4
tp1183
a(I138
I92
tp1184
a(I184
I85
tp1185
a(I175
I30
tp1186
a(I136
I16
tp1187
a(I179
I0
tp1188
asg16
I200
sba(imain2
Polygon
p1189
(dp1190
g3
(I100
I61
tp1191
sg5
I200
sg6
(I200
I97
I42
I41
tp1192
sg8
(lp1193
(I56
I38
tp1194
a(I99
I64
tp1195
a(I91
I106
tp1196
a(I131
I96
tp1197
a(I95
I52
tp1198
a(I78
I95
tp1199
a(I74
I24
tp1200
a(I146
I15
tp1201
a(I96
I45
tp1202
a(I109
I45
tp1203
a(I143
I70
tp1204
a(I84
I63
tp1205
asg16
I200
sba(imain2
Polygon
p1206
(dp1207
g3
(I52
I190
tp1208
sg5
I200
sg6
(I175
I147
I50
I81
tp1209
sg8
(lp1210
(I71
I200
tp1211
a(I89
I171
tp1212
a(I102
I200
tp1213
a(I94
I200
tp1214
a(I95
I200
tp1215
a(I34
I200
tp1216
asg16
I200
sba(imain2
Polygon
p1217
(dp1218
g3
(I151
I65
tp1219
sg5
I200
sg6
(I63
I180
I0
I101
tp1220
sg8
(lp1221
(I176
I54
tp1222
a(I179
I51
tp1223
a(I192
I90
tp1224
a(I186
I39
tp1225
a(I165
I61
tp1226
a(I111
I63
tp1227
a(I119
I77
tp1228
a(I169
I47
tp1229
a(I182
I28
tp1230
a(I162
I60
tp1231
asg16
I200
sba(imain2
Polygon
p1232
(dp1233
g3
(I67
I20
tp1234
sg5
I200
sg6
(I165
I93
I188
I103
tp1235
sg8
(lp1236
(I17
I0
tp1237
a(I29
I39
tp1238
a(I114
I0
tp1239
a(I27
I0
tp1240
a(I91
I0
tp1241
a(I113
I0
tp1242
asg16
I200
sba(imain2
Polygon
p1243
(dp1244
g3
(I199
I56
tp1245
sg5
I200
sg6
(I160
I0
I107
I0
tp1246
sg8
(lp1247
(I200
I8
tp1248
a(I165
I70
tp1249
a(I200
I46
tp1250
a(I200
I83
tp1251
a(I181
I100
tp1252
a(I186
I53
tp1253
a(I198
I104
tp1254
a(I188
I15
tp1255
a(I200
I90
tp1256
a(I200
I16
tp1257
a(I168
I34
tp1258
asg16
I200
sba(imain2
Polygon
p1259
(dp1260
g3
(I185
I38
tp1261
sg5
I200
sg6
(I128
I218
I67
I159
tp1262
sg8
(lp1263
(I200
I69
tp1264
a(I200
I0
tp1265
a(I196
I0
tp1266
a(I154
I0
tp1267
a(I146
I42
tp1268
a(I200
I5
tp1269
a(I168
I28
tp1270
a(I142
I46
tp1271
a(I155
I22
tp1272
a(I181
I67
tp1273
a(I187
I70
tp1274
a(I138
I0
tp1275
a(I200
I50
tp1276
a(I141
I1
tp1277
a(I171
I85
tp1278
a(I189
I82
tp1279
asg16
I200
sba(imain2
Polygon
p1280
(dp1281
g3
(I67
I149
tp1282
sg5
I200
sg6
(I91
I206
I214
I41
tp1283
sg8
(lp1284
(I20
I169
tp1285
a(I92
I149
tp1286
a(I45
I104
tp1287
a(I84
I154
tp1288
a(I47
I101
tp1289
a(I64
I107
tp1290
a(I75
I131
tp1291
a(I69
I155
tp1292
asg16
I200
sba(imain2
Polygon
p1293
(dp1294
g3
(I21
I182
tp1295
sg5
I200
sg6
(I110
I116
I1
I80
tp1296
sg8
(lp1297
(I67
I200
tp1298
a(I0
I166
tp1299
a(I59
I164
tp1300
a(I20
I169
tp1301
a(I19
I200
tp1302
a(I0
I181
tp1303
a(I19
I200
tp1304
a(I0
I143
tp1305
a(I13
I200
tp1306
a(I0
I144
tp1307
a(I0
I194
tp1308
a(I27
I167
tp1309
a(I0
I200
tp1310
a(I28
I152
tp1311
a(I0
I133
tp1312
a(I47
I191
tp1313
asg16
I200
sba(imain2
Polygon
p1314
(dp1315
g3
(I145
I176
tp1316
sg5
I200
sg6
(I184
I171
I0
I37
tp1317
sg8
(lp1318
(I116
I200
tp1319
a(I101
I200
tp1320
a(I138
I200
tp1321
a(I120
I137
tp1322
a(I98
I200
tp1323
a(I105
I200
tp1324
asg16
I200
sba(imain2
Polygon
p1325
(dp1326
g3
(I102
I21
tp1327
sg5
I200
sg6
(I180
I178
I185
I56
tp1328
sg8
(lp1329
(I129
I69
tp1330
a(I61
I26
tp1331
a(I53
I14
tp1332
a(I104
I12
tp1333
a(I146
I25
tp1334
a(I143
I7
tp1335
a(I142
I0
tp1336
a(I59
I0
tp1337
a(I54
I68
tp1338
asg16
I200
sba(imain2
Polygon
p1339
(dp1340
g3
(I154
I30
tp1341
sg5
I200
sg6
(I49
I96
I59
I1
tp1342
sg8
(lp1343
(I135
I63
tp1344
a(I190
I0
tp1345
a(I107
I66
tp1346
a(I173
I45
tp1347
a(I162
I48
tp1348
a(I140
I39
tp1349
a(I195
I27
tp1350
a(I155
I0
tp1351
a(I156
I27
tp1352
a(I141
I16
tp1353
asg16
I200
sba(imain2
Polygon
p1354
(dp1355
g3
(I171
I178
tp1356
sg5
I200
sg6
(I94
I229
I32
I4
tp1357
sg8
(lp1358
(I200
I200
tp1359
a(I200
I200
tp1360
a(I200
I195
tp1361
a(I200
I135
tp1362
a(I179
I151
tp1363
a(I137
I200
tp1364
asg16
I200
sba(imain2
Polygon
p1365
(dp1366
g3
(I189
I152
tp1367
sg5
I200
sg6
(I247
I70
I179
I1
tp1368
sg8
(lp1369
(I184
I192
tp1370
a(I173
I117
tp1371
a(I200
I166
tp1372
a(I200
I155
tp1373
a(I176
I108
tp1374
a(I182
I182
tp1375
a(I200
I166
tp1376
a(I162
I141
tp1377
a(I149
I177
tp1378
a(I194
I114
tp1379
asg16
I200
sba(imain2
Polygon
p1380
(dp1381
g3
(I158
I122
tp1382
sg5
I200
sg6
(I42
I1
I156
I42
tp1383
sg8
(lp1384
(I182
I80
tp1385
a(I174
I137
tp1386
a(I200
I145
tp1387
a(I166
I100
tp1388
a(I200
I140
tp1389
a(I124
I81
tp1390
a(I140
I142
tp1391
a(I131
I110
tp1392
a(I139
I107
tp1393
a(I200
I74
tp1394
a(I141
I98
tp1395
asg16
I200
sba(imain2
Polygon
p1396
(dp1397
g3
(I89
I194
tp1398
sg5
I200
sg6
(I226
I75
I38
I0
tp1399
sg8
(lp1400
(I120
I150
tp1401
a(I61
I194
tp1402
a(I129
I168
tp1403
a(I95
I159
tp1404
a(I74
I200
tp1405
a(I122
I200
tp1406
a(I104
I200
tp1407
a(I111
I200
tp1408
a(I64
I164
tp1409
a(I126
I166
tp1410
a(I68
I191
tp1411
a(I51
I195
tp1412
asg16
I200
sba(imain2
Polygon
p1413
(dp1414
g3
(I185
I89
tp1415
sg5
I200
sg6
(I164
I1
I218
I1
tp1416
sg8
(lp1417
(I200
I39
tp1418
a(I197
I67
tp1419
a(I190
I122
tp1420
a(I200
I70
tp1421
a(I158
I91
tp1422
a(I200
I118
tp1423
a(I200
I94
tp1424
a(I197
I79
tp1425
a(I200
I121
tp1426
a(I200
I97
tp1427
a(I140
I79
tp1428
a(I200
I47
tp1429
a(I196
I102
tp1430
asg16
I200
sba(imain2
Polygon
p1431
(dp1432
g3
(I67
I129
tp1433
sg5
I200
sg6
(I72
I192
I58
I122
tp1434
sg8
(lp1435
(I96
I97
tp1436
a(I112
I141
tp1437
a(I78
I170
tp1438
a(I81
I160
tp1439
a(I112
I100
tp1440
a(I49
I126
tp1441
a(I93
I98
tp1442
a(I110
I107
tp1443
a(I96
I122
tp1444
a(I109
I141
tp1445
a(I87
I119
tp1446
a(I87
I107
tp1447
a(I75
I92
tp1448
a(I84
I146
tp1449
a(I52
I135
tp1450
a(I91
I173
tp1451
asg16
I200
sba(imain2
Polygon
p1452
(dp1453
g3
(I95
I80
tp1454
sg5
I200
sg6
(I219
I88
I21
I130
tp1455
sg8
(lp1456
(I121
I57
tp1457
a(I47
I53
tp1458
a(I58
I130
tp1459
a(I113
I109
tp1460
a(I126
I95
tp1461
a(I129
I87
tp1462
asg16
I200
sba(imain2
Polygon
p1463
(dp1464
g3
(I14
I45
tp1465
sg5
I200
sg6
(I224
I0
I43
I107
tp1466
sg8
(lp1467
(I2
I89
tp1468
a(I58
I24
tp1469
a(I17
I21
tp1470
a(I38
I90
tp1471
a(I10
I95
tp1472
a(I0
I67
tp1473
asg16
I200
sba(imain2
Polygon
p1474
(dp1475
g3
(I34
I35
tp1476
sg5
I200
sg6
(I107
I9
I201
I24
tp1477
sg8
(lp1478
(I0
I0
tp1479
a(I0
I84
tp1480
a(I51
I56
tp1481
a(I37
I58
tp1482
a(I53
I81
tp1483
a(I45
I11
tp1484
a(I56
I7
tp1485
a(I63
I21
tp1486
asg16
I200
sba(imain2
Polygon
p1487
(dp1488
g3
(I127
I147
tp1489
sg5
I200
sg6
(I118
I171
I188
I74
tp1490
sg8
(lp1491
(I112
I151
tp1492
a(I112
I167
tp1493
a(I161
I125
tp1494
a(I99
I100
tp1495
a(I112
I159
tp1496
a(I126
I158
tp1497
a(I164
I118
tp1498
a(I80
I133
tp1499
a(I125
I141
tp1500
a(I92
I99
tp1501
a(I85
I144
tp1502
a(I105
I137
tp1503
a(I148
I117
tp1504
a(I108
I109
tp1505
a(I88
I127
tp1506
a(I120
I132
tp1507
asg16
I200
sba(imain2
Polygon
p1508
(dp1509
g3
(I88
I106
tp1510
sg5
I200
sg6
(I189
I11
I59
I113
tp1511
sg8
(lp1512
(I127
I64
tp1513
a(I119
I93
tp1514
a(I117
I112
tp1515
asg16
I200
sba(imain2
Polygon
p1516
(dp1517
g3
(I11
I134
tp1518
sg5
I200
sg6
(I75
I179
I94
I96
tp1519
sg8
(lp1520
(I0
I183
tp1521
a(I0
I95
tp1522
a(I0
I108
tp1523
a(I0
I134
tp1524
a(I0
I163
tp1525
a(I12
I180
tp1526
a(I41
I142
tp1527
asg16
I200
sba(imain2
Polygon
p1528
(dp1529
g3
(I174
I141
tp1530
sg5
I200
sg6
(I113
I237
I92
I79
tp1531
sg8
(lp1532
(I200
I134
tp1533
a(I200
I120
tp1534
a(I192
I135
tp1535
a(I175
I139
tp1536
a(I200
I190
tp1537
asg16
I200
sba(imain2
Polygon
p1538
(dp1539
g3
(I68
I44
tp1540
sg5
I200
sg6
(I3
I228
I128
I44
tp1541
sg8
(lp1542
(I26
I22
tp1543
a(I19
I82
tp1544
a(I62
I45
tp1545
a(I75
I72
tp1546
a(I22
I45
tp1547
a(I76
I14
tp1548
asg16
I200
sba(imain2
Polygon
p1549
(dp1550
g3
(I80
I68
tp1551
sg5
I200
sg6
(I76
I15
I16
I34
tp1552
sg8
(lp1553
(I35
I25
tp1554
a(I52
I50
tp1555
a(I34
I66
tp1556
a(I53
I18
tp1557
a(I117
I21
tp1558
a(I40
I26
tp1559
a(I52
I99
tp1560
a(I37
I27
tp1561
a(I47
I36
tp1562
a(I97
I30
tp1563
a(I37
I35
tp1564
a(I66
I42
tp1565
a(I83
I18
tp1566
asg16
I200
sba(imain2
Polygon
p1567
(dp1568
g3
(I120
I143
tp1569
sg5
I200
sg6
(I152
I157
I83
I0
tp1570
sg8
(lp1571
(I160
I189
tp1572
a(I157
I180
tp1573
a(I104
I174
tp1574
a(I70
I103
tp1575
a(I154
I138
tp1576
a(I119
I179
tp1577
a(I110
I93
tp1578
a(I111
I169
tp1579
a(I120
I158
tp1580
a(I86
I100
tp1581
a(I157
I112
tp1582
a(I170
I95
tp1583
asg16
I200
sba(imain2
Polygon
p1584
(dp1585
g3
(I47
I43
tp1586
sg5
I200
sg6
(I224
I145
I62
I45
tp1587
sg8
(lp1588
(I94
I47
tp1589
a(I85
I78
tp1590
a(I7
I93
tp1591
a(I0
I83
tp1592
a(I5
I0
tp1593
a(I26
I10
tp1594
a(I20
I39
tp1595
a(I21
I40
tp1596
a(I74
I3
tp1597
a(I52
I53
tp1598
a(I45
I0
tp1599
a(I49
I4
tp1600
a(I96
I0
tp1601
asg16
I200
sba(imain2
Polygon
p1602
(dp1603
g3
(I6
I165
tp1604
sg5
I200
sg6
(I192
I50
I158
I56
tp1605
sg8
(lp1606
(I0
I181
tp1607
a(I34
I177
tp1608
a(I0
I200
tp1609
asg16
I200
sba(imain2
Polygon
p1610
(dp1611
g3
(I125
I173
tp1612
sg5
I200
sg6
(I91
I30
I32
I121
tp1613
sg8
(lp1614
(I145
I181
tp1615
a(I132
I145
tp1616
a(I105
I138
tp1617
a(I135
I166
tp1618
a(I143
I200
tp1619
a(I165
I200
tp1620
a(I85
I166
tp1621
a(I93
I145
tp1622
a(I79
I141
tp1623
a(I145
I159
tp1624
a(I157
I200
tp1625
a(I143
I189
tp1626
asg16
I200
sba(imain2
Polygon
p1627
(dp1628
g3
(I63
I154
tp1629
sg5
I200
sg6
(I122
I159
I3
I1
tp1630
sg8
(lp1631
(I96
I189
tp1632
a(I79
I108
tp1633
a(I112
I105
tp1634
a(I100
I174
tp1635
a(I28
I199
tp1636
a(I27
I140
tp1637
a(I66
I149
tp1638
a(I45
I194
tp1639
a(I85
I125
tp1640
a(I27
I122
tp1641
asg16
I200
sba(imain2
Polygon
p1642
(dp1643
g3
(I152
I171
tp1644
sg5
I200
sg6
(I192
I3
I227
I0
tp1645
sg8
(lp1646
(I106
I145
tp1647
a(I119
I163
tp1648
a(I200
I191
tp1649
a(I105
I165
tp1650
a(I114
I145
tp1651
a(I139
I139
tp1652
a(I180
I200
tp1653
a(I171
I163
tp1654
asg16
I200
sba(imain2
Polygon
p1655
(dp1656
g3
(I67
I143
tp1657
sg5
I200
sg6
(I71
I72
I132
I117
tp1658
sg8
(lp1659
(I100
I175
tp1660
a(I113
I120
tp1661
a(I113
I130
tp1662
a(I111
I131
tp1663
asg16
I200
sba(imain2
Polygon
p1664
(dp1665
g3
(I153
I79
tp1666
sg5
I200
sg6
(I134
I30
I161
I1
tp1667
sg8
(lp1668
(I156
I115
tp1669
a(I178
I118
tp1670
a(I198
I89
tp1671
a(I140
I45
tp1672
a(I175
I77
tp1673
a(I178
I72
tp1674
a(I151
I121
tp1675
a(I148
I111
tp1676
a(I175
I118
tp1677
a(I152
I113
tp1678
a(I120
I111
tp1679
a(I119
I59
tp1680
asg16
I200
sba(imain2
Polygon
p1681
(dp1682
g3
(I142
I192
tp1683
sg5
I200
sg6
(I51
I236
I1
I3
tp1684
sg8
(lp1685
(I130
I200
tp1686
a(I94
I200
tp1687
a(I151
I200
tp1688
a(I170
I191
tp1689
a(I159
I195
tp1690
a(I140
I162
tp1691
a(I115
I176
tp1692
a(I94
I200
tp1693
a(I138
I200
tp1694
asg16
I200
sba(imain2
Polygon
p1695
(dp1696
g3
(I144
I12
tp1697
sg5
I200
sg6
(I185
I74
I98
I1
tp1698
sg8
(lp1699
(I142
I44
tp1700
a(I131
I0
tp1701
a(I104
I0
tp1702
a(I111
I0
tp1703
a(I166
I26
tp1704
a(I140
I27
tp1705
a(I176
I62
tp1706
a(I184
I13
tp1707
a(I190
I2
tp1708
a(I107
I0
tp1709
a(I143
I13
tp1710
a(I167
I46
tp1711
a(I177
I48
tp1712
asg16
I200
sba(imain2
Polygon
p1713
(dp1714
g3
(I144
I92
tp1715
sg5
I200
sg6
(I224
I44
I149
I146
tp1716
sg8
(lp1717
(I175
I55
tp1718
a(I181
I55
tp1719
a(I190
I118
tp1720
a(I171
I70
tp1721
a(I159
I52
tp1722
asg16
I200
sba(imain2
Polygon
p1723
(dp1724
g3
(I167
I23
tp1725
sg5
I200
sg6
(I171
I30
I241
I6
tp1726
sg8
(lp1727
(I174
I4
tp1728
a(I142
I0
tp1729
a(I200
I70
tp1730
a(I200
I14
tp1731
a(I197
I0
tp1732
a(I187
I37
tp1733
a(I139
I19
tp1734
a(I166
I58
tp1735
a(I200
I0
tp1736
a(I164
I43
tp1737
a(I200
I32
tp1738
a(I119
I0
tp1739
asg16
I200
sba(imain2
Polygon
p1740
(dp1741
g3
(I200
I102
tp1742
sg5
I200
sg6
(I50
I232
I149
I48
tp1743
sg8
(lp1744
(I161
I70
tp1745
a(I176
I111
tp1746
a(I193
I55
tp1747
a(I200
I120
tp1748
a(I200
I145
tp1749
a(I181
I124
tp1750
a(I167
I86
tp1751
a(I200
I76
tp1752
a(I200
I100
tp1753
a(I200
I61
tp1754
a(I155
I69
tp1755
a(I180
I53
tp1756
a(I170
I125
tp1757
asg16
I200
sba(imain2
Polygon
p1758
(dp1759
g3
(I20
I176
tp1760
sg5
I200
sg6
(I11
I203
I1
I1
tp1761
sg8
(lp1762
(I32
I132
tp1763
a(I28
I200
tp1764
a(I0
I164
tp1765
a(I65
I153
tp1766
a(I0
I196
tp1767
a(I69
I200
tp1768
a(I43
I145
tp1769
a(I17
I200
tp1770
a(I0
I200
tp1771
a(I25
I200
tp1772
a(I67
I130
tp1773
a(I59
I184
tp1774
a(I45
I161
tp1775
a(I44
I189
tp1776
a(I1
I173
tp1777
asg16
I200
sba(imain2
Polygon
p1778
(dp1779
g3
(I51
I87
tp1780
sg5
I200
sg6
(I98
I177
I46
I75
tp1781
sg8
(lp1782
(I68
I80
tp1783
a(I14
I70
tp1784
a(I30
I71
tp1785
a(I59
I118
tp1786
a(I60
I82
tp1787
a(I3
I114
tp1788
a(I4
I50
tp1789
a(I33
I62
tp1790
a(I40
I55
tp1791
a(I63
I97
tp1792
a(I94
I79
tp1793
a(I73
I95
tp1794
a(I30
I52
tp1795
asg16
I200
sba(imain2
Polygon
p1796
(dp1797
g3
(I124
I18
tp1798
sg5
I200
sg6
(I57
I202
I230
I1
tp1799
sg8
(lp1800
(I104
I18
tp1801
a(I112
I30
tp1802
a(I81
I43
tp1803
a(I160
I36
tp1804
asg16
I200
sba(imain2
Polygon
p1805
(dp1806
g3
(I170
I179
tp1807
sg5
I200
sg6
(I139
I190
I57
I10
tp1808
sg8
(lp1809
(I186
I184
tp1810
a(I140
I155
tp1811
a(I146
I200
tp1812
a(I200
I129
tp1813
a(I200
I200
tp1814
a(I125
I200
tp1815
a(I129
I168
tp1816
a(I156
I140
tp1817
asg16
I200
sba(imain2
Polygon
p1818
(dp1819
g3
(I93
I4
tp1820
sg5
I200
sg6
(I125
I127
I0
I130
tp1821
sg8
(lp1822
(I78
I36
tp1823
a(I51
I53
tp1824
a(I57
I28
tp1825
a(I47
I35
tp1826
a(I62
I48
tp1827
a(I51
I52
tp1828
asg16
I200
sba(imain2
Polygon
p1829
(dp1830
g3
(I33
I157
tp1831
sg5
I200
sg6
(I38
I118
I125
I0
tp1832
sg8
(lp1833
(I32
I159
tp1834
a(I21
I190
tp1835
a(I67
I128
tp1836
a(I55
I146
tp1837
a(I66
I120
tp1838
a(I55
I190
tp1839
a(I9
I140
tp1840
a(I33
I200
tp1841
a(I69
I135
tp1842
a(I50
I162
tp1843
a(I26
I121
tp1844
asg16
I200
sba(imain2
Polygon
p1845
(dp1846
g3
(I91
I9
tp1847
sg5
I200
sg6
(I67
I183
I12
I0
tp1848
sg8
(lp1849
(I135
I0
tp1850
a(I135
I0
tp1851
a(I132
I0
tp1852
a(I54
I0
tp1853
a(I134
I0
tp1854
a(I132
I0
tp1855
a(I72
I0
tp1856
a(I103
I52
tp1857
a(I93
I27
tp1858
a(I53
I5
tp1859
asg16
I200
sba(imain2
Polygon
p1860
(dp1861
g3
(I50
I13
tp1862
sg5
I200
sg6
(I92
I178
I162
I121
tp1863
sg8
(lp1864
(I31
I61
tp1865
a(I3
I50
tp1866
a(I8
I0
tp1867
a(I11
I0
tp1868
a(I7
I0
tp1869
a(I82
I0
tp1870
asg16
I200
sba(imain2
Polygon
p1871
(dp1872
g3
(I157
I108
tp1873
sg5
I200
sg6
(I128
I117
I1
I86
tp1874
sg8
(lp1875
(I168
I137
tp1876
a(I108
I127
tp1877
a(I123
I82
tp1878
a(I135
I90
tp1879
a(I108
I149
tp1880
a(I172
I125
tp1881
a(I193
I83
tp1882
a(I200
I120
tp1883
a(I184
I155
tp1884
a(I168
I127
tp1885
a(I188
I141
tp1886
asg16
I200
sba(imain2
Polygon
p1887
(dp1888
g3
(I7
I150
tp1889
sg5
I200
sg6
(I177
I11
I55
I19
tp1890
sg8
(lp1891
(I0
I180
tp1892
a(I0
I107
tp1893
a(I57
I154
tp1894
a(I0
I142
tp1895
a(I0
I123
tp1896
a(I45
I176
tp1897
a(I4
I171
tp1898
a(I0
I137
tp1899
a(I32
I102
tp1900
a(I0
I157
tp1901
a(I49
I173
tp1902
a(I23
I114
tp1903
a(I51
I116
tp1904
asg16
I200
sba(imain2
Polygon
p1905
(dp1906
g3
(I89
I125
tp1907
sg5
I200
sg6
(I42
I0
I214
I17
tp1908
sg8
(lp1909
(I59
I165
tp1910
a(I51
I118
tp1911
a(I61
I151
tp1912
a(I56
I165
tp1913
a(I76
I125
tp1914
a(I45
I157
tp1915
a(I89
I111
tp1916
asg16
I200
sba(imain2
Polygon
p1917
(dp1918
g3
(I18
I178
tp1919
sg5
I200
sg6
(I87
I163
I41
I99
tp1920
sg8
(lp1921
(I0
I148
tp1922
a(I43
I193
tp1923
a(I10
I175
tp1924
a(I0
I137
tp1925
a(I4
I137
tp1926
a(I23
I175
tp1927
asg16
I200
sba(imain2
Polygon
p1928
(dp1929
g3
(I81
I53
tp1930
sg5
I200
sg6
(I217
I83
I79
I0
tp1931
sg8
(lp1932
(I89
I81
tp1933
a(I89
I58
tp1934
a(I66
I39
tp1935
a(I42
I77
tp1936
a(I58
I52
tp1937
a(I119
I4
tp1938
a(I36
I85
tp1939
a(I73
I54
tp1940
a(I96
I16
tp1941
asg16
I200
sba(imain2
Polygon
p1942
(dp1943
g3
(I117
I32
tp1944
sg5
I200
sg6
(I165
I186
I83
I1
tp1945
sg8
(lp1946
(I89
I46
tp1947
a(I147
I0
tp1948
a(I134
I30
tp1949
asg16
I200
sba(imain2
Polygon
p1950
(dp1951
g3
(I79
I140
tp1952
sg5
I200
sg6
(I225
I1
I161
I32
tp1953
sg8
(lp1954
(I108
I95
tp1955
a(I107
I173
tp1956
a(I52
I148
tp1957
a(I123
I97
tp1958
a(I103
I173
tp1959
a(I75
I159
tp1960
a(I64
I113
tp1961
a(I80
I158
tp1962
asg16
I200
sba(imain2
Polygon
p1963
(dp1964
g3
(I26
I4
tp1965
sg5
I200
sg6
(I197
I73
I69
I0
tp1966
sg8
(lp1967
(I49
I0
tp1968
a(I23
I0
tp1969
a(I7
I0
tp1970
a(I0
I0
tp1971
a(I0
I0
tp1972
a(I0
I11
tp1973
a(I0
I0
tp1974
a(I2
I0
tp1975
a(I38
I0
tp1976
asg16
I200
sba(imain2
Polygon
p1977
(dp1978
g3
(I15
I121
tp1979
sg5
I200
sg6
(I0
I223
I150
I0
tp1980
sg8
(lp1981
(I58
I148
tp1982
a(I16
I84
tp1983
a(I51
I75
tp1984
a(I60
I87
tp1985
a(I0
I74
tp1986
a(I1
I112
tp1987
a(I46
I142
tp1988
a(I46
I91
tp1989
a(I59
I105
tp1990
a(I61
I107
tp1991
a(I0
I154
tp1992
a(I0
I107
tp1993
a(I16
I86
tp1994
a(I0
I169
tp1995
asg16
I200
sba(imain2
Polygon
p1996
(dp1997
g3
(I163
I195
tp1998
sg5
I200
sg6
(I9
I148
I193
I13
tp1999
sg8
(lp2000
(I191
I150
tp2001
a(I125
I198
tp2002
a(I169
I200
tp2003
a(I178
I174
tp2004
a(I135
I161
tp2005
a(I198
I192
tp2006
a(I127
I200
tp2007
a(I196
I200
tp2008
a(I141
I200
tp2009
asg16
I200
sba(imain2
Polygon
p2010
(dp2011
g3
(I118
I106
tp2012
sg5
I200
sg6
(I6
I134
I123
I119
tp2013
sg8
(lp2014
(I132
I104
tp2015
a(I145
I78
tp2016
a(I102
I87
tp2017
a(I125
I104
tp2018
a(I121
I98
tp2019
a(I123
I91
tp2020
a(I151
I66
tp2021
a(I130
I116
tp2022
a(I127
I105
tp2023
a(I140
I99
tp2024
asg16
I200
sba(imain2
Polygon
p2025
(dp2026
g3
(I56
I6
tp2027
sg5
I200
sg6
(I197
I0
I175
I0
tp2028
sg8
(lp2029
(I82
I0
tp2030
a(I79
I0
tp2031
a(I71
I0
tp2032
a(I21
I0
tp2033
a(I75
I2
tp2034
asg16
I200
sba(imain2
Polygon
p2035
(dp2036
g3
(I174
I69
tp2037
sg5
I200
sg6
(I119
I36
I47
I106
tp2038
sg8
(lp2039
(I200
I23
tp2040
a(I200
I29
tp2041
a(I160
I53
tp2042
a(I200
I119
tp2043
a(I196
I88
tp2044
a(I200
I90
tp2045
a(I151
I40
tp2046
a(I126
I41
tp2047
a(I140
I30
tp2048
a(I128
I48
tp2049
a(I130
I47
tp2050
a(I191
I41
tp2051
a(I183
I53
tp2052
a(I173
I86
tp2053
asg16
I200
sba(imain2
Polygon
p2054
(dp2055
g3
(I0
I30
tp2056
sg5
I200
sg6
(I172
I40
I100
I1
tp2057
sg8
(lp2058
(I43
I35
tp2059
a(I0
I48
tp2060
a(I0
I65
tp2061
a(I29
I6
tp2062
a(I0
I44
tp2063
a(I0
I0
tp2064
asg16
I200
sba(imain2
Polygon
p2065
(dp2066
g3
(I134
I58
tp2067
sg5
I200
sg6
(I241
I178
I117
I115
tp2068
sg8
(lp2069
(I179
I58
tp2070
a(I110
I8
tp2071
a(I156
I8
tp2072
a(I179
I9
tp2073
asg16
I200
sba(imain2
Polygon
p2074
(dp2075
g3
(I142
I75
tp2076
sg5
I200
sg6
(I201
I61
I194
I86
tp2077
sg8
(lp2078
(I191
I83
tp2079
a(I154
I36
tp2080
a(I185
I48
tp2081
asg16
I200
sba(imain2
Polygon
p2082
(dp2083
g3
(I129
I65
tp2084
sg5
I200
sg6
(I89
I1
I164
I134
tp2085
sg8
(lp2086
(I155
I65
tp2087
a(I159
I69
tp2088
a(I151
I68
tp2089
asg16
I200
sba(imain2
Polygon
p2090
(dp2091
g3
(I163
I171
tp2092
sg5
I200
sg6
(I199
I12
I130
I1
tp2093
sg8
(lp2094
(I176
I200
tp2095
a(I161
I200
tp2096
a(I114
I159
tp2097
a(I125
I138
tp2098
a(I193
I148
tp2099
a(I200
I169
tp2100
a(I170
I142
tp2101
a(I187
I200
tp2102
a(I113
I164
tp2103
a(I189
I200
tp2104
a(I175
I200
tp2105
a(I200
I124
tp2106
a(I188
I187
tp2107
a(I141
I126
tp2108
a(I113
I200
tp2109
asg16
I200
sba(imain2
Polygon
p2110
(dp2111
g3
(I184
I20
tp2112
sg5
I200
sg6
(I213
I92
I228
I77
tp2113
sg8
(lp2114
(I200
I60
tp2115
a(I200
I0
tp2116
a(I200
I69
tp2117
a(I160
I57
tp2118
a(I140
I0
tp2119
a(I144
I0
tp2120
a(I200
I0
tp2121
a(I200
I0
tp2122
asg16
I200
sba(imain2
Polygon
p2123
(dp2124
g3
(I145
I135
tp2125
sg5
I200
sg6
(I31
I41
I59
I44
tp2126
sg8
(lp2127
(I160
I178
tp2128
a(I183
I129
tp2129
a(I135
I88
tp2130
a(I110
I168
tp2131
a(I166
I183
tp2132
asg16
I200
sba(imain2
Polygon
p2133
(dp2134
g3
(I64
I74
tp2135
sg5
I200
sg6
(I137
I209
I149
I1
tp2136
sg8
(lp2137
(I111
I67
tp2138
a(I74
I124
tp2139
a(I19
I47
tp2140
a(I94
I61
tp2141
asg16
I200
sba(imain2
Polygon
p2142
(dp2143
g3
(I82
I104
tp2144
sg5
I200
sg6
(I48
I155
I198
I1
tp2145
sg8
(lp2146
(I68
I123
tp2147
a(I98
I78
tp2148
a(I80
I128
tp2149
a(I41
I74
tp2150
a(I87
I71
tp2151
a(I92
I82
tp2152
a(I105
I79
tp2153
a(I131
I77
tp2154
a(I51
I70
tp2155
a(I39
I79
tp2156
a(I88
I55
tp2157
asg16
I200
sba(imain2
Polygon
p2158
(dp2159
g3
(I176
I51
tp2160
sg5
I200
sg6
(I114
I211
I85
I1
tp2161
sg8
(lp2162
(I200
I6
tp2163
a(I144
I17
tp2164
a(I137
I58
tp2165
a(I148
I79
tp2166
a(I174
I33
tp2167
asg16
I200
sba(imain2
Polygon
p2168
(dp2169
g3
(I18
I179
tp2170
sg5
I200
sg6
(I9
I98
I96
I43
tp2171
sg8
(lp2172
(I0
I150
tp2173
a(I0
I168
tp2174
a(I0
I198
tp2175
a(I21
I200
tp2176
a(I22
I196
tp2177
a(I36
I190
tp2178
a(I19
I154
tp2179
a(I34
I156
tp2180
asg16
I200
sba(imain2
Polygon
p2181
(dp2182
g3
(I112
I97
tp2183
sg5
I200
sg6
(I96
I199
I68
I55
tp2184
sg8
(lp2185
(I117
I118
tp2186
a(I70
I139
tp2187
a(I97
I92
tp2188
a(I75
I68
tp2189
a(I76
I136
tp2190
a(I93
I140
tp2191
a(I98
I68
tp2192
a(I89
I89
tp2193
a(I130
I88
tp2194
asg16
I200
sba(imain2
Polygon
p2195
(dp2196
g3
(I3
I120
tp2197
sg5
I200
sg6
(I62
I87
I146
I96
tp2198
sg8
(lp2199
(I0
I86
tp2200
a(I0
I74
tp2201
a(I0
I159
tp2202
a(I0
I109
tp2203
a(I43
I80
tp2204
asg16
I200
sba(imain2
Polygon
p2205
(dp2206
g3
(I7
I32
tp2207
sg5
I200
sg6
(I148
I31
I187
I1
tp2208
sg8
(lp2209
(I0
I45
tp2210
a(I0
I27
tp2211
a(I0
I0
tp2212
a(I8
I32
tp2213
a(I38
I59
tp2214
a(I27
I38
tp2215
a(I0
I0
tp2216
a(I0
I62
tp2217
a(I0
I49
tp2218
a(I0
I15
tp2219
a(I0
I75
tp2220
a(I48
I82
tp2221
a(I15
I15
tp2222
a(I0
I0
tp2223
asg16
I200
sba(imain2
Polygon
p2224
(dp2225
g3
(I166
I95
tp2226
sg5
I200
sg6
(I185
I3
I141
I152
tp2227
sg8
(lp2228
(I192
I50
tp2229
a(I200
I127
tp2230
a(I200
I60
tp2231
asg16
I200
sba(imain2
Polygon
p2232
(dp2233
g3
(I197
I92
tp2234
sg5
I200
sg6
(I118
I6
I30
I0
tp2235
sg8
(lp2236
(I200
I101
tp2237
a(I200
I65
tp2238
a(I200
I70
tp2239
a(I161
I97
tp2240
a(I158
I100
tp2241
a(I147
I82
tp2242
a(I200
I78
tp2243
a(I200
I66
tp2244
a(I191
I88
tp2245
a(I154
I82
tp2246
a(I200
I86
tp2247
a(I200
I138
tp2248
a(I147
I62
tp2249
asg16
I200
sba(imain2
Polygon
p2250
(dp2251
g3
(I167
I132
tp2252
sg5
I200
sg6
(I220
I55
I85
I1
tp2253
sg8
(lp2254
(I166
I121
tp2255
a(I157
I116
tp2256
a(I169
I137
tp2257
a(I134
I127
tp2258
a(I188
I175
tp2259
a(I118
I159
tp2260
a(I193
I174
tp2261
a(I175
I142
tp2262
a(I117
I113
tp2263
a(I178
I149
tp2264
a(I154
I153
tp2265
a(I132
I168
tp2266
a(I184
I111
tp2267
a(I200
I101
tp2268
asg16
I200
sba(imain2
Polygon
p2269
(dp2270
g3
(I2
I175
tp2271
sg5
I200
sg6
(I101
I198
I107
I0
tp2272
sg8
(lp2273
(I19
I200
tp2274
a(I0
I128
tp2275
a(I4
I200
tp2276
a(I28
I126
tp2277
asg16
I200
sba(imain2
Polygon
p2278
(dp2279
g3
(I148
I121
tp2280
sg5
I200
sg6
(I128
I198
I133
I24
tp2281
sg8
(lp2282
(I120
I135
tp2283
a(I118
I71
tp2284
a(I101
I103
tp2285
a(I128
I125
tp2286
asg16
I200
sba(imain2
Polygon
p2287
(dp2288
g3
(I26
I154
tp2289
sg5
I200
sg6
(I142
I63
I224
I37
tp2290
sg8
(lp2291
(I52
I148
tp2292
a(I0
I196
tp2293
a(I20
I155
tp2294
asg16
I200
sba(imain2
Polygon
p2295
(dp2296
g3
(I188
I60
tp2297
sg5
I200
sg6
(I22
I76
I8
I52
tp2298
sg8
(lp2299
(I200
I100
tp2300
a(I148
I100
tp2301
a(I139
I27
tp2302
a(I200
I98
tp2303
a(I200
I21
tp2304
a(I200
I12
tp2305
a(I200
I49
tp2306
a(I200
I75
tp2307
asg16
I200
sba(imain2
Polygon
p2308
(dp2309
g3
(I29
I0
tp2310
sg5
I200
sg6
(I200
I201
I8
I90
tp2311
sg8
(lp2312
(I29
I0
tp2313
a(I0
I0
tp2314
a(I50
I36
tp2315
a(I45
I18
tp2316
a(I61
I0
tp2317
a(I0
I0
tp2318
a(I0
I50
tp2319
a(I70
I50
tp2320
a(I0
I0
tp2321
a(I0
I0
tp2322
a(I77
I0
tp2323
a(I74
I14
tp2324
a(I36
I44
tp2325
a(I51
I8
tp2326
a(I74
I0
tp2327
a(I5
I0
tp2328
a(I20
I0
tp2329
asg16
I200
sba(imain2
Polygon
p2330
(dp2331
g3
(I92
I198
tp2332
sg5
I200
sg6
(I138
I2
I13
I64
tp2333
sg8
(lp2334
(I96
I170
tp2335
a(I67
I151
tp2336
a(I90
I200
tp2337
a(I44
I200
tp2338
a(I99
I200
tp2339
a(I73
I181
tp2340
a(I108
I179
tp2341
asg16
I200
sba(imain2
Polygon
p2342
(dp2343
g3
(I149
I42
tp2344
sg5
I200
sg6
(I91
I14
I54
I54
tp2345
sg8
(lp2346
(I145
I16
tp2347
a(I99
I9
tp2348
a(I127
I88
tp2349
a(I167
I91
tp2350
a(I167
I66
tp2351
a(I135
I17
tp2352
a(I145
I8
tp2353
a(I113
I48
tp2354
a(I119
I35
tp2355
asg16
I200
sba(imain2
Polygon
p2356
(dp2357
g3
(I18
I189
tp2358
sg5
I200
sg6
(I70
I8
I170
I0
tp2359
sg8
(lp2360
(I0
I200
tp2361
a(I36
I189
tp2362
a(I9
I200
tp2363
a(I11
I160
tp2364
a(I0
I200
tp2365
a(I5
I167
tp2366
a(I62
I200
tp2367
a(I8
I175
tp2368
a(I8
I170
tp2369
a(I0
I200
tp2370
a(I68
I200
tp2371
a(I56
I183
tp2372
a(I51
I175
tp2373
a(I62
I157
tp2374
a(I0
I178
tp2375
a(I63
I164
tp2376
asg16
I200
sba(imain2
Polygon
p2377
(dp2378
g3
(I88
I199
tp2379
sg5
I200
sg6
(I15
I199
I77
I80
tp2380
sg8
(lp2381
(I40
I200
tp2382
a(I39
I200
tp2383
a(I52
I200
tp2384
a(I46
I200
tp2385
a(I126
I200
tp2386
a(I62
I200
tp2387
a(I70
I200
tp2388
a(I39
I200
tp2389
a(I84
I200
tp2390
asg16
I200
sba(imain2
Polygon
p2391
(dp2392
g3
(I57
I178
tp2393
sg5
I200
sg6
(I20
I119
I163
I0
tp2394
sg8
(lp2395
(I38
I182
tp2396
a(I21
I164
tp2397
a(I85
I189
tp2398
a(I14
I171
tp2399
a(I47
I135
tp2400
a(I21
I200
tp2401
asg16
I200
sba(imain2
Polygon
p2402
(dp2403
g3
(I192
I63
tp2404
sg5
I200
sg6
(I115
I241
I124
I108
tp2405
sg8
(lp2406
(I200
I102
tp2407
a(I200
I19
tp2408
a(I200
I28
tp2409
a(I169
I43
tp2410
a(I142
I25
tp2411
a(I200
I102
tp2412
a(I161
I50
tp2413
a(I175
I96
tp2414
a(I183
I98
tp2415
a(I181
I96
tp2416
asg16
I200
sba(imain2
Polygon
p2417
(dp2418
g3
(I115
I149
tp2419
sg5
I200
sg6
(I105
I195
I239
I0
tp2420
sg8
(lp2421
(I118
I155
tp2422
a(I138
I198
tp2423
a(I102
I100
tp2424
a(I115
I188
tp2425
a(I70
I117
tp2426
a(I84
I110
tp2427
a(I68
I102
tp2428
a(I85
I145
tp2429
a(I67
I194
tp2430
asg16
I200
sba(imain2
Polygon
p2431
(dp2432
g3
(I89
I107
tp2433
sg5
I200
sg6
(I31
I11
I111
I103
tp2434
sg8
(lp2435
(I137
I85
tp2436
a(I129
I120
tp2437
a(I138
I81
tp2438
asg16
I200
sba(imain2
Polygon
p2439
(dp2440
g3
(I87
I130
tp2441
sg5
I200
sg6
(I167
I110
I147
I1
tp2442
sg8
(lp2443
(I48
I159
tp2444
a(I114
I131
tp2445
a(I70
I91
tp2446
a(I111
I140
tp2447
a(I54
I141
tp2448
a(I87
I159
tp2449
a(I132
I175
tp2450
a(I91
I179
tp2451
a(I43
I167
tp2452
asg16
I200
sba(imain2
Polygon
p2453
(dp2454
g3
(I62
I187
tp2455
sg5
I200
sg6
(I112
I14
I175
I55
tp2456
sg8
(lp2457
(I22
I200
tp2458
a(I20
I200
tp2459
a(I38
I200
tp2460
a(I35
I200
tp2461
a(I77
I200
tp2462
a(I98
I200
tp2463
a(I71
I196
tp2464
a(I85
I194
tp2465
a(I71
I200
tp2466
a(I69
I200
tp2467
a(I45
I197
tp2468
asg16
I200
sba(imain2
Polygon
p2469
(dp2470
g3
(I59
I26
tp2471
sg5
I200
sg6
(I60
I4
I237
I0
tp2472
sg8
(lp2473
(I83
I0
tp2474
a(I21
I56
tp2475
a(I81
I0
tp2476
a(I33
I0
tp2477
a(I104
I10
tp2478
a(I67
I25
tp2479
a(I80
I5
tp2480
asg16
I200
sba(imain2
Polygon
p2481
(dp2482
g3
(I74
I59
tp2483
sg5
I200
sg6
(I1
I47
I104
I0
tp2484
sg8
(lp2485
(I84
I47
tp2486
a(I67
I71
tp2487
a(I99
I13
tp2488
a(I67
I44
tp2489
a(I79
I79
tp2490
a(I86
I46
tp2491
a(I39
I17
tp2492
a(I57
I45
tp2493
a(I58
I60
tp2494
asg16
I200
sba(imain2
Polygon
p2495
(dp2496
g3
(I141
I175
tp2497
sg5
I200
sg6
(I87
I37
I10
I0
tp2498
sg8
(lp2499
(I169
I200
tp2500
a(I159
I193
tp2501
a(I119
I183
tp2502
a(I149
I186
tp2503
a(I112
I195
tp2504
a(I173
I200
tp2505
a(I160
I198
tp2506
a(I169
I161
tp2507
a(I155
I171
tp2508
a(I128
I200
tp2509
a(I169
I178
tp2510
a(I136
I145
tp2511
a(I137
I186
tp2512
a(I136
I165
tp2513
a(I153
I172
tp2514
a(I100
I200
tp2515
a(I141
I153
tp2516
a(I146
I197
tp2517
asg16
I200
sba(imain2
Polygon
p2518
(dp2519
g3
(I114
I81
tp2520
sg5
I200
sg6
(I234
I17
I199
I75
tp2521
sg8
(lp2522
(I121
I101
tp2523
a(I107
I74
tp2524
a(I125
I101
tp2525
a(I121
I83
tp2526
asg16
I200
sba(imain2
Polygon
p2527
(dp2528
g3
(I191
I128
tp2529
sg5
I200
sg6
(I244
I3
I244
I13
tp2530
sg8
(lp2531
(I181
I163
tp2532
a(I144
I170
tp2533
a(I200
I104
tp2534
a(I200
I148
tp2535
a(I182
I162
tp2536
a(I187
I85
tp2537
asg16
I200
sba(imain2
Polygon
p2538
(dp2539
g3
(I40
I13
tp2540
sg5
I200
sg6
(I70
I181
I121
I1
tp2541
sg8
(lp2542
(I15
I22
tp2543
a(I55
I33
tp2544
a(I62
I16
tp2545
a(I16
I43
tp2546
a(I84
I0
tp2547
a(I76
I9
tp2548
a(I29
I47
tp2549
a(I0
I0
tp2550
a(I40
I20
tp2551
a(I1
I44
tp2552
a(I45
I0
tp2553
a(I7
I27
tp2554
a(I0
I43
tp2555
a(I44
I9
tp2556
a(I76
I0
tp2557
a(I0
I0
tp2558
a(I19
I16
tp2559
a(I0
I0
tp2560
a(I27
I8
tp2561
asg16
I200
sba(imain2
Polygon
p2562
(dp2563
g3
(I50
I145
tp2564
sg5
I200
sg6
(I56
I210
I123
I17
tp2565
sg8
(lp2566
(I92
I106
tp2567
a(I87
I159
tp2568
a(I56
I101
tp2569
asg16
I200
sba(imain2
Polygon
p2570
(dp2571
g3
(I184
I69
tp2572
sg5
I200
sg6
(I122
I136
I35
I146
tp2573
sg8
(lp2574
(I200
I63
tp2575
a(I200
I31
tp2576
a(I200
I33
tp2577
a(I200
I67
tp2578
a(I164
I71
tp2579
a(I174
I114
tp2580
a(I200
I115
tp2581
a(I200
I101
tp2582
a(I195
I79
tp2583
asg16
I200
sba(imain2
Polygon
p2584
(dp2585
g3
(I6
I29
tp2586
sg5
I200
sg6
(I137
I36
I214
I1
tp2587
sg8
(lp2588
(I56
I14
tp2589
a(I42
I0
tp2590
a(I0
I41
tp2591
a(I21
I50
tp2592
a(I48
I0
tp2593
a(I28
I0
tp2594
a(I21
I47
tp2595
asg16
I200
sba(imain2
Polygon
p2596
(dp2597
g3
(I100
I197
tp2598
sg5
I200
sg6
(I28
I135
I60
I71
tp2599
sg8
(lp2600
(I123
I200
tp2601
a(I79
I200
tp2602
a(I85
I200
tp2603
a(I74
I200
tp2604
a(I80
I200
tp2605
a(I67
I193
tp2606
a(I68
I200
tp2607
a(I62
I200
tp2608
a(I131
I200
tp2609
asg16
I200
sba(imain2
Polygon
p2610
(dp2611
g3
(I102
I67
tp2612
sg5
I200
sg6
(I107
I64
I87
I0
tp2613
sg8
(lp2614
(I123
I103
tp2615
a(I78
I100
tp2616
a(I71
I94
tp2617
a(I73
I48
tp2618
a(I83
I63
tp2619
a(I81
I56
tp2620
a(I96
I113
tp2621
a(I84
I99
tp2622
a(I85
I70
tp2623
asg16
I200
sba(imain2
Polygon
p2624
(dp2625
g3
(I91
I124
tp2626
sg5
I200
sg6
(I166
I67
I8
I120
tp2627
sg8
(lp2628
(I41
I114
tp2629
a(I80
I127
tp2630
a(I83
I75
tp2631
a(I119
I114
tp2632
a(I111
I171
tp2633
a(I45
I142
tp2634
a(I66
I81
tp2635
a(I119
I80
tp2636
a(I129
I117
tp2637
a(I81
I119
tp2638
a(I76
I76
tp2639
a(I54
I89
tp2640
a(I76
I94
tp2641
asg16
I200
sba(imain2
Polygon
p2642
(dp2643
g3
(I133
I74
tp2644
sg5
I200
sg6
(I15
I174
I91
I0
tp2645
sg8
(lp2646
(I93
I104
tp2647
a(I139
I51
tp2648
a(I176
I108
tp2649
a(I157
I40
tp2650
a(I132
I33
tp2651
a(I137
I43
tp2652
a(I178
I48
tp2653
a(I117
I90
tp2654
a(I104
I86
tp2655
a(I95
I100
tp2656
a(I123
I40
tp2657
a(I181
I26
tp2658
a(I95
I85
tp2659
a(I100
I117
tp2660
a(I166
I88
tp2661
a(I171
I56
tp2662
asg16
I200
sba(imain2
Polygon
p2663
(dp2664
g3
(I181
I185
tp2665
sg5
I200
sg6
(I1
I135
I61
I9
tp2666
sg8
(lp2667
(I192
I200
tp2668
a(I200
I200
tp2669
a(I197
I153
tp2670
a(I200
I157
tp2671
asg16
I200
sba(imain2
Polygon
p2672
(dp2673
g3
(I3
I9
tp2674
sg5
I200
sg6
(I113
I13
I42
I117
tp2675
sg8
(lp2676
(I37
I0
tp2677
a(I49
I0
tp2678
a(I0
I0
tp2679
asg16
I200
sba(imain2
Polygon
p2680
(dp2681
g3
(I154
I22
tp2682
sg5
I200
sg6
(I81
I179
I129
I0
tp2683
sg8
(lp2684
(I198
I7
tp2685
a(I180
I27
tp2686
a(I193
I61
tp2687
asg16
I200
sba(imain2
Polygon
p2688
(dp2689
g3
(I3
I51
tp2690
sg5
I200
sg6
(I8
I165
I11
I38
tp2691
sg8
(lp2692
(I0
I63
tp2693
a(I0
I78
tp2694
a(I0
I34
tp2695
asg16
I200
sba(imain2
Polygon
p2696
(dp2697
g3
(I183
I123
tp2698
sg5
I200
sg6
(I43
I171
I188
I96
tp2699
sg8
(lp2700
(I200
I171
tp2701
a(I200
I140
tp2702
a(I200
I152
tp2703
a(I200
I132
tp2704
asg16
I200
sba.