(lp0
(imain2
Polygon
p1
(dp2
S'origin'
p3
(I100
I102
tp4
sS'h'
p5
I200
sS'color'
p6
(I133
I173
I192
I0
tp7
sS'corner_list'
p8
(lp9
(I64
I88
tp10
a(I131
I112
tp11
a(I102
I68
tp12
a(I90
I128
tp13
a(I59
I95
tp14
a(I129
I142
tp15
asS'w'
p16
I200
sba(imain2
Polygon
p17
(dp18
g3
(I142
I122
tp19
sg5
I200
sg6
(I20
I220
I130
I39
tp20
sg8
(lp21
(I132
I116
tp22
a(I95
I104
tp23
a(I106
I160
tp24
a(I177
I137
tp25
a(I109
I157
tp26
a(I93
I95
tp27
a(I119
I85
tp28
a(I188
I130
tp29
a(I166
I82
tp30
a(I192
I113
tp31
a(I136
I104
tp32
a(I134
I86
tp33
a(I102
I138
tp34
asg16
I200
sba(imain2
Polygon
p35
(dp36
g3
(I39
I24
tp37
sg5
I200
sg6
(I241
I164
I201
I1
tp38
sg8
(lp39
(I88
I73
tp40
a(I20
I46
tp41
a(I84
I0
tp42
a(I4
I0
tp43
a(I55
I7
tp44
a(I66
I60
tp45
a(I0
I0
tp46
a(I62
I0
tp47
a(I12
I49
tp48
asg16
I200
sba(imain2
Polygon
p49
(dp50
g3
(I87
I73
tp51
sg5
I200
sg6
(I160
I19
I198
I100
tp52
sg8
(lp53
(I103
I121
tp54
a(I130
I63
tp55
a(I82
I102
tp56
a(I62
I79
tp57
a(I68
I47
tp58
a(I56
I110
tp59
a(I91
I112
tp60
a(I64
I117
tp61
a(I47
I56
tp62
a(I77
I37
tp63
a(I131
I68
tp64
a(I84
I59
tp65
a(I128
I91
tp66
a(I37
I92
tp67
asg16
I200
sba(imain2
Polygon
p68
(dp69
g3
(I75
I185
tp70
sg5
I200
sg6
(I70
I0
I90
I90
tp71
sg8
(lp72
(I90
I200
tp73
a(I125
I163
tp74
a(I123
I140
tp75
a(I120
I200
tp76
a(I72
I200
tp77
a(I68
I195
tp78
a(I98
I174
tp79
asg16
I200
sba(imain2
Polygon
p80
(dp81
g3
(I51
I161
tp82
sg5
I200
sg6
(I131
I134
I16
I102
tp83
sg8
(lp84
(I86
I200
tp85
a(I55
I200
tp86
a(I96
I190
tp87
a(I67
I140
tp88
asg16
I200
sba(imain2
Polygon
p89
(dp90
g3
(I76
I107
tp91
sg5
I200
sg6
(I159
I40
I203
I121
tp92
sg8
(lp93
(I113
I136
tp94
a(I40
I71
tp95
a(I37
I76
tp96
a(I55
I67
tp97
a(I106
I86
tp98
a(I107
I154
tp99
a(I53
I141
tp100
a(I48
I92
tp101
a(I101
I62
tp102
a(I76
I59
tp103
a(I113
I77
tp104
a(I87
I117
tp105
asg16
I200
sba(imain2
Polygon
p106
(dp107
g3
(I79
I45
tp108
sg5
I200
sg6
(I222
I3
I243
I0
tp109
sg8
(lp110
(I52
I93
tp111
a(I83
I20
tp112
a(I37
I47
tp113
a(I39
I66
tp114
a(I102
I24
tp115
asg16
I200
sba(imain2
Polygon
p116
(dp117
g3
(I123
I186
tp118
sg5
I200
sg6
(I49
I16
I43
I0
tp119
sg8
(lp120
(I111
I145
tp121
a(I148
I200
tp122
a(I113
I143
tp123
a(I153
I138
tp124
a(I124
I200
tp125
asg16
I200
sba(imain2
Polygon
p126
(dp127
g3
(I74
I162
tp128
sg5
I200
sg6
(I155
I95
I212
I0
tp129
sg8
(lp130
(I47
I197
tp131
a(I100
I168
tp132
a(I64
I169
tp133
a(I65
I127
tp134
a(I37
I128
tp135
a(I124
I152
tp136
a(I48
I137
tp137
a(I112
I160
tp138
a(I112
I160
tp139
a(I45
I191
tp140
a(I46
I162
tp141
a(I95
I167
tp142
a(I110
I141
tp143
a(I105
I152
tp144
asg16
I200
sba(imain2
Polygon
p145
(dp146
g3
(I64
I120
tp147
sg5
I200
sg6
(I235
I41
I172
I1
tp148
sg8
(lp149
(I113
I141
tp150
a(I65
I100
tp151
a(I92
I162
tp152
a(I105
I141
tp153
asg16
I200
sba(imain2
Polygon
p154
(dp155
g3
(I2
I37
tp156
sg5
I200
sg6
(I135
I135
I101
I115
tp157
sg8
(lp158
(I0
I0
tp159
a(I36
I34
tp160
a(I4
I47
tp161
a(I20
I35
tp162
a(I0
I66
tp163
a(I41
I3
tp164
a(I36
I68
tp165
a(I33
I21
tp166
a(I39
I86
tp167
a(I0
I85
tp168
asg16
I200
sba(imain2
Polygon
p169
(dp170
g3
(I161
I116
tp171
sg5
I200
sg6
(I152
I94
I114
I64
tp172
sg8
(lp173
(I113
I144
tp174
a(I200
I152
tp175
a(I168
I90
tp176
a(I170
I71
tp177
a(I163
I108
tp178
a(I194
I136
tp179
a(I176
I87
tp180
a(I182
I147
tp181
asg16
I200
sba(imain2
Polygon
p182
(dp183
g3
(I171
I44
tp184
sg5
I200
sg6
(I134
I237
I105
I116
tp185
sg8
(lp186
(I200
I15
tp187
a(I157
I22
tp188
a(I200
I89
tp189
a(I200
I0
tp190
a(I132
I0
tp191
a(I134
I87
tp192
a(I133
I52
tp193
a(I161
I77
tp194
a(I200
I93
tp195
a(I143
I0
tp196
a(I170
I71
tp197
a(I148
I77
tp198
a(I125
I35
tp199
asg16
I200
sba(imain2
Polygon
p200
(dp201
g3
(I196
I163
tp202
sg5
I200
sg6
(I38
I167
I6
I35
tp203
sg8
(lp204
(I200
I176
tp205
a(I200
I197
tp206
a(I200
I133
tp207
a(I200
I134
tp208
a(I193
I170
tp209
a(I200
I141
tp210
a(I155
I170
tp211
a(I200
I182
tp212
a(I198
I171
tp213
a(I200
I143
tp214
a(I170
I173
tp215
a(I179
I115
tp216
a(I171
I129
tp217
asg16
I200
sba(imain2
Polygon
p218
(dp219
g3
(I123
I35
tp220
sg5
I200
sg6
(I144
I61
I71
I1
tp221
sg8
(lp222
(I150
I83
tp223
a(I173
I33
tp224
a(I145
I0
tp225
a(I98
I0
tp226
a(I158
I15
tp227
a(I90
I72
tp228
a(I93
I22
tp229
a(I94
I0
tp230
a(I172
I74
tp231
asg16
I200
sba(imain2
Polygon
p232
(dp233
g3
(I38
I152
tp234
sg5
I200
sg6
(I95
I165
I34
I137
tp235
sg8
(lp236
(I87
I136
tp237
a(I79
I127
tp238
a(I49
I126
tp239
a(I73
I158
tp240
asg16
I200
sba(imain2
Polygon
p241
(dp242
g3
(I118
I157
tp243
sg5
I200
sg6
(I87
I63
I44
I1
tp244
sg8
(lp245
(I75
I131
tp246
a(I152
I159
tp247
a(I115
I173
tp248
a(I150
I150
tp249
asg16
I200
sba(imain2
Polygon
p250
(dp251
g3
(I10
I175
tp252
sg5
I200
sg6
(I175
I54
I61
I19
tp253
sg8
(lp254
(I0
I200
tp255
a(I0
I134
tp256
a(I0
I200
tp257
a(I0
I168
tp258
a(I0
I183
tp259
a(I0
I200
tp260
asg16
I200
sba(imain2
Polygon
p261
(dp262
g3
(I4
I131
tp263
sg5
I200
sg6
(I124
I53
I63
I0
tp264
sg8
(lp265
(I25
I135
tp266
a(I41
I127
tp267
a(I29
I157
tp268
a(I0
I148
tp269
a(I0
I167
tp270
a(I18
I159
tp271
a(I0
I176
tp272
a(I0
I119
tp273
a(I37
I152
tp274
a(I0
I164
tp275
a(I0
I97
tp276
a(I15
I132
tp277
asg16
I200
sba(imain2
Polygon
p278
(dp279
g3
(I75
I51
tp280
sg5
I200
sg6
(I104
I198
I0
I15
tp281
sg8
(lp282
(I92
I83
tp283
a(I27
I68
tp284
a(I121
I74
tp285
a(I102
I1
tp286
a(I105
I56
tp287
a(I115
I39
tp288
a(I32
I21
tp289
asg16
I200
sba(imain2
Polygon
p290
(dp291
g3
(I18
I101
tp292
sg5
I200
sg6
(I0
I12
I70
I57
tp293
sg8
(lp294
(I28
I94
tp295
a(I15
I116
tp296
a(I0
I56
tp297
a(I5
I78
tp298
a(I4
I107
tp299
a(I0
I79
tp300
a(I0
I130
tp301
a(I45
I64
tp302
asg16
I200
sba(imain2
Polygon
p303
(dp304
g3
(I97
I199
tp305
sg5
I200
sg6
(I0
I109
I46
I120
tp306
sg8
(lp307
(I133
I197
tp308
a(I104
I199
tp309
a(I131
I200
tp310
a(I104
I200
tp311
a(I77
I191
tp312
a(I146
I200
tp313
a(I121
I200
tp314
a(I103
I160
tp315
a(I97
I158
tp316
a(I87
I180
tp317
a(I69
I200
tp318
a(I87
I171
tp319
a(I99
I160
tp320
asg16
I200
sba(imain2
Polygon
p321
(dp322
g3
(I102
I104
tp323
sg5
I200
sg6
(I220
I124
I129
I75
tp324
sg8
(lp325
(I105
I151
tp326
a(I105
I63
tp327
a(I59
I58
tp328
a(I57
I131
tp329
a(I74
I153
tp330
asg16
I200
sba(imain2
Polygon
p331
(dp332
g3
(I177
I176
tp333
sg5
I200
sg6
(I112
I207
I217
I48
tp334
sg8
(lp335
(I200
I138
tp336
a(I167
I145
tp337
a(I200
I200
tp338
asg16
I200
sba(imain2
Polygon
p339
(dp340
g3
(I99
I27
tp341
sg5
I200
sg6
(I74
I84
I1
I112
tp342
sg8
(lp343
(I143
I0
tp344
a(I53
I0
tp345
a(I97
I73
tp346
a(I139
I50
tp347
asg16
I200
sba(imain2
Polygon
p348
(dp349
g3
(I138
I156
tp350
sg5
I200
sg6
(I19
I58
I187
I1
tp351
sg8
(lp352
(I134
I187
tp353
a(I141
I197
tp354
a(I111
I148
tp355
asg16
I200
sba(imain2
Polygon
p356
(dp357
g3
(I100
I129
tp358
sg5
I200
sg6
(I113
I216
I221
I0
tp359
sg8
(lp360
(I64
I131
tp361
a(I90
I132
tp362
a(I118
I84
tp363
asg16
I200
sba(imain2
Polygon
p364
(dp365
g3
(I90
I2
tp366
sg5
I200
sg6
(I195
I195
I2
I2
tp367
sg8
(lp368
(I116
I0
tp369
a(I84
I39
tp370
a(I122
I0
tp371
a(I49
I48
tp372
a(I90
I51
tp373
a(I89
I45
tp374
a(I60
I1
tp375
a(I89
I0
tp376
a(I107
I0
tp377
asg16
I200
sba(imain2
Polygon
p378
(dp379
g3
(I76
I49
tp380
sg5
I200
sg6
(I246
I165
I178
I101
tp381
sg8
(lp382
(I52
I54
tp383
a(I62
I34
tp384
a(I99
I36
tp385
a(I124
I78
tp386
a(I91
I88
tp387
a(I47
I82
tp388
asg16
I200
sba(imain2
Polygon
p389
(dp390
g3
(I135
I193
tp391
sg5
I200
sg6
(I204
I201
I63
I1
tp392
sg8
(lp393
(I150
I200
tp394
a(I124
I200
tp395
a(I132
I166
tp396
a(I91
I200
tp397
a(I178
I191
tp398
a(I113
I200
tp399
a(I129
I171
tp400
a(I119
I183
tp401
a(I149
I200
tp402
asg16
I200
sba(imain2
Polygon
p403
(dp404
g3
(I156
I197
tp405
sg5
I200
sg6
(I79
I234
I80
I12
tp406
sg8
(lp407
(I183
I162
tp408
a(I198
I200
tp409
a(I122
I200
tp410
a(I108
I171
tp411
a(I167
I158
tp412
asg16
I200
sba(imain2
Polygon
p413
(dp414
g3
(I159
I95
tp415
sg5
I200
sg6
(I164
I24
I16
I0
tp416
sg8
(lp417
(I176
I110
tp418
a(I198
I135
tp419
a(I114
I45
tp420
a(I200
I98
tp421
a(I116
I98
tp422
a(I158
I80
tp423
a(I153
I85
tp424
a(I163
I133
tp425
a(I111
I61
tp426
asg16
I200
sba(imain2
Polygon
p427
(dp428
g3
(I130
I187
tp429
sg5
I200
sg6
(I177
I73
I86
I73
tp430
sg8
(lp431
(I138
I200
tp432
a(I152
I194
tp433
a(I100
I200
tp434
a(I168
I192
tp435
a(I164
I200
tp436
a(I97
I159
tp437
a(I90
I200
tp438
asg16
I200
sba(imain2
Polygon
p439
(dp440
g3
(I56
I194
tp441
sg5
I200
sg6
(I191
I173
I1
I37
tp442
sg8
(lp443
(I6
I200
tp444
a(I26
I200
tp445
a(I15
I171
tp446
a(I36
I176
tp447
a(I17
I200
tp448
a(I23
I200
tp449
a(I6
I200
tp450
a(I75
I169
tp451
asg16
I200
sba(imain2
Polygon
p452
(dp453
g3
(I180
I160
tp454
sg5
I200
sg6
(I30
I41
I108
I61
tp455
sg8
(lp456
(I192
I143
tp457
a(I162
I139
tp458
a(I182
I184
tp459
a(I200
I167
tp460
a(I196
I176
tp461
a(I200
I161
tp462
a(I197
I200
tp463
a(I161
I136
tp464
a(I200
I128
tp465
asg16
I200
sba(imain2
Polygon
p466
(dp467
g3
(I12
I87
tp468
sg5
I200
sg6
(I50
I131
I182
I10
tp469
sg8
(lp470
(I0
I89
tp471
a(I0
I54
tp472
a(I22
I67
tp473
a(I36
I59
tp474
a(I18
I37
tp475
a(I8
I123
tp476
a(I1
I124
tp477
asg16
I200
sba(imain2
Polygon
p478
(dp479
g3
(I123
I91
tp480
sg5
I200
sg6
(I232
I0
I184
I67
tp481
sg8
(lp482
(I93
I69
tp483
a(I99
I140
tp484
a(I124
I58
tp485
a(I77
I102
tp486
a(I122
I119
tp487
asg16
I200
sba(imain2
Polygon
p488
(dp489
g3
(I80
I122
tp490
sg5
I200
sg6
(I220
I176
I139
I78
tp491
sg8
(lp492
(I116
I143
tp493
a(I129
I85
tp494
a(I44
I101
tp495
a(I75
I158
tp496
asg16
I200
sba(imain2
Polygon
p497
(dp498
g3
(I119
I156
tp499
sg5
I200
sg6
(I125
I215
I195
I46
tp500
sg8
(lp501
(I96
I178
tp502
a(I141
I200
tp503
a(I121
I144
tp504
a(I90
I178
tp505
a(I70
I199
tp506
a(I133
I200
tp507
a(I69
I119
tp508
a(I111
I144
tp509
a(I69
I110
tp510
a(I132
I145
tp511
asg16
I200
sba(imain2
Polygon
p512
(dp513
g3
(I66
I96
tp514
sg5
I200
sg6
(I109
I72
I64
I108
tp515
sg8
(lp516
(I24
I133
tp517
a(I20
I88
tp518
a(I24
I60
tp519
a(I64
I124
tp520
a(I72
I129
tp521
a(I100
I145
tp522
a(I30
I82
tp523
a(I36
I114
tp524
asg16
I200
sba(imain2
Polygon
p525
(dp526
g3
(I17
I178
tp527
sg5
I200
sg6
(I82
I65
I13
I0
tp528
sg8
(lp529
(I0
I175
tp530
a(I1
I200
tp531
a(I0
I174
tp532
a(I0
I200
tp533
a(I34
I135
tp534
a(I20
I150
tp535
a(I0
I128
tp536
a(I24
I133
tp537
asg16
I200
sba(imain2
Polygon
p538
(dp539
g3
(I196
I157
tp540
sg5
I200
sg6
(I27
I207
I68
I0
tp541
sg8
(lp542
(I200
I151
tp543
a(I200
I130
tp544
a(I200
I114
tp545
a(I200
I161
tp546
a(I200
I170
tp547
a(I200
I120
tp548
a(I152
I198
tp549
a(I200
I169
tp550
a(I189
I185
tp551
a(I165
I144
tp552
a(I168
I182
tp553
a(I183
I146
tp554
a(I200
I174
tp555
a(I200
I134
tp556
a(I200
I166
tp557
a(I163
I117
tp558
a(I155
I146
tp559
a(I161
I119
tp560
a(I200
I151
tp561
asg16
I200
sba(imain2
Polygon
p562
(dp563
g3
(I7
I138
tp564
sg5
I200
sg6
(I209
I109
I10
I0
tp565
sg8
(lp566
(I51
I90
tp567
a(I47
I188
tp568
a(I30
I114
tp569
a(I0
I163
tp570
a(I11
I151
tp571
a(I0
I88
tp572
a(I0
I180
tp573
a(I37
I159
tp574
a(I0
I96
tp575
a(I2
I141
tp576
a(I29
I156
tp577
a(I15
I108
tp578
a(I0
I141
tp579
asg16
I200
sba(imain2
Polygon
p580
(dp581
g3
(I49
I75
tp582
sg5
I200
sg6
(I117
I229
I15
I26
tp583
sg8
(lp584
(I97
I31
tp585
a(I96
I95
tp586
a(I60
I123
tp587
a(I38
I118
tp588
a(I35
I74
tp589
a(I91
I46
tp590
a(I35
I64
tp591
a(I75
I88
tp592
a(I0
I118
tp593
a(I3
I64
tp594
a(I8
I49
tp595
a(I41
I49
tp596
a(I47
I83
tp597
a(I67
I65
tp598
asg16
I200
sba(imain2
Polygon
p599
(dp600
g3
(I75
I73
tp601
sg5
I200
sg6
(I161
I134
I136
I138
tp602
sg8
(lp603
(I108
I39
tp604
a(I122
I103
tp605
a(I47
I117
tp606
a(I62
I34
tp607
asg16
I200
sba(imain2
Polygon
p608
(dp609
g3
(I82
I103
tp610
sg5
I200
sg6
(I96
I97
I59
I0
tp611
sg8
(lp612
(I120
I107
tp613
a(I85
I103
tp614
a(I48
I94
tp615
a(I124
I68
tp616
a(I36
I91
tp617
a(I67
I133
tp618
a(I113
I64
tp619
a(I72
I75
tp620
a(I131
I64
tp621
a(I118
I113
tp622
a(I60
I69
tp623
a(I59
I57
tp624
a(I114
I87
tp625
a(I41
I99
tp626
a(I93
I107
tp627
a(I106
I80
tp628
a(I72
I77
tp629
a(I33
I114
tp630
a(I54
I64
tp631
a(I90
I59
tp632
asg16
I200
sba(imain2
Polygon
p633
(dp634
g3
(I126
I26
tp635
sg5
I200
sg6
(I238
I182
I126
I113
tp636
sg8
(lp637
(I138
I12
tp638
a(I156
I0
tp639
a(I122
I21
tp640
a(I87
I0
tp641
a(I148
I0
tp642
a(I77
I0
tp643
a(I162
I0
tp644
a(I175
I33
tp645
a(I168
I75
tp646
asg16
I200
sba(imain2
Polygon
p647
(dp648
g3
(I128
I23
tp649
sg5
I200
sg6
(I106
I1
I85
I0
tp650
sg8
(lp651
(I92
I66
tp652
a(I156
I0
tp653
a(I137
I0
tp654
a(I147
I0
tp655
a(I102
I0
tp656
a(I172
I68
tp657
a(I142
I0
tp658
a(I153
I43
tp659
a(I116
I0
tp660
a(I87
I56
tp661
a(I136
I59
tp662
a(I153
I0
tp663
a(I144
I0
tp664
a(I92
I33
tp665
asg16
I200
sba(imain2
Polygon
p666
(dp667
g3
(I147
I59
tp668
sg5
I200
sg6
(I0
I240
I189
I71
tp669
sg8
(lp670
(I164
I32
tp671
a(I155
I19
tp672
a(I167
I25
tp673
asg16
I200
sba(imain2
Polygon
p674
(dp675
g3
(I105
I192
tp676
sg5
I200
sg6
(I178
I21
I174
I1
tp677
sg8
(lp678
(I150
I178
tp679
a(I76
I200
tp680
a(I97
I200
tp681
a(I101
I200
tp682
asg16
I200
sba(imain2
Polygon
p683
(dp684
g3
(I144
I60
tp685
sg5
I200
sg6
(I60
I234
I8
I1
tp686
sg8
(lp687
(I100
I77
tp688
a(I160
I42
tp689
a(I131
I18
tp690
a(I136
I52
tp691
a(I115
I19
tp692
a(I164
I68
tp693
asg16
I200
sba(imain2
Polygon
p694
(dp695
g3
(I177
I86
tp696
sg5
I200
sg6
(I168
I33
I16
I0
tp697
sg8
(lp698
(I152
I97
tp699
a(I179
I46
tp700
a(I165
I74
tp701
a(I192
I40
tp702
a(I200
I88
tp703
a(I200
I55
tp704
a(I141
I67
tp705
asg16
I200
sba(imain2
Polygon
p706
(dp707
g3
(I157
I117
tp708
sg5
I200
sg6
(I43
I29
I0
I71
tp709
sg8
(lp710
(I188
I133
tp711
a(I200
I147
tp712
a(I128
I75
tp713
a(I142
I67
tp714
a(I200
I80
tp715
a(I183
I145
tp716
a(I150
I138
tp717
a(I189
I84
tp718
asg16
I200
sba(imain2
Polygon
p719
(dp720
g3
(I155
I192
tp721
sg5
I200
sg6
(I1
I37
I195
I0
tp722
sg8
(lp723
(I200
I165
tp724
a(I145
I200
tp725
a(I137
I160
tp726
a(I111
I200
tp727
a(I147
I154
tp728
a(I187
I169
tp729
a(I176
I183
tp730
a(I120
I188
tp731
a(I153
I200
tp732
asg16
I200
sba(imain2
Polygon
p733
(dp734
g3
(I103
I158
tp735
sg5
I200
sg6
(I13
I45
I119
I71
tp736
sg8
(lp737
(I107
I154
tp738
a(I87
I181
tp739
a(I57
I174
tp740
a(I121
I144
tp741
a(I99
I154
tp742
a(I131
I117
tp743
a(I66
I200
tp744
a(I105
I140
tp745
a(I96
I148
tp746
asg16
I200
sba(imain2
Polygon
p747
(dp748
g3
(I9
I151
tp749
sg5
I200
sg6
(I123
I83
I57
I38
tp750
sg8
(lp751
(I0
I173
tp752
a(I0
I189
tp753
a(I0
I115
tp754
a(I21
I130
tp755
a(I0
I157
tp756
a(I6
I192
tp757
a(I44
I122
tp758
a(I0
I159
tp759
asg16
I200
sba(imain2
Polygon
p760
(dp761
g3
(I114
I115
tp762
sg5
I200
sg6
(I168
I159
I140
I9
tp763
sg8
(lp764
(I66
I160
tp765
a(I76
I66
tp766
a(I64
I113
tp767
a(I74
I70
tp768
a(I89
I155
tp769
a(I64
I162
tp770
asg16
I200
sba(imain2
Polygon
p771
(dp772
g3
(I114
I99
tp773
sg5
I200
sg6
(I61
I240
I9
I54
tp774
sg8
(lp775
(I110
I120
tp776
a(I128
I108
tp777
a(I126
I70
tp778
a(I104
I71
tp779
a(I150
I79
tp780
a(I95
I94
tp781
a(I72
I108
tp782
a(I82
I55
tp783
a(I70
I56
tp784
a(I67
I105
tp785
a(I103
I135
tp786
a(I65
I93
tp787
a(I139
I67
tp788
asg16
I200
sba(imain2
Polygon
p789
(dp790
g3
(I173
I62
tp791
sg5
I200
sg6
(I1
I42
I168
I108
tp792
sg8
(lp793
(I200
I82
tp794
a(I200
I84
tp795
a(I153
I79
tp796
a(I192
I90
tp797
a(I146
I61
tp798
asg16
I200
sba(imain2
Polygon
p799
(dp800
g3
(I199
I171
tp801
sg5
I200
sg6
(I1
I236
I13
I32
tp802
sg8
(lp803
(I200
I200
tp804
a(I200
I186
tp805
a(I199
I149
tp806
asg16
I200
sba(imain2
Polygon
p807
(dp808
g3
(I195
I126
tp809
sg5
I200
sg6
(I211
I219
I28
I0
tp810
sg8
(lp811
(I146
I99
tp812
a(I199
I161
tp813
a(I200
I147
tp814
a(I200
I164
tp815
a(I196
I163
tp816
a(I200
I114
tp817
a(I175
I79
tp818
a(I200
I91
tp819
a(I188
I145
tp820
a(I179
I163
tp821
a(I183
I169
tp822
a(I199
I106
tp823
asg16
I200
sba(imain2
Polygon
p824
(dp825
g3
(I51
I190
tp826
sg5
I200
sg6
(I126
I173
I100
I72
tp827
sg8
(lp828
(I40
I200
tp829
a(I11
I200
tp830
a(I36
I200
tp831
a(I60
I200
tp832
a(I96
I168
tp833
a(I97
I200
tp834
a(I55
I200
tp835
a(I3
I200
tp836
a(I35
I200
tp837
a(I70
I200
tp838
asg16
I200
sba(imain2
Polygon
p839
(dp840
g3
(I200
I5
tp841
sg5
I200
sg6
(I187
I108
I44
I0
tp842
sg8
(lp843
(I200
I50
tp844
a(I165
I53
tp845
a(I165
I28
tp846
a(I200
I17
tp847
a(I185
I0
tp848
a(I167
I0
tp849
a(I179
I16
tp850
a(I200
I24
tp851
asg16
I200
sba(imain2
Polygon
p852
(dp853
g3
(I147
I166
tp854
sg5
I200
sg6
(I116
I241
I224
I19
tp855
sg8
(lp856
(I127
I142
tp857
a(I108
I131
tp858
a(I136
I187
tp859
a(I107
I165
tp860
a(I123
I166
tp861
a(I132
I125
tp862
a(I103
I176
tp863
a(I124
I199
tp864
asg16
I200
sba(imain2
Polygon
p865
(dp866
g3
(I16
I191
tp867
sg5
I200
sg6
(I129
I47
I223
I0
tp868
sg8
(lp869
(I0
I200
tp870
a(I0
I154
tp871
a(I59
I200
tp872
a(I55
I168
tp873
asg16
I200
sba(imain2
Polygon
p874
(dp875
g3
(I94
I9
tp876
sg5
I200
sg6
(I200
I52
I21
I0
tp877
sg8
(lp878
(I134
I41
tp879
a(I52
I39
tp880
a(I93
I29
tp881
a(I64
I48
tp882
a(I105
I0
tp883
a(I101
I37
tp884
a(I53
I5
tp885
a(I46
I24
tp886
a(I116
I28
tp887
a(I109
I0
tp888
a(I137
I18
tp889
asg16
I200
sba(imain2
Polygon
p890
(dp891
g3
(I111
I113
tp892
sg5
I200
sg6
(I90
I31
I146
I0
tp893
sg8
(lp894
(I83
I120
tp895
a(I85
I110
tp896
a(I161
I131
tp897
a(I74
I126
tp898
asg16
I200
sba(imain2
Polygon
p899
(dp900
g3
(I10
I81
tp901
sg5
I200
sg6
(I220
I163
I194
I1
tp902
sg8
(lp903
(I60
I131
tp904
a(I0
I33
tp905
a(I0
I62
tp906
a(I12
I107
tp907
a(I0
I101
tp908
a(I60
I111
tp909
a(I0
I116
tp910
a(I0
I111
tp911
a(I0
I105
tp912
a(I37
I113
tp913
asg16
I200
sba(imain2
Polygon
p914
(dp915
g3
(I10
I22
tp916
sg5
I200
sg6
(I218
I207
I108
I76
tp917
sg8
(lp918
(I13
I31
tp919
a(I41
I0
tp920
a(I52
I43
tp921
a(I8
I71
tp922
a(I0
I70
tp923
a(I12
I0
tp924
a(I0
I0
tp925
a(I0
I66
tp926
a(I13
I7
tp927
a(I32
I64
tp928
a(I26
I4
tp929
asg16
I200
sba(imain2
Polygon
p930
(dp931
g3
(I19
I169
tp932
sg5
I200
sg6
(I90
I217
I81
I1
tp933
sg8
(lp934
(I49
I128
tp935
a(I44
I183
tp936
a(I20
I192
tp937
asg16
I200
sba(imain2
Polygon
p938
(dp939
g3
(I194
I7
tp940
sg5
I200
sg6
(I165
I92
I134
I12
tp941
sg8
(lp942
(I200
I0
tp943
a(I200
I0
tp944
a(I200
I29
tp945
a(I160
I25
tp946
a(I200
I5
tp947
a(I200
I55
tp948
a(I200
I0
tp949
a(I172
I55
tp950
a(I180
I0
tp951
a(I153
I25
tp952
asg16
I200
sba(imain2
Polygon
p953
(dp954
g3
(I42
I15
tp955
sg5
I200
sg6
(I149
I137
I166
I1
tp956
sg8
(lp957
(I42
I56
tp958
a(I43
I0
tp959
a(I62
I3
tp960
a(I0
I65
tp961
a(I0
I8
tp962
a(I63
I19
tp963
a(I53
I38
tp964
a(I0
I10
tp965
a(I68
I0
tp966
a(I17
I0
tp967
asg16
I200
sba(imain2
Polygon
p968
(dp969
g3
(I183
I77
tp970
sg5
I200
sg6
(I25
I142
I28
I40
tp971
sg8
(lp972
(I176
I77
tp973
a(I200
I75
tp974
a(I200
I86
tp975
a(I156
I32
tp976
a(I200
I40
tp977
a(I190
I28
tp978
a(I191
I96
tp979
asg16
I200
sba(imain2
Polygon
p980
(dp981
g3
(I190
I45
tp982
sg5
I200
sg6
(I178
I46
I185
I1
tp983
sg8
(lp984
(I200
I43
tp985
a(I200
I26
tp986
a(I152
I86
tp987
a(I200
I14
tp988
a(I200
I31
tp989
a(I179
I86
tp990
a(I200
I7
tp991
a(I200
I81
tp992
a(I158
I35
tp993
a(I200
I70
tp994
asg16
I200
sba(imain2
Polygon
p995
(dp996
g3
(I115
I69
tp997
sg5
I200
sg6
(I0
I121
I192
I1
tp998
sg8
(lp999
(I77
I118
tp1000
a(I67
I86
tp1001
a(I84
I62
tp1002
a(I109
I36
tp1003
a(I128
I106
tp1004
asg16
I200
sba(imain2
Polygon
p1005
(dp1006
g3
(I173
I121
tp1007
sg5
I200
sg6
(I243
I56
I22
I0
tp1008
sg8
(lp1009
(I164
I100
tp1010
a(I161
I155
tp1011
a(I185
I134
tp1012
a(I200
I136
tp1013
a(I200
I144
tp1014
a(I200
I89
tp1015
a(I192
I111
tp1016
a(I182
I154
tp1017
a(I142
I141
tp1018
asg16
I200
sba(imain2
Polygon
p1019
(dp1020
g3
(I45
I135
tp1021
sg5
I200
sg6
(I150
I127
I179
I52
tp1022
sg8
(lp1023
(I7
I177
tp1024
a(I21
I178
tp1025
a(I23
I86
tp1026
a(I0
I183
tp1027
a(I35
I86
tp1028
a(I9
I89
tp1029
a(I10
I100
tp1030
asg16
I200
sba(imain2
Polygon
p1031
(dp1032
g3
(I61
I48
tp1033
sg5
I200
sg6
(I77
I35
I123
I129
tp1034
sg8
(lp1035
(I71
I86
tp1036
a(I81
I91
tp1037
a(I73
I78
tp1038
a(I47
I85
tp1039
a(I68
I93
tp1040
a(I86
I72
tp1041
a(I85
I73
tp1042
a(I53
I98
tp1043
asg16
I200
sba(imain2
Polygon
p1044
(dp1045
g3
(I96
I154
tp1046
sg5
I200
sg6
(I149
I185
I187
I66
tp1047
sg8
(lp1048
(I51
I113
tp1049
a(I57
I106
tp1050
a(I90
I200
tp1051
a(I142
I200
tp1052
a(I53
I114
tp1053
a(I124
I143
tp1054
asg16
I200
sba(imain2
Polygon
p1055
(dp1056
g3
(I32
I146
tp1057
sg5
I200
sg6
(I62
I240
I71
I113
tp1058
sg8
(lp1059
(I0
I157
tp1060
a(I0
I165
tp1061
a(I0
I132
tp1062
asg16
I200
sba(imain2
Polygon
p1063
(dp1064
g3
(I3
I120
tp1065
sg5
I200
sg6
(I186
I178
I17
I56
tp1066
sg8
(lp1067
(I38
I71
tp1068
a(I0
I72
tp1069
a(I0
I90
tp1070
a(I0
I104
tp1071
a(I0
I132
tp1072
a(I20
I116
tp1073
asg16
I200
sba(imain2
Polygon
p1074
(dp1075
g3
(I74
I152
tp1076
sg5
I200
sg6
(I59
I80
I126
I0
tp1077
sg8
(lp1078
(I76
I114
tp1079
a(I80
I138
tp1080
a(I96
I106
tp1081
a(I119
I167
tp1082
a(I81
I127
tp1083
a(I67
I141
tp1084
a(I58
I155
tp1085
a(I118
I127
tp1086
a(I81
I105
tp1087
a(I88
I139
tp1088
asg16
I200
sba(imain2
Polygon
p1089
(dp1090
g3
(I31
I192
tp1091
sg5
I200
sg6
(I154
I33
I135
I1
tp1092
sg8
(lp1093
(I0
I173
tp1094
a(I8
I189
tp1095
a(I0
I200
tp1096
a(I5
I196
tp1097
a(I36
I200
tp1098
a(I80
I200
tp1099
a(I50
I144
tp1100
a(I25
I200
tp1101
a(I51
I189
tp1102
a(I41
I172
tp1103
a(I22
I162
tp1104
a(I17
I200
tp1105
a(I7
I200
tp1106
a(I79
I157
tp1107
a(I34
I200
tp1108
a(I31
I164
tp1109
a(I0
I200
tp1110
asg16
I200
sba(imain2
Polygon
p1111
(dp1112
g3
(I99
I149
tp1113
sg5
I200
sg6
(I190
I32
I204
I1
tp1114
sg8
(lp1115
(I110
I116
tp1116
a(I103
I184
tp1117
a(I140
I139
tp1118
a(I124
I139
tp1119
a(I114
I142
tp1120
a(I144
I195
tp1121
a(I115
I191
tp1122
a(I49
I180
tp1123
a(I149
I178
tp1124
a(I124
I194
tp1125
a(I133
I121
tp1126
a(I103
I151
tp1127
a(I123
I124
tp1128
asg16
I200
sba(imain2
Polygon
p1129
(dp1130
g3
(I183
I115
tp1131
sg5
I200
sg6
(I21
I109
I179
I151
tp1132
sg8
(lp1133
(I200
I102
tp1134
a(I200
I98
tp1135
a(I165
I93
tp1136
a(I200
I102
tp1137
a(I193
I132
tp1138
a(I181
I84
tp1139
a(I200
I87
tp1140
asg16
I200
sba(imain2
Polygon
p1141
(dp1142
g3
(I141
I107
tp1143
sg5
I200
sg6
(I79
I146
I85
I152
tp1144
sg8
(lp1145
(I115
I124
tp1146
a(I95
I75
tp1147
a(I111
I152
tp1148
asg16
I200
sba(imain2
Polygon
p1149
(dp1150
g3
(I149
I72
tp1151
sg5
I200
sg6
(I64
I107
I166
I36
tp1152
sg8
(lp1153
(I160
I35
tp1154
a(I195
I56
tp1155
a(I155
I38
tp1156
a(I99
I25
tp1157
a(I173
I40
tp1158
a(I128
I80
tp1159
a(I150
I68
tp1160
a(I99
I71
tp1161
a(I150
I68
tp1162
a(I153
I27
tp1163
a(I107
I42
tp1164
asg16
I200
sba(imain2
Polygon
p1165
(dp1166
g3
(I67
I128
tp1167
sg5
I200
sg6
(I212
I148
I54
I39
tp1168
sg8
(lp1169
(I106
I157
tp1170
a(I63
I86
tp1171
a(I108
I113
tp1172
a(I115
I152
tp1173
a(I62
I84
tp1174
a(I27
I94
tp1175
a(I55
I110
tp1176
a(I44
I110
tp1177
asg16
I200
sba(imain2
Polygon
p1178
(dp1179
g3
(I183
I44
tp1180
sg5
I200
sg6
(I81
I11
I172
I1
tp1181
sg8
(lp1182
(I200
I4
tp1183
a(I200
I76
tp1184
a(I200
I50
tp1185
a(I184
I85
tp1186
a(I167
I15
tp1187
a(I190
I1
tp1188
asg16
I200
sba(imain2
Polygon
p1189
(dp1190
g3
(I100
I61
tp1191
sg5
I200
sg6
(I201
I97
I42
I49
tp1192
sg8
(lp1193
(I56
I38
tp1194
a(I99
I64
tp1195
a(I91
I106
tp1196
a(I96
I24
tp1197
a(I95
I52
tp1198
a(I85
I86
tp1199
a(I74
I24
tp1200
a(I135
I84
tp1201
a(I53
I108
tp1202
a(I109
I45
tp1203
a(I103
I84
tp1204
asg16
I200
sba(imain2
Polygon
p1205
(dp1206
g3
(I52
I190
tp1207
sg5
I200
sg6
(I175
I148
I50
I89
tp1208
sg8
(lp1209
(I71
I200
tp1210
a(I89
I171
tp1211
a(I102
I200
tp1212
a(I94
I200
tp1213
a(I95
I200
tp1214
asg16
I200
sba(imain2
Polygon
p1215
(dp1216
g3
(I151
I65
tp1217
sg5
I200
sg6
(I64
I180
I1
I106
tp1218
sg8
(lp1219
(I176
I54
tp1220
a(I179
I51
tp1221
a(I192
I90
tp1222
a(I176
I89
tp1223
a(I165
I61
tp1224
a(I111
I63
tp1225
a(I119
I77
tp1226
a(I169
I47
tp1227
a(I152
I61
tp1228
asg16
I200
sba(imain2
Polygon
p1229
(dp1230
g3
(I67
I20
tp1231
sg5
I200
sg6
(I165
I93
I189
I113
tp1232
sg8
(lp1233
(I17
I0
tp1234
a(I29
I39
tp1235
a(I114
I0
tp1236
a(I27
I0
tp1237
a(I55
I0
tp1238
a(I113
I0
tp1239
asg16
I200
sba(imain2
Polygon
p1240
(dp1241
g3
(I199
I56
tp1242
sg5
I200
sg6
(I160
I0
I108
I1
tp1243
sg8
(lp1244
(I200
I61
tp1245
a(I165
I70
tp1246
a(I200
I88
tp1247
a(I200
I83
tp1248
a(I181
I100
tp1249
a(I188
I9
tp1250
a(I198
I104
tp1251
a(I188
I15
tp1252
a(I200
I90
tp1253
a(I200
I16
tp1254
asg16
I200
sba(imain2
Polygon
p1255
(dp1256
g3
(I185
I38
tp1257
sg5
I200
sg6
(I128
I218
I68
I163
tp1258
sg8
(lp1259
(I200
I69
tp1260
a(I200
I0
tp1261
a(I196
I0
tp1262
a(I154
I0
tp1263
a(I146
I42
tp1264
a(I200
I5
tp1265
a(I168
I28
tp1266
a(I142
I46
tp1267
a(I155
I22
tp1268
a(I181
I67
tp1269
a(I187
I70
tp1270
a(I138
I0
tp1271
a(I200
I50
tp1272
a(I141
I1
tp1273
a(I171
I85
tp1274
a(I189
I82
tp1275
asg16
I200
sba(imain2
Polygon
p1276
(dp1277
g3
(I67
I149
tp1278
sg5
I200
sg6
(I93
I206
I214
I48
tp1279
sg8
(lp1280
(I111
I118
tp1281
a(I92
I149
tp1282
a(I45
I104
tp1283
a(I59
I150
tp1284
a(I108
I132
tp1285
a(I64
I107
tp1286
a(I75
I131
tp1287
a(I86
I156
tp1288
asg16
I200
sba(imain2
Polygon
p1289
(dp1290
g3
(I21
I182
tp1291
sg5
I200
sg6
(I112
I116
I0
I91
tp1292
sg8
(lp1293
(I67
I200
tp1294
a(I0
I160
tp1295
a(I59
I164
tp1296
a(I20
I169
tp1297
a(I35
I196
tp1298
a(I41
I200
tp1299
a(I0
I181
tp1300
a(I19
I200
tp1301
a(I0
I143
tp1302
a(I13
I200
tp1303
a(I0
I144
tp1304
a(I0
I194
tp1305
a(I27
I167
tp1306
a(I13
I195
tp1307
a(I28
I152
tp1308
a(I0
I133
tp1309
a(I47
I191
tp1310
asg16
I200
sba(imain2
Polygon
p1311
(dp1312
g3
(I145
I176
tp1313
sg5
I200
sg6
(I185
I171
I0
I40
tp1314
sg8
(lp1315
(I109
I200
tp1316
a(I101
I200
tp1317
a(I138
I200
tp1318
a(I120
I137
tp1319
a(I98
I200
tp1320
a(I105
I200
tp1321
asg16
I200
sba(imain2
Polygon
p1322
(dp1323
g3
(I102
I21
tp1324
sg5
I200
sg6
(I181
I178
I187
I60
tp1325
sg8
(lp1326
(I129
I69
tp1327
a(I61
I26
tp1328
a(I53
I14
tp1329
a(I104
I12
tp1330
a(I146
I25
tp1331
a(I143
I7
tp1332
a(I142
I0
tp1333
a(I59
I0
tp1334
a(I54
I68
tp1335
asg16
I200
sba(imain2
Polygon
p1336
(dp1337
g3
(I154
I30
tp1338
sg5
I200
sg6
(I49
I97
I60
I0
tp1339
sg8
(lp1340
(I145
I6
tp1341
a(I198
I0
tp1342
a(I124
I34
tp1343
a(I200
I56
tp1344
a(I169
I73
tp1345
a(I162
I48
tp1346
a(I140
I39
tp1347
a(I200
I33
tp1348
a(I195
I27
tp1349
a(I155
I0
tp1350
asg16
I200
sba(imain2
Polygon
p1351
(dp1352
g3
(I171
I178
tp1353
sg5
I200
sg6
(I94
I229
I32
I10
tp1354
sg8
(lp1355
(I151
I200
tp1356
a(I200
I176
tp1357
a(I200
I200
tp1358
a(I200
I195
tp1359
a(I200
I135
tp1360
a(I150
I187
tp1361
a(I133
I189
tp1362
asg16
I200
sba(imain2
Polygon
p1363
(dp1364
g3
(I189
I152
tp1365
sg5
I200
sg6
(I248
I70
I182
I1
tp1366
sg8
(lp1367
(I199
I159
tp1368
a(I173
I117
tp1369
a(I200
I166
tp1370
a(I200
I155
tp1371
a(I176
I108
tp1372
a(I182
I182
tp1373
a(I200
I166
tp1374
a(I162
I141
tp1375
a(I181
I110
tp1376
asg16
I200
sba(imain2
Polygon
p1377
(dp1378
g3
(I158
I122
tp1379
sg5
I200
sg6
(I43
I1
I156
I44
tp1380
sg8
(lp1381
(I182
I80
tp1382
a(I180
I97
tp1383
a(I200
I145
tp1384
a(I199
I82
tp1385
a(I166
I100
tp1386
a(I200
I140
tp1387
a(I200
I99
tp1388
a(I190
I85
tp1389
a(I131
I110
tp1390
a(I139
I107
tp1391
a(I200
I74
tp1392
asg16
I200
sba(imain2
Polygon
p1393
(dp1394
g3
(I89
I194
tp1395
sg5
I200
sg6
(I227
I76
I38
I1
tp1396
sg8
(lp1397
(I121
I200
tp1398
a(I61
I194
tp1399
a(I129
I168
tp1400
a(I124
I176
tp1401
a(I130
I164
tp1402
a(I129
I200
tp1403
a(I50
I147
tp1404
a(I84
I196
tp1405
a(I108
I183
tp1406
a(I64
I164
tp1407
a(I93
I163
tp1408
a(I121
I186
tp1409
asg16
I200
sba(imain2
Polygon
p1410
(dp1411
g3
(I185
I89
tp1412
sg5
I200
sg6
(I164
I1
I220
I1
tp1413
sg8
(lp1414
(I178
I125
tp1415
a(I200
I77
tp1416
a(I190
I122
tp1417
a(I200
I70
tp1418
a(I200
I43
tp1419
a(I200
I118
tp1420
a(I200
I94
tp1421
a(I200
I128
tp1422
a(I200
I84
tp1423
a(I154
I50
tp1424
a(I138
I104
tp1425
a(I187
I87
tp1426
asg16
I200
sba(imain2
Polygon
p1427
(dp1428
g3
(I67
I129
tp1429
sg5
I200
sg6
(I73
I192
I59
I131
tp1430
sg8
(lp1431
(I62
I136
tp1432
a(I117
I80
tp1433
a(I78
I170
tp1434
a(I114
I112
tp1435
a(I112
I100
tp1436
a(I49
I126
tp1437
a(I93
I98
tp1438
a(I71
I138
tp1439
a(I61
I148
tp1440
a(I109
I141
tp1441
a(I87
I119
tp1442
a(I87
I107
tp1443
a(I75
I92
tp1444
a(I84
I146
tp1445
a(I52
I135
tp1446
a(I91
I173
tp1447
asg16
I200
sba(imain2
Polygon
p1448
(dp1449
g3
(I95
I80
tp1450
sg5
I200
sg6
(I220
I89
I22
I131
tp1451
sg8
(lp1452
(I121
I57
tp1453
a(I47
I53
tp1454
a(I58
I130
tp1455
a(I113
I109
tp1456
a(I61
I47
tp1457
a(I144
I120
tp1458
a(I133
I109
tp1459
asg16
I200
sba(imain2
Polygon
p1460
(dp1461
g3
(I14
I45
tp1462
sg5
I200
sg6
(I224
I0
I43
I110
tp1463
sg8
(lp1464
(I2
I89
tp1465
a(I0
I82
tp1466
a(I58
I24
tp1467
a(I17
I21
tp1468
a(I38
I90
tp1469
a(I10
I95
tp1470
asg16
I200
sba(imain2
Polygon
p1471
(dp1472
g3
(I34
I35
tp1473
sg5
I200
sg6
(I108
I9
I202
I28
tp1474
sg8
(lp1475
(I2
I0
tp1476
a(I0
I84
tp1477
a(I51
I56
tp1478
a(I42
I28
tp1479
a(I53
I81
tp1480
a(I39
I34
tp1481
a(I34
I0
tp1482
asg16
I200
sba(imain2
Polygon
p1483
(dp1484
g3
(I127
I147
tp1485
sg5
I200
sg6
(I118
I173
I188
I81
tp1486
sg8
(lp1487
(I102
I146
tp1488
a(I112
I167
tp1489
a(I161
I125
tp1490
a(I99
I100
tp1491
a(I112
I159
tp1492
a(I126
I158
tp1493
a(I164
I118
tp1494
a(I80
I133
tp1495
a(I125
I141
tp1496
a(I106
I116
tp1497
a(I85
I144
tp1498
a(I105
I137
tp1499
a(I148
I117
tp1500
a(I108
I109
tp1501
a(I88
I127
tp1502
a(I120
I132
tp1503
asg16
I200
sba(imain2
Polygon
p1504
(dp1505
g3
(I88
I106
tp1506
sg5
I200
sg6
(I189
I12
I60
I121
tp1507
sg8
(lp1508
(I127
I64
tp1509
a(I90
I146
tp1510
a(I117
I112
tp1511
asg16
I200
sba(imain2
Polygon
p1512
(dp1513
g3
(I11
I134
tp1514
sg5
I200
sg6
(I75
I180
I94
I102
tp1515
sg8
(lp1516
(I0
I183
tp1517
a(I0
I95
tp1518
a(I0
I108
tp1519
a(I0
I157
tp1520
a(I0
I145
tp1521
a(I12
I180
tp1522
a(I18
I183
tp1523
asg16
I200
sba(imain2
Polygon
p1524
(dp1525
g3
(I174
I141
tp1526
sg5
I200
sg6
(I114
I238
I93
I87
tp1527
sg8
(lp1528
(I200
I172
tp1529
a(I200
I120
tp1530
a(I192
I135
tp1531
a(I175
I139
tp1532
asg16
I200
sba(imain2
Polygon
p1533
(dp1534
g3
(I68
I44
tp1535
sg5
I200
sg6
(I3
I229
I128
I53
tp1536
sg8
(lp1537
(I40
I52
tp1538
a(I19
I82
tp1539
a(I62
I45
tp1540
a(I75
I72
tp1541
asg16
I200
sba(imain2
Polygon
p1542
(dp1543
g3
(I80
I68
tp1544
sg5
I200
sg6
(I77
I16
I16
I43
tp1545
sg8
(lp1546
(I35
I25
tp1547
a(I52
I50
tp1548
a(I34
I66
tp1549
a(I53
I18
tp1550
a(I117
I21
tp1551
a(I103
I35
tp1552
a(I40
I26
tp1553
a(I52
I99
tp1554
a(I43
I18
tp1555
a(I106
I28
tp1556
a(I97
I30
tp1557
a(I37
I35
tp1558
a(I66
I42
tp1559
a(I83
I18
tp1560
asg16
I200
sba(imain2
Polygon
p1561
(dp1562
g3
(I120
I143
tp1563
sg5
I200
sg6
(I152
I159
I83
I0
tp1564
sg8
(lp1565
(I157
I118
tp1566
a(I157
I180
tp1567
a(I104
I174
tp1568
a(I143
I95
tp1569
a(I91
I139
tp1570
a(I154
I138
tp1571
a(I91
I159
tp1572
a(I161
I105
tp1573
a(I110
I93
tp1574
a(I111
I169
tp1575
a(I99
I158
tp1576
a(I141
I96
tp1577
a(I86
I100
tp1578
a(I157
I112
tp1579
asg16
I200
sba(imain2
Polygon
p1580
(dp1581
g3
(I47
I43
tp1582
sg5
I200
sg6
(I224
I145
I62
I45
tp1583
sg8
(lp1584
(I94
I47
tp1585
a(I85
I78
tp1586
a(I7
I93
tp1587
a(I8
I45
tp1588
a(I5
I0
tp1589
a(I26
I10
tp1590
a(I20
I39
tp1591
a(I21
I40
tp1592
a(I74
I3
tp1593
a(I39
I37
tp1594
a(I25
I26
tp1595
a(I49
I4
tp1596
a(I96
I0
tp1597
asg16
I200
sba(imain2
Polygon
p1598
(dp1599
g3
(I6
I165
tp1600
sg5
I200
sg6
(I194
I52
I158
I69
tp1601
sg8
(lp1602
(I0
I168
tp1603
a(I0
I123
tp1604
a(I0
I200
tp1605
asg16
I200
sba(imain2
Polygon
p1606
(dp1607
g3
(I125
I173
tp1608
sg5
I200
sg6
(I91
I30
I33
I129
tp1609
sg8
(lp1610
(I145
I181
tp1611
a(I132
I145
tp1612
a(I161
I166
tp1613
a(I125
I138
tp1614
a(I143
I200
tp1615
a(I165
I200
tp1616
a(I85
I166
tp1617
a(I93
I145
tp1618
a(I79
I141
tp1619
a(I139
I163
tp1620
a(I157
I200
tp1621
a(I143
I189
tp1622
asg16
I200
sba(imain2
Polygon
p1623
(dp1624
g3
(I63
I154
tp1625
sg5
I200
sg6
(I122
I160
I3
I1
tp1626
sg8
(lp1627
(I96
I189
tp1628
a(I79
I108
tp1629
a(I64
I124
tp1630
a(I70
I140
tp1631
a(I13
I125
tp1632
a(I27
I140
tp1633
a(I80
I153
tp1634
a(I45
I194
tp1635
a(I109
I112
tp1636
asg16
I200
sba(imain2
Polygon
p1637
(dp1638
g3
(I152
I171
tp1639
sg5
I200
sg6
(I192
I4
I227
I0
tp1640
sg8
(lp1641
(I175
I186
tp1642
a(I142
I132
tp1643
a(I143
I159
tp1644
a(I167
I200
tp1645
a(I158
I122
tp1646
a(I190
I161
tp1647
a(I139
I139
tp1648
a(I180
I200
tp1649
a(I171
I163
tp1650
asg16
I200
sba(imain2
Polygon
p1651
(dp1652
g3
(I67
I143
tp1653
sg5
I200
sg6
(I71
I72
I132
I124
tp1654
sg8
(lp1655
(I100
I175
tp1656
a(I102
I173
tp1657
a(I113
I130
tp1658
asg16
I200
sba(imain2
Polygon
p1659
(dp1660
g3
(I153
I79
tp1661
sg5
I200
sg6
(I135
I30
I162
I0
tp1662
sg8
(lp1663
(I140
I47
tp1664
a(I105
I124
tp1665
a(I146
I107
tp1666
a(I163
I87
tp1667
a(I105
I69
tp1668
a(I175
I77
tp1669
a(I178
I72
tp1670
a(I151
I121
tp1671
a(I148
I111
tp1672
a(I132
I57
tp1673
asg16
I200
sba(imain2
Polygon
p1674
(dp1675
g3
(I142
I192
tp1676
sg5
I200
sg6
(I51
I237
I2
I7
tp1677
sg8
(lp1678
(I175
I159
tp1679
a(I94
I200
tp1680
a(I109
I192
tp1681
a(I170
I191
tp1682
a(I159
I195
tp1683
a(I123
I197
tp1684
a(I115
I176
tp1685
asg16
I200
sba(imain2
Polygon
p1686
(dp1687
g3
(I144
I12
tp1688
sg5
I200
sg6
(I189
I74
I99
I1
tp1689
sg8
(lp1690
(I142
I44
tp1691
a(I176
I0
tp1692
a(I104
I0
tp1693
a(I143
I52
tp1694
a(I127
I44
tp1695
a(I178
I0
tp1696
a(I176
I62
tp1697
a(I147
I12
tp1698
a(I190
I2
tp1699
a(I107
I0
tp1700
a(I108
I0
tp1701
a(I111
I37
tp1702
asg16
I200
sba(imain2
Polygon
p1703
(dp1704
g3
(I144
I92
tp1705
sg5
I200
sg6
(I224
I44
I149
I153
tp1706
sg8
(lp1707
(I165
I66
tp1708
a(I181
I55
tp1709
a(I188
I72
tp1710
a(I171
I70
tp1711
asg16
I200
sba(imain2
Polygon
p1712
(dp1713
g3
(I167
I23
tp1714
sg5
I200
sg6
(I171
I31
I242
I13
tp1715
sg8
(lp1716
(I170
I58
tp1717
a(I142
I0
tp1718
a(I200
I70
tp1719
a(I200
I14
tp1720
a(I155
I0
tp1721
a(I191
I17
tp1722
a(I177
I46
tp1723
a(I166
I58
tp1724
a(I200
I0
tp1725
a(I190
I67
tp1726
a(I200
I10
tp1727
asg16
I200
sba(imain2
Polygon
p1728
(dp1729
g3
(I200
I102
tp1730
sg5
I200
sg6
(I50
I232
I149
I55
tp1731
sg8
(lp1732
(I161
I70
tp1733
a(I178
I55
tp1734
a(I200
I103
tp1735
a(I200
I120
tp1736
a(I200
I145
tp1737
a(I181
I124
tp1738
a(I200
I66
tp1739
a(I200
I76
tp1740
a(I175
I81
tp1741
a(I200
I61
tp1742
a(I200
I99
tp1743
a(I180
I53
tp1744
asg16
I200
sba(imain2
Polygon
p1745
(dp1746
g3
(I20
I176
tp1747
sg5
I200
sg6
(I11
I203
I1
I1
tp1748
sg8
(lp1749
(I26
I196
tp1750
a(I28
I200
tp1751
a(I0
I200
tp1752
a(I65
I153
tp1753
a(I0
I196
tp1754
a(I0
I200
tp1755
a(I43
I145
tp1756
a(I42
I151
tp1757
a(I48
I148
tp1758
a(I0
I189
tp1759
a(I31
I140
tp1760
a(I59
I184
tp1761
a(I45
I161
tp1762
asg16
I200
sba(imain2
Polygon
p1763
(dp1764
g3
(I51
I87
tp1765
sg5
I200
sg6
(I98
I177
I47
I75
tp1766
sg8
(lp1767
(I68
I80
tp1768
a(I34
I48
tp1769
a(I30
I71
tp1770
a(I59
I118
tp1771
a(I60
I82
tp1772
a(I3
I114
tp1773
a(I4
I50
tp1774
a(I85
I81
tp1775
a(I40
I55
tp1776
a(I72
I112
tp1777
a(I94
I79
tp1778
a(I73
I95
tp1779
a(I90
I82
tp1780
asg16
I200
sba(imain2
Polygon
p1781
(dp1782
g3
(I124
I18
tp1783
sg5
I200
sg6
(I59
I202
I233
I1
tp1784
sg8
(lp1785
(I104
I18
tp1786
a(I86
I4
tp1787
a(I74
I0
tp1788
a(I103
I0
tp1789
a(I162
I0
tp1790
asg16
I200
sba(imain2
Polygon
p1791
(dp1792
g3
(I170
I179
tp1793
sg5
I200
sg6
(I139
I190
I58
I16
tp1794
sg8
(lp1795
(I170
I150
tp1796
a(I140
I155
tp1797
a(I146
I200
tp1798
a(I200
I129
tp1799
a(I200
I200
tp1800
a(I200
I200
tp1801
a(I129
I168
tp1802
a(I156
I140
tp1803
asg16
I200
sba(imain2
Polygon
p1804
(dp1805
g3
(I93
I4
tp1806
sg5
I200
sg6
(I125
I127
I0
I139
tp1807
sg8
(lp1808
(I78
I36
tp1809
a(I51
I53
tp1810
a(I63
I0
tp1811
a(I57
I28
tp1812
a(I47
I35
tp1813
a(I62
I48
tp1814
a(I51
I52
tp1815
asg16
I200
sba(imain2
Polygon
p1816
(dp1817
g3
(I33
I157
tp1818
sg5
I200
sg6
(I38
I119
I127
I0
tp1819
sg8
(lp1820
(I46
I107
tp1821
a(I36
I149
tp1822
a(I72
I120
tp1823
a(I68
I171
tp1824
a(I66
I120
tp1825
a(I55
I190
tp1826
a(I43
I145
tp1827
a(I9
I140
tp1828
a(I1
I120
tp1829
a(I69
I135
tp1830
asg16
I200
sba(imain2
Polygon
p1831
(dp1832
g3
(I91
I9
tp1833
sg5
I200
sg6
(I68
I184
I13
I1
tp1834
sg8
(lp1835
(I117
I56
tp1836
a(I135
I0
tp1837
a(I59
I54
tp1838
a(I135
I0
tp1839
a(I120
I0
tp1840
a(I54
I0
tp1841
a(I138
I30
tp1842
a(I132
I0
tp1843
a(I122
I0
tp1844
a(I103
I52
tp1845
a(I88
I12
tp1846
asg16
I200
sba(imain2
Polygon
p1847
(dp1848
g3
(I50
I13
tp1849
sg5
I200
sg6
(I92
I178
I162
I126
tp1850
sg8
(lp1851
(I31
I61
tp1852
a(I18
I56
tp1853
a(I8
I0
tp1854
a(I75
I18
tp1855
a(I7
I0
tp1856
a(I82
I0
tp1857
asg16
I200
sba(imain2
Polygon
p1858
(dp1859
g3
(I157
I108
tp1860
sg5
I200
sg6
(I128
I118
I2
I97
tp1861
sg8
(lp1862
(I168
I137
tp1863
a(I108
I127
tp1864
a(I123
I82
tp1865
a(I135
I90
tp1866
a(I108
I149
tp1867
a(I172
I125
tp1868
a(I193
I83
tp1869
a(I200
I120
tp1870
a(I184
I155
tp1871
a(I158
I147
tp1872
a(I188
I141
tp1873
asg16
I200
sba(imain2
Polygon
p1874
(dp1875
g3
(I7
I150
tp1876
sg5
I200
sg6
(I178
I11
I57
I29
tp1877
sg8
(lp1878
(I20
I124
tp1879
a(I0
I142
tp1880
a(I57
I154
tp1881
a(I0
I115
tp1882
a(I0
I123
tp1883
a(I45
I176
tp1884
a(I0
I184
tp1885
a(I0
I137
tp1886
a(I0
I158
tp1887
a(I0
I157
tp1888
a(I0
I118
tp1889
a(I0
I147
tp1890
a(I51
I116
tp1891
asg16
I200
sba(imain2
Polygon
p1892
(dp1893
g3
(I89
I125
tp1894
sg5
I200
sg6
(I43
I0
I215
I22
tp1895
sg8
(lp1896
(I82
I163
tp1897
a(I51
I118
tp1898
a(I89
I136
tp1899
a(I58
I104
tp1900
a(I76
I125
tp1901
a(I45
I157
tp1902
a(I54
I146
tp1903
asg16
I200
sba(imain2
Polygon
p1904
(dp1905
g3
(I18
I178
tp1906
sg5
I200
sg6
(I88
I164
I42
I109
tp1907
sg8
(lp1908
(I0
I148
tp1909
a(I43
I193
tp1910
a(I10
I175
tp1911
a(I0
I137
tp1912
a(I4
I137
tp1913
a(I23
I175
tp1914
asg16
I200
sba(imain2
Polygon
p1915
(dp1916
g3
(I81
I53
tp1917
sg5
I200
sg6
(I217
I84
I80
I1
tp1918
sg8
(lp1919
(I89
I81
tp1920
a(I80
I7
tp1921
a(I89
I58
tp1922
a(I129
I88
tp1923
a(I130
I38
tp1924
a(I60
I86
tp1925
a(I62
I57
tp1926
a(I38
I32
tp1927
a(I66
I43
tp1928
a(I31
I48
tp1929
a(I65
I35
tp1930
asg16
I200
sba(imain2
Polygon
p1931
(dp1932
g3
(I117
I32
tp1933
sg5
I200
sg6
(I167
I186
I83
I1
tp1934
sg8
(lp1935
(I71
I5
tp1936
a(I154
I0
tp1937
a(I110
I15
tp1938
asg16
I200
sba(imain2
Polygon
p1939
(dp1940
g3
(I79
I140
tp1941
sg5
I200
sg6
(I227
I1
I161
I48
tp1942
sg8
(lp1943
(I108
I95
tp1944
a(I107
I173
tp1945
a(I52
I148
tp1946
a(I123
I97
tp1947
a(I103
I173
tp1948
a(I75
I159
tp1949
a(I115
I149
tp1950
a(I80
I158
tp1951
asg16
I200
sba(imain2
Polygon
p1952
(dp1953
g3
(I26
I4
tp1954
sg5
I200
sg6
(I197
I74
I71
I0
tp1955
sg8
(lp1956
(I49
I0
tp1957
a(I23
I0
tp1958
a(I25
I0
tp1959
a(I70
I0
tp1960
a(I0
I0
tp1961
a(I24
I39
tp1962
a(I21
I0
tp1963
a(I0
I33
tp1964
asg16
I200
sba(imain2
Polygon
p1965
(dp1966
g3
(I15
I121
tp1967
sg5
I200
sg6
(I1
I223
I151
I1
tp1968
sg8
(lp1969
(I58
I148
tp1970
a(I33
I98
tp1971
a(I0
I90
tp1972
a(I46
I95
tp1973
a(I0
I74
tp1974
a(I0
I135
tp1975
a(I46
I142
tp1976
a(I0
I113
tp1977
a(I59
I105
tp1978
a(I65
I135
tp1979
a(I0
I154
tp1980
a(I0
I107
tp1981
asg16
I200
sba(imain2
Polygon
p1982
(dp1983
g3
(I163
I195
tp1984
sg5
I200
sg6
(I11
I151
I193
I20
tp1985
sg8
(lp1986
(I127
I200
tp1987
a(I125
I198
tp1988
a(I169
I200
tp1989
a(I178
I174
tp1990
a(I157
I200
tp1991
a(I122
I197
tp1992
a(I147
I164
tp1993
a(I127
I200
tp1994
a(I196
I200
tp1995
a(I200
I200
tp1996
asg16
I200
sba(imain2
Polygon
p1997
(dp1998
g3
(I118
I106
tp1999
sg5
I200
sg6
(I7
I134
I124
I126
tp2000
sg8
(lp2001
(I132
I104
tp2002
a(I163
I65
tp2003
a(I102
I87
tp2004
a(I125
I104
tp2005
a(I139
I123
tp2006
a(I123
I91
tp2007
a(I151
I66
tp2008
a(I130
I116
tp2009
a(I127
I105
tp2010
a(I140
I99
tp2011
asg16
I200
sba(imain2
Polygon
p2012
(dp2013
g3
(I56
I6
tp2014
sg5
I200
sg6
(I199
I2
I176
I1
tp2015
sg8
(lp2016
(I101
I52
tp2017
a(I95
I24
tp2018
a(I10
I3
tp2019
a(I16
I0
tp2020
a(I49
I0
tp2021
asg16
I200
sba(imain2
Polygon
p2022
(dp2023
g3
(I174
I69
tp2024
sg5
I200
sg6
(I120
I39
I48
I114
tp2025
sg8
(lp2026
(I167
I52
tp2027
a(I200
I44
tp2028
a(I160
I53
tp2029
a(I200
I119
tp2030
a(I196
I88
tp2031
a(I200
I90
tp2032
a(I151
I40
tp2033
a(I126
I41
tp2034
a(I140
I30
tp2035
a(I128
I48
tp2036
a(I130
I47
tp2037
a(I135
I43
tp2038
a(I183
I53
tp2039
asg16
I200
sba(imain2
Polygon
p2040
(dp2041
g3
(I0
I30
tp2042
sg5
I200
sg6
(I173
I42
I102
I0
tp2043
sg8
(lp2044
(I0
I38
tp2045
a(I8
I59
tp2046
a(I44
I18
tp2047
a(I0
I57
tp2048
a(I0
I25
tp2049
a(I0
I19
tp2050
asg16
I200
sba(imain2
Polygon
p2051
(dp2052
g3
(I134
I58
tp2053
sg5
I200
sg6
(I243
I179
I117
I119
tp2054
sg8
(lp2055
(I179
I47
tp2056
a(I110
I8
tp2057
a(I156
I8
tp2058
a(I179
I9
tp2059
asg16
I200
sba(imain2
Polygon
p2060
(dp2061
g3
(I142
I75
tp2062
sg5
I200
sg6
(I201
I61
I194
I93
tp2063
sg8
(lp2064
(I191
I83
tp2065
a(I154
I36
tp2066
a(I185
I48
tp2067
asg16
I200
sba(imain2
Polygon
p2068
(dp2069
g3
(I129
I65
tp2070
sg5
I200
sg6
(I89
I1
I165
I142
tp2071
sg8
(lp2072
(I155
I65
tp2073
a(I159
I69
tp2074
a(I151
I68
tp2075
asg16
I200
sba(imain2
Polygon
p2076
(dp2077
g3
(I163
I171
tp2078
sg5
I200
sg6
(I199
I12
I132
I1
tp2079
sg8
(lp2080
(I176
I200
tp2081
a(I127
I183
tp2082
a(I164
I123
tp2083
a(I125
I138
tp2084
a(I193
I148
tp2085
a(I200
I169
tp2086
a(I170
I142
tp2087
a(I130
I173
tp2088
a(I129
I187
tp2089
a(I189
I200
tp2090
a(I200
I191
tp2091
a(I128
I180
tp2092
a(I123
I148
tp2093
a(I142
I200
tp2094
a(I200
I168
tp2095
a(I128
I200
tp2096
asg16
I200
sba(imain2
Polygon
p2097
(dp2098
g3
(I184
I20
tp2099
sg5
I200
sg6
(I214
I93
I228
I85
tp2100
sg8
(lp2101
(I196
I58
tp2102
a(I200
I0
tp2103
a(I200
I69
tp2104
a(I152
I52
tp2105
a(I166
I14
tp2106
a(I144
I0
tp2107
a(I200
I0
tp2108
a(I200
I0
tp2109
asg16
I200
sba(imain2
Polygon
p2110
(dp2111
g3
(I145
I135
tp2112
sg5
I200
sg6
(I31
I42
I59
I51
tp2113
sg8
(lp2114
(I160
I178
tp2115
a(I183
I129
tp2116
a(I135
I88
tp2117
a(I123
I105
tp2118
a(I110
I168
tp2119
a(I166
I183
tp2120
asg16
I200
sba(imain2
Polygon
p2121
(dp2122
g3
(I64
I74
tp2123
sg5
I200
sg6
(I138
I209
I150
I1
tp2124
sg8
(lp2125
(I111
I67
tp2126
a(I74
I124
tp2127
a(I19
I47
tp2128
a(I101
I34
tp2129
asg16
I200
sba(imain2
Polygon
p2130
(dp2131
g3
(I82
I104
tp2132
sg5
I200
sg6
(I48
I155
I199
I1
tp2133
sg8
(lp2134
(I68
I123
tp2135
a(I112
I114
tp2136
a(I80
I128
tp2137
a(I121
I69
tp2138
a(I87
I71
tp2139
a(I92
I82
tp2140
a(I105
I79
tp2141
a(I74
I119
tp2142
a(I51
I70
tp2143
a(I39
I79
tp2144
asg16
I200
sba(imain2
Polygon
p2145
(dp2146
g3
(I176
I51
tp2147
sg5
I200
sg6
(I114
I211
I86
I1
tp2148
sg8
(lp2149
(I200
I6
tp2150
a(I144
I17
tp2151
a(I200
I32
tp2152
a(I157
I85
tp2153
a(I200
I14
tp2154
asg16
I200
sba(imain2
Polygon
p2155
(dp2156
g3
(I18
I179
tp2157
sg5
I200
sg6
(I11
I98
I97
I50
tp2158
sg8
(lp2159
(I14
I200
tp2160
a(I0
I168
tp2161
a(I0
I198
tp2162
a(I21
I200
tp2163
a(I38
I177
tp2164
a(I48
I200
tp2165
a(I19
I154
tp2166
asg16
I200
sba(imain2
Polygon
p2167
(dp2168
g3
(I112
I97
tp2169
sg5
I200
sg6
(I97
I199
I68
I63
tp2170
sg8
(lp2171
(I117
I118
tp2172
a(I70
I139
tp2173
a(I97
I92
tp2174
a(I106
I74
tp2175
a(I76
I136
tp2176
a(I71
I104
tp2177
a(I93
I140
tp2178
a(I73
I120
tp2179
a(I89
I89
tp2180
a(I130
I88
tp2181
asg16
I200
sba(imain2
Polygon
p2182
(dp2183
g3
(I3
I120
tp2184
sg5
I200
sg6
(I62
I88
I147
I106
tp2185
sg8
(lp2186
(I0
I86
tp2187
a(I0
I74
tp2188
a(I0
I94
tp2189
a(I0
I109
tp2190
a(I43
I80
tp2191
asg16
I200
sba(imain2
Polygon
p2192
(dp2193
g3
(I7
I32
tp2194
sg5
I200
sg6
(I148
I32
I188
I0
tp2195
sg8
(lp2196
(I0
I0
tp2197
a(I0
I27
tp2198
a(I0
I45
tp2199
a(I38
I80
tp2200
a(I38
I59
tp2201
a(I27
I38
tp2202
a(I0
I0
tp2203
a(I0
I19
tp2204
a(I48
I81
tp2205
a(I7
I43
tp2206
a(I0
I75
tp2207
a(I37
I19
tp2208
a(I0
I0
tp2209
a(I0
I0
tp2210
a(I44
I0
tp2211
asg16
I200
sba(imain2
Polygon
p2212
(dp2213
g3
(I166
I95
tp2214
sg5
I200
sg6
(I186
I4
I142
I157
tp2215
sg8
(lp2216
(I192
I50
tp2217
a(I200
I127
tp2218
a(I200
I60
tp2219
asg16
I200
sba(imain2
Polygon
p2220
(dp2221
g3
(I197
I92
tp2222
sg5
I200
sg6
(I119
I7
I30
I0
tp2223
sg8
(lp2224
(I158
I90
tp2225
a(I199
I90
tp2226
a(I200
I99
tp2227
a(I161
I97
tp2228
a(I158
I100
tp2229
a(I168
I58
tp2230
a(I200
I78
tp2231
a(I150
I107
tp2232
a(I191
I56
tp2233
a(I200
I105
tp2234
a(I200
I42
tp2235
a(I162
I59
tp2236
a(I200
I49
tp2237
asg16
I200
sba(imain2
Polygon
p2238
(dp2239
g3
(I167
I132
tp2240
sg5
I200
sg6
(I220
I57
I86
I1
tp2241
sg8
(lp2242
(I199
I128
tp2243
a(I130
I126
tp2244
a(I200
I134
tp2245
a(I134
I127
tp2246
a(I130
I182
tp2247
a(I200
I112
tp2248
a(I188
I122
tp2249
a(I175
I142
tp2250
a(I117
I113
tp2251
a(I170
I164
tp2252
a(I154
I153
tp2253
a(I132
I168
tp2254
a(I184
I111
tp2255
a(I135
I154
tp2256
a(I144
I132
tp2257
asg16
I200
sba(imain2
Polygon
p2258
(dp2259
g3
(I2
I175
tp2260
sg5
I200
sg6
(I102
I198
I107
I0
tp2261
sg8
(lp2262
(I49
I138
tp2263
a(I0
I128
tp2264
a(I4
I200
tp2265
asg16
I200
sba(imain2
Polygon
p2266
(dp2267
g3
(I148
I121
tp2268
sg5
I200
sg6
(I129
I198
I133
I29
tp2269
sg8
(lp2270
(I121
I139
tp2271
a(I118
I71
tp2272
a(I101
I103
tp2273
a(I128
I125
tp2274
a(I137
I105
tp2275
asg16
I200
sba(imain2
Polygon
p2276
(dp2277
g3
(I26
I154
tp2278
sg5
I200
sg6
(I144
I65
I225
I43
tp2279
sg8
(lp2280
(I35
I156
tp2281
a(I0
I196
tp2282
a(I20
I155
tp2283
a(I0
I149
tp2284
asg16
I200
sba(imain2
Polygon
p2285
(dp2286
g3
(I188
I60
tp2287
sg5
I200
sg6
(I23
I80
I8
I64
tp2288
sg8
(lp2289
(I200
I100
tp2290
a(I148
I100
tp2291
a(I139
I27
tp2292
a(I200
I88
tp2293
a(I200
I18
tp2294
a(I200
I37
tp2295
a(I200
I12
tp2296
a(I200
I49
tp2297
asg16
I200
sba(imain2
Polygon
p2298
(dp2299
g3
(I29
I0
tp2300
sg5
I200
sg6
(I200
I202
I9
I97
tp2301
sg8
(lp2302
(I29
I0
tp2303
a(I0
I0
tp2304
a(I50
I36
tp2305
a(I45
I18
tp2306
a(I61
I0
tp2307
a(I0
I0
tp2308
a(I0
I50
tp2309
a(I70
I50
tp2310
a(I0
I0
tp2311
a(I0
I0
tp2312
a(I77
I0
tp2313
a(I74
I14
tp2314
a(I36
I44
tp2315
a(I51
I8
tp2316
a(I74
I0
tp2317
asg16
I200
sba(imain2
Polygon
p2318
(dp2319
g3
(I92
I198
tp2320
sg5
I200
sg6
(I139
I3
I14
I76
tp2321
sg8
(lp2322
(I96
I170
tp2323
a(I95
I158
tp2324
a(I67
I151
tp2325
a(I90
I200
tp2326
a(I44
I200
tp2327
a(I99
I200
tp2328
a(I73
I181
tp2329
a(I108
I179
tp2330
asg16
I200
sba(imain2
Polygon
p2331
(dp2332
g3
(I149
I42
tp2333
sg5
I200
sg6
(I91
I14
I54
I59
tp2334
sg8
(lp2335
(I145
I16
tp2336
a(I99
I9
tp2337
a(I127
I88
tp2338
a(I167
I91
tp2339
a(I156
I44
tp2340
a(I135
I17
tp2341
a(I145
I8
tp2342
a(I113
I48
tp2343
a(I119
I35
tp2344
asg16
I200
sba(imain2
Polygon
p2345
(dp2346
g3
(I18
I189
tp2347
sg5
I200
sg6
(I70
I8
I171
I0
tp2348
sg8
(lp2349
(I0
I200
tp2350
a(I50
I142
tp2351
a(I9
I200
tp2352
a(I11
I160
tp2353
a(I0
I200
tp2354
a(I5
I167
tp2355
a(I0
I200
tp2356
a(I26
I188
tp2357
a(I62
I173
tp2358
a(I0
I200
tp2359
a(I68
I200
tp2360
a(I56
I183
tp2361
a(I23
I152
tp2362
a(I5
I166
tp2363
a(I0
I178
tp2364
a(I7
I148
tp2365
asg16
I200
sba(imain2
Polygon
p2366
(dp2367
g3
(I88
I199
tp2368
sg5
I200
sg6
(I16
I199
I77
I92
tp2369
sg8
(lp2370
(I65
I200
tp2371
a(I39
I200
tp2372
a(I44
I200
tp2373
a(I103
I197
tp2374
a(I52
I200
tp2375
a(I60
I200
tp2376
a(I126
I200
tp2377
a(I62
I200
tp2378
a(I47
I200
tp2379
a(I39
I200
tp2380
asg16
I200
sba(imain2
Polygon
p2381
(dp2382
g3
(I57
I178
tp2383
sg5
I200
sg6
(I22
I120
I163
I0
tp2384
sg8
(lp2385
(I96
I196
tp2386
a(I21
I164
tp2387
a(I55
I131
tp2388
a(I14
I171
tp2389
a(I20
I200
tp2390
asg16
I200
sba(imain2
Polygon
p2391
(dp2392
g3
(I192
I63
tp2393
sg5
I200
sg6
(I115
I241
I124
I110
tp2394
sg8
(lp2395
(I200
I102
tp2396
a(I200
I19
tp2397
a(I200
I28
tp2398
a(I169
I43
tp2399
a(I142
I25
tp2400
a(I200
I102
tp2401
a(I161
I50
tp2402
a(I175
I96
tp2403
a(I183
I98
tp2404
asg16
I200
sba(imain2
Polygon
p2405
(dp2406
g3
(I115
I149
tp2407
sg5
I200
sg6
(I106
I195
I239
I2
tp2408
sg8
(lp2409
(I131
I171
tp2410
a(I96
I129
tp2411
a(I102
I100
tp2412
a(I94
I115
tp2413
a(I71
I108
tp2414
a(I84
I110
tp2415
a(I80
I163
tp2416
a(I128
I176
tp2417
asg16
I200
sba(imain2
Polygon
p2418
(dp2419
g3
(I89
I107
tp2420
sg5
I200
sg6
(I31
I11
I112
I114
tp2421
sg8
(lp2422
(I135
I96
tp2423
a(I106
I149
tp2424
a(I137
I85
tp2425
a(I129
I120
tp2426
a(I138
I81
tp2427
asg16
I200
sba(imain2
Polygon
p2428
(dp2429
g3
(I87
I130
tp2430
sg5
I200
sg6
(I167
I110
I150
I0
tp2431
sg8
(lp2432
(I97
I162
tp2433
a(I93
I84
tp2434
a(I72
I117
tp2435
a(I114
I131
tp2436
a(I48
I126
tp2437
a(I123
I146
tp2438
a(I54
I141
tp2439
a(I87
I159
tp2440
a(I44
I172
tp2441
a(I134
I156
tp2442
a(I103
I85
tp2443
a(I56
I100
tp2444
asg16
I200
sba(imain2
Polygon
p2445
(dp2446
g3
(I62
I187
tp2447
sg5
I200
sg6
(I112
I15
I175
I61
tp2448
sg8
(lp2449
(I22
I200
tp2450
a(I97
I198
tp2451
a(I38
I200
tp2452
a(I17
I200
tp2453
a(I77
I200
tp2454
a(I58
I183
tp2455
a(I66
I189
tp2456
a(I85
I194
tp2457
a(I71
I200
tp2458
a(I24
I200
tp2459
a(I21
I200
tp2460
asg16
I200
sba(imain2
Polygon
p2461
(dp2462
g3
(I59
I26
tp2463
sg5
I200
sg6
(I62
I7
I237
I0
tp2464
sg8
(lp2465
(I83
I0
tp2466
a(I13
I0
tp2467
a(I81
I0
tp2468
a(I33
I0
tp2469
a(I92
I63
tp2470
a(I104
I10
tp2471
a(I102
I70
tp2472
asg16
I200
sba(imain2
Polygon
p2473
(dp2474
g3
(I74
I59
tp2475
sg5
I200
sg6
(I1
I48
I105
I0
tp2476
sg8
(lp2477
(I99
I103
tp2478
a(I67
I71
tp2479
a(I76
I11
tp2480
a(I99
I13
tp2481
a(I75
I25
tp2482
a(I79
I79
tp2483
a(I86
I46
tp2484
a(I106
I51
tp2485
a(I34
I71
tp2486
asg16
I200
sba(imain2
Polygon
p2487
(dp2488
g3
(I141
I175
tp2489
sg5
I200
sg6
(I87
I37
I11
I0
tp2490
sg8
(lp2491
(I169
I200
tp2492
a(I163
I150
tp2493
a(I130
I150
tp2494
a(I149
I186
tp2495
a(I129
I145
tp2496
a(I173
I200
tp2497
a(I129
I200
tp2498
a(I190
I127
tp2499
a(I155
I171
tp2500
a(I128
I200
tp2501
a(I98
I200
tp2502
a(I136
I145
tp2503
a(I180
I193
tp2504
a(I92
I137
tp2505
a(I143
I137
tp2506
a(I103
I195
tp2507
a(I138
I192
tp2508
a(I107
I183
tp2509
asg16
I200
sba(imain2
Polygon
p2510
(dp2511
g3
(I114
I81
tp2512
sg5
I200
sg6
(I234
I18
I199
I80
tp2513
sg8
(lp2514
(I121
I101
tp2515
a(I107
I74
tp2516
a(I79
I35
tp2517
a(I125
I101
tp2518
a(I121
I83
tp2519
asg16
I200
sba(imain2
Polygon
p2520
(dp2521
g3
(I191
I128
tp2522
sg5
I200
sg6
(I244
I3
I244
I16
tp2523
sg8
(lp2524
(I156
I149
tp2525
a(I144
I170
tp2526
a(I190
I78
tp2527
a(I200
I148
tp2528
a(I182
I162
tp2529
a(I187
I85
tp2530
asg16
I200
sba(imain2
Polygon
p2531
(dp2532
g3
(I40
I13
tp2533
sg5
I200
sg6
(I70
I182
I121
I0
tp2534
sg8
(lp2535
(I24
I51
tp2536
a(I0
I0
tp2537
a(I62
I16
tp2538
a(I16
I43
tp2539
a(I46
I8
tp2540
a(I38
I5
tp2541
a(I76
I9
tp2542
a(I26
I0
tp2543
a(I0
I0
tp2544
a(I40
I20
tp2545
a(I1
I44
tp2546
a(I45
I0
tp2547
a(I83
I38
tp2548
a(I86
I9
tp2549
a(I46
I57
tp2550
a(I76
I0
tp2551
a(I79
I0
tp2552
a(I31
I0
tp2553
a(I0
I0
tp2554
asg16
I200
sba(imain2
Polygon
p2555
(dp2556
g3
(I50
I145
tp2557
sg5
I200
sg6
(I57
I212
I125
I24
tp2558
sg8
(lp2559
(I65
I143
tp2560
a(I87
I159
tp2561
a(I100
I145
tp2562
a(I39
I123
tp2563
asg16
I200
sba(imain2
Polygon
p2564
(dp2565
g3
(I184
I69
tp2566
sg5
I200
sg6
(I122
I136
I36
I146
tp2567
sg8
(lp2568
(I200
I72
tp2569
a(I200
I63
tp2570
a(I200
I31
tp2571
a(I200
I33
tp2572
a(I200
I67
tp2573
a(I164
I71
tp2574
a(I174
I114
tp2575
a(I200
I115
tp2576
a(I200
I101
tp2577
a(I195
I79
tp2578
asg16
I200
sba(imain2
Polygon
p2579
(dp2580
g3
(I6
I29
tp2581
sg5
I200
sg6
(I138
I36
I215
I1
tp2582
sg8
(lp2583
(I27
I76
tp2584
a(I0
I40
tp2585
a(I0
I41
tp2586
a(I0
I0
tp2587
a(I48
I0
tp2588
a(I18
I43
tp2589
a(I40
I50
tp2590
asg16
I200
sba(imain2
Polygon
p2591
(dp2592
g3
(I100
I197
tp2593
sg5
I200
sg6
(I29
I135
I60
I78
tp2594
sg8
(lp2595
(I143
I200
tp2596
a(I79
I200
tp2597
a(I85
I200
tp2598
a(I74
I200
tp2599
a(I80
I200
tp2600
a(I67
I193
tp2601
a(I68
I200
tp2602
asg16
I200
sba(imain2
Polygon
p2603
(dp2604
g3
(I102
I67
tp2605
sg5
I200
sg6
(I110
I65
I87
I0
tp2606
sg8
(lp2607
(I84
I107
tp2608
a(I59
I86
tp2609
a(I149
I22
tp2610
a(I134
I38
tp2611
a(I73
I48
tp2612
a(I152
I68
tp2613
a(I84
I36
tp2614
a(I86
I100
tp2615
a(I60
I115
tp2616
a(I112
I41
tp2617
asg16
I200
sba(imain2
Polygon
p2618
(dp2619
g3
(I91
I124
tp2620
sg5
I200
sg6
(I166
I67
I8
I128
tp2621
sg8
(lp2622
(I41
I114
tp2623
a(I80
I127
tp2624
a(I83
I75
tp2625
a(I119
I114
tp2626
a(I111
I171
tp2627
a(I45
I142
tp2628
a(I66
I81
tp2629
a(I119
I80
tp2630
a(I141
I130
tp2631
a(I81
I119
tp2632
a(I76
I76
tp2633
a(I54
I89
tp2634
a(I76
I94
tp2635
asg16
I200
sba(imain2
Polygon
p2636
(dp2637
g3
(I133
I74
tp2638
sg5
I200
sg6
(I15
I174
I91
I0
tp2639
sg8
(lp2640
(I93
I104
tp2641
a(I179
I62
tp2642
a(I134
I83
tp2643
a(I176
I108
tp2644
a(I157
I40
tp2645
a(I87
I119
tp2646
a(I137
I43
tp2647
a(I178
I48
tp2648
a(I117
I90
tp2649
a(I89
I88
tp2650
a(I171
I59
tp2651
a(I133
I83
tp2652
a(I181
I26
tp2653
a(I95
I85
tp2654
a(I139
I76
tp2655
a(I182
I74
tp2656
a(I171
I56
tp2657
asg16
I200
sba(imain2
Polygon
p2658
(dp2659
g3
(I181
I185
tp2660
sg5
I200
sg6
(I1
I135
I61
I16
tp2661
sg8
(lp2662
(I192
I200
tp2663
a(I200
I200
tp2664
a(I197
I153
tp2665
asg16
I200
sba(imain2
Polygon
p2666
(dp2667
g3
(I3
I9
tp2668
sg5
I200
sg6
(I113
I15
I43
I125
tp2669
sg8
(lp2670
(I37
I0
tp2671
a(I49
I0
tp2672
a(I0
I0
tp2673
asg16
I200
sba(imain2
Polygon
p2674
(dp2675
g3
(I154
I22
tp2676
sg5
I200
sg6
(I81
I180
I130
I0
tp2677
sg8
(lp2678
(I198
I7
tp2679
a(I158
I14
tp2680
a(I167
I71
tp2681
asg16
I200
sba(imain2
Polygon
p2682
(dp2683
g3
(I3
I51
tp2684
sg5
I200
sg6
(I10
I166
I11
I47
tp2685
sg8
(lp2686
(I0
I44
tp2687
a(I0
I78
tp2688
a(I0
I74
tp2689
asg16
I200
sba(imain2
Polygon
p2690
(dp2691
g3
(I183
I123
tp2692
sg5
I200
sg6
(I43
I171
I189
I105
tp2693
sg8
(lp2694
(I200
I171
tp2695
a(I200
I140
tp2696
a(I200
I98
tp2697
asg16
I200
sba.