(lp0
(imain2
Polygon
p1
(dp2
S'origin'
p3
(I100
I102
tp4
sS'h'
p5
I200
sS'color'
p6
(I132
I172
I187
I1
tp7
sS'corner_list'
p8
(lp9
(I77
I128
tp10
a(I139
I81
tp11
a(I128
I109
tp12
a(I148
I118
tp13
a(I83
I86
tp14
a(I122
I57
tp15
asS'w'
p16
I200
sba(imain2
Polygon
p17
(dp18
g3
(I142
I122
tp19
sg5
I200
sg6
(I20
I220
I130
I24
tp20
sg8
(lp21
(I101
I108
tp22
a(I95
I104
tp23
a(I106
I160
tp24
a(I149
I145
tp25
a(I109
I157
tp26
a(I109
I92
tp27
a(I119
I85
tp28
a(I188
I130
tp29
a(I164
I94
tp30
a(I192
I113
tp31
a(I136
I104
tp32
a(I134
I86
tp33
a(I102
I138
tp34
asg16
I200
sba(imain2
Polygon
p35
(dp36
g3
(I39
I24
tp37
sg5
I200
sg6
(I239
I162
I198
I1
tp38
sg8
(lp39
(I58
I0
tp40
a(I0
I71
tp41
a(I43
I65
tp42
a(I50
I25
tp43
asg16
I200
sba(imain2
Polygon
p44
(dp45
g3
(I87
I73
tp46
sg5
I200
sg6
(I159
I16
I197
I84
tp47
sg8
(lp48
(I108
I101
tp49
a(I74
I69
tp50
a(I82
I102
tp51
a(I62
I79
tp52
a(I68
I47
tp53
a(I56
I110
tp54
a(I92
I70
tp55
a(I63
I114
tp56
a(I47
I56
tp57
a(I77
I37
tp58
a(I131
I68
tp59
a(I58
I120
tp60
a(I69
I107
tp61
a(I80
I99
tp62
a(I53
I119
tp63
asg16
I200
sba(imain2
Polygon
p64
(dp65
g3
(I75
I185
tp66
sg5
I200
sg6
(I70
I0
I88
I75
tp67
sg8
(lp68
(I84
I199
tp69
a(I125
I163
tp70
a(I123
I140
tp71
a(I120
I200
tp72
a(I117
I200
tp73
a(I68
I195
tp74
a(I98
I174
tp75
a(I100
I200
tp76
asg16
I200
sba(imain2
Polygon
p77
(dp78
g3
(I51
I161
tp79
sg5
I200
sg6
(I130
I131
I12
I88
tp80
sg8
(lp81
(I86
I200
tp82
a(I55
I200
tp83
a(I96
I190
tp84
a(I67
I140
tp85
a(I76
I152
tp86
asg16
I200
sba(imain2
Polygon
p87
(dp88
g3
(I76
I107
tp89
sg5
I200
sg6
(I159
I37
I202
I107
tp90
sg8
(lp91
(I113
I136
tp92
a(I40
I71
tp93
a(I56
I71
tp94
a(I55
I67
tp95
a(I115
I57
tp96
a(I107
I154
tp97
a(I53
I141
tp98
a(I48
I92
tp99
a(I101
I62
tp100
a(I75
I123
tp101
a(I89
I148
tp102
a(I87
I117
tp103
asg16
I200
sba(imain2
Polygon
p104
(dp105
g3
(I79
I45
tp106
sg5
I200
sg6
(I221
I1
I239
I1
tp107
sg8
(lp108
(I93
I67
tp109
a(I121
I88
tp110
a(I37
I47
tp111
a(I70
I64
tp112
a(I88
I9
tp113
asg16
I200
sba(imain2
Polygon
p114
(dp115
g3
(I123
I186
tp116
sg5
I200
sg6
(I45
I14
I42
I1
tp117
sg8
(lp118
(I155
I200
tp119
a(I119
I194
tp120
a(I86
I200
tp121
asg16
I200
sba(imain2
Polygon
p122
(dp123
g3
(I74
I162
tp124
sg5
I200
sg6
(I152
I93
I211
I1
tp125
sg8
(lp126
(I111
I187
tp127
a(I28
I142
tp128
a(I74
I188
tp129
a(I60
I138
tp130
a(I124
I140
tp131
a(I43
I200
tp132
a(I54
I193
tp133
a(I62
I188
tp134
a(I124
I196
tp135
a(I110
I141
tp136
a(I120
I166
tp137
asg16
I200
sba(imain2
Polygon
p138
(dp139
g3
(I64
I120
tp140
sg5
I200
sg6
(I232
I39
I170
I1
tp141
sg8
(lp142
(I71
I131
tp143
a(I100
I116
tp144
a(I104
I125
tp145
asg16
I200
sba(imain2
Polygon
p146
(dp147
g3
(I2
I37
tp148
sg5
I200
sg6
(I134
I133
I101
I107
tp149
sg8
(lp150
(I0
I0
tp151
a(I45
I3
tp152
a(I4
I47
tp153
a(I20
I35
tp154
a(I0
I66
tp155
a(I41
I3
tp156
a(I36
I68
tp157
a(I21
I15
tp158
a(I39
I86
tp159
a(I0
I85
tp160
a(I0
I9
tp161
a(I0
I87
tp162
asg16
I200
sba(imain2
Polygon
p163
(dp164
g3
(I161
I116
tp165
sg5
I200
sg6
(I150
I91
I113
I47
tp166
sg8
(lp167
(I191
I88
tp168
a(I181
I70
tp169
a(I168
I90
tp170
a(I170
I71
tp171
a(I163
I108
tp172
a(I198
I163
tp173
a(I182
I147
tp174
a(I200
I152
tp175
asg16
I200
sba(imain2
Polygon
p176
(dp177
g3
(I171
I44
tp178
sg5
I200
sg6
(I130
I233
I104
I107
tp179
sg8
(lp180
(I151
I30
tp181
a(I157
I22
tp182
a(I200
I89
tp183
a(I200
I0
tp184
a(I132
I0
tp185
a(I134
I21
tp186
a(I199
I85
tp187
a(I161
I77
tp188
a(I200
I93
tp189
a(I143
I0
tp190
a(I170
I71
tp191
a(I176
I33
tp192
a(I159
I42
tp193
asg16
I200
sba(imain2
Polygon
p194
(dp195
g3
(I196
I163
tp196
sg5
I200
sg6
(I37
I166
I6
I16
tp197
sg8
(lp198
(I195
I117
tp199
a(I200
I197
tp200
a(I200
I191
tp201
a(I200
I134
tp202
a(I193
I170
tp203
a(I200
I141
tp204
a(I155
I170
tp205
a(I200
I182
tp206
a(I200
I148
tp207
a(I152
I136
tp208
a(I170
I173
tp209
a(I166
I156
tp210
a(I191
I200
tp211
asg16
I200
sba(imain2
Polygon
p212
(dp213
g3
(I123
I35
tp214
sg5
I200
sg6
(I142
I60
I71
I0
tp215
sg8
(lp216
(I73
I77
tp217
a(I139
I1
tp218
a(I102
I82
tp219
a(I158
I15
tp220
a(I90
I72
tp221
a(I140
I0
tp222
a(I121
I80
tp223
a(I99
I62
tp224
asg16
I200
sba(imain2
Polygon
p225
(dp226
g3
(I38
I152
tp227
sg5
I200
sg6
(I92
I164
I32
I126
tp228
sg8
(lp229
(I87
I136
tp230
a(I53
I103
tp231
a(I49
I126
tp232
a(I73
I158
tp233
asg16
I200
sba(imain2
Polygon
p234
(dp235
g3
(I118
I157
tp236
sg5
I200
sg6
(I85
I62
I42
I0
tp237
sg8
(lp238
(I133
I198
tp239
a(I115
I173
tp240
a(I168
I133
tp241
a(I160
I116
tp242
a(I154
I175
tp243
asg16
I200
sba(imain2
Polygon
p244
(dp245
g3
(I10
I175
tp246
sg5
I200
sg6
(I174
I52
I58
I9
tp247
sg8
(lp248
(I0
I141
tp249
a(I0
I148
tp250
a(I0
I200
tp251
a(I45
I192
tp252
a(I54
I200
tp253
asg16
I200
sba(imain2
Polygon
p254
(dp255
g3
(I4
I131
tp256
sg5
I200
sg6
(I121
I51
I61
I0
tp257
sg8
(lp258
(I35
I93
tp259
a(I2
I88
tp260
a(I0
I173
tp261
a(I0
I134
tp262
a(I0
I145
tp263
a(I18
I159
tp264
a(I0
I176
tp265
a(I0
I159
tp266
a(I19
I89
tp267
a(I0
I108
tp268
a(I32
I131
tp269
a(I0
I92
tp270
a(I0
I87
tp271
asg16
I200
sba(imain2
Polygon
p272
(dp273
g3
(I75
I51
tp274
sg5
I200
sg6
(I101
I195
I0
I5
tp275
sg8
(lp276
(I73
I93
tp277
a(I28
I87
tp278
a(I34
I7
tp279
a(I105
I56
tp280
a(I123
I15
tp281
asg16
I200
sba(imain2
Polygon
p282
(dp283
g3
(I18
I101
tp284
sg5
I200
sg6
(I0
I11
I65
I39
tp285
sg8
(lp286
(I56
I62
tp287
a(I15
I116
tp288
a(I6
I66
tp289
a(I5
I78
tp290
a(I50
I149
tp291
a(I0
I111
tp292
a(I45
I64
tp293
asg16
I200
sba(imain2
Polygon
p294
(dp295
g3
(I97
I199
tp296
sg5
I200
sg6
(I0
I105
I44
I101
tp297
sg8
(lp298
(I91
I200
tp299
a(I134
I200
tp300
a(I135
I171
tp301
a(I78
I156
tp302
a(I97
I158
tp303
a(I127
I200
tp304
a(I118
I173
tp305
a(I87
I171
tp306
a(I99
I160
tp307
a(I95
I152
tp308
a(I75
I200
tp309
a(I82
I188
tp310
asg16
I200
sba(imain2
Polygon
p311
(dp312
g3
(I102
I104
tp313
sg5
I200
sg6
(I219
I121
I126
I61
tp314
sg8
(lp315
(I105
I151
tp316
a(I126
I71
tp317
a(I59
I58
tp318
a(I57
I131
tp319
a(I74
I153
tp320
asg16
I200
sba(imain2
Polygon
p321
(dp322
g3
(I177
I176
tp323
sg5
I200
sg6
(I111
I206
I213
I39
tp324
sg8
(lp325
(I200
I138
tp326
a(I167
I145
tp327
a(I200
I200
tp328
asg16
I200
sba(imain2
Polygon
p329
(dp330
g3
(I99
I27
tp331
sg5
I200
sg6
(I71
I83
I0
I101
tp332
sg8
(lp333
(I143
I0
tp334
a(I53
I0
tp335
a(I97
I73
tp336
a(I139
I50
tp337
a(I73
I29
tp338
a(I149
I10
tp339
asg16
I200
sba(imain2
Polygon
p340
(dp341
g3
(I138
I156
tp342
sg5
I200
sg6
(I16
I57
I186
I0
tp343
sg8
(lp344
(I150
I181
tp345
a(I104
I133
tp346
a(I111
I148
tp347
a(I101
I146
tp348
asg16
I200
sba(imain2
Polygon
p349
(dp350
g3
(I100
I129
tp351
sg5
I200
sg6
(I113
I214
I219
I0
tp352
sg8
(lp353
(I93
I100
tp354
a(I77
I153
tp355
a(I66
I171
tp356
a(I97
I125
tp357
a(I67
I109
tp358
asg16
I200
sba(imain2
Polygon
p359
(dp360
g3
(I90
I2
tp361
sg5
I200
sg6
(I193
I194
I1
I1
tp362
sg8
(lp363
(I91
I29
tp364
a(I109
I0
tp365
a(I88
I0
tp366
a(I82
I20
tp367
a(I90
I51
tp368
a(I65
I45
tp369
a(I106
I0
tp370
a(I54
I32
tp371
a(I56
I1
tp372
a(I52
I0
tp373
a(I119
I0
tp374
asg16
I200
sba(imain2
Polygon
p375
(dp376
g3
(I76
I49
tp377
sg5
I200
sg6
(I245
I163
I175
I94
tp378
sg8
(lp379
(I52
I54
tp380
a(I62
I34
tp381
a(I99
I36
tp382
a(I124
I78
tp383
a(I91
I88
tp384
a(I47
I82
tp385
asg16
I200
sba(imain2
Polygon
p386
(dp387
g3
(I135
I193
tp388
sg5
I200
sg6
(I199
I198
I62
I1
tp389
sg8
(lp390
(I131
I160
tp391
a(I146
I200
tp392
a(I87
I200
tp393
a(I91
I200
tp394
a(I178
I191
tp395
a(I174
I190
tp396
a(I129
I171
tp397
a(I149
I200
tp398
a(I181
I168
tp399
asg16
I200
sba(imain2
Polygon
p400
(dp401
g3
(I156
I197
tp402
sg5
I200
sg6
(I78
I232
I78
I0
tp403
sg8
(lp404
(I182
I200
tp405
a(I198
I200
tp406
a(I152
I200
tp407
a(I108
I171
tp408
a(I189
I188
tp409
asg16
I200
sba(imain2
Polygon
p410
(dp411
g3
(I159
I95
tp412
sg5
I200
sg6
(I159
I19
I13
I1
tp413
sg8
(lp414
(I196
I80
tp415
a(I135
I57
tp416
a(I114
I45
tp417
a(I184
I46
tp418
a(I184
I145
tp419
a(I154
I110
tp420
a(I154
I96
tp421
a(I171
I87
tp422
a(I136
I123
tp423
asg16
I200
sba(imain2
Polygon
p424
(dp425
g3
(I130
I187
tp426
sg5
I200
sg6
(I177
I73
I86
I65
tp427
sg8
(lp428
(I138
I200
tp429
a(I161
I187
tp430
a(I161
I161
tp431
a(I168
I192
tp432
a(I164
I200
tp433
a(I97
I159
tp434
a(I90
I200
tp435
asg16
I200
sba(imain2
Polygon
p436
(dp437
g3
(I56
I194
tp438
sg5
I200
sg6
(I191
I171
I1
I29
tp439
sg8
(lp440
(I99
I158
tp441
a(I59
I200
tp442
a(I15
I171
tp443
a(I36
I176
tp444
a(I24
I145
tp445
a(I7
I195
tp446
a(I6
I200
tp447
a(I13
I151
tp448
a(I20
I200
tp449
a(I102
I200
tp450
a(I101
I170
tp451
a(I70
I200
tp452
asg16
I200
sba(imain2
Polygon
p453
(dp454
g3
(I180
I160
tp455
sg5
I200
sg6
(I28
I39
I107
I44
tp456
sg8
(lp457
(I160
I132
tp458
a(I175
I200
tp459
a(I200
I200
tp460
a(I159
I131
tp461
a(I200
I133
tp462
a(I200
I161
tp463
a(I200
I118
tp464
a(I161
I136
tp465
a(I200
I128
tp466
a(I200
I139
tp467
a(I200
I197
tp468
asg16
I200
sba(imain2
Polygon
p469
(dp470
g3
(I12
I87
tp471
sg5
I200
sg6
(I47
I129
I180
I1
tp472
sg8
(lp473
(I0
I54
tp474
a(I20
I73
tp475
a(I0
I107
tp476
a(I0
I136
tp477
asg16
I200
sba(imain2
Polygon
p478
(dp479
g3
(I123
I91
tp480
sg5
I200
sg6
(I229
I0
I184
I51
tp481
sg8
(lp482
(I93
I69
tp483
a(I99
I140
tp484
a(I88
I106
tp485
a(I77
I123
tp486
a(I134
I104
tp487
a(I92
I73
tp488
asg16
I200
sba(imain2
Polygon
p489
(dp490
g3
(I80
I122
tp491
sg5
I200
sg6
(I220
I175
I138
I71
tp492
sg8
(lp493
(I116
I143
tp494
a(I129
I85
tp495
a(I44
I101
tp496
a(I65
I159
tp497
a(I123
I146
tp498
asg16
I200
sba(imain2
Polygon
p499
(dp500
g3
(I119
I156
tp501
sg5
I200
sg6
(I125
I213
I195
I44
tp502
sg8
(lp503
(I96
I178
tp504
a(I141
I200
tp505
a(I103
I123
tp506
a(I90
I178
tp507
a(I70
I199
tp508
a(I133
I200
tp509
a(I69
I119
tp510
a(I102
I114
tp511
a(I114
I170
tp512
a(I88
I157
tp513
asg16
I200
sba(imain2
Polygon
p514
(dp515
g3
(I66
I96
tp516
sg5
I200
sg6
(I106
I72
I64
I88
tp517
sg8
(lp518
(I24
I133
tp519
a(I20
I88
tp520
a(I59
I80
tp521
a(I72
I129
tp522
a(I100
I145
tp523
a(I30
I82
tp524
a(I36
I114
tp525
asg16
I200
sba(imain2
Polygon
p526
(dp527
g3
(I17
I178
tp528
sg5
I200
sg6
(I81
I63
I10
I1
tp529
sg8
(lp530
(I0
I130
tp531
a(I0
I174
tp532
a(I21
I149
tp533
a(I20
I150
tp534
a(I0
I128
tp535
a(I63
I200
tp536
a(I45
I141
tp537
a(I63
I188
tp538
a(I0
I180
tp539
asg16
I200
sba(imain2
Polygon
p540
(dp541
g3
(I196
I157
tp542
sg5
I200
sg6
(I26
I207
I67
I0
tp543
sg8
(lp544
(I147
I199
tp545
a(I200
I112
tp546
a(I200
I131
tp547
a(I195
I135
tp548
a(I200
I158
tp549
a(I200
I177
tp550
a(I147
I107
tp551
a(I165
I144
tp552
a(I200
I113
tp553
a(I200
I173
tp554
a(I200
I143
tp555
a(I186
I200
tp556
a(I200
I151
tp557
a(I200
I195
tp558
a(I161
I119
tp559
a(I200
I151
tp560
a(I200
I135
tp561
a(I158
I128
tp562
asg16
I200
sba(imain2
Polygon
p563
(dp564
g3
(I7
I138
tp565
sg5
I200
sg6
(I208
I109
I8
I1
tp566
sg8
(lp567
(I0
I174
tp568
a(I0
I103
tp569
a(I0
I109
tp570
a(I43
I88
tp571
a(I0
I158
tp572
a(I0
I88
tp573
a(I48
I161
tp574
a(I0
I109
tp575
a(I0
I157
tp576
a(I0
I147
tp577
a(I21
I180
tp578
a(I0
I102
tp579
a(I24
I89
tp580
a(I41
I89
tp581
asg16
I200
sba(imain2
Polygon
p582
(dp583
g3
(I49
I75
tp584
sg5
I200
sg6
(I117
I227
I9
I19
tp585
sg8
(lp586
(I97
I31
tp587
a(I96
I95
tp588
a(I60
I123
tp589
a(I28
I81
tp590
a(I35
I74
tp591
a(I91
I46
tp592
a(I35
I64
tp593
a(I75
I88
tp594
a(I0
I118
tp595
a(I3
I64
tp596
a(I8
I49
tp597
a(I41
I49
tp598
a(I53
I73
tp599
a(I77
I48
tp600
a(I41
I61
tp601
a(I63
I36
tp602
a(I7
I38
tp603
a(I35
I36
tp604
asg16
I200
sba(imain2
Polygon
p605
(dp606
g3
(I75
I73
tp607
sg5
I200
sg6
(I161
I134
I134
I133
tp608
sg8
(lp609
(I108
I39
tp610
a(I123
I118
tp611
a(I47
I117
tp612
a(I62
I34
tp613
asg16
I200
sba(imain2
Polygon
p614
(dp615
g3
(I82
I103
tp616
sg5
I200
sg6
(I94
I95
I57
I0
tp617
sg8
(lp618
(I123
I116
tp619
a(I83
I145
tp620
a(I53
I131
tp621
a(I124
I68
tp622
a(I71
I103
tp623
a(I67
I133
tp624
a(I98
I99
tp625
a(I124
I151
tp626
a(I97
I112
tp627
a(I79
I66
tp628
a(I39
I61
tp629
a(I43
I63
tp630
a(I41
I99
tp631
a(I132
I75
tp632
a(I128
I131
tp633
a(I98
I78
tp634
a(I91
I128
tp635
a(I55
I149
tp636
asg16
I200
sba(imain2
Polygon
p637
(dp638
g3
(I126
I26
tp639
sg5
I200
sg6
(I237
I182
I126
I103
tp640
sg8
(lp641
(I138
I12
tp642
a(I148
I21
tp643
a(I124
I16
tp644
a(I83
I10
tp645
a(I77
I0
tp646
a(I162
I0
tp647
a(I176
I38
tp648
a(I168
I75
tp649
asg16
I200
sba(imain2
Polygon
p650
(dp651
g3
(I128
I23
tp652
sg5
I200
sg6
(I105
I0
I83
I1
tp653
sg8
(lp654
(I125
I0
tp655
a(I97
I3
tp656
a(I166
I29
tp657
a(I154
I0
tp658
a(I124
I60
tp659
a(I104
I32
tp660
a(I100
I9
tp661
a(I116
I0
tp662
a(I84
I17
tp663
a(I157
I34
tp664
a(I144
I0
tp665
a(I92
I33
tp666
a(I162
I57
tp667
a(I107
I22
tp668
asg16
I200
sba(imain2
Polygon
p669
(dp670
g3
(I147
I59
tp671
sg5
I200
sg6
(I1
I240
I188
I59
tp672
sg8
(lp673
(I191
I38
tp674
a(I155
I19
tp675
a(I190
I84
tp676
asg16
I200
sba(imain2
Polygon
p677
(dp678
g3
(I105
I192
tp679
sg5
I200
sg6
(I176
I19
I173
I0
tp680
sg8
(lp681
(I150
I178
tp682
a(I68
I169
tp683
a(I146
I145
tp684
a(I109
I200
tp685
asg16
I200
sba(imain2
Polygon
p686
(dp687
g3
(I144
I60
tp688
sg5
I200
sg6
(I58
I232
I7
I1
tp689
sg8
(lp690
(I100
I77
tp691
a(I157
I97
tp692
a(I135
I99
tp693
a(I135
I106
tp694
a(I122
I34
tp695
a(I180
I75
tp696
a(I143
I104
tp697
a(I114
I17
tp698
asg16
I200
sba(imain2
Polygon
p699
(dp700
g3
(I177
I86
tp701
sg5
I200
sg6
(I168
I32
I15
I1
tp702
sg8
(lp703
(I179
I46
tp704
a(I137
I49
tp705
a(I199
I65
tp706
a(I167
I118
tp707
a(I200
I65
tp708
a(I141
I67
tp709
a(I139
I126
tp710
a(I143
I108
tp711
a(I158
I58
tp712
asg16
I200
sba(imain2
Polygon
p713
(dp714
g3
(I157
I117
tp715
sg5
I200
sg6
(I42
I28
I0
I51
tp716
sg8
(lp717
(I187
I153
tp718
a(I200
I147
tp719
a(I128
I75
tp720
a(I191
I152
tp721
a(I140
I84
tp722
a(I183
I145
tp723
a(I198
I87
tp724
a(I200
I166
tp725
a(I132
I108
tp726
a(I107
I95
tp727
asg16
I200
sba(imain2
Polygon
p728
(dp729
g3
(I155
I192
tp730
sg5
I200
sg6
(I1
I33
I194
I1
tp731
sg8
(lp732
(I200
I165
tp733
a(I192
I163
tp734
a(I128
I195
tp735
a(I132
I200
tp736
a(I175
I200
tp737
a(I178
I193
tp738
a(I110
I173
tp739
a(I153
I200
tp740
a(I155
I187
tp741
a(I194
I181
tp742
a(I158
I185
tp743
a(I167
I175
tp744
asg16
I200
sba(imain2
Polygon
p745
(dp746
g3
(I103
I158
tp747
sg5
I200
sg6
(I12
I44
I118
I55
tp748
sg8
(lp749
(I107
I154
tp750
a(I72
I200
tp751
a(I127
I113
tp752
a(I98
I169
tp753
a(I111
I126
tp754
a(I131
I117
tp755
a(I66
I200
tp756
a(I96
I148
tp757
a(I71
I172
tp758
asg16
I200
sba(imain2
Polygon
p759
(dp760
g3
(I9
I151
tp761
sg5
I200
sg6
(I120
I83
I56
I31
tp762
sg8
(lp763
(I0
I194
tp764
a(I0
I173
tp765
a(I0
I126
tp766
a(I14
I129
tp767
a(I0
I157
tp768
a(I12
I200
tp769
a(I44
I122
tp770
a(I0
I159
tp771
a(I28
I192
tp772
asg16
I200
sba(imain2
Polygon
p773
(dp774
g3
(I114
I115
tp775
sg5
I200
sg6
(I165
I156
I137
I0
tp776
sg8
(lp777
(I136
I133
tp778
a(I156
I103
tp779
a(I64
I113
tp780
a(I76
I151
tp781
a(I75
I83
tp782
a(I144
I106
tp783
a(I99
I110
tp784
asg16
I200
sba(imain2
Polygon
p785
(dp786
g3
(I114
I99
tp787
sg5
I200
sg6
(I60
I240
I7
I42
tp788
sg8
(lp789
(I128
I108
tp790
a(I104
I71
tp791
a(I68
I97
tp792
a(I85
I70
tp793
a(I72
I108
tp794
a(I117
I58
tp795
a(I70
I56
tp796
a(I109
I134
tp797
a(I103
I135
tp798
a(I69
I62
tp799
a(I139
I67
tp800
a(I84
I133
tp801
asg16
I200
sba(imain2
Polygon
p802
(dp803
g3
(I173
I62
tp804
sg5
I200
sg6
(I1
I40
I167
I93
tp805
sg8
(lp806
(I200
I82
tp807
a(I200
I84
tp808
a(I168
I49
tp809
a(I179
I16
tp810
a(I167
I67
tp811
asg16
I200
sba(imain2
Polygon
p812
(dp813
g3
(I199
I171
tp814
sg5
I200
sg6
(I1
I233
I13
I19
tp815
sg8
(lp816
(I200
I164
tp817
a(I200
I174
tp818
a(I162
I194
tp819
asg16
I200
sba(imain2
Polygon
p820
(dp821
g3
(I195
I126
tp822
sg5
I200
sg6
(I210
I215
I27
I0
tp823
sg8
(lp824
(I200
I155
tp825
a(I200
I175
tp826
a(I172
I118
tp827
a(I200
I164
tp828
a(I200
I93
tp829
a(I200
I82
tp830
a(I175
I79
tp831
a(I200
I91
tp832
a(I154
I148
tp833
a(I170
I107
tp834
a(I183
I169
tp835
a(I199
I106
tp836
a(I200
I123
tp837
a(I200
I117
tp838
a(I200
I143
tp839
a(I200
I156
tp840
a(I200
I156
tp841
asg16
I200
sba(imain2
Polygon
p842
(dp843
g3
(I51
I190
tp844
sg5
I200
sg6
(I124
I172
I99
I55
tp845
sg8
(lp846
(I63
I200
tp847
a(I57
I200
tp848
a(I86
I200
tp849
a(I60
I200
tp850
a(I96
I168
tp851
a(I97
I200
tp852
a(I14
I192
tp853
a(I88
I200
tp854
asg16
I200
sba(imain2
Polygon
p855
(dp856
g3
(I200
I5
tp857
sg5
I200
sg6
(I187
I107
I44
I1
tp858
sg8
(lp859
(I200
I50
tp860
a(I200
I17
tp861
a(I200
I0
tp862
a(I196
I26
tp863
a(I171
I11
tp864
a(I163
I0
tp865
a(I150
I43
tp866
a(I186
I29
tp867
a(I200
I0
tp868
a(I186
I38
tp869
asg16
I200
sba(imain2
Polygon
p870
(dp871
g3
(I147
I166
tp872
sg5
I200
sg6
(I114
I241
I223
I6
tp873
sg8
(lp874
(I108
I131
tp875
a(I109
I190
tp876
a(I179
I180
tp877
a(I123
I166
tp878
a(I132
I125
tp879
a(I110
I196
tp880
a(I108
I150
tp881
a(I150
I117
tp882
a(I142
I153
tp883
asg16
I200
sba(imain2
Polygon
p884
(dp885
g3
(I16
I191
tp886
sg5
I200
sg6
(I128
I46
I221
I0
tp887
sg8
(lp888
(I9
I161
tp889
a(I59
I200
tp890
a(I55
I168
tp891
a(I50
I200
tp892
asg16
I200
sba(imain2
Polygon
p893
(dp894
g3
(I94
I9
tp895
sg5
I200
sg6
(I199
I50
I20
I0
tp896
sg8
(lp897
(I82
I0
tp898
a(I131
I0
tp899
a(I130
I0
tp900
a(I83
I0
tp901
a(I114
I19
tp902
a(I89
I0
tp903
a(I79
I0
tp904
a(I109
I24
tp905
a(I99
I22
tp906
a(I136
I56
tp907
a(I137
I19
tp908
a(I131
I0
tp909
a(I103
I57
tp910
asg16
I200
sba(imain2
Polygon
p911
(dp912
g3
(I111
I113
tp913
sg5
I200
sg6
(I89
I30
I145
I1
tp914
sg8
(lp915
(I95
I159
tp916
a(I120
I136
tp917
a(I150
I136
tp918
asg16
I200
sba(imain2
Polygon
p919
(dp920
g3
(I10
I81
tp921
sg5
I200
sg6
(I218
I162
I192
I1
tp922
sg8
(lp923
(I60
I131
tp924
a(I0
I102
tp925
a(I0
I129
tp926
a(I12
I107
tp927
a(I11
I125
tp928
a(I59
I45
tp929
a(I0
I116
tp930
a(I21
I59
tp931
a(I22
I107
tp932
a(I46
I129
tp933
a(I24
I55
tp934
a(I9
I81
tp935
asg16
I200
sba(imain2
Polygon
p936
(dp937
g3
(I10
I22
tp938
sg5
I200
sg6
(I217
I204
I103
I66
tp939
sg8
(lp940
(I0
I19
tp941
a(I41
I0
tp942
a(I47
I58
tp943
a(I19
I72
tp944
a(I0
I72
tp945
a(I12
I0
tp946
a(I0
I0
tp947
a(I0
I66
tp948
a(I13
I7
tp949
a(I0
I14
tp950
a(I26
I4
tp951
a(I0
I13
tp952
a(I0
I29
tp953
asg16
I200
sba(imain2
Polygon
p954
(dp955
g3
(I19
I169
tp956
sg5
I200
sg6
(I88
I215
I78
I1
tp957
sg8
(lp958
(I41
I147
tp959
a(I68
I169
tp960
a(I20
I192
tp961
a(I7
I200
tp962
a(I28
I122
tp963
asg16
I200
sba(imain2
Polygon
p964
(dp965
g3
(I194
I7
tp966
sg5
I200
sg6
(I160
I88
I133
I0
tp967
sg8
(lp968
(I200
I44
tp969
a(I200
I0
tp970
a(I200
I35
tp971
a(I170
I0
tp972
a(I184
I0
tp973
a(I200
I0
tp974
a(I174
I0
tp975
a(I200
I0
tp976
a(I175
I18
tp977
asg16
I200
sba(imain2
Polygon
p978
(dp979
g3
(I42
I15
tp980
sg5
I200
sg6
(I147
I135
I162
I1
tp981
sg8
(lp982
(I55
I36
tp983
a(I61
I9
tp984
a(I73
I63
tp985
a(I0
I65
tp986
a(I11
I0
tp987
a(I12
I32
tp988
a(I91
I0
tp989
a(I20
I58
tp990
a(I16
I37
tp991
asg16
I200
sba(imain2
Polygon
p992
(dp993
g3
(I183
I77
tp994
sg5
I200
sg6
(I25
I140
I27
I26
tp995
sg8
(lp996
(I170
I55
tp997
a(I200
I86
tp998
a(I200
I70
tp999
a(I189
I40
tp1000
a(I161
I65
tp1001
a(I196
I42
tp1002
a(I200
I51
tp1003
a(I200
I102
tp1004
asg16
I200
sba(imain2
Polygon
p1005
(dp1006
g3
(I190
I45
tp1007
sg5
I200
sg6
(I176
I45
I183
I1
tp1008
sg8
(lp1009
(I200
I8
tp1010
a(I200
I26
tp1011
a(I153
I42
tp1012
a(I200
I46
tp1013
a(I179
I86
tp1014
a(I199
I57
tp1015
a(I183
I37
tp1016
a(I200
I7
tp1017
a(I200
I75
tp1018
asg16
I200
sba(imain2
Polygon
p1019
(dp1020
g3
(I115
I69
tp1021
sg5
I200
sg6
(I0
I121
I192
I0
tp1022
sg8
(lp1023
(I121
I86
tp1024
a(I84
I62
tp1025
a(I118
I32
tp1026
asg16
I200
sba(imain2
Polygon
p1027
(dp1028
g3
(I173
I121
tp1029
sg5
I200
sg6
(I242
I53
I20
I0
tp1030
sg8
(lp1031
(I155
I105
tp1032
a(I137
I112
tp1033
a(I175
I87
tp1034
a(I169
I95
tp1035
a(I184
I89
tp1036
a(I200
I116
tp1037
a(I192
I122
tp1038
a(I144
I170
tp1039
asg16
I200
sba(imain2
Polygon
p1040
(dp1041
g3
(I45
I135
tp1042
sg5
I200
sg6
(I147
I126
I175
I34
tp1043
sg8
(lp1044
(I7
I177
tp1045
a(I21
I178
tp1046
a(I23
I86
tp1047
a(I14
I133
tp1048
a(I35
I86
tp1049
a(I9
I89
tp1050
a(I2
I91
tp1051
a(I0
I127
tp1052
asg16
I200
sba(imain2
Polygon
p1053
(dp1054
g3
(I61
I48
tp1055
sg5
I200
sg6
(I76
I33
I122
I108
tp1056
sg8
(lp1057
(I81
I91
tp1058
a(I73
I78
tp1059
a(I47
I85
tp1060
a(I68
I93
tp1061
a(I86
I72
tp1062
a(I85
I73
tp1063
a(I45
I93
tp1064
a(I66
I90
tp1065
a(I106
I80
tp1066
asg16
I200
sba(imain2
Polygon
p1067
(dp1068
g3
(I96
I154
tp1069
sg5
I200
sg6
(I149
I181
I184
I61
tp1070
sg8
(lp1071
(I53
I107
tp1072
a(I75
I149
tp1073
a(I90
I200
tp1074
a(I142
I200
tp1075
a(I53
I114
tp1076
a(I107
I120
tp1077
asg16
I200
sba(imain2
Polygon
p1078
(dp1079
g3
(I32
I146
tp1080
sg5
I200
sg6
(I62
I240
I69
I92
tp1081
sg8
(lp1082
(I0
I157
tp1083
a(I0
I178
tp1084
a(I0
I132
tp1085
asg16
I200
sba(imain2
Polygon
p1086
(dp1087
g3
(I3
I120
tp1088
sg5
I200
sg6
(I186
I176
I16
I53
tp1089
sg8
(lp1090
(I38
I71
tp1091
a(I0
I72
tp1092
a(I0
I121
tp1093
a(I0
I132
tp1094
a(I20
I116
tp1095
asg16
I200
sba(imain2
Polygon
p1096
(dp1097
g3
(I74
I152
tp1098
sg5
I200
sg6
(I59
I79
I125
I1
tp1099
sg8
(lp1100
(I107
I180
tp1101
a(I80
I138
tp1102
a(I39
I140
tp1103
a(I117
I121
tp1104
a(I75
I165
tp1105
a(I118
I127
tp1106
a(I32
I179
tp1107
a(I33
I191
tp1108
a(I87
I200
tp1109
a(I56
I110
tp1110
a(I42
I135
tp1111
a(I76
I188
tp1112
asg16
I200
sba(imain2
Polygon
p1113
(dp1114
g3
(I31
I192
tp1115
sg5
I200
sg6
(I153
I32
I134
I0
tp1116
sg8
(lp1117
(I0
I181
tp1118
a(I7
I200
tp1119
a(I64
I200
tp1120
a(I0
I175
tp1121
a(I80
I200
tp1122
a(I17
I200
tp1123
a(I0
I142
tp1124
a(I41
I172
tp1125
a(I57
I200
tp1126
a(I28
I166
tp1127
a(I50
I144
tp1128
a(I0
I187
tp1129
a(I64
I200
tp1130
a(I0
I165
tp1131
a(I21
I181
tp1132
a(I56
I200
tp1133
a(I0
I195
tp1134
asg16
I200
sba(imain2
Polygon
p1135
(dp1136
g3
(I99
I149
tp1137
sg5
I200
sg6
(I188
I31
I203
I1
tp1138
sg8
(lp1139
(I110
I116
tp1140
a(I136
I173
tp1141
a(I101
I127
tp1142
a(I82
I109
tp1143
a(I114
I142
tp1144
a(I79
I154
tp1145
a(I51
I112
tp1146
a(I55
I173
tp1147
a(I92
I139
tp1148
a(I101
I140
tp1149
a(I109
I193
tp1150
a(I103
I151
tp1151
a(I123
I124
tp1152
a(I105
I153
tp1153
a(I52
I171
tp1154
a(I131
I198
tp1155
a(I76
I153
tp1156
asg16
I200
sba(imain2
Polygon
p1157
(dp1158
g3
(I183
I115
tp1159
sg5
I200
sg6
(I17
I108
I176
I133
tp1160
sg8
(lp1161
(I200
I102
tp1162
a(I193
I132
tp1163
a(I181
I84
tp1164
a(I200
I87
tp1165
a(I200
I142
tp1166
asg16
I200
sba(imain2
Polygon
p1167
(dp1168
g3
(I141
I107
tp1169
sg5
I200
sg6
(I78
I144
I85
I138
tp1170
sg8
(lp1171
(I119
I86
tp1172
a(I112
I86
tp1173
a(I111
I152
tp1174
asg16
I200
sba(imain2
Polygon
p1175
(dp1176
g3
(I149
I72
tp1177
sg5
I200
sg6
(I62
I107
I163
I24
tp1178
sg8
(lp1179
(I160
I35
tp1180
a(I195
I56
tp1181
a(I155
I38
tp1182
a(I99
I25
tp1183
a(I173
I40
tp1184
a(I176
I38
tp1185
a(I195
I35
tp1186
a(I127
I88
tp1187
a(I150
I68
tp1188
a(I168
I73
tp1189
a(I169
I57
tp1190
asg16
I200
sba(imain2
Polygon
p1191
(dp1192
g3
(I67
I128
tp1193
sg5
I200
sg6
(I210
I146
I52
I24
tp1194
sg8
(lp1195
(I106
I157
tp1196
a(I73
I95
tp1197
a(I108
I113
tp1198
a(I115
I152
tp1199
a(I62
I84
tp1200
a(I62
I102
tp1201
a(I63
I145
tp1202
a(I75
I164
tp1203
asg16
I200
sba(imain2
Polygon
p1204
(dp1205
g3
(I183
I44
tp1206
sg5
I200
sg6
(I80
I9
I170
I1
tp1207
sg8
(lp1208
(I200
I28
tp1209
a(I138
I92
tp1210
a(I163
I30
tp1211
a(I175
I30
tp1212
a(I136
I16
tp1213
a(I191
I71
tp1214
asg16
I200
sba(imain2
Polygon
p1215
(dp1216
g3
(I100
I61
tp1217
sg5
I200
sg6
(I199
I96
I41
I36
tp1218
sg8
(lp1219
(I56
I38
tp1220
a(I99
I64
tp1221
a(I91
I106
tp1222
a(I131
I96
tp1223
a(I95
I52
tp1224
a(I80
I38
tp1225
a(I74
I24
tp1226
a(I146
I15
tp1227
a(I96
I45
tp1228
a(I109
I45
tp1229
a(I143
I70
tp1230
a(I84
I63
tp1231
a(I126
I79
tp1232
a(I104
I97
tp1233
asg16
I200
sba(imain2
Polygon
p1234
(dp1235
g3
(I52
I190
tp1236
sg5
I200
sg6
(I174
I147
I49
I75
tp1237
sg8
(lp1238
(I71
I200
tp1239
a(I89
I171
tp1240
a(I102
I200
tp1241
a(I94
I200
tp1242
a(I95
I200
tp1243
a(I34
I200
tp1244
asg16
I200
sba(imain2
Polygon
p1245
(dp1246
g3
(I151
I65
tp1247
sg5
I200
sg6
(I62
I179
I1
I97
tp1248
sg8
(lp1249
(I176
I54
tp1250
a(I179
I51
tp1251
a(I164
I54
tp1252
a(I186
I39
tp1253
a(I139
I65
tp1254
a(I111
I63
tp1255
a(I119
I77
tp1256
a(I169
I47
tp1257
a(I182
I28
tp1258
a(I158
I17
tp1259
asg16
I200
sba(imain2
Polygon
p1260
(dp1261
g3
(I67
I20
tp1262
sg5
I200
sg6
(I165
I92
I187
I95
tp1263
sg8
(lp1264
(I17
I0
tp1265
a(I29
I39
tp1266
a(I114
I0
tp1267
a(I110
I0
tp1268
a(I112
I0
tp1269
a(I113
I0
tp1270
a(I74
I0
tp1271
asg16
I200
sba(imain2
Polygon
p1272
(dp1273
g3
(I199
I56
tp1274
sg5
I200
sg6
(I159
I0
I107
I1
tp1275
sg8
(lp1276
(I200
I8
tp1277
a(I165
I70
tp1278
a(I200
I46
tp1279
a(I200
I83
tp1280
a(I181
I100
tp1281
a(I186
I53
tp1282
a(I198
I104
tp1283
a(I155
I97
tp1284
a(I200
I28
tp1285
a(I149
I58
tp1286
a(I192
I59
tp1287
asg16
I200
sba(imain2
Polygon
p1288
(dp1289
g3
(I185
I38
tp1290
sg5
I200
sg6
(I128
I217
I66
I157
tp1291
sg8
(lp1292
(I200
I69
tp1293
a(I200
I0
tp1294
a(I177
I0
tp1295
a(I154
I0
tp1296
a(I146
I42
tp1297
a(I200
I5
tp1298
a(I168
I28
tp1299
a(I142
I46
tp1300
a(I155
I22
tp1301
a(I181
I67
tp1302
a(I200
I88
tp1303
a(I138
I0
tp1304
a(I200
I50
tp1305
a(I141
I1
tp1306
a(I171
I85
tp1307
a(I189
I82
tp1308
asg16
I200
sba(imain2
Polygon
p1309
(dp1310
g3
(I67
I149
tp1311
sg5
I200
sg6
(I90
I205
I211
I34
tp1312
sg8
(lp1313
(I20
I169
tp1314
a(I92
I149
tp1315
a(I45
I104
tp1316
a(I47
I101
tp1317
a(I64
I107
tp1318
a(I75
I131
tp1319
a(I69
I155
tp1320
asg16
I200
sba(imain2
Polygon
p1321
(dp1322
g3
(I21
I182
tp1323
sg5
I200
sg6
(I110
I114
I1
I74
tp1324
sg8
(lp1325
(I67
I200
tp1326
a(I0
I166
tp1327
a(I30
I184
tp1328
a(I20
I169
tp1329
a(I19
I200
tp1330
a(I41
I195
tp1331
a(I19
I200
tp1332
a(I32
I200
tp1333
a(I13
I200
tp1334
a(I0
I144
tp1335
a(I0
I194
tp1336
a(I27
I167
tp1337
a(I8
I162
tp1338
a(I28
I152
tp1339
a(I0
I133
tp1340
a(I47
I191
tp1341
asg16
I200
sba(imain2
Polygon
p1342
(dp1343
g3
(I145
I176
tp1344
sg5
I200
sg6
(I183
I171
I1
I35
tp1345
sg8
(lp1346
(I116
I200
tp1347
a(I101
I200
tp1348
a(I177
I200
tp1349
a(I120
I137
tp1350
a(I95
I200
tp1351
asg16
I200
sba(imain2
Polygon
p1352
(dp1353
g3
(I102
I21
tp1354
sg5
I200
sg6
(I180
I177
I184
I55
tp1355
sg8
(lp1356
(I129
I69
tp1357
a(I61
I26
tp1358
a(I88
I12
tp1359
a(I104
I12
tp1360
a(I146
I25
tp1361
a(I143
I7
tp1362
a(I142
I0
tp1363
a(I59
I0
tp1364
a(I54
I68
tp1365
asg16
I200
sba(imain2
Polygon
p1366
(dp1367
g3
(I154
I30
tp1368
sg5
I200
sg6
(I49
I94
I58
I0
tp1369
sg8
(lp1370
(I135
I63
tp1371
a(I107
I66
tp1372
a(I173
I45
tp1373
a(I162
I48
tp1374
a(I150
I48
tp1375
a(I144
I73
tp1376
a(I135
I57
tp1377
a(I156
I27
tp1378
a(I132
I0
tp1379
asg16
I200
sba(imain2
Polygon
p1380
(dp1381
g3
(I171
I178
tp1382
sg5
I200
sg6
(I92
I228
I32
I0
tp1383
sg8
(lp1384
(I200
I200
tp1385
a(I200
I200
tp1386
a(I200
I195
tp1387
a(I200
I135
tp1388
a(I179
I151
tp1389
a(I151
I200
tp1390
a(I172
I153
tp1391
asg16
I200
sba(imain2
Polygon
p1392
(dp1393
g3
(I189
I152
tp1394
sg5
I200
sg6
(I245
I70
I178
I1
tp1395
sg8
(lp1396
(I184
I192
tp1397
a(I200
I134
tp1398
a(I200
I166
tp1399
a(I200
I155
tp1400
a(I187
I169
tp1401
a(I182
I182
tp1402
a(I200
I166
tp1403
a(I156
I189
tp1404
a(I149
I177
tp1405
asg16
I200
sba(imain2
Polygon
p1406
(dp1407
g3
(I158
I122
tp1408
sg5
I200
sg6
(I42
I0
I155
I32
tp1409
sg8
(lp1410
(I182
I80
tp1411
a(I174
I137
tp1412
a(I200
I145
tp1413
a(I166
I100
tp1414
a(I141
I111
tp1415
a(I124
I81
tp1416
a(I140
I142
tp1417
a(I131
I110
tp1418
a(I189
I78
tp1419
a(I200
I74
tp1420
a(I124
I95
tp1421
asg16
I200
sba(imain2
Polygon
p1422
(dp1423
g3
(I89
I194
tp1424
sg5
I200
sg6
(I226
I74
I37
I1
tp1425
sg8
(lp1426
(I91
I187
tp1427
a(I69
I166
tp1428
a(I49
I167
tp1429
a(I76
I177
tp1430
a(I107
I177
tp1431
a(I115
I200
tp1432
a(I104
I200
tp1433
a(I39
I200
tp1434
a(I64
I164
tp1435
a(I126
I166
tp1436
a(I67
I147
tp1437
a(I84
I198
tp1438
asg16
I200
sba(imain2
Polygon
p1439
(dp1440
g3
(I185
I89
tp1441
sg5
I200
sg6
(I163
I0
I218
I1
tp1442
sg8
(lp1443
(I136
I51
tp1444
a(I200
I98
tp1445
a(I190
I122
tp1446
a(I200
I70
tp1447
a(I152
I101
tp1448
a(I196
I139
tp1449
a(I187
I137
tp1450
a(I197
I79
tp1451
a(I166
I46
tp1452
a(I200
I68
tp1453
a(I175
I68
tp1454
a(I200
I47
tp1455
a(I174
I136
tp1456
a(I181
I50
tp1457
asg16
I200
sba(imain2
Polygon
p1458
(dp1459
g3
(I67
I129
tp1460
sg5
I200
sg6
(I72
I191
I56
I109
tp1461
sg8
(lp1462
(I96
I97
tp1463
a(I112
I141
tp1464
a(I78
I170
tp1465
a(I81
I160
tp1466
a(I112
I100
tp1467
a(I67
I121
tp1468
a(I93
I98
tp1469
a(I99
I143
tp1470
a(I96
I122
tp1471
a(I109
I141
tp1472
a(I87
I119
tp1473
a(I87
I107
tp1474
a(I75
I92
tp1475
a(I84
I146
tp1476
a(I52
I135
tp1477
a(I91
I173
tp1478
asg16
I200
sba(imain2
Polygon
p1479
(dp1480
g3
(I95
I80
tp1481
sg5
I200
sg6
(I219
I88
I19
I129
tp1482
sg8
(lp1483
(I121
I57
tp1484
a(I47
I53
tp1485
a(I58
I130
tp1486
a(I123
I114
tp1487
a(I129
I87
tp1488
asg16
I200
sba(imain2
Polygon
p1489
(dp1490
g3
(I14
I45
tp1491
sg5
I200
sg6
(I223
I0
I43
I104
tp1492
sg8
(lp1493
(I0
I94
tp1494
a(I58
I24
tp1495
a(I0
I13
tp1496
a(I38
I90
tp1497
a(I10
I95
tp1498
asg16
I200
sba(imain2
Polygon
p1499
(dp1500
g3
(I34
I35
tp1501
sg5
I200
sg6
(I106
I9
I200
I16
tp1502
sg8
(lp1503
(I0
I0
tp1504
a(I0
I84
tp1505
a(I51
I56
tp1506
a(I37
I58
tp1507
a(I41
I59
tp1508
a(I24
I1
tp1509
a(I56
I7
tp1510
a(I63
I21
tp1511
asg16
I200
sba(imain2
Polygon
p1512
(dp1513
g3
(I127
I147
tp1514
sg5
I200
sg6
(I114
I171
I188
I71
tp1515
sg8
(lp1516
(I112
I151
tp1517
a(I112
I167
tp1518
a(I161
I125
tp1519
a(I99
I100
tp1520
a(I112
I159
tp1521
a(I126
I158
tp1522
a(I164
I118
tp1523
a(I80
I133
tp1524
a(I125
I141
tp1525
a(I92
I99
tp1526
a(I85
I144
tp1527
a(I105
I137
tp1528
a(I148
I117
tp1529
a(I108
I109
tp1530
a(I100
I118
tp1531
a(I120
I132
tp1532
a(I93
I123
tp1533
a(I80
I136
tp1534
asg16
I200
sba(imain2
Polygon
p1535
(dp1536
g3
(I88
I106
tp1537
sg5
I200
sg6
(I189
I11
I58
I106
tp1538
sg8
(lp1539
(I127
I64
tp1540
a(I119
I93
tp1541
a(I120
I134
tp1542
asg16
I200
sba(imain2
Polygon
p1543
(dp1544
g3
(I11
I134
tp1545
sg5
I200
sg6
(I74
I178
I92
I88
tp1546
sg8
(lp1547
(I0
I183
tp1548
a(I0
I108
tp1549
a(I0
I162
tp1550
a(I12
I180
tp1551
asg16
I200
sba(imain2
Polygon
p1552
(dp1553
g3
(I174
I141
tp1554
sg5
I200
sg6
(I113
I234
I92
I69
tp1555
sg8
(lp1556
(I200
I120
tp1557
a(I187
I97
tp1558
a(I170
I160
tp1559
a(I200
I190
tp1560
asg16
I200
sba(imain2
Polygon
p1561
(dp1562
g3
(I68
I44
tp1563
sg5
I200
sg6
(I2
I228
I127
I31
tp1564
sg8
(lp1565
(I26
I22
tp1566
a(I19
I82
tp1567
a(I62
I45
tp1568
a(I75
I72
tp1569
a(I22
I45
tp1570
a(I83
I85
tp1571
a(I73
I76
tp1572
asg16
I200
sba(imain2
Polygon
p1573
(dp1574
g3
(I80
I68
tp1575
sg5
I200
sg6
(I74
I15
I15
I30
tp1576
sg8
(lp1577
(I52
I50
tp1578
a(I34
I66
tp1579
a(I53
I18
tp1580
a(I117
I21
tp1581
a(I40
I26
tp1582
a(I104
I60
tp1583
a(I37
I27
tp1584
a(I47
I36
tp1585
a(I37
I35
tp1586
a(I66
I42
tp1587
a(I83
I18
tp1588
asg16
I200
sba(imain2
Polygon
p1589
(dp1590
g3
(I120
I143
tp1591
sg5
I200
sg6
(I151
I157
I82
I1
tp1592
sg8
(lp1593
(I87
I180
tp1594
a(I157
I180
tp1595
a(I104
I174
tp1596
a(I92
I178
tp1597
a(I129
I155
tp1598
a(I119
I179
tp1599
a(I123
I178
tp1600
a(I145
I127
tp1601
a(I120
I158
tp1602
a(I86
I100
tp1603
a(I157
I112
tp1604
a(I170
I95
tp1605
a(I147
I127
tp1606
a(I80
I125
tp1607
asg16
I200
sba(imain2
Polygon
p1608
(dp1609
g3
(I47
I43
tp1610
sg5
I200
sg6
(I224
I145
I62
I44
tp1611
sg8
(lp1612
(I85
I78
tp1613
a(I7
I93
tp1614
a(I0
I83
tp1615
a(I5
I0
tp1616
a(I26
I10
tp1617
a(I37
I33
tp1618
a(I91
I13
tp1619
a(I52
I53
tp1620
a(I45
I0
tp1621
a(I96
I0
tp1622
a(I96
I74
tp1623
a(I37
I83
tp1624
asg16
I200
sba(imain2
Polygon
p1625
(dp1626
g3
(I6
I165
tp1627
sg5
I200
sg6
(I192
I49
I158
I45
tp1628
sg8
(lp1629
(I0
I191
tp1630
a(I34
I177
tp1631
a(I7
I145
tp1632
asg16
I200
sba(imain2
Polygon
p1633
(dp1634
g3
(I125
I173
tp1635
sg5
I200
sg6
(I90
I28
I31
I116
tp1636
sg8
(lp1637
(I145
I181
tp1638
a(I132
I145
tp1639
a(I128
I157
tp1640
a(I135
I166
tp1641
a(I143
I200
tp1642
a(I165
I200
tp1643
a(I85
I166
tp1644
a(I93
I145
tp1645
a(I79
I141
tp1646
a(I145
I159
tp1647
a(I157
I200
tp1648
a(I130
I140
tp1649
asg16
I200
sba(imain2
Polygon
p1650
(dp1651
g3
(I63
I154
tp1652
sg5
I200
sg6
(I121
I158
I2
I0
tp1653
sg8
(lp1654
(I90
I156
tp1655
a(I41
I182
tp1656
a(I112
I105
tp1657
a(I100
I174
tp1658
a(I66
I105
tp1659
a(I66
I149
tp1660
a(I45
I194
tp1661
a(I85
I125
tp1662
a(I27
I122
tp1663
a(I101
I117
tp1664
asg16
I200
sba(imain2
Polygon
p1665
(dp1666
g3
(I152
I171
tp1667
sg5
I200
sg6
(I192
I3
I226
I0
tp1668
sg8
(lp1669
(I197
I151
tp1670
a(I128
I188
tp1671
a(I200
I191
tp1672
a(I105
I165
tp1673
a(I114
I145
tp1674
a(I193
I126
tp1675
a(I180
I200
tp1676
a(I171
I163
tp1677
a(I107
I200
tp1678
a(I118
I180
tp1679
a(I154
I143
tp1680
asg16
I200
sba(imain2
Polygon
p1681
(dp1682
g3
(I67
I143
tp1683
sg5
I200
sg6
(I71
I71
I132
I108
tp1684
sg8
(lp1685
(I100
I175
tp1686
a(I113
I120
tp1687
a(I113
I130
tp1688
asg16
I200
sba(imain2
Polygon
p1689
(dp1690
g3
(I153
I79
tp1691
sg5
I200
sg6
(I134
I28
I160
I0
tp1692
sg8
(lp1693
(I178
I118
tp1694
a(I198
I89
tp1695
a(I140
I45
tp1696
a(I133
I77
tp1697
a(I112
I71
tp1698
a(I142
I107
tp1699
a(I148
I111
tp1700
a(I175
I118
tp1701
a(I159
I100
tp1702
a(I177
I105
tp1703
a(I130
I94
tp1704
asg16
I200
sba(imain2
Polygon
p1705
(dp1706
g3
(I142
I192
tp1707
sg5
I200
sg6
(I48
I235
I1
I1
tp1708
sg8
(lp1709
(I126
I156
tp1710
a(I94
I200
tp1711
a(I151
I200
tp1712
a(I131
I200
tp1713
a(I122
I151
tp1714
a(I140
I162
tp1715
a(I115
I176
tp1716
a(I94
I200
tp1717
a(I104
I188
tp1718
asg16
I200
sba(imain2
Polygon
p1719
(dp1720
g3
(I144
I12
tp1721
sg5
I200
sg6
(I185
I74
I98
I0
tp1722
sg8
(lp1723
(I115
I0
tp1724
a(I161
I0
tp1725
a(I184
I0
tp1726
a(I135
I0
tp1727
a(I166
I26
tp1728
a(I140
I27
tp1729
a(I166
I23
tp1730
a(I184
I13
tp1731
a(I190
I2
tp1732
a(I138
I0
tp1733
a(I133
I0
tp1734
a(I167
I46
tp1735
a(I122
I5
tp1736
asg16
I200
sba(imain2
Polygon
p1737
(dp1738
g3
(I144
I92
tp1739
sg5
I200
sg6
(I223
I43
I149
I138
tp1740
sg8
(lp1741
(I175
I55
tp1742
a(I181
I55
tp1743
a(I190
I118
tp1744
a(I178
I108
tp1745
a(I159
I52
tp1746
asg16
I200
sba(imain2
Polygon
p1747
(dp1748
g3
(I167
I23
tp1749
sg5
I200
sg6
(I169
I30
I240
I0
tp1750
sg8
(lp1751
(I174
I4
tp1752
a(I156
I11
tp1753
a(I200
I70
tp1754
a(I200
I14
tp1755
a(I188
I60
tp1756
a(I139
I19
tp1757
a(I166
I58
tp1758
a(I200
I0
tp1759
a(I164
I43
tp1760
a(I200
I32
tp1761
a(I129
I13
tp1762
a(I156
I3
tp1763
a(I168
I30
tp1764
asg16
I200
sba(imain2
Polygon
p1765
(dp1766
g3
(I200
I102
tp1767
sg5
I200
sg6
(I50
I231
I149
I30
tp1768
sg8
(lp1769
(I161
I70
tp1770
a(I171
I83
tp1771
a(I193
I55
tp1772
a(I200
I120
tp1773
a(I200
I56
tp1774
a(I200
I118
tp1775
a(I167
I86
tp1776
a(I200
I76
tp1777
a(I200
I100
tp1778
a(I199
I68
tp1779
a(I155
I69
tp1780
a(I159
I62
tp1781
a(I170
I125
tp1782
a(I177
I108
tp1783
a(I200
I127
tp1784
asg16
I200
sba(imain2
Polygon
p1785
(dp1786
g3
(I20
I176
tp1787
sg5
I200
sg6
(I11
I201
I0
I1
tp1788
sg8
(lp1789
(I0
I200
tp1790
a(I4
I200
tp1791
a(I0
I164
tp1792
a(I65
I153
tp1793
a(I0
I166
tp1794
a(I30
I200
tp1795
a(I43
I145
tp1796
a(I17
I200
tp1797
a(I54
I157
tp1798
a(I0
I200
tp1799
a(I56
I200
tp1800
a(I15
I152
tp1801
a(I45
I161
tp1802
a(I44
I189
tp1803
a(I1
I173
tp1804
a(I4
I200
tp1805
asg16
I200
sba(imain2
Polygon
p1806
(dp1807
g3
(I51
I87
tp1808
sg5
I200
sg6
(I97
I176
I45
I75
tp1809
sg8
(lp1810
(I27
I64
tp1811
a(I30
I71
tp1812
a(I35
I93
tp1813
a(I19
I105
tp1814
a(I3
I114
tp1815
a(I4
I50
tp1816
a(I40
I55
tp1817
a(I63
I97
tp1818
a(I59
I88
tp1819
a(I73
I95
tp1820
a(I30
I52
tp1821
a(I37
I81
tp1822
asg16
I200
sba(imain2
Polygon
p1823
(dp1824
g3
(I124
I18
tp1825
sg5
I200
sg6
(I57
I202
I228
I0
tp1826
sg8
(lp1827
(I104
I18
tp1828
a(I89
I0
tp1829
a(I94
I26
tp1830
a(I160
I36
tp1831
asg16
I200
sba(imain2
Polygon
p1832
(dp1833
g3
(I170
I179
tp1834
sg5
I200
sg6
(I139
I190
I55
I7
tp1835
sg8
(lp1836
(I186
I184
tp1837
a(I146
I200
tp1838
a(I200
I129
tp1839
a(I200
I200
tp1840
a(I125
I200
tp1841
a(I129
I168
tp1842
a(I177
I200
tp1843
a(I155
I179
tp1844
a(I184
I200
tp1845
a(I200
I160
tp1846
asg16
I200
sba(imain2
Polygon
p1847
(dp1848
g3
(I93
I4
tp1849
sg5
I200
sg6
(I122
I127
I1
I123
tp1850
sg8
(lp1851
(I46
I0
tp1852
a(I51
I53
tp1853
a(I57
I28
tp1854
a(I47
I35
tp1855
a(I62
I48
tp1856
a(I51
I52
tp1857
asg16
I200
sba(imain2
Polygon
p1858
(dp1859
g3
(I33
I157
tp1860
sg5
I200
sg6
(I38
I117
I125
I0
tp1861
sg8
(lp1862
(I8
I115
tp1863
a(I50
I130
tp1864
a(I67
I128
tp1865
a(I42
I136
tp1866
a(I66
I120
tp1867
a(I9
I140
tp1868
a(I79
I175
tp1869
a(I69
I135
tp1870
a(I50
I162
tp1871
a(I44
I112
tp1872
asg16
I200
sba(imain2
Polygon
p1873
(dp1874
g3
(I91
I9
tp1875
sg5
I200
sg6
(I66
I182
I12
I1
tp1876
sg8
(lp1877
(I124
I35
tp1878
a(I87
I17
tp1879
a(I115
I0
tp1880
a(I54
I0
tp1881
a(I134
I0
tp1882
a(I94
I28
tp1883
a(I72
I0
tp1884
a(I42
I0
tp1885
a(I122
I0
tp1886
a(I55
I45
tp1887
asg16
I200
sba(imain2
Polygon
p1888
(dp1889
g3
(I50
I13
tp1890
sg5
I200
sg6
(I91
I178
I161
I114
tp1891
sg8
(lp1892
(I31
I61
tp1893
a(I3
I50
tp1894
a(I0
I0
tp1895
a(I11
I0
tp1896
a(I7
I0
tp1897
a(I82
I0
tp1898
asg16
I200
sba(imain2
Polygon
p1899
(dp1900
g3
(I157
I108
tp1901
sg5
I200
sg6
(I127
I116
I1
I75
tp1902
sg8
(lp1903
(I168
I137
tp1904
a(I108
I127
tp1905
a(I123
I82
tp1906
a(I145
I61
tp1907
a(I108
I149
tp1908
a(I172
I125
tp1909
a(I166
I61
tp1910
a(I200
I120
tp1911
a(I184
I155
tp1912
a(I168
I127
tp1913
a(I188
I141
tp1914
a(I158
I120
tp1915
asg16
I200
sba(imain2
Polygon
p1916
(dp1917
g3
(I7
I150
tp1918
sg5
I200
sg6
(I177
I10
I55
I10
tp1919
sg8
(lp1920
(I0
I184
tp1921
a(I0
I112
tp1922
a(I57
I154
tp1923
a(I22
I183
tp1924
a(I7
I147
tp1925
a(I0
I149
tp1926
a(I4
I171
tp1927
a(I55
I115
tp1928
a(I32
I102
tp1929
a(I49
I122
tp1930
a(I24
I105
tp1931
a(I23
I114
tp1932
a(I26
I151
tp1933
asg16
I200
sba(imain2
Polygon
p1934
(dp1935
g3
(I89
I125
tp1936
sg5
I200
sg6
(I42
I0
I214
I11
tp1937
sg8
(lp1938
(I59
I165
tp1939
a(I101
I135
tp1940
a(I56
I165
tp1941
a(I76
I125
tp1942
asg16
I200
sba(imain2
Polygon
p1943
(dp1944
g3
(I18
I178
tp1945
sg5
I200
sg6
(I85
I162
I41
I88
tp1946
sg8
(lp1947
(I0
I148
tp1948
a(I6
I154
tp1949
a(I10
I175
tp1950
a(I0
I137
tp1951
a(I30
I144
tp1952
a(I23
I175
tp1953
a(I24
I189
tp1954
a(I0
I167
tp1955
asg16
I200
sba(imain2
Polygon
p1956
(dp1957
g3
(I81
I53
tp1958
sg5
I200
sg6
(I216
I83
I79
I0
tp1959
sg8
(lp1960
(I80
I31
tp1961
a(I89
I58
tp1962
a(I66
I39
tp1963
a(I42
I77
tp1964
a(I37
I46
tp1965
a(I80
I82
tp1966
a(I97
I100
tp1967
a(I73
I54
tp1968
a(I96
I16
tp1969
a(I92
I99
tp1970
a(I89
I26
tp1971
asg16
I200
sba(imain2
Polygon
p1972
(dp1973
g3
(I117
I32
tp1974
sg5
I200
sg6
(I165
I186
I81
I1
tp1975
sg8
(lp1976
(I89
I46
tp1977
a(I99
I56
tp1978
a(I134
I30
tp1979
asg16
I200
sba(imain2
Polygon
p1980
(dp1981
g3
(I79
I140
tp1982
sg5
I200
sg6
(I224
I0
I161
I24
tp1983
sg8
(lp1984
(I108
I95
tp1985
a(I107
I173
tp1986
a(I52
I148
tp1987
a(I123
I97
tp1988
a(I103
I173
tp1989
a(I75
I159
tp1990
a(I80
I158
tp1991
a(I127
I127
tp1992
asg16
I200
sba(imain2
Polygon
p1993
(dp1994
g3
(I26
I4
tp1995
sg5
I200
sg6
(I196
I73
I69
I1
tp1996
sg8
(lp1997
(I64
I27
tp1998
a(I7
I0
tp1999
a(I69
I0
tp2000
a(I0
I0
tp2001
a(I69
I0
tp2002
a(I0
I0
tp2003
a(I4
I0
tp2004
a(I38
I0
tp2005
asg16
I200
sba(imain2
Polygon
p2006
(dp2007
g3
(I15
I121
tp2008
sg5
I200
sg6
(I1
I223
I148
I1
tp2009
sg8
(lp2010
(I36
I104
tp2011
a(I0
I109
tp2012
a(I51
I75
tp2013
a(I60
I87
tp2014
a(I0
I74
tp2015
a(I0
I86
tp2016
a(I46
I142
tp2017
a(I31
I72
tp2018
a(I43
I156
tp2019
a(I61
I107
tp2020
a(I0
I154
tp2021
a(I16
I86
tp2022
a(I59
I128
tp2023
a(I43
I154
tp2024
a(I5
I124
tp2025
asg16
I200
sba(imain2
Polygon
p2026
(dp2027
g3
(I163
I195
tp2028
sg5
I200
sg6
(I8
I147
I192
I0
tp2029
sg8
(lp2030
(I187
I200
tp2031
a(I170
I200
tp2032
a(I180
I194
tp2033
a(I127
I200
tp2034
a(I198
I192
tp2035
a(I172
I200
tp2036
a(I193
I191
tp2037
a(I165
I200
tp2038
asg16
I200
sba(imain2
Polygon
p2039
(dp2040
g3
(I118
I106
tp2041
sg5
I200
sg6
(I6
I133
I123
I114
tp2042
sg8
(lp2043
(I132
I104
tp2044
a(I145
I78
tp2045
a(I102
I87
tp2046
a(I125
I104
tp2047
a(I121
I98
tp2048
a(I123
I91
tp2049
a(I151
I66
tp2050
a(I132
I101
tp2051
a(I127
I105
tp2052
a(I140
I99
tp2053
asg16
I200
sba(imain2
Polygon
p2054
(dp2055
g3
(I56
I6
tp2056
sg5
I200
sg6
(I197
I1
I173
I1
tp2057
sg8
(lp2058
(I88
I24
tp2059
a(I79
I0
tp2060
a(I71
I0
tp2061
a(I21
I0
tp2062
a(I75
I2
tp2063
a(I10
I41
tp2064
asg16
I200
sba(imain2
Polygon
p2065
(dp2066
g3
(I174
I69
tp2067
sg5
I200
sg6
(I118
I35
I47
I99
tp2068
sg8
(lp2069
(I200
I23
tp2070
a(I200
I29
tp2071
a(I160
I53
tp2072
a(I199
I86
tp2073
a(I196
I88
tp2074
a(I200
I90
tp2075
a(I151
I40
tp2076
a(I126
I41
tp2077
a(I189
I42
tp2078
a(I171
I43
tp2079
a(I130
I47
tp2080
a(I191
I41
tp2081
a(I183
I53
tp2082
a(I173
I86
tp2083
a(I165
I92
tp2084
asg16
I200
sba(imain2
Polygon
p2085
(dp2086
g3
(I0
I30
tp2087
sg5
I200
sg6
(I169
I39
I99
I1
tp2088
sg8
(lp2089
(I0
I69
tp2090
a(I0
I48
tp2091
a(I39
I78
tp2092
a(I29
I6
tp2093
a(I0
I35
tp2094
asg16
I200
sba(imain2
Polygon
p2095
(dp2096
g3
(I134
I58
tp2097
sg5
I200
sg6
(I241
I178
I117
I110
tp2098
sg8
(lp2099
(I179
I58
tp2100
a(I110
I8
tp2101
a(I156
I8
tp2102
a(I179
I9
tp2103
asg16
I200
sba(imain2
Polygon
p2104
(dp2105
g3
(I142
I75
tp2106
sg5
I200
sg6
(I201
I59
I194
I75
tp2107
sg8
(lp2108
(I191
I83
tp2109
a(I154
I36
tp2110
a(I163
I54
tp2111
a(I192
I28
tp2112
asg16
I200
sba(imain2
Polygon
p2113
(dp2114
g3
(I129
I65
tp2115
sg5
I200
sg6
(I88
I0
I164
I129
tp2116
sg8
(lp2117
(I155
I65
tp2118
a(I158
I67
tp2119
a(I151
I68
tp2120
asg16
I200
sba(imain2
Polygon
p2121
(dp2122
g3
(I163
I171
tp2123
sg5
I200
sg6
(I195
I10
I130
I1
tp2124
sg8
(lp2125
(I145
I198
tp2126
a(I161
I200
tp2127
a(I200
I190
tp2128
a(I173
I200
tp2129
a(I127
I200
tp2130
a(I170
I142
tp2131
a(I165
I165
tp2132
a(I158
I178
tp2133
a(I189
I200
tp2134
a(I161
I197
tp2135
a(I200
I124
tp2136
a(I200
I191
tp2137
a(I141
I126
tp2138
a(I113
I200
tp2139
asg16
I200
sba(imain2
Polygon
p2140
(dp2141
g3
(I184
I20
tp2142
sg5
I200
sg6
(I213
I91
I227
I75
tp2143
sg8
(lp2144
(I200
I60
tp2145
a(I200
I0
tp2146
a(I200
I69
tp2147
a(I160
I57
tp2148
a(I140
I0
tp2149
a(I144
I0
tp2150
a(I200
I0
tp2151
a(I200
I0
tp2152
asg16
I200
sba(imain2
Polygon
p2153
(dp2154
g3
(I145
I135
tp2155
sg5
I200
sg6
(I31
I41
I59
I39
tp2156
sg8
(lp2157
(I160
I178
tp2158
a(I183
I129
tp2159
a(I135
I88
tp2160
a(I110
I168
tp2161
a(I166
I183
tp2162
asg16
I200
sba(imain2
Polygon
p2163
(dp2164
g3
(I64
I74
tp2165
sg5
I200
sg6
(I134
I208
I148
I1
tp2166
sg8
(lp2167
(I111
I67
tp2168
a(I74
I124
tp2169
a(I19
I47
tp2170
a(I94
I61
tp2171
asg16
I200
sba(imain2
Polygon
p2172
(dp2173
g3
(I82
I104
tp2174
sg5
I200
sg6
(I48
I155
I198
I1
tp2175
sg8
(lp2176
(I129
I123
tp2177
a(I98
I78
tp2178
a(I60
I150
tp2179
a(I61
I58
tp2180
a(I87
I71
tp2181
a(I37
I116
tp2182
a(I105
I79
tp2183
a(I131
I77
tp2184
a(I54
I154
tp2185
a(I76
I62
tp2186
a(I119
I154
tp2187
asg16
I200
sba(imain2
Polygon
p2188
(dp2189
g3
(I176
I51
tp2190
sg5
I200
sg6
(I114
I211
I85
I0
tp2191
sg8
(lp2192
(I200
I6
tp2193
a(I143
I9
tp2194
a(I200
I62
tp2195
a(I174
I33
tp2196
a(I171
I13
tp2197
a(I185
I27
tp2198
asg16
I200
sba(imain2
Polygon
p2199
(dp2200
g3
(I18
I179
tp2201
sg5
I200
sg6
(I7
I98
I95
I29
tp2202
sg8
(lp2203
(I0
I146
tp2204
a(I0
I200
tp2205
a(I0
I198
tp2206
a(I21
I200
tp2207
a(I22
I196
tp2208
a(I36
I190
tp2209
a(I19
I154
tp2210
a(I23
I153
tp2211
a(I31
I198
tp2212
asg16
I200
sba(imain2
Polygon
p2213
(dp2214
g3
(I112
I97
tp2215
sg5
I200
sg6
(I96
I198
I66
I50
tp2216
sg8
(lp2217
(I117
I118
tp2218
a(I70
I139
tp2219
a(I97
I92
tp2220
a(I122
I146
tp2221
a(I76
I136
tp2222
a(I79
I54
tp2223
a(I98
I68
tp2224
a(I123
I104
tp2225
a(I130
I88
tp2226
a(I96
I146
tp2227
asg16
I200
sba(imain2
Polygon
p2228
(dp2229
g3
(I3
I120
tp2230
sg5
I200
sg6
(I62
I87
I145
I89
tp2231
sg8
(lp2232
(I0
I86
tp2233
a(I0
I82
tp2234
a(I1
I72
tp2235
a(I0
I109
tp2236
a(I43
I80
tp2237
asg16
I200
sba(imain2
Polygon
p2238
(dp2239
g3
(I7
I32
tp2240
sg5
I200
sg6
(I148
I29
I185
I1
tp2241
sg8
(lp2242
(I0
I45
tp2243
a(I0
I27
tp2244
a(I52
I39
tp2245
a(I8
I32
tp2246
a(I0
I51
tp2247
a(I27
I38
tp2248
a(I0
I62
tp2249
a(I0
I30
tp2250
a(I5
I14
tp2251
a(I14
I23
tp2252
a(I56
I76
tp2253
a(I0
I7
tp2254
a(I0
I0
tp2255
asg16
I200
sba(imain2
Polygon
p2256
(dp2257
g3
(I166
I95
tp2258
sg5
I200
sg6
(I185
I1
I140
I141
tp2259
sg8
(lp2260
(I192
I50
tp2261
a(I200
I127
tp2262
a(I200
I60
tp2263
asg16
I200
sba(imain2
Polygon
p2264
(dp2265
g3
(I197
I92
tp2266
sg5
I200
sg6
(I116
I6
I30
I0
tp2267
sg8
(lp2268
(I154
I60
tp2269
a(I200
I65
tp2270
a(I200
I70
tp2271
a(I155
I138
tp2272
a(I158
I100
tp2273
a(I147
I82
tp2274
a(I200
I78
tp2275
a(I200
I131
tp2276
a(I187
I130
tp2277
a(I154
I82
tp2278
a(I155
I44
tp2279
a(I197
I58
tp2280
a(I147
I62
tp2281
a(I176
I122
tp2282
asg16
I200
sba(imain2
Polygon
p2283
(dp2284
g3
(I167
I132
tp2285
sg5
I200
sg6
(I220
I55
I84
I1
tp2286
sg8
(lp2287
(I166
I121
tp2288
a(I157
I116
tp2289
a(I169
I113
tp2290
a(I134
I127
tp2291
a(I199
I86
tp2292
a(I197
I112
tp2293
a(I198
I133
tp2294
a(I175
I142
tp2295
a(I117
I113
tp2296
a(I178
I149
tp2297
a(I136
I156
tp2298
a(I132
I168
tp2299
a(I138
I92
tp2300
a(I132
I148
tp2301
asg16
I200
sba(imain2
Polygon
p2302
(dp2303
g3
(I2
I175
tp2304
sg5
I200
sg6
(I101
I198
I106
I1
tp2305
sg8
(lp2306
(I34
I200
tp2307
a(I0
I200
tp2308
a(I28
I126
tp2309
asg16
I200
sba(imain2
Polygon
p2310
(dp2311
g3
(I148
I121
tp2312
sg5
I200
sg6
(I127
I195
I132
I16
tp2313
sg8
(lp2314
(I120
I135
tp2315
a(I118
I71
tp2316
a(I101
I103
tp2317
asg16
I200
sba(imain2
Polygon
p2318
(dp2319
g3
(I26
I154
tp2320
sg5
I200
sg6
(I140
I61
I224
I25
tp2321
sg8
(lp2322
(I52
I148
tp2323
a(I0
I196
tp2324
a(I20
I155
tp2325
asg16
I200
sba(imain2
Polygon
p2326
(dp2327
g3
(I188
I60
tp2328
sg5
I200
sg6
(I21
I75
I8
I46
tp2329
sg8
(lp2330
(I148
I100
tp2331
a(I139
I27
tp2332
a(I200
I98
tp2333
a(I200
I21
tp2334
a(I200
I63
tp2335
a(I200
I22
tp2336
a(I200
I105
tp2337
asg16
I200
sba(imain2
Polygon
p2338
(dp2339
g3
(I29
I0
tp2340
sg5
I200
sg6
(I200
I201
I8
I85
tp2341
sg8
(lp2342
(I29
I0
tp2343
a(I0
I0
tp2344
a(I50
I36
tp2345
a(I45
I18
tp2346
a(I61
I0
tp2347
a(I0
I0
tp2348
a(I0
I50
tp2349
a(I70
I50
tp2350
a(I0
I0
tp2351
a(I0
I0
tp2352
a(I77
I0
tp2353
a(I74
I14
tp2354
a(I36
I44
tp2355
a(I58
I0
tp2356
a(I8
I1
tp2357
a(I5
I0
tp2358
asg16
I200
sba(imain2
Polygon
p2359
(dp2360
g3
(I92
I198
tp2361
sg5
I200
sg6
(I138
I2
I12
I57
tp2362
sg8
(lp2363
(I140
I200
tp2364
a(I67
I151
tp2365
a(I90
I200
tp2366
a(I122
I155
tp2367
a(I99
I200
tp2368
a(I73
I181
tp2369
a(I108
I179
tp2370
asg16
I200
sba(imain2
Polygon
p2371
(dp2372
g3
(I149
I42
tp2373
sg5
I200
sg6
(I90
I11
I52
I51
tp2374
sg8
(lp2375
(I99
I9
tp2376
a(I127
I88
tp2377
a(I167
I91
tp2378
a(I167
I66
tp2379
a(I135
I17
tp2380
a(I152
I62
tp2381
a(I122
I42
tp2382
a(I150
I53
tp2383
asg16
I200
sba(imain2
Polygon
p2384
(dp2385
g3
(I18
I189
tp2386
sg5
I200
sg6
(I70
I6
I170
I1
tp2387
sg8
(lp2388
(I0
I200
tp2389
a(I36
I189
tp2390
a(I61
I197
tp2391
a(I12
I200
tp2392
a(I0
I200
tp2393
a(I5
I167
tp2394
a(I59
I181
tp2395
a(I13
I200
tp2396
a(I0
I179
tp2397
a(I0
I167
tp2398
a(I68
I200
tp2399
a(I56
I183
tp2400
a(I0
I162
tp2401
a(I19
I163
tp2402
a(I0
I178
tp2403
asg16
I200
sba(imain2
Polygon
p2404
(dp2405
g3
(I88
I199
tp2406
sg5
I200
sg6
(I15
I198
I77
I71
tp2407
sg8
(lp2408
(I40
I200
tp2409
a(I133
I200
tp2410
a(I89
I200
tp2411
a(I46
I200
tp2412
a(I126
I200
tp2413
a(I62
I200
tp2414
a(I70
I200
tp2415
a(I84
I200
tp2416
asg16
I200
sba(imain2
Polygon
p2417
(dp2418
g3
(I57
I178
tp2419
sg5
I200
sg6
(I19
I117
I162
I0
tp2420
sg8
(lp2421
(I54
I200
tp2422
a(I21
I164
tp2423
a(I14
I171
tp2424
a(I47
I135
tp2425
a(I105
I163
tp2426
asg16
I200
sba(imain2
Polygon
p2427
(dp2428
g3
(I192
I63
tp2429
sg5
I200
sg6
(I115
I239
I123
I104
tp2430
sg8
(lp2431
(I200
I102
tp2432
a(I200
I19
tp2433
a(I200
I19
tp2434
a(I169
I43
tp2435
a(I142
I25
tp2436
a(I200
I102
tp2437
a(I161
I50
tp2438
a(I175
I96
tp2439
a(I200
I41
tp2440
a(I181
I96
tp2441
asg16
I200
sba(imain2
Polygon
p2442
(dp2443
g3
(I115
I149
tp2444
sg5
I200
sg6
(I104
I195
I238
I1
tp2445
sg8
(lp2446
(I118
I155
tp2447
a(I138
I198
tp2448
a(I102
I100
tp2449
a(I125
I181
tp2450
a(I129
I132
tp2451
a(I84
I110
tp2452
a(I68
I102
tp2453
a(I85
I145
tp2454
a(I77
I169
tp2455
a(I130
I139
tp2456
asg16
I200
sba(imain2
Polygon
p2457
(dp2458
g3
(I89
I107
tp2459
sg5
I200
sg6
(I30
I9
I109
I94
tp2460
sg8
(lp2461
(I137
I85
tp2462
a(I127
I58
tp2463
a(I139
I80
tp2464
asg16
I200
sba(imain2
Polygon
p2465
(dp2466
g3
(I87
I130
tp2467
sg5
I200
sg6
(I167
I109
I147
I0
tp2468
sg8
(lp2469
(I42
I113
tp2470
a(I49
I92
tp2471
a(I69
I137
tp2472
a(I111
I140
tp2473
a(I96
I151
tp2474
a(I121
I130
tp2475
a(I132
I175
tp2476
a(I53
I89
tp2477
a(I87
I102
tp2478
asg16
I200
sba(imain2
Polygon
p2479
(dp2480
g3
(I62
I187
tp2481
sg5
I200
sg6
(I112
I14
I175
I49
tp2482
sg8
(lp2483
(I22
I200
tp2484
a(I110
I200
tp2485
a(I38
I200
tp2486
a(I77
I200
tp2487
a(I98
I200
tp2488
a(I71
I196
tp2489
a(I71
I200
tp2490
a(I13
I197
tp2491
a(I69
I200
tp2492
a(I45
I197
tp2493
a(I72
I200
tp2494
asg16
I200
sba(imain2
Polygon
p2495
(dp2496
g3
(I59
I26
tp2497
sg5
I200
sg6
(I57
I3
I237
I0
tp2498
sg8
(lp2499
(I109
I0
tp2500
a(I70
I14
tp2501
a(I81
I0
tp2502
a(I76
I0
tp2503
a(I104
I10
tp2504
a(I79
I61
tp2505
a(I80
I5
tp2506
a(I41
I24
tp2507
a(I79
I33
tp2508
asg16
I200
sba(imain2
Polygon
p2509
(dp2510
g3
(I74
I59
tp2511
sg5
I200
sg6
(I1
I47
I103
I0
tp2512
sg8
(lp2513
(I84
I47
tp2514
a(I36
I36
tp2515
a(I99
I13
tp2516
a(I105
I104
tp2517
a(I79
I79
tp2518
a(I93
I23
tp2519
a(I39
I17
tp2520
a(I27
I50
tp2521
a(I114
I66
tp2522
a(I44
I35
tp2523
asg16
I200
sba(imain2
Polygon
p2524
(dp2525
g3
(I141
I175
tp2526
sg5
I200
sg6
(I85
I37
I8
I0
tp2527
sg8
(lp2528
(I169
I200
tp2529
a(I134
I138
tp2530
a(I119
I183
tp2531
a(I149
I186
tp2532
a(I115
I184
tp2533
a(I149
I162
tp2534
a(I140
I164
tp2535
a(I169
I161
tp2536
a(I160
I187
tp2537
a(I128
I200
tp2538
a(I160
I169
tp2539
a(I136
I145
tp2540
a(I137
I186
tp2541
a(I136
I165
tp2542
a(I143
I165
tp2543
a(I94
I176
tp2544
a(I103
I156
tp2545
a(I146
I197
tp2546
a(I167
I133
tp2547
asg16
I200
sba(imain2
Polygon
p2548
(dp2549
g3
(I114
I81
tp2550
sg5
I200
sg6
(I234
I16
I199
I70
tp2551
sg8
(lp2552
(I121
I101
tp2553
a(I81
I76
tp2554
a(I125
I101
tp2555
a(I121
I83
tp2556
asg16
I200
sba(imain2
Polygon
p2557
(dp2558
g3
(I191
I128
tp2559
sg5
I200
sg6
(I243
I3
I243
I6
tp2560
sg8
(lp2561
(I200
I162
tp2562
a(I144
I170
tp2563
a(I200
I89
tp2564
a(I200
I148
tp2565
a(I153
I103
tp2566
a(I147
I78
tp2567
a(I167
I95
tp2568
asg16
I200
sba(imain2
Polygon
p2569
(dp2570
g3
(I40
I13
tp2571
sg5
I200
sg6
(I68
I180
I117
I0
tp2572
sg8
(lp2573
(I68
I50
tp2574
a(I55
I33
tp2575
a(I62
I16
tp2576
a(I0
I0
tp2577
a(I84
I0
tp2578
a(I0
I0
tp2579
a(I29
I47
tp2580
a(I0
I0
tp2581
a(I67
I7
tp2582
a(I68
I27
tp2583
a(I75
I36
tp2584
a(I7
I27
tp2585
a(I0
I43
tp2586
a(I65
I44
tp2587
a(I76
I0
tp2588
a(I0
I0
tp2589
a(I40
I25
tp2590
a(I0
I0
tp2591
a(I59
I0
tp2592
a(I53
I0
tp2593
a(I12
I0
tp2594
asg16
I200
sba(imain2
Polygon
p2595
(dp2596
g3
(I50
I145
tp2597
sg5
I200
sg6
(I54
I210
I123
I8
tp2598
sg8
(lp2599
(I3
I96
tp2600
a(I87
I159
tp2601
a(I82
I95
tp2602
asg16
I200
sba(imain2
Polygon
p2603
(dp2604
g3
(I184
I69
tp2605
sg5
I200
sg6
(I121
I136
I35
I141
tp2606
sg8
(lp2607
(I200
I63
tp2608
a(I200
I31
tp2609
a(I200
I33
tp2610
a(I200
I67
tp2611
a(I164
I71
tp2612
a(I174
I114
tp2613
a(I200
I115
tp2614
a(I200
I62
tp2615
a(I195
I79
tp2616
asg16
I200
sba(imain2
Polygon
p2617
(dp2618
g3
(I6
I29
tp2619
sg5
I200
sg6
(I137
I34
I214
I1
tp2620
sg8
(lp2621
(I56
I14
tp2622
a(I22
I17
tp2623
a(I0
I41
tp2624
a(I0
I11
tp2625
a(I48
I0
tp2626
a(I28
I0
tp2627
asg16
I200
sba(imain2
Polygon
p2628
(dp2629
g3
(I100
I197
tp2630
sg5
I200
sg6
(I28
I135
I60
I68
tp2631
sg8
(lp2632
(I123
I200
tp2633
a(I79
I200
tp2634
a(I130
I200
tp2635
a(I68
I200
tp2636
a(I62
I200
tp2637
a(I147
I200
tp2638
asg16
I200
sba(imain2
Polygon
p2639
(dp2640
g3
(I102
I67
tp2641
sg5
I200
sg6
(I107
I63
I86
I0
tp2642
sg8
(lp2643
(I136
I109
tp2644
a(I146
I64
tp2645
a(I144
I70
tp2646
a(I83
I63
tp2647
a(I116
I116
tp2648
a(I84
I99
tp2649
a(I85
I70
tp2650
a(I138
I88
tp2651
asg16
I200
sba(imain2
Polygon
p2652
(dp2653
g3
(I91
I124
tp2654
sg5
I200
sg6
(I165
I66
I8
I107
tp2655
sg8
(lp2656
(I41
I114
tp2657
a(I80
I127
tp2658
a(I83
I75
tp2659
a(I119
I114
tp2660
a(I115
I160
tp2661
a(I45
I142
tp2662
a(I66
I81
tp2663
a(I119
I80
tp2664
a(I129
I117
tp2665
a(I81
I119
tp2666
a(I76
I76
tp2667
a(I54
I89
tp2668
a(I76
I94
tp2669
a(I51
I90
tp2670
asg16
I200
sba(imain2
Polygon
p2671
(dp2672
g3
(I133
I74
tp2673
sg5
I200
sg6
(I15
I173
I90
I0
tp2674
sg8
(lp2675
(I93
I104
tp2676
a(I116
I102
tp2677
a(I97
I91
tp2678
a(I157
I40
tp2679
a(I132
I33
tp2680
a(I106
I93
tp2681
a(I153
I122
tp2682
a(I137
I81
tp2683
a(I153
I42
tp2684
a(I90
I44
tp2685
a(I181
I26
tp2686
a(I134
I86
tp2687
a(I154
I71
tp2688
a(I166
I88
tp2689
a(I129
I45
tp2690
asg16
I200
sba(imain2
Polygon
p2691
(dp2692
g3
(I181
I185
tp2693
sg5
I200
sg6
(I0
I135
I60
I0
tp2694
sg8
(lp2695
(I192
I200
tp2696
a(I197
I153
tp2697
a(I200
I157
tp2698
asg16
I200
sba(imain2
Polygon
p2699
(dp2700
g3
(I3
I9
tp2701
sg5
I200
sg6
(I111
I13
I41
I108
tp2702
sg8
(lp2703
(I0
I0
tp2704
a(I49
I0
tp2705
a(I0
I0
tp2706
asg16
I200
sba(imain2
Polygon
p2707
(dp2708
g3
(I154
I22
tp2709
sg5
I200
sg6
(I80
I179
I129
I0
tp2710
sg8
(lp2711
(I198
I49
tp2712
a(I180
I27
tp2713
a(I193
I61
tp2714
a(I124
I56
tp2715
a(I149
I0
tp2716
asg16
I200
sba(imain2
Polygon
p2717
(dp2718
g3
(I3
I51
tp2719
sg5
I200
sg6
(I8
I164
I11
I24
tp2720
sg8
(lp2721
(I0
I63
tp2722
a(I0
I78
tp2723
a(I0
I34
tp2724
a(I0
I93
tp2725
asg16
I200
sba(imain2
Polygon
p2726
(dp2727
g3
(I183
I123
tp2728
sg5
I200
sg6
(I43
I171
I187
I87
tp2729
sg8
(lp2730
(I200
I171
tp2731
a(I200
I140
tp2732
a(I200
I152
tp2733
asg16
I200
sba.