(lp0
(imain2
Polygon
p1
(dp2
S'origin'
p3
(I100
I102
tp4
sS'h'
p5
I200
sS'color'
p6
(I135
I173
I192
I0
tp7
sS'corner_list'
p8
(lp9
(I64
I88
tp10
a(I131
I112
tp11
a(I102
I68
tp12
a(I90
I128
tp13
a(I59
I95
tp14
a(I129
I142
tp15
asS'w'
p16
I200
sba(imain2
Polygon
p17
(dp18
g3
(I142
I122
tp19
sg5
I200
sg6
(I20
I220
I130
I43
tp20
sg8
(lp21
(I132
I116
tp22
a(I95
I104
tp23
a(I106
I160
tp24
a(I181
I110
tp25
a(I109
I157
tp26
a(I93
I95
tp27
a(I119
I85
tp28
a(I188
I130
tp29
a(I172
I99
tp30
a(I115
I113
tp31
a(I136
I104
tp32
a(I134
I86
tp33
a(I120
I122
tp34
asg16
I200
sba(imain2
Polygon
p35
(dp36
g3
(I39
I24
tp37
sg5
I200
sg6
(I242
I164
I201
I1
tp38
sg8
(lp39
(I88
I73
tp40
a(I20
I46
tp41
a(I84
I0
tp42
a(I85
I7
tp43
a(I30
I10
tp44
a(I27
I74
tp45
a(I0
I0
tp46
a(I62
I0
tp47
a(I12
I49
tp48
asg16
I200
sba(imain2
Polygon
p49
(dp50
g3
(I87
I73
tp51
sg5
I200
sg6
(I160
I19
I199
I104
tp52
sg8
(lp53
(I103
I121
tp54
a(I130
I63
tp55
a(I82
I102
tp56
a(I62
I79
tp57
a(I68
I47
tp58
a(I56
I110
tp59
a(I131
I54
tp60
a(I64
I117
tp61
a(I47
I56
tp62
a(I41
I24
tp63
a(I131
I68
tp64
a(I84
I59
tp65
a(I128
I91
tp66
a(I37
I92
tp67
asg16
I200
sba(imain2
Polygon
p68
(dp69
g3
(I75
I185
tp70
sg5
I200
sg6
(I71
I1
I90
I97
tp71
sg8
(lp72
(I90
I200
tp73
a(I125
I163
tp74
a(I123
I140
tp75
a(I120
I200
tp76
a(I72
I200
tp77
a(I68
I195
tp78
a(I98
I174
tp79
asg16
I200
sba(imain2
Polygon
p80
(dp81
g3
(I51
I161
tp82
sg5
I200
sg6
(I131
I134
I18
I105
tp83
sg8
(lp84
(I86
I200
tp85
a(I55
I200
tp86
a(I89
I191
tp87
asg16
I200
sba(imain2
Polygon
p88
(dp89
g3
(I76
I107
tp90
sg5
I200
sg6
(I159
I40
I204
I126
tp91
sg8
(lp92
(I97
I129
tp93
a(I40
I71
tp94
a(I118
I109
tp95
a(I55
I67
tp96
a(I106
I86
tp97
a(I107
I154
tp98
a(I53
I141
tp99
a(I48
I92
tp100
a(I101
I62
tp101
a(I76
I59
tp102
a(I81
I137
tp103
a(I87
I117
tp104
asg16
I200
sba(imain2
Polygon
p105
(dp106
g3
(I79
I45
tp107
sg5
I200
sg6
(I223
I3
I243
I1
tp108
sg8
(lp109
(I52
I93
tp110
a(I83
I20
tp111
a(I37
I47
tp112
a(I55
I45
tp113
a(I102
I24
tp114
asg16
I200
sba(imain2
Polygon
p115
(dp116
g3
(I123
I186
tp117
sg5
I200
sg6
(I50
I18
I44
I1
tp118
sg8
(lp119
(I111
I145
tp120
a(I148
I200
tp121
a(I113
I143
tp122
a(I86
I200
tp123
a(I124
I200
tp124
asg16
I200
sba(imain2
Polygon
p125
(dp126
g3
(I74
I162
tp127
sg5
I200
sg6
(I155
I95
I213
I1
tp128
sg8
(lp129
(I47
I197
tp130
a(I25
I113
tp131
a(I64
I169
tp132
a(I65
I127
tp133
a(I37
I128
tp134
a(I57
I126
tp135
a(I48
I137
tp136
a(I90
I185
tp137
a(I112
I160
tp138
a(I93
I147
tp139
a(I101
I178
tp140
a(I69
I150
tp141
a(I110
I141
tp142
a(I106
I175
tp143
asg16
I200
sba(imain2
Polygon
p144
(dp145
g3
(I64
I120
tp146
sg5
I200
sg6
(I235
I41
I173
I0
tp147
sg8
(lp148
(I70
I131
tp149
a(I37
I124
tp150
a(I96
I124
tp151
a(I65
I100
tp152
a(I35
I139
tp153
a(I105
I141
tp154
asg16
I200
sba(imain2
Polygon
p155
(dp156
g3
(I2
I37
tp157
sg5
I200
sg6
(I135
I135
I101
I119
tp158
sg8
(lp159
(I0
I0
tp160
a(I36
I34
tp161
a(I40
I0
tp162
a(I20
I35
tp163
a(I0
I66
tp164
a(I41
I3
tp165
a(I36
I68
tp166
a(I4
I86
tp167
a(I0
I74
tp168
a(I0
I85
tp169
asg16
I200
sba(imain2
Polygon
p170
(dp171
g3
(I161
I116
tp172
sg5
I200
sg6
(I152
I95
I114
I67
tp173
sg8
(lp174
(I132
I143
tp175
a(I200
I152
tp176
a(I168
I90
tp177
a(I170
I71
tp178
a(I163
I108
tp179
a(I194
I136
tp180
a(I176
I87
tp181
a(I182
I147
tp182
asg16
I200
sba(imain2
Polygon
p183
(dp184
g3
(I171
I44
tp185
sg5
I200
sg6
(I135
I237
I106
I119
tp186
sg8
(lp187
(I200
I15
tp188
a(I157
I22
tp189
a(I200
I89
tp190
a(I200
I0
tp191
a(I132
I0
tp192
a(I134
I87
tp193
a(I133
I52
tp194
a(I161
I77
tp195
a(I200
I93
tp196
a(I143
I0
tp197
a(I170
I71
tp198
a(I148
I77
tp199
a(I125
I35
tp200
a(I169
I18
tp201
a(I135
I44
tp202
asg16
I200
sba(imain2
Polygon
p203
(dp204
g3
(I196
I163
tp205
sg5
I200
sg6
(I39
I168
I7
I37
tp206
sg8
(lp207
(I200
I176
tp208
a(I200
I197
tp209
a(I200
I133
tp210
a(I200
I134
tp211
a(I193
I170
tp212
a(I200
I141
tp213
a(I155
I170
tp214
a(I200
I182
tp215
a(I198
I171
tp216
a(I200
I143
tp217
a(I170
I173
tp218
a(I179
I115
tp219
a(I171
I129
tp220
asg16
I200
sba(imain2
Polygon
p221
(dp222
g3
(I123
I35
tp223
sg5
I200
sg6
(I144
I62
I72
I1
tp224
sg8
(lp225
(I150
I83
tp226
a(I108
I40
tp227
a(I145
I0
tp228
a(I90
I9
tp229
a(I158
I15
tp230
a(I90
I72
tp231
a(I93
I22
tp232
a(I94
I0
tp233
a(I88
I0
tp234
asg16
I200
sba(imain2
Polygon
p235
(dp236
g3
(I38
I152
tp237
sg5
I200
sg6
(I95
I166
I36
I141
tp238
sg8
(lp239
(I87
I136
tp240
a(I79
I127
tp241
a(I49
I126
tp242
a(I73
I158
tp243
asg16
I200
sba(imain2
Polygon
p244
(dp245
g3
(I118
I157
tp246
sg5
I200
sg6
(I87
I63
I44
I0
tp247
sg8
(lp248
(I75
I131
tp249
a(I152
I159
tp250
a(I115
I173
tp251
a(I145
I182
tp252
asg16
I200
sba(imain2
Polygon
p253
(dp254
g3
(I10
I175
tp255
sg5
I200
sg6
(I175
I55
I62
I26
tp256
sg8
(lp257
(I0
I200
tp258
a(I0
I134
tp259
a(I0
I200
tp260
a(I0
I168
tp261
a(I0
I183
tp262
a(I0
I200
tp263
asg16
I200
sba(imain2
Polygon
p264
(dp265
g3
(I4
I131
tp266
sg5
I200
sg6
(I124
I53
I63
I0
tp267
sg8
(lp268
(I0
I145
tp269
a(I25
I135
tp270
a(I41
I127
tp271
a(I29
I157
tp272
a(I0
I148
tp273
a(I0
I167
tp274
a(I0
I99
tp275
a(I18
I159
tp276
a(I0
I176
tp277
a(I0
I119
tp278
a(I20
I147
tp279
a(I0
I164
tp280
a(I0
I97
tp281
a(I40
I164
tp282
asg16
I200
sba(imain2
Polygon
p283
(dp284
g3
(I75
I51
tp285
sg5
I200
sg6
(I104
I198
I0
I19
tp286
sg8
(lp287
(I92
I83
tp288
a(I27
I68
tp289
a(I121
I74
tp290
a(I59
I24
tp291
a(I105
I56
tp292
a(I40
I39
tp293
a(I32
I21
tp294
asg16
I200
sba(imain2
Polygon
p295
(dp296
g3
(I18
I101
tp297
sg5
I200
sg6
(I0
I13
I72
I61
tp298
sg8
(lp299
(I28
I94
tp300
a(I15
I116
tp301
a(I33
I100
tp302
a(I5
I78
tp303
a(I4
I107
tp304
asg16
I200
sba(imain2
Polygon
p305
(dp306
g3
(I97
I199
tp307
sg5
I200
sg6
(I0
I109
I46
I126
tp308
sg8
(lp309
(I133
I197
tp310
a(I61
I200
tp311
a(I131
I200
tp312
a(I104
I200
tp313
a(I77
I191
tp314
a(I146
I200
tp315
a(I121
I200
tp316
a(I103
I160
tp317
a(I97
I158
tp318
a(I87
I180
tp319
a(I69
I200
tp320
a(I87
I171
tp321
a(I99
I160
tp322
asg16
I200
sba(imain2
Polygon
p323
(dp324
g3
(I102
I104
tp325
sg5
I200
sg6
(I220
I125
I131
I77
tp326
sg8
(lp327
(I105
I151
tp328
a(I105
I63
tp329
a(I59
I58
tp330
a(I57
I131
tp331
a(I74
I153
tp332
asg16
I200
sba(imain2
Polygon
p333
(dp334
g3
(I177
I176
tp335
sg5
I200
sg6
(I113
I207
I217
I48
tp336
sg8
(lp337
(I200
I138
tp338
a(I176
I126
tp339
a(I200
I200
tp340
asg16
I200
sba(imain2
Polygon
p341
(dp342
g3
(I99
I27
tp343
sg5
I200
sg6
(I74
I85
I0
I113
tp344
sg8
(lp345
(I143
I0
tp346
a(I53
I0
tp347
a(I97
I73
tp348
asg16
I200
sba(imain2
Polygon
p349
(dp350
g3
(I138
I156
tp351
sg5
I200
sg6
(I19
I58
I187
I0
tp352
sg8
(lp353
(I134
I187
tp354
a(I141
I197
tp355
a(I111
I148
tp356
asg16
I200
sba(imain2
Polygon
p357
(dp358
g3
(I100
I129
tp359
sg5
I200
sg6
(I113
I216
I221
I1
tp360
sg8
(lp361
(I84
I92
tp362
a(I129
I177
tp363
a(I118
I84
tp364
asg16
I200
sba(imain2
Polygon
p365
(dp366
g3
(I90
I2
tp367
sg5
I200
sg6
(I195
I195
I3
I3
tp368
sg8
(lp369
(I116
I0
tp370
a(I84
I39
tp371
a(I122
I0
tp372
a(I49
I48
tp373
a(I90
I51
tp374
a(I43
I0
tp375
a(I60
I1
tp376
a(I89
I0
tp377
a(I107
I0
tp378
asg16
I200
sba(imain2
Polygon
p379
(dp380
g3
(I76
I49
tp381
sg5
I200
sg6
(I246
I165
I178
I103
tp382
sg8
(lp383
(I52
I54
tp384
a(I62
I34
tp385
a(I99
I36
tp386
a(I124
I78
tp387
a(I91
I88
tp388
a(I47
I82
tp389
asg16
I200
sba(imain2
Polygon
p390
(dp391
g3
(I135
I193
tp392
sg5
I200
sg6
(I204
I201
I63
I0
tp393
sg8
(lp394
(I100
I154
tp395
a(I124
I200
tp396
a(I146
I155
tp397
a(I91
I200
tp398
a(I178
I191
tp399
a(I164
I200
tp400
a(I129
I171
tp401
a(I119
I183
tp402
a(I149
I200
tp403
asg16
I200
sba(imain2
Polygon
p404
(dp405
g3
(I156
I197
tp406
sg5
I200
sg6
(I79
I234
I83
I14
tp407
sg8
(lp408
(I183
I162
tp409
a(I198
I200
tp410
a(I122
I200
tp411
a(I110
I200
tp412
a(I167
I158
tp413
asg16
I200
sba(imain2
Polygon
p414
(dp415
g3
(I159
I95
tp416
sg5
I200
sg6
(I164
I25
I16
I1
tp417
sg8
(lp418
(I176
I110
tp419
a(I198
I135
tp420
a(I123
I72
tp421
a(I200
I98
tp422
a(I116
I98
tp423
a(I143
I95
tp424
a(I153
I85
tp425
a(I163
I133
tp426
asg16
I200
sba(imain2
Polygon
p427
(dp428
g3
(I130
I187
tp429
sg5
I200
sg6
(I178
I73
I86
I74
tp430
sg8
(lp431
(I138
I200
tp432
a(I152
I194
tp433
a(I100
I200
tp434
a(I168
I192
tp435
a(I164
I200
tp436
a(I97
I159
tp437
a(I90
I200
tp438
asg16
I200
sba(imain2
Polygon
p439
(dp440
g3
(I56
I194
tp441
sg5
I200
sg6
(I191
I173
I2
I42
tp442
sg8
(lp443
(I6
I200
tp444
a(I26
I200
tp445
a(I15
I171
tp446
a(I36
I176
tp447
a(I17
I200
tp448
a(I23
I200
tp449
a(I6
I200
tp450
a(I75
I169
tp451
asg16
I200
sba(imain2
Polygon
p452
(dp453
g3
(I180
I160
tp454
sg5
I200
sg6
(I31
I41
I108
I63
tp455
sg8
(lp456
(I192
I143
tp457
a(I162
I139
tp458
a(I184
I129
tp459
a(I200
I167
tp460
a(I196
I176
tp461
a(I200
I161
tp462
a(I197
I200
tp463
a(I161
I136
tp464
asg16
I200
sba(imain2
Polygon
p465
(dp466
g3
(I12
I87
tp467
sg5
I200
sg6
(I50
I131
I182
I13
tp468
sg8
(lp469
(I0
I89
tp470
a(I0
I54
tp471
a(I22
I67
tp472
a(I36
I59
tp473
a(I18
I37
tp474
a(I8
I123
tp475
a(I1
I124
tp476
a(I0
I39
tp477
asg16
I200
sba(imain2
Polygon
p478
(dp479
g3
(I123
I91
tp480
sg5
I200
sg6
(I232
I0
I184
I70
tp481
sg8
(lp482
(I93
I69
tp483
a(I117
I112
tp484
a(I124
I58
tp485
a(I77
I102
tp486
a(I122
I119
tp487
asg16
I200
sba(imain2
Polygon
p488
(dp489
g3
(I80
I122
tp490
sg5
I200
sg6
(I220
I176
I139
I79
tp491
sg8
(lp492
(I116
I143
tp493
a(I129
I85
tp494
a(I44
I101
tp495
a(I75
I158
tp496
asg16
I200
sba(imain2
Polygon
p497
(dp498
g3
(I119
I156
tp499
sg5
I200
sg6
(I125
I215
I195
I48
tp500
sg8
(lp501
(I96
I178
tp502
a(I141
I200
tp503
a(I121
I144
tp504
a(I90
I178
tp505
a(I70
I199
tp506
a(I133
I200
tp507
a(I69
I119
tp508
a(I111
I144
tp509
a(I86
I137
tp510
asg16
I200
sba(imain2
Polygon
p511
(dp512
g3
(I66
I96
tp513
sg5
I200
sg6
(I109
I72
I64
I110
tp514
sg8
(lp515
(I24
I133
tp516
a(I20
I88
tp517
a(I24
I60
tp518
a(I64
I124
tp519
a(I72
I129
tp520
a(I100
I145
tp521
a(I30
I82
tp522
a(I36
I114
tp523
asg16
I200
sba(imain2
Polygon
p524
(dp525
g3
(I17
I178
tp526
sg5
I200
sg6
(I82
I66
I13
I1
tp527
sg8
(lp528
(I0
I175
tp529
a(I61
I138
tp530
a(I0
I168
tp531
a(I0
I200
tp532
a(I34
I135
tp533
a(I5
I195
tp534
a(I0
I128
tp535
a(I24
I133
tp536
asg16
I200
sba(imain2
Polygon
p537
(dp538
g3
(I196
I157
tp539
sg5
I200
sg6
(I27
I207
I68
I1
tp540
sg8
(lp541
(I148
I153
tp542
a(I200
I130
tp543
a(I158
I111
tp544
a(I200
I151
tp545
a(I200
I170
tp546
a(I200
I120
tp547
a(I188
I123
tp548
a(I190
I127
tp549
a(I189
I185
tp550
a(I165
I144
tp551
a(I168
I182
tp552
a(I197
I138
tp553
a(I200
I174
tp554
a(I200
I134
tp555
a(I200
I166
tp556
a(I163
I117
tp557
a(I155
I146
tp558
a(I161
I119
tp559
asg16
I200
sba(imain2
Polygon
p560
(dp561
g3
(I7
I138
tp562
sg5
I200
sg6
(I209
I110
I10
I0
tp563
sg8
(lp564
(I51
I90
tp565
a(I54
I125
tp566
a(I30
I114
tp567
a(I0
I163
tp568
a(I11
I151
tp569
a(I0
I88
tp570
a(I14
I121
tp571
a(I37
I159
tp572
a(I0
I96
tp573
a(I2
I141
tp574
a(I29
I156
tp575
a(I15
I108
tp576
a(I0
I141
tp577
asg16
I200
sba(imain2
Polygon
p578
(dp579
g3
(I49
I75
tp580
sg5
I200
sg6
(I117
I229
I16
I28
tp581
sg8
(lp582
(I76
I115
tp583
a(I96
I95
tp584
a(I72
I90
tp585
a(I38
I118
tp586
a(I35
I74
tp587
a(I91
I46
tp588
a(I35
I64
tp589
a(I75
I88
tp590
a(I0
I118
tp591
a(I3
I64
tp592
a(I8
I49
tp593
a(I41
I49
tp594
a(I47
I83
tp595
a(I67
I65
tp596
asg16
I200
sba(imain2
Polygon
p597
(dp598
g3
(I75
I73
tp599
sg5
I200
sg6
(I161
I134
I136
I141
tp600
sg8
(lp601
(I108
I39
tp602
a(I122
I103
tp603
a(I47
I117
tp604
a(I62
I34
tp605
asg16
I200
sba(imain2
Polygon
p606
(dp607
g3
(I82
I103
tp608
sg5
I200
sg6
(I96
I97
I61
I0
tp609
sg8
(lp610
(I120
I107
tp611
a(I85
I103
tp612
a(I48
I94
tp613
a(I124
I68
tp614
a(I44
I109
tp615
a(I67
I133
tp616
a(I113
I64
tp617
a(I72
I75
tp618
a(I131
I64
tp619
a(I87
I92
tp620
a(I60
I69
tp621
a(I71
I97
tp622
a(I114
I87
tp623
a(I41
I99
tp624
a(I93
I107
tp625
a(I106
I80
tp626
a(I78
I116
tp627
a(I33
I114
tp628
a(I54
I64
tp629
asg16
I200
sba(imain2
Polygon
p630
(dp631
g3
(I126
I26
tp632
sg5
I200
sg6
(I238
I182
I126
I116
tp633
sg8
(lp634
(I138
I12
tp635
a(I156
I0
tp636
a(I122
I21
tp637
a(I87
I0
tp638
a(I148
I0
tp639
a(I77
I0
tp640
a(I162
I0
tp641
a(I175
I33
tp642
a(I168
I75
tp643
asg16
I200
sba(imain2
Polygon
p644
(dp645
g3
(I128
I23
tp646
sg5
I200
sg6
(I106
I1
I85
I0
tp647
sg8
(lp648
(I153
I31
tp649
a(I156
I0
tp650
a(I137
I0
tp651
a(I92
I73
tp652
a(I172
I0
tp653
a(I172
I68
tp654
a(I142
I0
tp655
a(I153
I43
tp656
a(I116
I0
tp657
a(I87
I56
tp658
a(I136
I59
tp659
a(I78
I0
tp660
a(I144
I0
tp661
a(I85
I3
tp662
asg16
I200
sba(imain2
Polygon
p663
(dp664
g3
(I147
I59
tp665
sg5
I200
sg6
(I0
I240
I189
I75
tp666
sg8
(lp667
(I174
I31
tp668
a(I155
I19
tp669
a(I167
I25
tp670
asg16
I200
sba(imain2
Polygon
p671
(dp672
g3
(I105
I192
tp673
sg5
I200
sg6
(I178
I21
I174
I0
tp674
sg8
(lp675
(I124
I200
tp676
a(I76
I200
tp677
a(I97
I200
tp678
asg16
I200
sba(imain2
Polygon
p679
(dp680
g3
(I144
I60
tp681
sg5
I200
sg6
(I60
I234
I8
I0
tp682
sg8
(lp683
(I100
I77
tp684
a(I160
I42
tp685
a(I131
I18
tp686
a(I136
I52
tp687
a(I115
I19
tp688
asg16
I200
sba(imain2
Polygon
p689
(dp690
g3
(I177
I86
tp691
sg5
I200
sg6
(I169
I33
I16
I0
tp692
sg8
(lp693
(I152
I97
tp694
a(I200
I117
tp695
a(I165
I74
tp696
a(I192
I40
tp697
a(I193
I45
tp698
a(I180
I119
tp699
a(I200
I88
tp700
a(I182
I94
tp701
a(I141
I67
tp702
asg16
I200
sba(imain2
Polygon
p703
(dp704
g3
(I157
I117
tp705
sg5
I200
sg6
(I43
I29
I0
I73
tp706
sg8
(lp707
(I188
I133
tp708
a(I200
I147
tp709
a(I128
I75
tp710
a(I142
I67
tp711
a(I170
I143
tp712
a(I183
I145
tp713
a(I150
I138
tp714
a(I189
I84
tp715
asg16
I200
sba(imain2
Polygon
p716
(dp717
g3
(I155
I192
tp718
sg5
I200
sg6
(I0
I38
I195
I0
tp719
sg8
(lp720
(I178
I179
tp721
a(I145
I200
tp722
a(I137
I160
tp723
a(I111
I200
tp724
a(I147
I154
tp725
a(I187
I169
tp726
a(I130
I176
tp727
a(I117
I158
tp728
a(I120
I188
tp729
a(I153
I200
tp730
asg16
I200
sba(imain2
Polygon
p731
(dp732
g3
(I103
I158
tp733
sg5
I200
sg6
(I13
I45
I119
I74
tp734
sg8
(lp735
(I131
I127
tp736
a(I87
I181
tp737
a(I135
I127
tp738
a(I86
I148
tp739
a(I99
I154
tp740
a(I131
I117
tp741
a(I66
I200
tp742
a(I105
I140
tp743
a(I96
I148
tp744
asg16
I200
sba(imain2
Polygon
p745
(dp746
g3
(I9
I151
tp747
sg5
I200
sg6
(I123
I83
I57
I42
tp748
sg8
(lp749
(I45
I113
tp750
a(I0
I189
tp751
a(I0
I115
tp752
a(I21
I130
tp753
a(I0
I157
tp754
a(I28
I177
tp755
a(I44
I122
tp756
a(I11
I193
tp757
asg16
I200
sba(imain2
Polygon
p758
(dp759
g3
(I114
I115
tp760
sg5
I200
sg6
(I168
I159
I140
I12
tp761
sg8
(lp762
(I66
I160
tp763
a(I76
I66
tp764
a(I64
I113
tp765
a(I74
I70
tp766
a(I71
I111
tp767
a(I89
I155
tp768
a(I64
I162
tp769
asg16
I200
sba(imain2
Polygon
p770
(dp771
g3
(I114
I99
tp772
sg5
I200
sg6
(I61
I241
I9
I56
tp773
sg8
(lp774
(I110
I120
tp775
a(I117
I134
tp776
a(I126
I70
tp777
a(I104
I71
tp778
a(I123
I102
tp779
a(I133
I126
tp780
a(I72
I108
tp781
a(I82
I55
tp782
a(I70
I56
tp783
a(I67
I105
tp784
a(I103
I135
tp785
a(I65
I93
tp786
a(I139
I67
tp787
asg16
I200
sba(imain2
Polygon
p788
(dp789
g3
(I173
I62
tp790
sg5
I200
sg6
(I1
I42
I168
I110
tp791
sg8
(lp792
(I200
I82
tp793
a(I200
I84
tp794
a(I178
I49
tp795
a(I192
I90
tp796
a(I146
I61
tp797
asg16
I200
sba(imain2
Polygon
p798
(dp799
g3
(I199
I171
tp800
sg5
I200
sg6
(I1
I236
I14
I33
tp801
sg8
(lp802
(I200
I200
tp803
a(I200
I186
tp804
a(I199
I149
tp805
asg16
I200
sba(imain2
Polygon
p806
(dp807
g3
(I195
I126
tp808
sg5
I200
sg6
(I211
I219
I29
I0
tp809
sg8
(lp810
(I146
I99
tp811
a(I199
I161
tp812
a(I197
I169
tp813
a(I200
I164
tp814
a(I196
I163
tp815
a(I200
I114
tp816
a(I175
I79
tp817
a(I200
I91
tp818
a(I188
I145
tp819
a(I179
I163
tp820
a(I183
I169
tp821
a(I199
I106
tp822
asg16
I200
sba(imain2
Polygon
p823
(dp824
g3
(I51
I190
tp825
sg5
I200
sg6
(I127
I173
I100
I77
tp826
sg8
(lp827
(I40
I200
tp828
a(I11
I200
tp829
a(I36
I200
tp830
a(I60
I200
tp831
a(I96
I168
tp832
a(I97
I200
tp833
a(I55
I200
tp834
a(I3
I200
tp835
a(I35
I200
tp836
a(I70
I200
tp837
asg16
I200
sba(imain2
Polygon
p838
(dp839
g3
(I200
I5
tp840
sg5
I200
sg6
(I187
I109
I45
I1
tp841
sg8
(lp842
(I200
I50
tp843
a(I193
I0
tp844
a(I165
I28
tp845
a(I194
I0
tp846
a(I185
I0
tp847
a(I167
I0
tp848
a(I200
I0
tp849
a(I200
I24
tp850
asg16
I200
sba(imain2
Polygon
p851
(dp852
g3
(I147
I166
tp853
sg5
I200
sg6
(I116
I241
I224
I23
tp854
sg8
(lp855
(I127
I142
tp856
a(I108
I131
tp857
a(I155
I192
tp858
a(I107
I165
tp859
a(I123
I166
tp860
a(I132
I125
tp861
a(I103
I176
tp862
asg16
I200
sba(imain2
Polygon
p863
(dp864
g3
(I16
I191
tp865
sg5
I200
sg6
(I129
I48
I223
I0
tp866
sg8
(lp867
(I26
I200
tp868
a(I0
I200
tp869
a(I59
I200
tp870
asg16
I200
sba(imain2
Polygon
p871
(dp872
g3
(I94
I9
tp873
sg5
I200
sg6
(I200
I52
I23
I1
tp874
sg8
(lp875
(I134
I41
tp876
a(I52
I39
tp877
a(I79
I52
tp878
a(I64
I48
tp879
a(I105
I0
tp880
a(I101
I37
tp881
a(I53
I5
tp882
a(I46
I24
tp883
a(I111
I1
tp884
a(I109
I0
tp885
a(I137
I18
tp886
asg16
I200
sba(imain2
Polygon
p887
(dp888
g3
(I111
I113
tp889
sg5
I200
sg6
(I90
I32
I146
I0
tp890
sg8
(lp891
(I83
I120
tp892
a(I85
I110
tp893
a(I161
I131
tp894
a(I146
I122
tp895
asg16
I200
sba(imain2
Polygon
p896
(dp897
g3
(I10
I81
tp898
sg5
I200
sg6
(I220
I164
I194
I1
tp899
sg8
(lp900
(I60
I131
tp901
a(I0
I33
tp902
a(I0
I62
tp903
a(I12
I107
tp904
a(I0
I101
tp905
a(I60
I111
tp906
a(I23
I40
tp907
a(I18
I76
tp908
a(I0
I48
tp909
asg16
I200
sba(imain2
Polygon
p910
(dp911
g3
(I10
I22
tp912
sg5
I200
sg6
(I220
I208
I108
I77
tp913
sg8
(lp914
(I13
I31
tp915
a(I10
I0
tp916
a(I52
I43
tp917
a(I8
I71
tp918
a(I0
I70
tp919
a(I12
I0
tp920
a(I0
I0
tp921
a(I0
I66
tp922
a(I13
I7
tp923
a(I39
I0
tp924
a(I26
I4
tp925
asg16
I200
sba(imain2
Polygon
p926
(dp927
g3
(I19
I169
tp928
sg5
I200
sg6
(I90
I217
I81
I1
tp929
sg8
(lp930
(I49
I128
tp931
a(I44
I183
tp932
a(I17
I185
tp933
asg16
I200
sba(imain2
Polygon
p934
(dp935
g3
(I194
I7
tp936
sg5
I200
sg6
(I166
I92
I134
I15
tp937
sg8
(lp938
(I200
I0
tp939
a(I200
I0
tp940
a(I200
I29
tp941
a(I160
I25
tp942
a(I200
I5
tp943
a(I200
I50
tp944
a(I200
I0
tp945
a(I172
I55
tp946
a(I180
I0
tp947
asg16
I200
sba(imain2
Polygon
p948
(dp949
g3
(I42
I15
tp950
sg5
I200
sg6
(I149
I137
I166
I1
tp951
sg8
(lp952
(I36
I3
tp953
a(I36
I34
tp954
a(I43
I0
tp955
a(I58
I50
tp956
a(I0
I65
tp957
a(I69
I0
tp958
a(I63
I19
tp959
a(I53
I38
tp960
a(I0
I10
tp961
a(I68
I0
tp962
a(I17
I0
tp963
asg16
I200
sba(imain2
Polygon
p964
(dp965
g3
(I183
I77
tp966
sg5
I200
sg6
(I25
I142
I28
I42
tp967
sg8
(lp968
(I176
I77
tp969
a(I200
I75
tp970
a(I200
I86
tp971
a(I156
I32
tp972
a(I200
I40
tp973
a(I190
I28
tp974
a(I197
I90
tp975
asg16
I200
sba(imain2
Polygon
p976
(dp977
g3
(I190
I45
tp978
sg5
I200
sg6
(I179
I46
I185
I1
tp979
sg8
(lp980
(I200
I45
tp981
a(I200
I26
tp982
a(I200
I81
tp983
a(I200
I14
tp984
a(I200
I31
tp985
a(I179
I86
tp986
a(I200
I7
tp987
a(I200
I81
tp988
a(I158
I35
tp989
a(I156
I30
tp990
asg16
I200
sba(imain2
Polygon
p991
(dp992
g3
(I115
I69
tp993
sg5
I200
sg6
(I0
I122
I192
I0
tp994
sg8
(lp995
(I77
I118
tp996
a(I67
I86
tp997
a(I143
I76
tp998
a(I109
I36
tp999
a(I91
I106
tp1000
a(I138
I27
tp1001
asg16
I200
sba(imain2
Polygon
p1002
(dp1003
g3
(I173
I121
tp1004
sg5
I200
sg6
(I243
I56
I23
I0
tp1005
sg8
(lp1006
(I164
I100
tp1007
a(I143
I139
tp1008
a(I158
I152
tp1009
a(I185
I134
tp1010
a(I200
I136
tp1011
a(I200
I158
tp1012
a(I200
I89
tp1013
a(I192
I111
tp1014
a(I182
I154
tp1015
asg16
I200
sba(imain2
Polygon
p1016
(dp1017
g3
(I45
I135
tp1018
sg5
I200
sg6
(I150
I127
I179
I57
tp1019
sg8
(lp1020
(I7
I177
tp1021
a(I21
I178
tp1022
a(I23
I86
tp1023
a(I0
I183
tp1024
a(I7
I176
tp1025
a(I16
I139
tp1026
a(I10
I100
tp1027
asg16
I200
sba(imain2
Polygon
p1028
(dp1029
g3
(I61
I48
tp1030
sg5
I200
sg6
(I77
I36
I123
I132
tp1031
sg8
(lp1032
(I71
I86
tp1033
a(I81
I91
tp1034
a(I73
I78
tp1035
a(I47
I85
tp1036
a(I68
I93
tp1037
a(I86
I72
tp1038
a(I85
I73
tp1039
a(I53
I98
tp1040
asg16
I200
sba(imain2
Polygon
p1041
(dp1042
g3
(I96
I154
tp1043
sg5
I200
sg6
(I149
I185
I187
I68
tp1044
sg8
(lp1045
(I51
I113
tp1046
a(I57
I106
tp1047
a(I90
I200
tp1048
a(I142
I200
tp1049
a(I53
I114
tp1050
a(I124
I143
tp1051
asg16
I200
sba(imain2
Polygon
p1052
(dp1053
g3
(I32
I146
tp1054
sg5
I200
sg6
(I62
I240
I71
I115
tp1055
sg8
(lp1056
(I0
I157
tp1057
a(I0
I165
tp1058
a(I0
I132
tp1059
asg16
I200
sba(imain2
Polygon
p1060
(dp1061
g3
(I3
I120
tp1062
sg5
I200
sg6
(I187
I178
I17
I61
tp1063
sg8
(lp1064
(I38
I71
tp1065
a(I0
I72
tp1066
a(I0
I90
tp1067
a(I0
I104
tp1068
a(I0
I132
tp1069
a(I20
I116
tp1070
asg16
I200
sba(imain2
Polygon
p1071
(dp1072
g3
(I74
I152
tp1073
sg5
I200
sg6
(I60
I81
I127
I1
tp1074
sg8
(lp1075
(I76
I114
tp1076
a(I80
I138
tp1077
a(I96
I106
tp1078
a(I101
I200
tp1079
a(I81
I127
tp1080
a(I102
I147
tp1081
a(I58
I155
tp1082
a(I118
I127
tp1083
a(I81
I105
tp1084
a(I47
I134
tp1085
asg16
I200
sba(imain2
Polygon
p1086
(dp1087
g3
(I31
I192
tp1088
sg5
I200
sg6
(I154
I34
I136
I1
tp1089
sg8
(lp1090
(I0
I173
tp1091
a(I8
I189
tp1092
a(I0
I200
tp1093
a(I5
I196
tp1094
a(I36
I200
tp1095
a(I80
I200
tp1096
a(I50
I144
tp1097
a(I25
I200
tp1098
a(I51
I189
tp1099
a(I25
I197
tp1100
a(I41
I172
tp1101
a(I22
I162
tp1102
a(I17
I200
tp1103
a(I7
I200
tp1104
a(I79
I157
tp1105
a(I34
I200
tp1106
a(I31
I164
tp1107
asg16
I200
sba(imain2
Polygon
p1108
(dp1109
g3
(I99
I149
tp1110
sg5
I200
sg6
(I190
I32
I204
I1
tp1111
sg8
(lp1112
(I110
I116
tp1113
a(I76
I160
tp1114
a(I140
I139
tp1115
a(I124
I139
tp1116
a(I114
I142
tp1117
a(I144
I195
tp1118
a(I115
I191
tp1119
a(I55
I199
tp1120
a(I98
I155
tp1121
a(I128
I177
tp1122
a(I118
I113
tp1123
a(I123
I190
tp1124
a(I103
I151
tp1125
a(I123
I124
tp1126
asg16
I200
sba(imain2
Polygon
p1127
(dp1128
g3
(I183
I115
tp1129
sg5
I200
sg6
(I22
I109
I181
I151
tp1130
sg8
(lp1131
(I200
I102
tp1132
a(I200
I98
tp1133
a(I165
I93
tp1134
a(I200
I102
tp1135
a(I193
I132
tp1136
a(I181
I84
tp1137
a(I200
I87
tp1138
asg16
I200
sba(imain2
Polygon
p1139
(dp1140
g3
(I141
I107
tp1141
sg5
I200
sg6
(I79
I146
I87
I153
tp1142
sg8
(lp1143
(I115
I124
tp1144
a(I95
I75
tp1145
a(I111
I152
tp1146
asg16
I200
sba(imain2
Polygon
p1147
(dp1148
g3
(I149
I72
tp1149
sg5
I200
sg6
(I64
I107
I166
I43
tp1150
sg8
(lp1151
(I185
I38
tp1152
a(I192
I63
tp1153
a(I155
I38
tp1154
a(I99
I25
tp1155
a(I173
I40
tp1156
a(I128
I80
tp1157
a(I130
I80
tp1158
a(I99
I71
tp1159
a(I150
I68
tp1160
a(I153
I27
tp1161
a(I107
I42
tp1162
asg16
I200
sba(imain2
Polygon
p1163
(dp1164
g3
(I67
I128
tp1165
sg5
I200
sg6
(I212
I148
I54
I41
tp1166
sg8
(lp1167
(I80
I142
tp1168
a(I63
I86
tp1169
a(I108
I113
tp1170
a(I115
I152
tp1171
a(I46
I122
tp1172
a(I62
I84
tp1173
a(I51
I136
tp1174
a(I55
I110
tp1175
asg16
I200
sba(imain2
Polygon
p1176
(dp1177
g3
(I183
I44
tp1178
sg5
I200
sg6
(I81
I13
I173
I0
tp1179
sg8
(lp1180
(I200
I4
tp1181
a(I192
I31
tp1182
a(I200
I50
tp1183
a(I200
I33
tp1184
a(I167
I15
tp1185
a(I190
I1
tp1186
asg16
I200
sba(imain2
Polygon
p1187
(dp1188
g3
(I100
I61
tp1189
sg5
I200
sg6
(I202
I98
I42
I51
tp1190
sg8
(lp1191
(I108
I26
tp1192
a(I99
I64
tp1193
a(I91
I106
tp1194
a(I96
I24
tp1195
a(I95
I52
tp1196
a(I126
I64
tp1197
a(I74
I24
tp1198
a(I135
I84
tp1199
a(I53
I108
tp1200
a(I109
I45
tp1201
a(I103
I84
tp1202
asg16
I200
sba(imain2
Polygon
p1203
(dp1204
g3
(I52
I190
tp1205
sg5
I200
sg6
(I176
I148
I50
I90
tp1206
sg8
(lp1207
(I71
I200
tp1208
a(I89
I171
tp1209
a(I102
I200
tp1210
a(I94
I200
tp1211
a(I40
I200
tp1212
a(I95
I200
tp1213
a(I7
I200
tp1214
asg16
I200
sba(imain2
Polygon
p1215
(dp1216
g3
(I151
I65
tp1217
sg5
I200
sg6
(I64
I180
I1
I107
tp1218
sg8
(lp1219
(I176
I54
tp1220
a(I190
I82
tp1221
a(I166
I54
tp1222
a(I176
I89
tp1223
a(I165
I61
tp1224
a(I111
I63
tp1225
a(I119
I77
tp1226
a(I169
I47
tp1227
a(I152
I61
tp1228
asg16
I200
sba(imain2
Polygon
p1229
(dp1230
g3
(I67
I20
tp1231
sg5
I200
sg6
(I166
I93
I189
I114
tp1232
sg8
(lp1233
(I17
I0
tp1234
a(I29
I39
tp1235
a(I112
I0
tp1236
a(I27
I0
tp1237
a(I107
I0
tp1238
asg16
I200
sba(imain2
Polygon
p1239
(dp1240
g3
(I199
I56
tp1241
sg5
I200
sg6
(I161
I0
I108
I0
tp1242
sg8
(lp1243
(I200
I61
tp1244
a(I197
I80
tp1245
a(I165
I70
tp1246
a(I200
I88
tp1247
a(I171
I66
tp1248
a(I181
I100
tp1249
a(I188
I9
tp1250
a(I198
I104
tp1251
a(I188
I15
tp1252
a(I200
I90
tp1253
a(I200
I16
tp1254
asg16
I200
sba(imain2
Polygon
p1255
(dp1256
g3
(I185
I38
tp1257
sg5
I200
sg6
(I128
I218
I69
I164
tp1258
sg8
(lp1259
(I200
I69
tp1260
a(I200
I0
tp1261
a(I196
I0
tp1262
a(I154
I0
tp1263
a(I146
I42
tp1264
a(I200
I5
tp1265
a(I200
I5
tp1266
a(I142
I46
tp1267
a(I155
I22
tp1268
a(I181
I67
tp1269
a(I187
I70
tp1270
a(I138
I0
tp1271
a(I200
I50
tp1272
a(I141
I1
tp1273
a(I171
I85
tp1274
asg16
I200
sba(imain2
Polygon
p1275
(dp1276
g3
(I67
I149
tp1277
sg5
I200
sg6
(I93
I207
I214
I50
tp1278
sg8
(lp1279
(I111
I118
tp1280
a(I92
I149
tp1281
a(I45
I104
tp1282
a(I59
I150
tp1283
a(I108
I132
tp1284
a(I64
I107
tp1285
a(I107
I140
tp1286
a(I111
I166
tp1287
asg16
I200
sba(imain2
Polygon
p1288
(dp1289
g3
(I21
I182
tp1290
sg5
I200
sg6
(I112
I116
I0
I97
tp1291
sg8
(lp1292
(I67
I200
tp1293
a(I0
I160
tp1294
a(I59
I164
tp1295
a(I20
I169
tp1296
a(I14
I161
tp1297
a(I41
I200
tp1298
a(I0
I181
tp1299
a(I19
I200
tp1300
a(I0
I143
tp1301
a(I13
I200
tp1302
a(I0
I144
tp1303
a(I0
I194
tp1304
a(I36
I200
tp1305
a(I13
I195
tp1306
a(I16
I140
tp1307
a(I68
I182
tp1308
a(I0
I133
tp1309
a(I47
I191
tp1310
asg16
I200
sba(imain2
Polygon
p1311
(dp1312
g3
(I145
I176
tp1313
sg5
I200
sg6
(I185
I171
I1
I43
tp1314
sg8
(lp1315
(I109
I200
tp1316
a(I101
I200
tp1317
a(I138
I200
tp1318
a(I120
I137
tp1319
a(I98
I200
tp1320
asg16
I200
sba(imain2
Polygon
p1321
(dp1322
g3
(I102
I21
tp1323
sg5
I200
sg6
(I182
I178
I187
I61
tp1324
sg8
(lp1325
(I129
I69
tp1326
a(I61
I26
tp1327
a(I53
I14
tp1328
a(I104
I12
tp1329
a(I146
I25
tp1330
a(I143
I7
tp1331
a(I142
I0
tp1332
a(I59
I0
tp1333
a(I76
I62
tp1334
asg16
I200
sba(imain2
Polygon
p1335
(dp1336
g3
(I154
I30
tp1337
sg5
I200
sg6
(I50
I97
I61
I0
tp1338
sg8
(lp1339
(I115
I73
tp1340
a(I122
I61
tp1341
a(I124
I34
tp1342
a(I200
I56
tp1343
a(I169
I73
tp1344
a(I162
I48
tp1345
a(I140
I39
tp1346
a(I110
I28
tp1347
a(I195
I27
tp1348
a(I155
I0
tp1349
asg16
I200
sba(imain2
Polygon
p1350
(dp1351
g3
(I171
I178
tp1352
sg5
I200
sg6
(I94
I230
I32
I17
tp1353
sg8
(lp1354
(I121
I194
tp1355
a(I151
I200
tp1356
a(I122
I178
tp1357
a(I200
I200
tp1358
a(I200
I151
tp1359
a(I200
I135
tp1360
a(I150
I187
tp1361
a(I133
I189
tp1362
asg16
I200
sba(imain2
Polygon
p1363
(dp1364
g3
(I189
I152
tp1365
sg5
I200
sg6
(I248
I70
I182
I1
tp1366
sg8
(lp1367
(I199
I159
tp1368
a(I173
I117
tp1369
a(I200
I166
tp1370
a(I200
I200
tp1371
a(I199
I164
tp1372
a(I176
I108
tp1373
a(I182
I182
tp1374
a(I200
I166
tp1375
a(I162
I141
tp1376
asg16
I200
sba(imain2
Polygon
p1377
(dp1378
g3
(I158
I122
tp1379
sg5
I200
sg6
(I43
I1
I156
I45
tp1380
sg8
(lp1381
(I182
I80
tp1382
a(I180
I97
tp1383
a(I200
I145
tp1384
a(I199
I82
tp1385
a(I166
I100
tp1386
a(I200
I140
tp1387
a(I178
I130
tp1388
a(I190
I85
tp1389
a(I131
I110
tp1390
a(I139
I107
tp1391
a(I200
I74
tp1392
asg16
I200
sba(imain2
Polygon
p1393
(dp1394
g3
(I89
I194
tp1395
sg5
I200
sg6
(I228
I77
I38
I1
tp1396
sg8
(lp1397
(I121
I200
tp1398
a(I61
I194
tp1399
a(I129
I168
tp1400
a(I124
I176
tp1401
a(I130
I164
tp1402
a(I129
I200
tp1403
a(I50
I147
tp1404
a(I84
I196
tp1405
a(I108
I183
tp1406
a(I64
I164
tp1407
a(I98
I200
tp1408
a(I121
I186
tp1409
asg16
I200
sba(imain2
Polygon
p1410
(dp1411
g3
(I185
I89
tp1412
sg5
I200
sg6
(I164
I1
I220
I0
tp1413
sg8
(lp1414
(I178
I125
tp1415
a(I200
I77
tp1416
a(I190
I122
tp1417
a(I200
I70
tp1418
a(I200
I43
tp1419
a(I200
I118
tp1420
a(I200
I94
tp1421
a(I200
I61
tp1422
a(I197
I122
tp1423
a(I154
I50
tp1424
a(I200
I56
tp1425
a(I187
I87
tp1426
asg16
I200
sba(imain2
Polygon
p1427
(dp1428
g3
(I67
I129
tp1429
sg5
I200
sg6
(I74
I192
I59
I133
tp1430
sg8
(lp1431
(I62
I136
tp1432
a(I62
I127
tp1433
a(I64
I104
tp1434
a(I114
I112
tp1435
a(I112
I100
tp1436
a(I42
I111
tp1437
a(I105
I94
tp1438
a(I71
I138
tp1439
a(I61
I148
tp1440
a(I109
I141
tp1441
a(I87
I119
tp1442
a(I87
I107
tp1443
a(I75
I92
tp1444
a(I84
I146
tp1445
a(I52
I135
tp1446
a(I91
I173
tp1447
asg16
I200
sba(imain2
Polygon
p1448
(dp1449
g3
(I95
I80
tp1450
sg5
I200
sg6
(I220
I90
I22
I132
tp1451
sg8
(lp1452
(I121
I57
tp1453
a(I47
I53
tp1454
a(I58
I130
tp1455
a(I113
I109
tp1456
a(I61
I47
tp1457
a(I144
I120
tp1458
a(I133
I109
tp1459
asg16
I200
sba(imain2
Polygon
p1460
(dp1461
g3
(I14
I45
tp1462
sg5
I200
sg6
(I224
I1
I43
I113
tp1463
sg8
(lp1464
(I2
I89
tp1465
a(I0
I82
tp1466
a(I58
I24
tp1467
a(I17
I21
tp1468
a(I38
I90
tp1469
a(I25
I95
tp1470
asg16
I200
sba(imain2
Polygon
p1471
(dp1472
g3
(I34
I35
tp1473
sg5
I200
sg6
(I108
I10
I202
I29
tp1474
sg8
(lp1475
(I2
I0
tp1476
a(I0
I84
tp1477
a(I51
I56
tp1478
a(I42
I28
tp1479
a(I53
I81
tp1480
a(I39
I34
tp1481
a(I34
I0
tp1482
asg16
I200
sba(imain2
Polygon
p1483
(dp1484
g3
(I127
I147
tp1485
sg5
I200
sg6
(I118
I173
I188
I84
tp1486
sg8
(lp1487
(I102
I146
tp1488
a(I112
I167
tp1489
a(I161
I125
tp1490
a(I99
I100
tp1491
a(I112
I159
tp1492
a(I126
I158
tp1493
a(I164
I118
tp1494
a(I80
I133
tp1495
a(I125
I141
tp1496
a(I106
I116
tp1497
a(I85
I144
tp1498
a(I112
I135
tp1499
a(I105
I137
tp1500
a(I148
I117
tp1501
a(I100
I111
tp1502
a(I88
I127
tp1503
a(I120
I132
tp1504
asg16
I200
sba(imain2
Polygon
p1505
(dp1506
g3
(I88
I106
tp1507
sg5
I200
sg6
(I189
I12
I60
I124
tp1508
sg8
(lp1509
(I127
I64
tp1510
a(I90
I146
tp1511
a(I117
I112
tp1512
asg16
I200
sba(imain2
Polygon
p1513
(dp1514
g3
(I11
I134
tp1515
sg5
I200
sg6
(I75
I180
I94
I108
tp1516
sg8
(lp1517
(I0
I183
tp1518
a(I0
I95
tp1519
a(I0
I108
tp1520
a(I0
I157
tp1521
a(I0
I169
tp1522
a(I12
I180
tp1523
a(I18
I183
tp1524
asg16
I200
sba(imain2
Polygon
p1525
(dp1526
g3
(I174
I141
tp1527
sg5
I200
sg6
(I114
I239
I93
I90
tp1528
sg8
(lp1529
(I200
I172
tp1530
a(I200
I120
tp1531
a(I192
I135
tp1532
asg16
I200
sba(imain2
Polygon
p1533
(dp1534
g3
(I68
I44
tp1535
sg5
I200
sg6
(I3
I229
I128
I56
tp1536
sg8
(lp1537
(I40
I52
tp1538
a(I19
I82
tp1539
a(I62
I45
tp1540
a(I75
I72
tp1541
asg16
I200
sba(imain2
Polygon
p1542
(dp1543
g3
(I80
I68
tp1544
sg5
I200
sg6
(I78
I16
I16
I49
tp1545
sg8
(lp1546
(I35
I25
tp1547
a(I52
I50
tp1548
a(I34
I66
tp1549
a(I53
I18
tp1550
a(I117
I21
tp1551
a(I103
I35
tp1552
a(I40
I26
tp1553
a(I52
I99
tp1554
a(I43
I18
tp1555
a(I106
I28
tp1556
a(I97
I30
tp1557
a(I37
I35
tp1558
a(I66
I42
tp1559
a(I83
I18
tp1560
asg16
I200
sba(imain2
Polygon
p1561
(dp1562
g3
(I120
I143
tp1563
sg5
I200
sg6
(I152
I159
I84
I0
tp1564
sg8
(lp1565
(I157
I118
tp1566
a(I157
I180
tp1567
a(I104
I174
tp1568
a(I143
I95
tp1569
a(I91
I139
tp1570
a(I154
I138
tp1571
a(I91
I159
tp1572
a(I161
I105
tp1573
a(I145
I181
tp1574
a(I111
I169
tp1575
a(I92
I133
tp1576
a(I141
I96
tp1577
a(I86
I100
tp1578
a(I105
I188
tp1579
asg16
I200
sba(imain2
Polygon
p1580
(dp1581
g3
(I47
I43
tp1582
sg5
I200
sg6
(I224
I145
I62
I45
tp1583
sg8
(lp1584
(I94
I47
tp1585
a(I85
I78
tp1586
a(I7
I93
tp1587
a(I8
I45
tp1588
a(I5
I0
tp1589
a(I26
I10
tp1590
a(I69
I3
tp1591
a(I21
I40
tp1592
a(I0
I45
tp1593
a(I80
I33
tp1594
a(I39
I37
tp1595
a(I25
I26
tp1596
a(I49
I4
tp1597
a(I96
I0
tp1598
asg16
I200
sba(imain2
Polygon
p1599
(dp1600
g3
(I6
I165
tp1601
sg5
I200
sg6
(I194
I52
I159
I73
tp1602
sg8
(lp1603
(I0
I168
tp1604
a(I0
I123
tp1605
a(I0
I200
tp1606
asg16
I200
sba(imain2
Polygon
p1607
(dp1608
g3
(I125
I173
tp1609
sg5
I200
sg6
(I91
I30
I33
I130
tp1610
sg8
(lp1611
(I163
I200
tp1612
a(I132
I145
tp1613
a(I161
I166
tp1614
a(I125
I138
tp1615
a(I143
I200
tp1616
a(I165
I200
tp1617
a(I85
I166
tp1618
a(I93
I145
tp1619
a(I124
I131
tp1620
a(I139
I163
tp1621
a(I157
I200
tp1622
a(I143
I189
tp1623
asg16
I200
sba(imain2
Polygon
p1624
(dp1625
g3
(I63
I154
tp1626
sg5
I200
sg6
(I122
I160
I3
I1
tp1627
sg8
(lp1628
(I96
I189
tp1629
a(I79
I108
tp1630
a(I87
I186
tp1631
a(I70
I140
tp1632
a(I13
I125
tp1633
a(I27
I140
tp1634
a(I80
I153
tp1635
a(I45
I194
tp1636
a(I72
I124
tp1637
asg16
I200
sba(imain2
Polygon
p1638
(dp1639
g3
(I152
I171
tp1640
sg5
I200
sg6
(I192
I5
I227
I1
tp1641
sg8
(lp1642
(I175
I186
tp1643
a(I121
I180
tp1644
a(I143
I159
tp1645
a(I121
I192
tp1646
a(I171
I200
tp1647
a(I191
I153
tp1648
a(I183
I200
tp1649
a(I180
I200
tp1650
a(I171
I163
tp1651
asg16
I200
sba(imain2
Polygon
p1652
(dp1653
g3
(I67
I143
tp1654
sg5
I200
sg6
(I73
I72
I132
I127
tp1655
sg8
(lp1656
(I100
I175
tp1657
a(I102
I173
tp1658
a(I113
I130
tp1659
asg16
I200
sba(imain2
Polygon
p1660
(dp1661
g3
(I153
I79
tp1662
sg5
I200
sg6
(I135
I30
I162
I0
tp1663
sg8
(lp1664
(I180
I69
tp1665
a(I105
I124
tp1666
a(I139
I76
tp1667
a(I175
I120
tp1668
a(I105
I69
tp1669
a(I175
I77
tp1670
a(I178
I72
tp1671
a(I151
I121
tp1672
a(I148
I111
tp1673
a(I132
I57
tp1674
asg16
I200
sba(imain2
Polygon
p1675
(dp1676
g3
(I142
I192
tp1677
sg5
I200
sg6
(I51
I238
I3
I13
tp1678
sg8
(lp1679
(I175
I159
tp1680
a(I94
I200
tp1681
a(I109
I192
tp1682
a(I170
I191
tp1683
a(I159
I195
tp1684
a(I119
I172
tp1685
a(I115
I176
tp1686
asg16
I200
sba(imain2
Polygon
p1687
(dp1688
g3
(I144
I12
tp1689
sg5
I200
sg6
(I190
I75
I99
I1
tp1690
sg8
(lp1691
(I176
I18
tp1692
a(I176
I0
tp1693
a(I104
I0
tp1694
a(I143
I52
tp1695
a(I127
I44
tp1696
a(I178
I0
tp1697
a(I140
I28
tp1698
a(I176
I62
tp1699
a(I147
I12
tp1700
a(I129
I0
tp1701
a(I107
I0
tp1702
a(I108
I0
tp1703
a(I111
I37
tp1704
asg16
I200
sba(imain2
Polygon
p1705
(dp1706
g3
(I144
I92
tp1707
sg5
I200
sg6
(I224
I45
I150
I157
tp1708
sg8
(lp1709
(I165
I66
tp1710
a(I181
I55
tp1711
a(I188
I72
tp1712
asg16
I200
sba(imain2
Polygon
p1713
(dp1714
g3
(I167
I23
tp1715
sg5
I200
sg6
(I171
I32
I244
I16
tp1716
sg8
(lp1717
(I170
I58
tp1718
a(I162
I59
tp1719
a(I200
I70
tp1720
a(I200
I14
tp1721
a(I155
I1
tp1722
a(I191
I17
tp1723
a(I136
I0
tp1724
a(I166
I58
tp1725
a(I200
I0
tp1726
a(I190
I67
tp1727
a(I200
I10
tp1728
asg16
I200
sba(imain2
Polygon
p1729
(dp1730
g3
(I200
I102
tp1731
sg5
I200
sg6
(I51
I233
I149
I59
tp1732
sg8
(lp1733
(I161
I70
tp1734
a(I178
I55
tp1735
a(I200
I103
tp1736
a(I200
I120
tp1737
a(I200
I145
tp1738
a(I181
I124
tp1739
a(I200
I66
tp1740
a(I200
I76
tp1741
a(I172
I138
tp1742
a(I200
I61
tp1743
a(I200
I99
tp1744
a(I200
I61
tp1745
asg16
I200
sba(imain2
Polygon
p1746
(dp1747
g3
(I20
I176
tp1748
sg5
I200
sg6
(I13
I203
I1
I1
tp1749
sg8
(lp1750
(I26
I196
tp1751
a(I25
I159
tp1752
a(I0
I200
tp1753
a(I65
I153
tp1754
a(I4
I140
tp1755
a(I0
I200
tp1756
a(I44
I147
tp1757
a(I42
I151
tp1758
a(I48
I148
tp1759
a(I0
I189
tp1760
a(I31
I140
tp1761
a(I0
I200
tp1762
a(I45
I161
tp1763
asg16
I200
sba(imain2
Polygon
p1764
(dp1765
g3
(I51
I87
tp1766
sg5
I200
sg6
(I98
I177
I47
I77
tp1767
sg8
(lp1768
(I79
I87
tp1769
a(I34
I48
tp1770
a(I30
I71
tp1771
a(I59
I118
tp1772
a(I60
I82
tp1773
a(I3
I114
tp1774
a(I4
I50
tp1775
a(I85
I81
tp1776
a(I40
I55
tp1777
a(I72
I112
tp1778
a(I94
I79
tp1779
a(I51
I133
tp1780
a(I90
I82
tp1781
asg16
I200
sba(imain2
Polygon
p1782
(dp1783
g3
(I124
I18
tp1784
sg5
I200
sg6
(I60
I202
I234
I0
tp1785
sg8
(lp1786
(I104
I18
tp1787
a(I86
I4
tp1788
a(I97
I0
tp1789
a(I103
I0
tp1790
a(I116
I59
tp1791
a(I142
I46
tp1792
asg16
I200
sba(imain2
Polygon
p1793
(dp1794
g3
(I170
I179
tp1795
sg5
I200
sg6
(I140
I191
I58
I16
tp1796
sg8
(lp1797
(I170
I150
tp1798
a(I131
I200
tp1799
a(I128
I177
tp1800
a(I200
I129
tp1801
a(I200
I200
tp1802
a(I200
I200
tp1803
a(I147
I142
tp1804
a(I156
I140
tp1805
asg16
I200
sba(imain2
Polygon
p1806
(dp1807
g3
(I93
I4
tp1808
sg5
I200
sg6
(I125
I128
I1
I145
tp1809
sg8
(lp1810
(I78
I36
tp1811
a(I51
I53
tp1812
a(I63
I0
tp1813
a(I57
I28
tp1814
a(I47
I35
tp1815
a(I62
I48
tp1816
a(I51
I52
tp1817
asg16
I200
sba(imain2
Polygon
p1818
(dp1819
g3
(I33
I157
tp1820
sg5
I200
sg6
(I39
I119
I128
I1
tp1821
sg8
(lp1822
(I46
I107
tp1823
a(I36
I149
tp1824
a(I72
I120
tp1825
a(I68
I171
tp1826
a(I66
I120
tp1827
a(I0
I200
tp1828
a(I43
I145
tp1829
a(I9
I140
tp1830
a(I1
I120
tp1831
a(I40
I152
tp1832
asg16
I200
sba(imain2
Polygon
p1833
(dp1834
g3
(I91
I9
tp1835
sg5
I200
sg6
(I68
I184
I14
I6
tp1836
sg8
(lp1837
(I117
I56
tp1838
a(I135
I0
tp1839
a(I59
I54
tp1840
a(I135
I0
tp1841
a(I120
I0
tp1842
a(I73
I39
tp1843
a(I126
I20
tp1844
a(I132
I0
tp1845
a(I122
I0
tp1846
a(I51
I0
tp1847
a(I88
I12
tp1848
asg16
I200
sba(imain2
Polygon
p1849
(dp1850
g3
(I50
I13
tp1851
sg5
I200
sg6
(I92
I179
I162
I127
tp1852
sg8
(lp1853
(I31
I61
tp1854
a(I18
I56
tp1855
a(I8
I0
tp1856
a(I75
I18
tp1857
a(I7
I0
tp1858
a(I82
I0
tp1859
asg16
I200
sba(imain2
Polygon
p1860
(dp1861
g3
(I157
I108
tp1862
sg5
I200
sg6
(I129
I118
I3
I100
tp1863
sg8
(lp1864
(I168
I137
tp1865
a(I108
I127
tp1866
a(I123
I82
tp1867
a(I135
I90
tp1868
a(I108
I149
tp1869
a(I172
I125
tp1870
a(I193
I83
tp1871
a(I200
I120
tp1872
a(I184
I155
tp1873
a(I158
I147
tp1874
a(I188
I141
tp1875
asg16
I200
sba(imain2
Polygon
p1876
(dp1877
g3
(I7
I150
tp1878
sg5
I200
sg6
(I178
I12
I57
I31
tp1879
sg8
(lp1880
(I20
I124
tp1881
a(I0
I142
tp1882
a(I57
I154
tp1883
a(I0
I115
tp1884
a(I0
I123
tp1885
a(I45
I176
tp1886
a(I0
I184
tp1887
a(I0
I137
tp1888
a(I0
I158
tp1889
a(I0
I111
tp1890
a(I0
I118
tp1891
a(I0
I147
tp1892
asg16
I200
sba(imain2
Polygon
p1893
(dp1894
g3
(I89
I125
tp1895
sg5
I200
sg6
(I43
I0
I215
I26
tp1896
sg8
(lp1897
(I82
I163
tp1898
a(I51
I118
tp1899
a(I85
I142
tp1900
a(I89
I136
tp1901
a(I80
I107
tp1902
a(I76
I125
tp1903
a(I45
I157
tp1904
a(I54
I146
tp1905
a(I105
I162
tp1906
asg16
I200
sba(imain2
Polygon
p1907
(dp1908
g3
(I18
I178
tp1909
sg5
I200
sg6
(I88
I164
I42
I112
tp1910
sg8
(lp1911
(I0
I148
tp1912
a(I43
I193
tp1913
a(I10
I175
tp1914
a(I0
I137
tp1915
a(I37
I176
tp1916
a(I23
I175
tp1917
asg16
I200
sba(imain2
Polygon
p1918
(dp1919
g3
(I81
I53
tp1920
sg5
I200
sg6
(I219
I84
I80
I0
tp1921
sg8
(lp1922
(I89
I81
tp1923
a(I80
I7
tp1924
a(I47
I79
tp1925
a(I129
I88
tp1926
a(I130
I38
tp1927
a(I60
I86
tp1928
a(I95
I100
tp1929
a(I38
I32
tp1930
a(I66
I43
tp1931
a(I31
I48
tp1932
a(I65
I35
tp1933
asg16
I200
sba(imain2
Polygon
p1934
(dp1935
g3
(I117
I32
tp1936
sg5
I200
sg6
(I167
I186
I83
I1
tp1937
sg8
(lp1938
(I71
I5
tp1939
a(I154
I0
tp1940
a(I79
I61
tp1941
asg16
I200
sba(imain2
Polygon
p1942
(dp1943
g3
(I79
I140
tp1944
sg5
I200
sg6
(I227
I1
I161
I54
tp1945
sg8
(lp1946
(I108
I95
tp1947
a(I107
I173
tp1948
a(I52
I148
tp1949
a(I123
I97
tp1950
a(I103
I173
tp1951
a(I75
I159
tp1952
a(I115
I149
tp1953
a(I57
I96
tp1954
asg16
I200
sba(imain2
Polygon
p1955
(dp1956
g3
(I26
I4
tp1957
sg5
I200
sg6
(I198
I74
I71
I1
tp1958
sg8
(lp1959
(I49
I0
tp1960
a(I23
I0
tp1961
a(I25
I0
tp1962
a(I70
I0
tp1963
a(I0
I0
tp1964
a(I24
I39
tp1965
a(I21
I0
tp1966
a(I0
I33
tp1967
asg16
I200
sba(imain2
Polygon
p1968
(dp1969
g3
(I15
I121
tp1970
sg5
I200
sg6
(I0
I223
I151
I1
tp1971
sg8
(lp1972
(I58
I148
tp1973
a(I33
I98
tp1974
a(I0
I90
tp1975
a(I46
I95
tp1976
a(I0
I74
tp1977
a(I0
I135
tp1978
a(I46
I142
tp1979
a(I0
I113
tp1980
a(I59
I105
tp1981
a(I65
I135
tp1982
a(I0
I154
tp1983
a(I0
I107
tp1984
asg16
I200
sba(imain2
Polygon
p1985
(dp1986
g3
(I163
I195
tp1987
sg5
I200
sg6
(I11
I151
I193
I24
tp1988
sg8
(lp1989
(I127
I200
tp1990
a(I125
I198
tp1991
a(I168
I200
tp1992
a(I178
I174
tp1993
a(I157
I200
tp1994
a(I122
I197
tp1995
a(I187
I200
tp1996
a(I149
I200
tp1997
a(I196
I200
tp1998
asg16
I200
sba(imain2
Polygon
p1999
(dp2000
g3
(I118
I106
tp2001
sg5
I200
sg6
(I8
I134
I124
I131
tp2002
sg8
(lp2003
(I132
I104
tp2004
a(I163
I65
tp2005
a(I102
I87
tp2006
a(I125
I104
tp2007
a(I139
I123
tp2008
a(I123
I91
tp2009
a(I151
I66
tp2010
a(I130
I116
tp2011
a(I127
I105
tp2012
a(I140
I99
tp2013
asg16
I200
sba(imain2
Polygon
p2014
(dp2015
g3
(I56
I6
tp2016
sg5
I200
sg6
(I200
I3
I177
I1
tp2017
sg8
(lp2018
(I101
I52
tp2019
a(I95
I24
tp2020
a(I10
I3
tp2021
a(I16
I0
tp2022
a(I36
I33
tp2023
a(I69
I0
tp2024
a(I49
I0
tp2025
asg16
I200
sba(imain2
Polygon
p2026
(dp2027
g3
(I174
I69
tp2028
sg5
I200
sg6
(I120
I39
I48
I116
tp2029
sg8
(lp2030
(I167
I52
tp2031
a(I200
I44
tp2032
a(I160
I53
tp2033
a(I200
I119
tp2034
a(I196
I88
tp2035
a(I200
I90
tp2036
a(I151
I40
tp2037
a(I126
I41
tp2038
a(I130
I103
tp2039
a(I140
I51
tp2040
a(I194
I93
tp2041
a(I130
I47
tp2042
a(I135
I43
tp2043
a(I183
I53
tp2044
asg16
I200
sba(imain2
Polygon
p2045
(dp2046
g3
(I0
I30
tp2047
sg5
I200
sg6
(I173
I42
I102
I1
tp2048
sg8
(lp2049
(I0
I38
tp2050
a(I8
I59
tp2051
a(I44
I18
tp2052
a(I0
I57
tp2053
a(I0
I25
tp2054
a(I0
I19
tp2055
asg16
I200
sba(imain2
Polygon
p2056
(dp2057
g3
(I134
I58
tp2058
sg5
I200
sg6
(I243
I180
I117
I121
tp2059
sg8
(lp2060
(I179
I47
tp2061
a(I110
I8
tp2062
a(I156
I8
tp2063
a(I179
I9
tp2064
asg16
I200
sba(imain2
Polygon
p2065
(dp2066
g3
(I142
I75
tp2067
sg5
I200
sg6
(I201
I61
I194
I95
tp2068
sg8
(lp2069
(I191
I83
tp2070
a(I154
I36
tp2071
a(I185
I48
tp2072
asg16
I200
sba(imain2
Polygon
p2073
(dp2074
g3
(I129
I65
tp2075
sg5
I200
sg6
(I89
I1
I165
I146
tp2076
sg8
(lp2077
(I155
I65
tp2078
a(I159
I69
tp2079
a(I151
I68
tp2080
asg16
I200
sba(imain2
Polygon
p2081
(dp2082
g3
(I163
I171
tp2083
sg5
I200
sg6
(I199
I13
I133
I1
tp2084
sg8
(lp2085
(I176
I200
tp2086
a(I127
I183
tp2087
a(I164
I123
tp2088
a(I132
I180
tp2089
a(I193
I148
tp2090
a(I181
I200
tp2091
a(I170
I142
tp2092
a(I191
I152
tp2093
a(I129
I200
tp2094
a(I189
I200
tp2095
a(I125
I167
tp2096
a(I128
I180
tp2097
a(I123
I148
tp2098
a(I142
I200
tp2099
a(I200
I168
tp2100
a(I119
I134
tp2101
asg16
I200
sba(imain2
Polygon
p2102
(dp2103
g3
(I184
I20
tp2104
sg5
I200
sg6
(I214
I93
I229
I86
tp2105
sg8
(lp2106
(I199
I14
tp2107
a(I200
I0
tp2108
a(I200
I69
tp2109
a(I189
I63
tp2110
a(I152
I52
tp2111
a(I166
I14
tp2112
a(I148
I0
tp2113
a(I200
I0
tp2114
a(I200
I0
tp2115
asg16
I200
sba(imain2
Polygon
p2116
(dp2117
g3
(I145
I135
tp2118
sg5
I200
sg6
(I32
I42
I61
I55
tp2119
sg8
(lp2120
(I160
I178
tp2121
a(I183
I129
tp2122
a(I135
I88
tp2123
a(I123
I105
tp2124
a(I110
I168
tp2125
asg16
I200
sba(imain2
Polygon
p2126
(dp2127
g3
(I64
I74
tp2128
sg5
I200
sg6
(I138
I209
I150
I1
tp2129
sg8
(lp2130
(I111
I67
tp2131
a(I74
I124
tp2132
a(I19
I47
tp2133
a(I101
I34
tp2134
asg16
I200
sba(imain2
Polygon
p2135
(dp2136
g3
(I82
I104
tp2137
sg5
I200
sg6
(I49
I156
I199
I0
tp2138
sg8
(lp2139
(I87
I113
tp2140
a(I105
I78
tp2141
a(I88
I66
tp2142
a(I112
I114
tp2143
a(I80
I128
tp2144
a(I114
I102
tp2145
a(I87
I71
tp2146
a(I92
I82
tp2147
a(I68
I150
tp2148
a(I60
I69
tp2149
a(I107
I154
tp2150
asg16
I200
sba(imain2
Polygon
p2151
(dp2152
g3
(I176
I51
tp2153
sg5
I200
sg6
(I115
I211
I87
I0
tp2154
sg8
(lp2155
(I200
I6
tp2156
a(I144
I17
tp2157
a(I200
I32
tp2158
a(I157
I85
tp2159
a(I200
I14
tp2160
asg16
I200
sba(imain2
Polygon
p2161
(dp2162
g3
(I18
I179
tp2163
sg5
I200
sg6
(I11
I98
I97
I55
tp2164
sg8
(lp2165
(I14
I200
tp2166
a(I0
I168
tp2167
a(I0
I198
tp2168
a(I21
I200
tp2169
a(I38
I177
tp2170
a(I48
I200
tp2171
a(I19
I154
tp2172
asg16
I200
sba(imain2
Polygon
p2173
(dp2174
g3
(I112
I97
tp2175
sg5
I200
sg6
(I98
I199
I68
I69
tp2176
sg8
(lp2177
(I117
I118
tp2178
a(I70
I139
tp2179
a(I97
I92
tp2180
a(I106
I74
tp2181
a(I76
I136
tp2182
a(I71
I104
tp2183
a(I93
I140
tp2184
a(I73
I120
tp2185
a(I80
I61
tp2186
a(I130
I88
tp2187
asg16
I200
sba(imain2
Polygon
p2188
(dp2189
g3
(I3
I120
tp2190
sg5
I200
sg6
(I62
I89
I148
I111
tp2191
sg8
(lp2192
(I0
I86
tp2193
a(I0
I74
tp2194
a(I0
I94
tp2195
a(I0
I109
tp2196
a(I43
I80
tp2197
asg16
I200
sba(imain2
Polygon
p2198
(dp2199
g3
(I7
I32
tp2200
sg5
I200
sg6
(I149
I33
I188
I0
tp2201
sg8
(lp2202
(I0
I0
tp2203
a(I0
I27
tp2204
a(I0
I45
tp2205
a(I38
I80
tp2206
a(I38
I59
tp2207
a(I16
I3
tp2208
a(I0
I0
tp2209
a(I0
I66
tp2210
a(I0
I19
tp2211
a(I48
I81
tp2212
a(I7
I43
tp2213
a(I0
I75
tp2214
a(I37
I19
tp2215
a(I0
I0
tp2216
asg16
I200
sba(imain2
Polygon
p2217
(dp2218
g3
(I166
I95
tp2219
sg5
I200
sg6
(I186
I5
I143
I159
tp2220
sg8
(lp2221
(I192
I50
tp2222
a(I200
I127
tp2223
a(I200
I60
tp2224
asg16
I200
sba(imain2
Polygon
p2225
(dp2226
g3
(I197
I92
tp2227
sg5
I200
sg6
(I119
I7
I30
I0
tp2228
sg8
(lp2229
(I158
I90
tp2230
a(I199
I90
tp2231
a(I200
I99
tp2232
a(I200
I108
tp2233
a(I158
I100
tp2234
a(I168
I58
tp2235
a(I183
I56
tp2236
a(I200
I56
tp2237
a(I191
I56
tp2238
a(I200
I105
tp2239
a(I200
I42
tp2240
a(I200
I102
tp2241
a(I200
I49
tp2242
asg16
I200
sba(imain2
Polygon
p2243
(dp2244
g3
(I167
I132
tp2245
sg5
I200
sg6
(I220
I57
I86
I0
tp2246
sg8
(lp2247
(I199
I128
tp2248
a(I130
I126
tp2249
a(I200
I134
tp2250
a(I134
I127
tp2251
a(I157
I157
tp2252
a(I200
I112
tp2253
a(I188
I122
tp2254
a(I181
I169
tp2255
a(I117
I113
tp2256
a(I170
I164
tp2257
a(I154
I153
tp2258
a(I177
I144
tp2259
a(I200
I112
tp2260
a(I135
I154
tp2261
a(I144
I132
tp2262
asg16
I200
sba(imain2
Polygon
p2263
(dp2264
g3
(I2
I175
tp2265
sg5
I200
sg6
(I102
I198
I107
I0
tp2266
sg8
(lp2267
(I49
I138
tp2268
a(I0
I128
tp2269
a(I4
I200
tp2270
asg16
I200
sba(imain2
Polygon
p2271
(dp2272
g3
(I148
I121
tp2273
sg5
I200
sg6
(I129
I199
I133
I31
tp2274
sg8
(lp2275
(I121
I139
tp2276
a(I118
I71
tp2277
a(I101
I103
tp2278
a(I128
I125
tp2279
a(I137
I105
tp2280
asg16
I200
sba(imain2
Polygon
p2281
(dp2282
g3
(I26
I154
tp2283
sg5
I200
sg6
(I144
I65
I225
I47
tp2284
sg8
(lp2285
(I35
I156
tp2286
a(I0
I196
tp2287
a(I20
I155
tp2288
a(I0
I149
tp2289
asg16
I200
sba(imain2
Polygon
p2290
(dp2291
g3
(I188
I60
tp2292
sg5
I200
sg6
(I24
I81
I8
I66
tp2293
sg8
(lp2294
(I200
I59
tp2295
a(I148
I100
tp2296
a(I139
I27
tp2297
a(I200
I88
tp2298
a(I200
I18
tp2299
a(I200
I37
tp2300
a(I200
I12
tp2301
a(I200
I53
tp2302
a(I200
I42
tp2303
asg16
I200
sba(imain2
Polygon
p2304
(dp2305
g3
(I29
I0
tp2306
sg5
I200
sg6
(I202
I203
I9
I101
tp2307
sg8
(lp2308
(I77
I0
tp2309
a(I0
I0
tp2310
a(I50
I36
tp2311
a(I45
I18
tp2312
a(I61
I0
tp2313
a(I0
I0
tp2314
a(I0
I50
tp2315
a(I70
I50
tp2316
a(I0
I0
tp2317
a(I0
I0
tp2318
a(I77
I0
tp2319
a(I74
I14
tp2320
a(I36
I44
tp2321
a(I51
I8
tp2322
a(I74
I0
tp2323
asg16
I200
sba(imain2
Polygon
p2324
(dp2325
g3
(I92
I198
tp2326
sg5
I200
sg6
(I139
I4
I14
I79
tp2327
sg8
(lp2328
(I96
I170
tp2329
a(I95
I158
tp2330
a(I67
I151
tp2331
a(I90
I200
tp2332
a(I116
I195
tp2333
a(I99
I200
tp2334
a(I73
I181
tp2335
a(I108
I179
tp2336
asg16
I200
sba(imain2
Polygon
p2337
(dp2338
g3
(I149
I42
tp2339
sg5
I200
sg6
(I91
I15
I55
I62
tp2340
sg8
(lp2341
(I145
I16
tp2342
a(I99
I9
tp2343
a(I126
I90
tp2344
a(I167
I91
tp2345
a(I156
I44
tp2346
a(I135
I17
tp2347
a(I145
I8
tp2348
a(I113
I48
tp2349
a(I119
I35
tp2350
asg16
I200
sba(imain2
Polygon
p2351
(dp2352
g3
(I18
I189
tp2353
sg5
I200
sg6
(I71
I8
I171
I1
tp2354
sg8
(lp2355
(I0
I200
tp2356
a(I50
I142
tp2357
a(I9
I200
tp2358
a(I11
I160
tp2359
a(I0
I200
tp2360
a(I5
I167
tp2361
a(I0
I200
tp2362
a(I32
I181
tp2363
a(I62
I173
tp2364
a(I55
I200
tp2365
a(I31
I197
tp2366
a(I56
I183
tp2367
a(I23
I152
tp2368
a(I5
I166
tp2369
a(I52
I146
tp2370
a(I7
I148
tp2371
asg16
I200
sba(imain2
Polygon
p2372
(dp2373
g3
(I88
I199
tp2374
sg5
I200
sg6
(I16
I199
I77
I94
tp2375
sg8
(lp2376
(I125
I200
tp2377
a(I39
I200
tp2378
a(I44
I200
tp2379
a(I103
I197
tp2380
a(I52
I200
tp2381
a(I60
I200
tp2382
a(I59
I200
tp2383
a(I62
I200
tp2384
a(I47
I200
tp2385
asg16
I200
sba(imain2
Polygon
p2386
(dp2387
g3
(I57
I178
tp2388
sg5
I200
sg6
(I22
I120
I163
I1
tp2389
sg8
(lp2390
(I96
I196
tp2391
a(I21
I164
tp2392
a(I55
I131
tp2393
a(I35
I140
tp2394
a(I20
I200
tp2395
asg16
I200
sba(imain2
Polygon
p2396
(dp2397
g3
(I192
I63
tp2398
sg5
I200
sg6
(I115
I241
I124
I110
tp2399
sg8
(lp2400
(I200
I102
tp2401
a(I200
I19
tp2402
a(I200
I28
tp2403
a(I174
I19
tp2404
a(I142
I25
tp2405
a(I193
I97
tp2406
a(I161
I50
tp2407
a(I175
I96
tp2408
a(I183
I98
tp2409
asg16
I200
sba(imain2
Polygon
p2410
(dp2411
g3
(I115
I149
tp2412
sg5
I200
sg6
(I106
I196
I239
I7
tp2413
sg8
(lp2414
(I131
I171
tp2415
a(I96
I129
tp2416
a(I89
I102
tp2417
a(I94
I115
tp2418
a(I71
I108
tp2419
a(I84
I110
tp2420
a(I80
I163
tp2421
a(I128
I176
tp2422
asg16
I200
sba(imain2
Polygon
p2423
(dp2424
g3
(I89
I107
tp2425
sg5
I200
sg6
(I31
I11
I112
I119
tp2426
sg8
(lp2427
(I135
I96
tp2428
a(I106
I149
tp2429
a(I137
I85
tp2430
a(I129
I120
tp2431
a(I138
I81
tp2432
asg16
I200
sba(imain2
Polygon
p2433
(dp2434
g3
(I87
I130
tp2435
sg5
I200
sg6
(I168
I110
I151
I0
tp2436
sg8
(lp2437
(I97
I162
tp2438
a(I93
I84
tp2439
a(I72
I117
tp2440
a(I59
I117
tp2441
a(I132
I110
tp2442
a(I48
I126
tp2443
a(I123
I146
tp2444
a(I54
I141
tp2445
a(I87
I159
tp2446
a(I44
I172
tp2447
a(I134
I156
tp2448
a(I103
I85
tp2449
a(I56
I100
tp2450
asg16
I200
sba(imain2
Polygon
p2451
(dp2452
g3
(I62
I187
tp2453
sg5
I200
sg6
(I112
I15
I175
I65
tp2454
sg8
(lp2455
(I41
I186
tp2456
a(I22
I200
tp2457
a(I97
I198
tp2458
a(I38
I200
tp2459
a(I17
I200
tp2460
a(I77
I200
tp2461
a(I58
I183
tp2462
a(I66
I189
tp2463
a(I85
I194
tp2464
a(I88
I194
tp2465
a(I24
I200
tp2466
a(I21
I200
tp2467
asg16
I200
sba(imain2
Polygon
p2468
(dp2469
g3
(I59
I26
tp2470
sg5
I200
sg6
(I62
I7
I237
I0
tp2471
sg8
(lp2472
(I83
I0
tp2473
a(I13
I0
tp2474
a(I81
I0
tp2475
a(I33
I0
tp2476
a(I101
I6
tp2477
a(I92
I63
tp2478
a(I104
I10
tp2479
a(I102
I70
tp2480
asg16
I200
sba(imain2
Polygon
p2481
(dp2482
g3
(I74
I59
tp2483
sg5
I200
sg6
(I1
I48
I105
I0
tp2484
sg8
(lp2485
(I100
I108
tp2486
a(I67
I71
tp2487
a(I76
I11
tp2488
a(I99
I13
tp2489
a(I75
I25
tp2490
a(I79
I79
tp2491
a(I86
I46
tp2492
a(I106
I51
tp2493
a(I32
I27
tp2494
a(I34
I71
tp2495
asg16
I200
sba(imain2
Polygon
p2496
(dp2497
g3
(I141
I175
tp2498
sg5
I200
sg6
(I87
I37
I12
I0
tp2499
sg8
(lp2500
(I169
I200
tp2501
a(I163
I150
tp2502
a(I130
I150
tp2503
a(I149
I186
tp2504
a(I129
I145
tp2505
a(I173
I200
tp2506
a(I129
I200
tp2507
a(I190
I127
tp2508
a(I155
I171
tp2509
a(I128
I200
tp2510
a(I146
I186
tp2511
a(I112
I145
tp2512
a(I180
I193
tp2513
a(I156
I182
tp2514
a(I167
I146
tp2515
a(I103
I195
tp2516
a(I138
I192
tp2517
asg16
I200
sba(imain2
Polygon
p2518
(dp2519
g3
(I114
I81
tp2520
sg5
I200
sg6
(I235
I18
I199
I82
tp2521
sg8
(lp2522
(I121
I101
tp2523
a(I107
I74
tp2524
a(I79
I35
tp2525
a(I125
I101
tp2526
a(I114
I100
tp2527
asg16
I200
sba(imain2
Polygon
p2528
(dp2529
g3
(I191
I128
tp2530
sg5
I200
sg6
(I244
I3
I244
I19
tp2531
sg8
(lp2532
(I156
I149
tp2533
a(I144
I170
tp2534
a(I190
I78
tp2535
a(I200
I148
tp2536
a(I182
I162
tp2537
a(I187
I85
tp2538
asg16
I200
sba(imain2
Polygon
p2539
(dp2540
g3
(I40
I13
tp2541
sg5
I200
sg6
(I70
I182
I122
I0
tp2542
sg8
(lp2543
(I24
I51
tp2544
a(I0
I0
tp2545
a(I62
I16
tp2546
a(I16
I43
tp2547
a(I46
I8
tp2548
a(I0
I0
tp2549
a(I35
I57
tp2550
a(I26
I0
tp2551
a(I0
I0
tp2552
a(I40
I20
tp2553
a(I1
I44
tp2554
a(I13
I0
tp2555
a(I45
I0
tp2556
a(I4
I0
tp2557
a(I86
I9
tp2558
a(I46
I57
tp2559
a(I74
I32
tp2560
a(I79
I0
tp2561
a(I31
I0
tp2562
asg16
I200
sba(imain2
Polygon
p2563
(dp2564
g3
(I50
I145
tp2565
sg5
I200
sg6
(I57
I213
I125
I26
tp2566
sg8
(lp2567
(I65
I143
tp2568
a(I87
I159
tp2569
a(I100
I145
tp2570
asg16
I200
sba(imain2
Polygon
p2571
(dp2572
g3
(I184
I69
tp2573
sg5
I200
sg6
(I122
I136
I36
I147
tp2574
sg8
(lp2575
(I161
I61
tp2576
a(I200
I72
tp2577
a(I200
I63
tp2578
a(I200
I31
tp2579
a(I200
I33
tp2580
a(I200
I67
tp2581
a(I164
I71
tp2582
a(I174
I114
tp2583
a(I200
I115
tp2584
a(I200
I101
tp2585
a(I195
I79
tp2586
asg16
I200
sba(imain2
Polygon
p2587
(dp2588
g3
(I6
I29
tp2589
sg5
I200
sg6
(I138
I36
I215
I1
tp2590
sg8
(lp2591
(I0
I65
tp2592
a(I0
I40
tp2593
a(I0
I41
tp2594
a(I0
I0
tp2595
a(I51
I0
tp2596
a(I39
I6
tp2597
a(I40
I50
tp2598
asg16
I200
sba(imain2
Polygon
p2599
(dp2600
g3
(I100
I197
tp2601
sg5
I200
sg6
(I29
I136
I60
I80
tp2602
sg8
(lp2603
(I143
I200
tp2604
a(I79
I200
tp2605
a(I50
I198
tp2606
a(I85
I200
tp2607
a(I74
I200
tp2608
a(I67
I200
tp2609
a(I67
I193
tp2610
a(I68
I200
tp2611
asg16
I200
sba(imain2
Polygon
p2612
(dp2613
g3
(I102
I67
tp2614
sg5
I200
sg6
(I110
I65
I88
I0
tp2615
sg8
(lp2616
(I90
I53
tp2617
a(I59
I86
tp2618
a(I134
I83
tp2619
a(I149
I22
tp2620
a(I134
I38
tp2621
a(I73
I48
tp2622
a(I152
I68
tp2623
a(I84
I36
tp2624
a(I86
I100
tp2625
a(I60
I115
tp2626
a(I78
I95
tp2627
asg16
I200
sba(imain2
Polygon
p2628
(dp2629
g3
(I91
I124
tp2630
sg5
I200
sg6
(I166
I67
I8
I128
tp2631
sg8
(lp2632
(I41
I114
tp2633
a(I80
I127
tp2634
a(I83
I75
tp2635
a(I119
I114
tp2636
a(I111
I171
tp2637
a(I45
I142
tp2638
a(I66
I81
tp2639
a(I119
I80
tp2640
a(I141
I130
tp2641
a(I81
I119
tp2642
a(I76
I76
tp2643
a(I54
I89
tp2644
a(I76
I94
tp2645
asg16
I200
sba(imain2
Polygon
p2646
(dp2647
g3
(I133
I74
tp2648
sg5
I200
sg6
(I15
I174
I91
I1
tp2649
sg8
(lp2650
(I93
I104
tp2651
a(I179
I62
tp2652
a(I134
I83
tp2653
a(I165
I112
tp2654
a(I157
I40
tp2655
a(I87
I119
tp2656
a(I154
I94
tp2657
a(I163
I77
tp2658
a(I147
I109
tp2659
a(I89
I88
tp2660
a(I171
I59
tp2661
a(I133
I83
tp2662
a(I181
I26
tp2663
a(I95
I85
tp2664
a(I139
I76
tp2665
a(I182
I74
tp2666
a(I98
I103
tp2667
asg16
I200
sba(imain2
Polygon
p2668
(dp2669
g3
(I181
I185
tp2670
sg5
I200
sg6
(I1
I135
I61
I19
tp2671
sg8
(lp2672
(I192
I200
tp2673
a(I200
I200
tp2674
a(I197
I153
tp2675
asg16
I200
sba(imain2
Polygon
p2676
(dp2677
g3
(I3
I9
tp2678
sg5
I200
sg6
(I114
I15
I43
I128
tp2679
sg8
(lp2680
(I37
I0
tp2681
a(I31
I0
tp2682
a(I0
I0
tp2683
asg16
I200
sba(imain2
Polygon
p2684
(dp2685
g3
(I154
I22
tp2686
sg5
I200
sg6
(I81
I180
I131
I1
tp2687
sg8
(lp2688
(I194
I10
tp2689
a(I184
I0
tp2690
a(I181
I0
tp2691
asg16
I200
sba(imain2
Polygon
p2692
(dp2693
g3
(I3
I51
tp2694
sg5
I200
sg6
(I10
I167
I12
I51
tp2695
sg8
(lp2696
(I0
I44
tp2697
a(I0
I78
tp2698
a(I0
I74
tp2699
asg16
I200
sba(imain2
Polygon
p2700
(dp2701
g3
(I183
I123
tp2702
sg5
I200
sg6
(I43
I171
I189
I106
tp2703
sg8
(lp2704
(I200
I171
tp2705
a(I200
I140
tp2706
a(I200
I98
tp2707
asg16
I200
sba.