(lp0
(imain2
Polygon
p1
(dp2
S'origin'
p3
(I100
I102
tp4
sS'h'
p5
I200
sS'color'
p6
(I132
I173
I189
I0
tp7
sS'corner_list'
p8
(lp9
(I77
I128
tp10
a(I53
I79
tp11
a(I128
I109
tp12
a(I126
I102
tp13
a(I83
I86
tp14
a(I62
I111
tp15
asS'w'
p16
I200
sba(imain2
Polygon
p17
(dp18
g3
(I142
I122
tp19
sg5
I200
sg6
(I20
I220
I130
I31
tp20
sg8
(lp21
(I101
I108
tp22
a(I95
I104
tp23
a(I106
I160
tp24
a(I177
I137
tp25
a(I109
I157
tp26
a(I93
I95
tp27
a(I119
I85
tp28
a(I188
I130
tp29
a(I164
I94
tp30
a(I192
I113
tp31
a(I136
I104
tp32
a(I134
I86
tp33
a(I102
I138
tp34
asg16
I200
sba(imain2
Polygon
p35
(dp36
g3
(I39
I24
tp37
sg5
I200
sg6
(I240
I163
I199
I1
tp38
sg8
(lp39
(I58
I0
tp40
a(I20
I46
tp41
a(I41
I25
tp42
a(I43
I65
tp43
a(I50
I25
tp44
asg16
I200
sba(imain2
Polygon
p45
(dp46
g3
(I87
I73
tp47
sg5
I200
sg6
(I160
I18
I197
I92
tp48
sg8
(lp49
(I103
I121
tp50
a(I130
I63
tp51
a(I82
I102
tp52
a(I62
I79
tp53
a(I68
I47
tp54
a(I56
I110
tp55
a(I92
I70
tp56
a(I64
I117
tp57
a(I47
I56
tp58
a(I77
I37
tp59
a(I131
I68
tp60
a(I58
I120
tp61
a(I128
I91
tp62
a(I80
I99
tp63
asg16
I200
sba(imain2
Polygon
p64
(dp65
g3
(I75
I185
tp66
sg5
I200
sg6
(I70
I1
I89
I79
tp67
sg8
(lp68
(I84
I199
tp69
a(I125
I163
tp70
a(I123
I140
tp71
a(I120
I200
tp72
a(I72
I200
tp73
a(I68
I195
tp74
a(I98
I174
tp75
a(I100
I200
tp76
asg16
I200
sba(imain2
Polygon
p77
(dp78
g3
(I51
I161
tp79
sg5
I200
sg6
(I130
I132
I14
I92
tp80
sg8
(lp81
(I86
I200
tp82
a(I55
I200
tp83
a(I96
I190
tp84
a(I67
I140
tp85
a(I76
I152
tp86
asg16
I200
sba(imain2
Polygon
p87
(dp88
g3
(I76
I107
tp89
sg5
I200
sg6
(I159
I37
I202
I113
tp90
sg8
(lp91
(I113
I136
tp92
a(I40
I71
tp93
a(I37
I76
tp94
a(I55
I67
tp95
a(I115
I57
tp96
a(I107
I154
tp97
a(I53
I141
tp98
a(I48
I92
tp99
a(I101
I62
tp100
a(I75
I123
tp101
a(I85
I132
tp102
a(I87
I117
tp103
asg16
I200
sba(imain2
Polygon
p104
(dp105
g3
(I79
I45
tp106
sg5
I200
sg6
(I221
I1
I241
I0
tp107
sg8
(lp108
(I84
I11
tp109
a(I121
I88
tp110
a(I37
I47
tp111
a(I70
I64
tp112
a(I102
I24
tp113
asg16
I200
sba(imain2
Polygon
p114
(dp115
g3
(I123
I186
tp116
sg5
I200
sg6
(I48
I14
I42
I1
tp117
sg8
(lp118
(I148
I200
tp119
a(I95
I187
tp120
a(I93
I190
tp121
asg16
I200
sba(imain2
Polygon
p122
(dp123
g3
(I74
I162
tp124
sg5
I200
sg6
(I155
I94
I212
I0
tp125
sg8
(lp126
(I111
I187
tp127
a(I28
I142
tp128
a(I74
I188
tp129
a(I48
I137
tp130
a(I124
I140
tp131
a(I112
I160
tp132
a(I54
I193
tp133
a(I62
I188
tp134
a(I95
I167
tp135
a(I110
I141
tp136
a(I103
I163
tp137
asg16
I200
sba(imain2
Polygon
p138
(dp139
g3
(I64
I120
tp140
sg5
I200
sg6
(I232
I41
I170
I0
tp141
sg8
(lp142
(I113
I141
tp143
a(I100
I116
tp144
a(I105
I141
tp145
a(I104
I125
tp146
asg16
I200
sba(imain2
Polygon
p147
(dp148
g3
(I2
I37
tp149
sg5
I200
sg6
(I134
I133
I101
I110
tp150
sg8
(lp151
(I0
I0
tp152
a(I45
I3
tp153
a(I4
I47
tp154
a(I20
I35
tp155
a(I0
I66
tp156
a(I41
I3
tp157
a(I36
I68
tp158
a(I21
I15
tp159
a(I39
I86
tp160
a(I0
I85
tp161
a(I0
I9
tp162
asg16
I200
sba(imain2
Polygon
p163
(dp164
g3
(I161
I116
tp165
sg5
I200
sg6
(I151
I91
I113
I55
tp166
sg8
(lp167
(I113
I144
tp168
a(I200
I152
tp169
a(I168
I90
tp170
a(I170
I71
tp171
a(I163
I108
tp172
a(I174
I126
tp173
a(I198
I163
tp174
a(I182
I147
tp175
a(I200
I152
tp176
asg16
I200
sba(imain2
Polygon
p177
(dp178
g3
(I171
I44
tp179
sg5
I200
sg6
(I132
I236
I105
I110
tp180
sg8
(lp181
(I151
I30
tp182
a(I157
I22
tp183
a(I200
I89
tp184
a(I200
I0
tp185
a(I132
I0
tp186
a(I134
I21
tp187
a(I132
I4
tp188
a(I161
I77
tp189
a(I200
I93
tp190
a(I143
I0
tp191
a(I170
I71
tp192
a(I157
I81
tp193
a(I146
I0
tp194
asg16
I200
sba(imain2
Polygon
p195
(dp196
g3
(I196
I163
tp197
sg5
I200
sg6
(I37
I166
I6
I22
tp198
sg8
(lp199
(I195
I117
tp200
a(I200
I197
tp201
a(I200
I191
tp202
a(I200
I134
tp203
a(I193
I170
tp204
a(I200
I141
tp205
a(I155
I170
tp206
a(I200
I182
tp207
a(I165
I130
tp208
a(I200
I114
tp209
a(I170
I173
tp210
a(I179
I115
tp211
a(I171
I129
tp212
asg16
I200
sba(imain2
Polygon
p213
(dp214
g3
(I123
I35
tp215
sg5
I200
sg6
(I143
I61
I71
I1
tp216
sg8
(lp217
(I117
I1
tp218
a(I134
I57
tp219
a(I79
I65
tp220
a(I158
I15
tp221
a(I90
I72
tp222
a(I143
I1
tp223
a(I94
I0
tp224
a(I100
I0
tp225
a(I130
I0
tp226
asg16
I200
sba(imain2
Polygon
p227
(dp228
g3
(I38
I152
tp229
sg5
I200
sg6
(I92
I165
I33
I129
tp230
sg8
(lp231
(I87
I136
tp232
a(I53
I103
tp233
a(I49
I126
tp234
a(I73
I158
tp235
asg16
I200
sba(imain2
Polygon
p236
(dp237
g3
(I118
I157
tp238
sg5
I200
sg6
(I85
I63
I43
I1
tp239
sg8
(lp240
(I143
I107
tp241
a(I115
I173
tp242
a(I152
I191
tp243
a(I160
I116
tp244
asg16
I200
sba(imain2
Polygon
p245
(dp246
g3
(I10
I175
tp247
sg5
I200
sg6
(I175
I52
I61
I14
tp248
sg8
(lp249
(I0
I141
tp250
a(I0
I183
tp251
a(I0
I200
tp252
a(I29
I188
tp253
asg16
I200
sba(imain2
Polygon
p254
(dp255
g3
(I4
I131
tp256
sg5
I200
sg6
(I122
I52
I61
I0
tp257
sg8
(lp258
(I25
I135
tp259
a(I2
I88
tp260
a(I0
I96
tp261
a(I45
I150
tp262
a(I0
I145
tp263
a(I18
I159
tp264
a(I41
I133
tp265
a(I31
I145
tp266
a(I19
I89
tp267
a(I0
I108
tp268
a(I12
I86
tp269
a(I0
I136
tp270
asg16
I200
sba(imain2
Polygon
p271
(dp272
g3
(I75
I51
tp273
sg5
I200
sg6
(I103
I197
I0
I12
tp274
sg8
(lp275
(I73
I93
tp276
a(I60
I74
tp277
a(I34
I7
tp278
a(I105
I56
tp279
a(I112
I100
tp280
asg16
I200
sba(imain2
Polygon
p281
(dp282
g3
(I18
I101
tp283
sg5
I200
sg6
(I0
I11
I67
I47
tp284
sg8
(lp285
(I0
I99
tp286
a(I15
I116
tp287
a(I0
I56
tp288
a(I5
I78
tp289
a(I20
I101
tp290
a(I0
I130
tp291
a(I45
I64
tp292
asg16
I200
sba(imain2
Polygon
p293
(dp294
g3
(I97
I199
tp295
sg5
I200
sg6
(I0
I107
I44
I107
tp296
sg8
(lp297
(I91
I200
tp298
a(I104
I199
tp299
a(I134
I200
tp300
a(I135
I171
tp301
a(I78
I156
tp302
a(I97
I158
tp303
a(I127
I200
tp304
a(I118
I173
tp305
a(I87
I171
tp306
a(I99
I160
tp307
a(I95
I152
tp308
a(I97
I200
tp309
asg16
I200
sba(imain2
Polygon
p310
(dp311
g3
(I102
I104
tp312
sg5
I200
sg6
(I219
I121
I126
I66
tp313
sg8
(lp314
(I105
I151
tp315
a(I105
I63
tp316
a(I59
I58
tp317
a(I57
I131
tp318
a(I74
I153
tp319
asg16
I200
sba(imain2
Polygon
p320
(dp321
g3
(I177
I176
tp322
sg5
I200
sg6
(I112
I207
I214
I41
tp323
sg8
(lp324
(I200
I138
tp325
a(I167
I145
tp326
a(I200
I200
tp327
asg16
I200
sba(imain2
Polygon
p328
(dp329
g3
(I99
I27
tp330
sg5
I200
sg6
(I71
I83
I1
I104
tp331
sg8
(lp332
(I143
I0
tp333
a(I53
I0
tp334
a(I97
I73
tp335
a(I139
I50
tp336
a(I73
I29
tp337
asg16
I200
sba(imain2
Polygon
p338
(dp339
g3
(I138
I156
tp340
sg5
I200
sg6
(I17
I57
I186
I0
tp341
sg8
(lp342
(I134
I187
tp343
a(I142
I107
tp344
a(I111
I148
tp345
a(I101
I146
tp346
asg16
I200
sba(imain2
Polygon
p347
(dp348
g3
(I100
I129
tp349
sg5
I200
sg6
(I113
I215
I219
I0
tp350
sg8
(lp351
(I57
I172
tp352
a(I85
I161
tp353
a(I88
I162
tp354
asg16
I200
sba(imain2
Polygon
p355
(dp356
g3
(I90
I2
tp357
sg5
I200
sg6
(I194
I195
I2
I0
tp358
sg8
(lp359
(I132
I0
tp360
a(I109
I0
tp361
a(I88
I0
tp362
a(I82
I20
tp363
a(I90
I51
tp364
a(I89
I45
tp365
a(I79
I40
tp366
a(I48
I49
tp367
a(I58
I0
tp368
a(I128
I15
tp369
asg16
I200
sba(imain2
Polygon
p370
(dp371
g3
(I76
I49
tp372
sg5
I200
sg6
(I246
I163
I176
I98
tp373
sg8
(lp374
(I52
I54
tp375
a(I62
I34
tp376
a(I99
I36
tp377
a(I124
I78
tp378
a(I91
I88
tp379
a(I47
I82
tp380
asg16
I200
sba(imain2
Polygon
p381
(dp382
g3
(I135
I193
tp383
sg5
I200
sg6
(I202
I199
I62
I1
tp384
sg8
(lp385
(I126
I200
tp386
a(I124
I200
tp387
a(I93
I171
tp388
a(I91
I200
tp389
a(I178
I191
tp390
a(I146
I200
tp391
a(I129
I171
tp392
a(I132
I200
tp393
a(I149
I200
tp394
a(I150
I200
tp395
asg16
I200
sba(imain2
Polygon
p396
(dp397
g3
(I156
I197
tp398
sg5
I200
sg6
(I78
I232
I79
I3
tp399
sg8
(lp400
(I183
I162
tp401
a(I198
I200
tp402
a(I112
I200
tp403
a(I108
I171
tp404
a(I196
I200
tp405
a(I196
I196
tp406
asg16
I200
sba(imain2
Polygon
p407
(dp408
g3
(I159
I95
tp409
sg5
I200
sg6
(I162
I20
I16
I0
tp410
sg8
(lp411
(I196
I80
tp412
a(I142
I142
tp413
a(I114
I45
tp414
a(I184
I46
tp415
a(I170
I56
tp416
a(I154
I110
tp417
a(I186
I126
tp418
a(I163
I133
tp419
a(I136
I123
tp420
asg16
I200
sba(imain2
Polygon
p421
(dp422
g3
(I130
I187
tp423
sg5
I200
sg6
(I177
I73
I86
I67
tp424
sg8
(lp425
(I138
I200
tp426
a(I161
I187
tp427
a(I150
I166
tp428
a(I168
I192
tp429
a(I164
I200
tp430
a(I97
I159
tp431
a(I90
I200
tp432
asg16
I200
sba(imain2
Polygon
p433
(dp434
g3
(I56
I194
tp435
sg5
I200
sg6
(I191
I172
I0
I33
tp436
sg8
(lp437
(I99
I158
tp438
a(I59
I200
tp439
a(I15
I171
tp440
a(I36
I176
tp441
a(I24
I145
tp442
a(I6
I148
tp443
a(I6
I200
tp444
a(I75
I169
tp445
a(I20
I200
tp446
a(I102
I200
tp447
a(I105
I191
tp448
asg16
I200
sba(imain2
Polygon
p449
(dp450
g3
(I180
I160
tp451
sg5
I200
sg6
(I29
I39
I107
I53
tp452
sg8
(lp453
(I192
I143
tp454
a(I163
I195
tp455
a(I200
I200
tp456
a(I159
I131
tp457
a(I200
I132
tp458
a(I200
I161
tp459
a(I200
I118
tp460
a(I161
I136
tp461
a(I200
I128
tp462
a(I200
I139
tp463
asg16
I200
sba(imain2
Polygon
p464
(dp465
g3
(I12
I87
tp466
sg5
I200
sg6
(I49
I129
I182
I5
tp467
sg8
(lp468
(I0
I133
tp469
a(I0
I54
tp470
a(I53
I118
tp471
a(I0
I107
tp472
a(I0
I121
tp473
a(I1
I124
tp474
asg16
I200
sba(imain2
Polygon
p475
(dp476
g3
(I123
I91
tp477
sg5
I200
sg6
(I229
I0
I184
I53
tp478
sg8
(lp479
(I93
I69
tp480
a(I99
I140
tp481
a(I130
I51
tp482
a(I77
I123
tp483
a(I112
I114
tp484
asg16
I200
sba(imain2
Polygon
p485
(dp486
g3
(I80
I122
tp487
sg5
I200
sg6
(I220
I175
I139
I74
tp488
sg8
(lp489
(I116
I143
tp490
a(I129
I85
tp491
a(I44
I101
tp492
a(I75
I158
tp493
a(I123
I146
tp494
asg16
I200
sba(imain2
Polygon
p495
(dp496
g3
(I119
I156
tp497
sg5
I200
sg6
(I125
I213
I195
I44
tp498
sg8
(lp499
(I96
I178
tp500
a(I141
I200
tp501
a(I103
I123
tp502
a(I90
I178
tp503
a(I70
I199
tp504
a(I133
I200
tp505
a(I69
I119
tp506
a(I102
I114
tp507
a(I69
I110
tp508
a(I88
I157
tp509
asg16
I200
sba(imain2
Polygon
p510
(dp511
g3
(I66
I96
tp512
sg5
I200
sg6
(I107
I72
I64
I92
tp513
sg8
(lp514
(I24
I133
tp515
a(I20
I88
tp516
a(I59
I80
tp517
a(I72
I129
tp518
a(I100
I145
tp519
a(I30
I82
tp520
a(I36
I114
tp521
asg16
I200
sba(imain2
Polygon
p522
(dp523
g3
(I17
I178
tp524
sg5
I200
sg6
(I81
I64
I13
I0
tp525
sg8
(lp526
(I0
I175
tp527
a(I1
I200
tp528
a(I0
I174
tp529
a(I17
I200
tp530
a(I20
I150
tp531
a(I0
I128
tp532
a(I11
I166
tp533
a(I45
I141
tp534
a(I63
I188
tp535
asg16
I200
sba(imain2
Polygon
p536
(dp537
g3
(I196
I157
tp538
sg5
I200
sg6
(I26
I207
I67
I1
tp539
sg8
(lp540
(I147
I199
tp541
a(I200
I112
tp542
a(I200
I161
tp543
a(I200
I197
tp544
a(I200
I158
tp545
a(I200
I123
tp546
a(I147
I107
tp547
a(I165
I144
tp548
a(I200
I113
tp549
a(I200
I173
tp550
a(I200
I174
tp551
a(I189
I174
tp552
a(I200
I151
tp553
a(I154
I109
tp554
a(I161
I119
tp555
a(I200
I151
tp556
a(I163
I139
tp557
a(I158
I128
tp558
asg16
I200
sba(imain2
Polygon
p559
(dp560
g3
(I7
I138
tp561
sg5
I200
sg6
(I208
I109
I9
I0
tp562
sg8
(lp563
(I0
I174
tp564
a(I0
I131
tp565
a(I0
I109
tp566
a(I0
I127
tp567
a(I11
I151
tp568
a(I0
I88
tp569
a(I0
I180
tp570
a(I25
I106
tp571
a(I0
I157
tp572
a(I0
I147
tp573
a(I29
I156
tp574
a(I0
I133
tp575
a(I0
I158
tp576
a(I24
I89
tp577
a(I41
I89
tp578
asg16
I200
sba(imain2
Polygon
p579
(dp580
g3
(I49
I75
tp581
sg5
I200
sg6
(I117
I228
I10
I21
tp582
sg8
(lp583
(I97
I31
tp584
a(I96
I95
tp585
a(I60
I123
tp586
a(I28
I81
tp587
a(I35
I74
tp588
a(I91
I46
tp589
a(I35
I64
tp590
a(I75
I88
tp591
a(I0
I118
tp592
a(I3
I64
tp593
a(I8
I49
tp594
a(I41
I49
tp595
a(I53
I73
tp596
a(I77
I48
tp597
a(I41
I61
tp598
a(I63
I36
tp599
asg16
I200
sba(imain2
Polygon
p600
(dp601
g3
(I75
I73
tp602
sg5
I200
sg6
(I161
I134
I134
I133
tp603
sg8
(lp604
(I108
I39
tp605
a(I122
I103
tp606
a(I47
I117
tp607
a(I62
I34
tp608
asg16
I200
sba(imain2
Polygon
p609
(dp610
g3
(I82
I103
tp611
sg5
I200
sg6
(I94
I95
I59
I0
tp612
sg8
(lp613
(I49
I116
tp614
a(I83
I145
tp615
a(I53
I131
tp616
a(I124
I68
tp617
a(I36
I91
tp618
a(I67
I133
tp619
a(I92
I71
tp620
a(I95
I67
tp621
a(I97
I112
tp622
a(I78
I128
tp623
a(I61
I89
tp624
a(I43
I63
tp625
a(I41
I99
tp626
a(I38
I55
tp627
a(I128
I131
tp628
a(I102
I131
tp629
a(I54
I64
tp630
a(I55
I149
tp631
asg16
I200
sba(imain2
Polygon
p632
(dp633
g3
(I126
I26
tp634
sg5
I200
sg6
(I237
I182
I126
I109
tp635
sg8
(lp636
(I138
I12
tp637
a(I148
I21
tp638
a(I124
I16
tp639
a(I83
I10
tp640
a(I77
I0
tp641
a(I162
I0
tp642
a(I176
I38
tp643
a(I168
I75
tp644
asg16
I200
sba(imain2
Polygon
p645
(dp646
g3
(I128
I23
tp647
sg5
I200
sg6
(I105
I0
I84
I0
tp648
sg8
(lp649
(I125
I0
tp650
a(I97
I3
tp651
a(I137
I0
tp652
a(I147
I0
tp653
a(I126
I22
tp654
a(I103
I28
tp655
a(I139
I0
tp656
a(I153
I43
tp657
a(I116
I0
tp658
a(I172
I37
tp659
a(I157
I34
tp660
a(I144
I0
tp661
a(I92
I33
tp662
a(I172
I71
tp663
a(I132
I58
tp664
asg16
I200
sba(imain2
Polygon
p665
(dp666
g3
(I147
I59
tp667
sg5
I200
sg6
(I1
I240
I188
I61
tp668
sg8
(lp669
(I191
I38
tp670
a(I155
I19
tp671
a(I190
I84
tp672
asg16
I200
sba(imain2
Polygon
p673
(dp674
g3
(I105
I192
tp675
sg5
I200
sg6
(I178
I20
I173
I0
tp676
sg8
(lp677
(I150
I178
tp678
a(I76
I200
tp679
a(I97
I200
tp680
a(I118
I200
tp681
a(I149
I200
tp682
asg16
I200
sba(imain2
Polygon
p683
(dp684
g3
(I144
I60
tp685
sg5
I200
sg6
(I59
I233
I7
I1
tp686
sg8
(lp687
(I100
I77
tp688
a(I157
I97
tp689
a(I151
I34
tp690
a(I108
I75
tp691
a(I186
I102
tp692
a(I180
I75
tp693
a(I143
I104
tp694
asg16
I200
sba(imain2
Polygon
p695
(dp696
g3
(I177
I86
tp697
sg5
I200
sg6
(I168
I32
I16
I0
tp698
sg8
(lp699
(I179
I46
tp700
a(I165
I74
tp701
a(I200
I62
tp702
a(I166
I62
tp703
a(I200
I115
tp704
a(I141
I67
tp705
a(I156
I64
tp706
asg16
I200
sba(imain2
Polygon
p707
(dp708
g3
(I157
I117
tp709
sg5
I200
sg6
(I43
I28
I0
I57
tp710
sg8
(lp711
(I187
I153
tp712
a(I200
I147
tp713
a(I128
I75
tp714
a(I191
I152
tp715
a(I198
I74
tp716
a(I183
I145
tp717
a(I133
I77
tp718
a(I200
I166
tp719
a(I132
I108
tp720
asg16
I200
sba(imain2
Polygon
p721
(dp722
g3
(I155
I192
tp723
sg5
I200
sg6
(I1
I33
I195
I0
tp724
sg8
(lp725
(I200
I165
tp726
a(I145
I200
tp727
a(I128
I195
tp728
a(I111
I200
tp729
a(I175
I200
tp730
a(I193
I154
tp731
a(I110
I173
tp732
a(I153
I200
tp733
a(I155
I187
tp734
a(I194
I181
tp735
asg16
I200
sba(imain2
Polygon
p736
(dp737
g3
(I103
I158
tp738
sg5
I200
sg6
(I13
I44
I119
I60
tp739
sg8
(lp740
(I107
I154
tp741
a(I87
I181
tp742
a(I127
I113
tp743
a(I121
I144
tp744
a(I82
I153
tp745
a(I131
I117
tp746
a(I66
I200
tp747
a(I96
I148
tp748
asg16
I200
sba(imain2
Polygon
p749
(dp750
g3
(I9
I151
tp751
sg5
I200
sg6
(I120
I83
I56
I36
tp752
sg8
(lp753
(I0
I173
tp754
a(I0
I173
tp755
a(I0
I126
tp756
a(I21
I130
tp757
a(I0
I157
tp758
a(I6
I192
tp759
a(I44
I122
tp760
a(I0
I159
tp761
a(I0
I191
tp762
asg16
I200
sba(imain2
Polygon
p763
(dp764
g3
(I114
I115
tp765
sg5
I200
sg6
(I165
I158
I138
I1
tp766
sg8
(lp767
(I90
I131
tp768
a(I156
I103
tp769
a(I64
I113
tp770
a(I76
I151
tp771
a(I97
I150
tp772
a(I144
I106
tp773
a(I99
I110
tp774
asg16
I200
sba(imain2
Polygon
p775
(dp776
g3
(I114
I99
tp777
sg5
I200
sg6
(I61
I240
I7
I49
tp778
sg8
(lp779
(I128
I108
tp780
a(I104
I71
tp781
a(I95
I126
tp782
a(I85
I70
tp783
a(I72
I108
tp784
a(I117
I58
tp785
a(I70
I56
tp786
a(I109
I134
tp787
a(I103
I135
tp788
a(I69
I62
tp789
a(I139
I67
tp790
a(I84
I133
tp791
asg16
I200
sba(imain2
Polygon
p792
(dp793
g3
(I173
I62
tp794
sg5
I200
sg6
(I1
I41
I168
I98
tp795
sg8
(lp796
(I200
I82
tp797
a(I200
I84
tp798
a(I153
I79
tp799
a(I192
I90
tp800
asg16
I200
sba(imain2
Polygon
p801
(dp802
g3
(I199
I171
tp803
sg5
I200
sg6
(I0
I234
I13
I23
tp804
sg8
(lp805
(I200
I164
tp806
a(I200
I174
tp807
a(I162
I194
tp808
asg16
I200
sba(imain2
Polygon
p809
(dp810
g3
(I195
I126
tp811
sg5
I200
sg6
(I211
I216
I27
I1
tp812
sg8
(lp813
(I146
I99
tp814
a(I176
I160
tp815
a(I196
I122
tp816
a(I200
I164
tp817
a(I200
I93
tp818
a(I200
I114
tp819
a(I175
I79
tp820
a(I200
I91
tp821
a(I188
I145
tp822
a(I179
I163
tp823
a(I183
I169
tp824
a(I199
I106
tp825
a(I170
I145
tp826
a(I187
I122
tp827
a(I186
I158
tp828
a(I200
I156
tp829
a(I200
I136
tp830
asg16
I200
sba(imain2
Polygon
p831
(dp832
g3
(I51
I190
tp833
sg5
I200
sg6
(I124
I172
I99
I63
tp834
sg8
(lp835
(I53
I200
tp836
a(I11
I200
tp837
a(I86
I200
tp838
a(I60
I200
tp839
a(I96
I168
tp840
a(I97
I200
tp841
a(I3
I200
tp842
a(I70
I200
tp843
asg16
I200
sba(imain2
Polygon
p844
(dp845
g3
(I200
I5
tp846
sg5
I200
sg6
(I187
I107
I44
I1
tp847
sg8
(lp848
(I200
I50
tp849
a(I200
I17
tp850
a(I200
I0
tp851
a(I200
I17
tp852
a(I185
I0
tp853
a(I200
I0
tp854
a(I200
I0
tp855
a(I180
I0
tp856
a(I200
I17
tp857
asg16
I200
sba(imain2
Polygon
p858
(dp859
g3
(I147
I166
tp860
sg5
I200
sg6
(I114
I241
I223
I10
tp861
sg8
(lp862
(I108
I131
tp863
a(I159
I200
tp864
a(I179
I180
tp865
a(I123
I166
tp866
a(I132
I125
tp867
a(I103
I176
tp868
a(I124
I199
tp869
asg16
I200
sba(imain2
Polygon
p870
(dp871
g3
(I16
I191
tp872
sg5
I200
sg6
(I128
I47
I221
I1
tp873
sg8
(lp874
(I0
I154
tp875
a(I59
I200
tp876
a(I55
I168
tp877
asg16
I200
sba(imain2
Polygon
p878
(dp879
g3
(I94
I9
tp880
sg5
I200
sg6
(I199
I51
I20
I1
tp881
sg8
(lp882
(I59
I24
tp883
a(I78
I0
tp884
a(I89
I0
tp885
a(I83
I0
tp886
a(I101
I37
tp887
a(I62
I0
tp888
a(I67
I26
tp889
a(I87
I56
tp890
a(I121
I30
tp891
a(I85
I7
tp892
a(I144
I14
tp893
a(I50
I53
tp894
asg16
I200
sba(imain2
Polygon
p895
(dp896
g3
(I111
I113
tp897
sg5
I200
sg6
(I90
I30
I145
I1
tp898
sg8
(lp899
(I83
I120
tp900
a(I95
I159
tp901
a(I74
I126
tp902
a(I150
I136
tp903
asg16
I200
sba(imain2
Polygon
p904
(dp905
g3
(I10
I81
tp906
sg5
I200
sg6
(I220
I162
I193
I1
tp907
sg8
(lp908
(I60
I131
tp909
a(I0
I33
tp910
a(I0
I62
tp911
a(I12
I107
tp912
a(I0
I101
tp913
a(I59
I45
tp914
a(I0
I116
tp915
a(I0
I111
tp916
a(I0
I105
tp917
a(I46
I129
tp918
a(I2
I80
tp919
asg16
I200
sba(imain2
Polygon
p920
(dp921
g3
(I10
I22
tp922
sg5
I200
sg6
(I217
I204
I105
I69
tp923
sg8
(lp924
(I27
I0
tp925
a(I41
I0
tp926
a(I47
I58
tp927
a(I19
I72
tp928
a(I0
I70
tp929
a(I12
I0
tp930
a(I0
I0
tp931
a(I0
I66
tp932
a(I13
I7
tp933
a(I0
I14
tp934
a(I26
I4
tp935
a(I0
I13
tp936
asg16
I200
sba(imain2
Polygon
p937
(dp938
g3
(I19
I169
tp939
sg5
I200
sg6
(I89
I215
I79
I1
tp940
sg8
(lp941
(I15
I128
tp942
a(I44
I183
tp943
a(I20
I192
tp944
a(I66
I163
tp945
a(I7
I200
tp946
a(I0
I166
tp947
asg16
I200
sba(imain2
Polygon
p948
(dp949
g3
(I194
I7
tp950
sg5
I200
sg6
(I162
I89
I134
I3
tp951
sg8
(lp952
(I200
I44
tp953
a(I200
I0
tp954
a(I200
I35
tp955
a(I160
I25
tp956
a(I170
I0
tp957
a(I145
I0
tp958
a(I200
I0
tp959
a(I200
I29
tp960
a(I200
I5
tp961
a(I200
I45
tp962
asg16
I200
sba(imain2
Polygon
p963
(dp964
g3
(I42
I15
tp965
sg5
I200
sg6
(I148
I136
I163
I1
tp966
sg8
(lp967
(I55
I36
tp968
a(I61
I9
tp969
a(I73
I63
tp970
a(I0
I65
tp971
a(I11
I0
tp972
a(I88
I8
tp973
a(I91
I0
tp974
a(I40
I32
tp975
asg16
I200
sba(imain2
Polygon
p976
(dp977
g3
(I183
I77
tp978
sg5
I200
sg6
(I25
I141
I27
I32
tp979
sg8
(lp980
(I146
I55
tp981
a(I200
I86
tp982
a(I156
I32
tp983
a(I200
I40
tp984
a(I200
I100
tp985
a(I200
I90
tp986
a(I178
I51
tp987
asg16
I200
sba(imain2
Polygon
p988
(dp989
g3
(I190
I45
tp990
sg5
I200
sg6
(I178
I46
I183
I0
tp991
sg8
(lp992
(I200
I8
tp993
a(I200
I26
tp994
a(I200
I14
tp995
a(I200
I46
tp996
a(I179
I86
tp997
a(I200
I56
tp998
a(I183
I37
tp999
a(I200
I7
tp1000
a(I153
I38
tp1001
asg16
I200
sba(imain2
Polygon
p1002
(dp1003
g3
(I115
I69
tp1004
sg5
I200
sg6
(I0
I121
I192
I0
tp1005
sg8
(lp1006
(I77
I118
tp1007
a(I84
I62
tp1008
a(I128
I106
tp1009
a(I118
I32
tp1010
asg16
I200
sba(imain2
Polygon
p1011
(dp1012
g3
(I173
I121
tp1013
sg5
I200
sg6
(I242
I54
I21
I1
tp1014
sg8
(lp1015
(I164
I100
tp1016
a(I128
I72
tp1017
a(I151
I97
tp1018
a(I164
I125
tp1019
a(I169
I95
tp1020
a(I200
I143
tp1021
a(I180
I71
tp1022
a(I187
I119
tp1023
a(I144
I170
tp1024
asg16
I200
sba(imain2
Polygon
p1025
(dp1026
g3
(I45
I135
tp1027
sg5
I200
sg6
(I148
I126
I175
I40
tp1028
sg8
(lp1029
(I7
I177
tp1030
a(I21
I178
tp1031
a(I23
I86
tp1032
a(I14
I133
tp1033
a(I35
I86
tp1034
a(I9
I89
tp1035
asg16
I200
sba(imain2
Polygon
p1036
(dp1037
g3
(I61
I48
tp1038
sg5
I200
sg6
(I76
I33
I123
I113
tp1039
sg8
(lp1040
(I71
I86
tp1041
a(I81
I91
tp1042
a(I73
I78
tp1043
a(I47
I85
tp1044
a(I68
I93
tp1045
a(I86
I72
tp1046
a(I85
I73
tp1047
a(I45
I93
tp1048
a(I66
I90
tp1049
a(I106
I80
tp1050
asg16
I200
sba(imain2
Polygon
p1051
(dp1052
g3
(I96
I154
tp1053
sg5
I200
sg6
(I149
I182
I185
I63
tp1054
sg8
(lp1055
(I51
I113
tp1056
a(I75
I149
tp1057
a(I90
I200
tp1058
a(I142
I200
tp1059
a(I53
I114
tp1060
a(I107
I120
tp1061
asg16
I200
sba(imain2
Polygon
p1062
(dp1063
g3
(I32
I146
tp1064
sg5
I200
sg6
(I62
I240
I71
I98
tp1065
sg8
(lp1066
(I0
I157
tp1067
a(I0
I178
tp1068
a(I0
I132
tp1069
asg16
I200
sba(imain2
Polygon
p1070
(dp1071
g3
(I3
I120
tp1072
sg5
I200
sg6
(I186
I176
I16
I55
tp1073
sg8
(lp1074
(I38
I71
tp1075
a(I0
I72
tp1076
a(I0
I90
tp1077
a(I0
I132
tp1078
a(I20
I116
tp1079
asg16
I200
sba(imain2
Polygon
p1080
(dp1081
g3
(I74
I152
tp1082
sg5
I200
sg6
(I59
I80
I126
I1
tp1083
sg8
(lp1084
(I107
I180
tp1085
a(I80
I138
tp1086
a(I39
I140
tp1087
a(I99
I121
tp1088
a(I81
I127
tp1089
a(I35
I167
tp1090
a(I118
I127
tp1091
a(I62
I200
tp1092
a(I33
I191
tp1093
a(I87
I200
tp1094
a(I56
I110
tp1095
a(I60
I153
tp1096
a(I76
I188
tp1097
asg16
I200
sba(imain2
Polygon
p1098
(dp1099
g3
(I31
I192
tp1100
sg5
I200
sg6
(I154
I33
I134
I1
tp1101
sg8
(lp1102
(I0
I181
tp1103
a(I7
I200
tp1104
a(I0
I200
tp1105
a(I36
I200
tp1106
a(I80
I200
tp1107
a(I53
I200
tp1108
a(I0
I142
tp1109
a(I41
I172
tp1110
a(I54
I171
tp1111
a(I0
I145
tp1112
a(I55
I200
tp1113
a(I79
I157
tp1114
a(I34
I200
tp1115
a(I31
I164
tp1116
a(I21
I181
tp1117
a(I75
I200
tp1118
asg16
I200
sba(imain2
Polygon
p1119
(dp1120
g3
(I99
I149
tp1121
sg5
I200
sg6
(I189
I32
I203
I0
tp1122
sg8
(lp1123
(I110
I116
tp1124
a(I136
I173
tp1125
a(I101
I127
tp1126
a(I82
I109
tp1127
a(I114
I142
tp1128
a(I79
I154
tp1129
a(I51
I112
tp1130
a(I53
I110
tp1131
a(I92
I139
tp1132
a(I124
I194
tp1133
a(I133
I121
tp1134
a(I103
I151
tp1135
a(I123
I124
tp1136
a(I78
I148
tp1137
a(I52
I171
tp1138
asg16
I200
sba(imain2
Polygon
p1139
(dp1140
g3
(I183
I115
tp1141
sg5
I200
sg6
(I18
I108
I177
I142
tp1142
sg8
(lp1143
(I200
I102
tp1144
a(I200
I102
tp1145
a(I193
I132
tp1146
a(I181
I84
tp1147
a(I200
I87
tp1148
a(I200
I142
tp1149
asg16
I200
sba(imain2
Polygon
p1150
(dp1151
g3
(I141
I107
tp1152
sg5
I200
sg6
(I78
I145
I85
I143
tp1153
sg8
(lp1154
(I119
I86
tp1155
a(I112
I86
tp1156
a(I111
I152
tp1157
asg16
I200
sba(imain2
Polygon
p1158
(dp1159
g3
(I149
I72
tp1160
sg5
I200
sg6
(I63
I107
I164
I29
tp1161
sg8
(lp1162
(I160
I35
tp1163
a(I195
I56
tp1164
a(I155
I38
tp1165
a(I99
I25
tp1166
a(I173
I40
tp1167
a(I176
I38
tp1168
a(I148
I79
tp1169
a(I186
I73
tp1170
a(I150
I68
tp1171
a(I194
I104
tp1172
a(I148
I88
tp1173
asg16
I200
sba(imain2
Polygon
p1174
(dp1175
g3
(I67
I128
tp1176
sg5
I200
sg6
(I211
I148
I53
I28
tp1177
sg8
(lp1178
(I106
I157
tp1179
a(I73
I95
tp1180
a(I108
I113
tp1181
a(I115
I152
tp1182
a(I62
I84
tp1183
a(I27
I99
tp1184
a(I55
I110
tp1185
a(I44
I110
tp1186
asg16
I200
sba(imain2
Polygon
p1187
(dp1188
g3
(I183
I44
tp1189
sg5
I200
sg6
(I81
I9
I171
I0
tp1190
sg8
(lp1191
(I200
I43
tp1192
a(I138
I92
tp1193
a(I184
I85
tp1194
a(I175
I30
tp1195
a(I136
I16
tp1196
a(I179
I0
tp1197
asg16
I200
sba(imain2
Polygon
p1198
(dp1199
g3
(I100
I61
tp1200
sg5
I200
sg6
(I199
I97
I41
I38
tp1201
sg8
(lp1202
(I56
I38
tp1203
a(I99
I64
tp1204
a(I91
I106
tp1205
a(I131
I96
tp1206
a(I95
I52
tp1207
a(I78
I95
tp1208
a(I74
I24
tp1209
a(I146
I15
tp1210
a(I96
I45
tp1211
a(I109
I45
tp1212
a(I143
I70
tp1213
a(I84
I63
tp1214
a(I126
I79
tp1215
asg16
I200
sba(imain2
Polygon
p1216
(dp1217
g3
(I52
I190
tp1218
sg5
I200
sg6
(I175
I147
I50
I77
tp1219
sg8
(lp1220
(I71
I200
tp1221
a(I89
I171
tp1222
a(I102
I200
tp1223
a(I94
I200
tp1224
a(I95
I200
tp1225
a(I34
I200
tp1226
asg16
I200
sba(imain2
Polygon
p1227
(dp1228
g3
(I151
I65
tp1229
sg5
I200
sg6
(I62
I180
I1
I100
tp1230
sg8
(lp1231
(I176
I54
tp1232
a(I179
I51
tp1233
a(I192
I90
tp1234
a(I186
I39
tp1235
a(I165
I61
tp1236
a(I111
I63
tp1237
a(I119
I77
tp1238
a(I169
I47
tp1239
a(I182
I28
tp1240
a(I162
I60
tp1241
asg16
I200
sba(imain2
Polygon
p1242
(dp1243
g3
(I67
I20
tp1244
sg5
I200
sg6
(I165
I93
I187
I103
tp1245
sg8
(lp1246
(I17
I0
tp1247
a(I29
I39
tp1248
a(I114
I0
tp1249
a(I110
I0
tp1250
a(I91
I0
tp1251
a(I113
I0
tp1252
a(I62
I4
tp1253
asg16
I200
sba(imain2
Polygon
p1254
(dp1255
g3
(I199
I56
tp1256
sg5
I200
sg6
(I159
I1
I107
I0
tp1257
sg8
(lp1258
(I200
I8
tp1259
a(I165
I70
tp1260
a(I200
I46
tp1261
a(I200
I83
tp1262
a(I181
I100
tp1263
a(I186
I53
tp1264
a(I198
I104
tp1265
a(I200
I46
tp1266
a(I200
I90
tp1267
a(I200
I16
tp1268
a(I168
I34
tp1269
asg16
I200
sba(imain2
Polygon
p1270
(dp1271
g3
(I185
I38
tp1272
sg5
I200
sg6
(I128
I218
I67
I157
tp1273
sg8
(lp1274
(I200
I69
tp1275
a(I200
I0
tp1276
a(I196
I0
tp1277
a(I154
I0
tp1278
a(I146
I42
tp1279
a(I200
I5
tp1280
a(I168
I28
tp1281
a(I142
I46
tp1282
a(I155
I22
tp1283
a(I181
I67
tp1284
a(I187
I70
tp1285
a(I138
I0
tp1286
a(I200
I50
tp1287
a(I141
I1
tp1288
a(I171
I85
tp1289
a(I189
I82
tp1290
asg16
I200
sba(imain2
Polygon
p1291
(dp1292
g3
(I67
I149
tp1293
sg5
I200
sg6
(I90
I206
I214
I40
tp1294
sg8
(lp1295
(I20
I169
tp1296
a(I92
I149
tp1297
a(I45
I104
tp1298
a(I84
I154
tp1299
a(I47
I101
tp1300
a(I64
I107
tp1301
a(I75
I131
tp1302
a(I69
I155
tp1303
asg16
I200
sba(imain2
Polygon
p1304
(dp1305
g3
(I21
I182
tp1306
sg5
I200
sg6
(I110
I116
I1
I78
tp1307
sg8
(lp1308
(I67
I200
tp1309
a(I0
I166
tp1310
a(I30
I184
tp1311
a(I20
I169
tp1312
a(I19
I200
tp1313
a(I0
I181
tp1314
a(I19
I200
tp1315
a(I0
I143
tp1316
a(I13
I200
tp1317
a(I0
I144
tp1318
a(I0
I194
tp1319
a(I27
I167
tp1320
a(I8
I162
tp1321
a(I28
I152
tp1322
a(I0
I133
tp1323
a(I47
I191
tp1324
asg16
I200
sba(imain2
Polygon
p1325
(dp1326
g3
(I145
I176
tp1327
sg5
I200
sg6
(I183
I171
I0
I36
tp1328
sg8
(lp1329
(I116
I200
tp1330
a(I101
I200
tp1331
a(I138
I200
tp1332
a(I120
I137
tp1333
a(I105
I200
tp1334
asg16
I200
sba(imain2
Polygon
p1335
(dp1336
g3
(I102
I21
tp1337
sg5
I200
sg6
(I180
I177
I185
I56
tp1338
sg8
(lp1339
(I129
I69
tp1340
a(I61
I26
tp1341
a(I53
I14
tp1342
a(I104
I12
tp1343
a(I146
I25
tp1344
a(I143
I7
tp1345
a(I142
I0
tp1346
a(I59
I0
tp1347
a(I54
I68
tp1348
asg16
I200
sba(imain2
Polygon
p1349
(dp1350
g3
(I154
I30
tp1351
sg5
I200
sg6
(I49
I96
I59
I0
tp1352
sg8
(lp1353
(I135
I63
tp1354
a(I126
I17
tp1355
a(I107
I66
tp1356
a(I173
I45
tp1357
a(I162
I48
tp1358
a(I140
I39
tp1359
a(I195
I27
tp1360
a(I135
I57
tp1361
a(I156
I27
tp1362
a(I141
I16
tp1363
asg16
I200
sba(imain2
Polygon
p1364
(dp1365
g3
(I171
I178
tp1366
sg5
I200
sg6
(I94
I229
I32
I1
tp1367
sg8
(lp1368
(I200
I200
tp1369
a(I200
I200
tp1370
a(I200
I195
tp1371
a(I200
I135
tp1372
a(I179
I151
tp1373
a(I137
I200
tp1374
asg16
I200
sba(imain2
Polygon
p1375
(dp1376
g3
(I189
I152
tp1377
sg5
I200
sg6
(I246
I70
I179
I1
tp1378
sg8
(lp1379
(I184
I192
tp1380
a(I173
I117
tp1381
a(I200
I166
tp1382
a(I200
I155
tp1383
a(I176
I108
tp1384
a(I182
I182
tp1385
a(I200
I166
tp1386
a(I162
I141
tp1387
a(I149
I177
tp1388
asg16
I200
sba(imain2
Polygon
p1389
(dp1390
g3
(I158
I122
tp1391
sg5
I200
sg6
(I42
I1
I156
I41
tp1392
sg8
(lp1393
(I182
I80
tp1394
a(I174
I137
tp1395
a(I200
I145
tp1396
a(I166
I100
tp1397
a(I200
I140
tp1398
a(I124
I81
tp1399
a(I140
I142
tp1400
a(I131
I110
tp1401
a(I189
I78
tp1402
a(I200
I74
tp1403
a(I141
I98
tp1404
asg16
I200
sba(imain2
Polygon
p1405
(dp1406
g3
(I89
I194
tp1407
sg5
I200
sg6
(I226
I75
I38
I1
tp1408
sg8
(lp1409
(I120
I150
tp1410
a(I69
I166
tp1411
a(I129
I168
tp1412
a(I95
I159
tp1413
a(I107
I177
tp1414
a(I122
I200
tp1415
a(I104
I200
tp1416
a(I39
I200
tp1417
a(I64
I164
tp1418
a(I126
I166
tp1419
a(I68
I191
tp1420
a(I51
I195
tp1421
asg16
I200
sba(imain2
Polygon
p1422
(dp1423
g3
(I185
I89
tp1424
sg5
I200
sg6
(I163
I1
I218
I0
tp1425
sg8
(lp1426
(I200
I39
tp1427
a(I197
I67
tp1428
a(I190
I122
tp1429
a(I200
I70
tp1430
a(I152
I101
tp1431
a(I200
I118
tp1432
a(I200
I94
tp1433
a(I197
I79
tp1434
a(I200
I121
tp1435
a(I200
I97
tp1436
a(I175
I68
tp1437
a(I200
I47
tp1438
a(I196
I102
tp1439
asg16
I200
sba(imain2
Polygon
p1440
(dp1441
g3
(I67
I129
tp1442
sg5
I200
sg6
(I72
I192
I58
I119
tp1443
sg8
(lp1444
(I96
I97
tp1445
a(I112
I141
tp1446
a(I78
I170
tp1447
a(I81
I160
tp1448
a(I112
I100
tp1449
a(I49
I126
tp1450
a(I93
I98
tp1451
a(I110
I107
tp1452
a(I96
I122
tp1453
a(I109
I141
tp1454
a(I87
I119
tp1455
a(I87
I107
tp1456
a(I75
I92
tp1457
a(I84
I146
tp1458
a(I52
I135
tp1459
a(I91
I173
tp1460
asg16
I200
sba(imain2
Polygon
p1461
(dp1462
g3
(I95
I80
tp1463
sg5
I200
sg6
(I219
I88
I19
I129
tp1464
sg8
(lp1465
(I121
I57
tp1466
a(I47
I53
tp1467
a(I58
I130
tp1468
a(I123
I114
tp1469
a(I126
I95
tp1470
a(I129
I87
tp1471
asg16
I200
sba(imain2
Polygon
p1472
(dp1473
g3
(I14
I45
tp1474
sg5
I200
sg6
(I224
I0
I43
I107
tp1475
sg8
(lp1476
(I2
I89
tp1477
a(I58
I24
tp1478
a(I17
I21
tp1479
a(I38
I90
tp1480
a(I10
I95
tp1481
a(I0
I67
tp1482
asg16
I200
sba(imain2
Polygon
p1483
(dp1484
g3
(I34
I35
tp1485
sg5
I200
sg6
(I107
I9
I201
I22
tp1486
sg8
(lp1487
(I0
I0
tp1488
a(I0
I84
tp1489
a(I51
I56
tp1490
a(I37
I58
tp1491
a(I53
I81
tp1492
a(I45
I11
tp1493
a(I56
I7
tp1494
a(I63
I21
tp1495
asg16
I200
sba(imain2
Polygon
p1496
(dp1497
g3
(I127
I147
tp1498
sg5
I200
sg6
(I116
I171
I188
I73
tp1499
sg8
(lp1500
(I112
I151
tp1501
a(I112
I167
tp1502
a(I161
I125
tp1503
a(I99
I100
tp1504
a(I112
I159
tp1505
a(I126
I158
tp1506
a(I164
I118
tp1507
a(I80
I133
tp1508
a(I125
I141
tp1509
a(I92
I99
tp1510
a(I85
I144
tp1511
a(I105
I137
tp1512
a(I148
I117
tp1513
a(I108
I109
tp1514
a(I100
I118
tp1515
a(I120
I132
tp1516
a(I112
I128
tp1517
asg16
I200
sba(imain2
Polygon
p1518
(dp1519
g3
(I88
I106
tp1520
sg5
I200
sg6
(I189
I11
I59
I111
tp1521
sg8
(lp1522
(I127
I64
tp1523
a(I119
I93
tp1524
a(I117
I112
tp1525
asg16
I200
sba(imain2
Polygon
p1526
(dp1527
g3
(I11
I134
tp1528
sg5
I200
sg6
(I75
I179
I94
I93
tp1529
sg8
(lp1530
(I0
I183
tp1531
a(I0
I95
tp1532
a(I0
I108
tp1533
a(I0
I134
tp1534
a(I0
I162
tp1535
a(I12
I180
tp1536
a(I41
I142
tp1537
asg16
I200
sba(imain2
Polygon
p1538
(dp1539
g3
(I174
I141
tp1540
sg5
I200
sg6
(I113
I236
I92
I78
tp1541
sg8
(lp1542
(I200
I120
tp1543
a(I192
I135
tp1544
a(I175
I139
tp1545
a(I200
I190
tp1546
asg16
I200
sba(imain2
Polygon
p1547
(dp1548
g3
(I68
I44
tp1549
sg5
I200
sg6
(I2
I228
I127
I39
tp1550
sg8
(lp1551
(I26
I22
tp1552
a(I19
I82
tp1553
a(I62
I45
tp1554
a(I75
I72
tp1555
a(I22
I45
tp1556
a(I83
I85
tp1557
asg16
I200
sba(imain2
Polygon
p1558
(dp1559
g3
(I80
I68
tp1560
sg5
I200
sg6
(I76
I15
I16
I34
tp1561
sg8
(lp1562
(I35
I25
tp1563
a(I52
I50
tp1564
a(I34
I66
tp1565
a(I53
I18
tp1566
a(I117
I21
tp1567
a(I40
I26
tp1568
a(I52
I99
tp1569
a(I37
I27
tp1570
a(I47
I36
tp1571
a(I97
I30
tp1572
a(I37
I35
tp1573
a(I66
I42
tp1574
a(I83
I18
tp1575
asg16
I200
sba(imain2
Polygon
p1576
(dp1577
g3
(I120
I143
tp1578
sg5
I200
sg6
(I151
I157
I83
I1
tp1579
sg8
(lp1580
(I160
I189
tp1581
a(I157
I180
tp1582
a(I104
I174
tp1583
a(I92
I178
tp1584
a(I129
I155
tp1585
a(I119
I179
tp1586
a(I110
I93
tp1587
a(I111
I169
tp1588
a(I120
I158
tp1589
a(I86
I100
tp1590
a(I157
I112
tp1591
a(I170
I95
tp1592
asg16
I200
sba(imain2
Polygon
p1593
(dp1594
g3
(I47
I43
tp1595
sg5
I200
sg6
(I224
I145
I62
I44
tp1596
sg8
(lp1597
(I85
I78
tp1598
a(I7
I93
tp1599
a(I0
I83
tp1600
a(I5
I0
tp1601
a(I26
I10
tp1602
a(I86
I12
tp1603
a(I21
I40
tp1604
a(I74
I3
tp1605
a(I52
I53
tp1606
a(I45
I0
tp1607
a(I49
I4
tp1608
a(I96
I0
tp1609
asg16
I200
sba(imain2
Polygon
p1610
(dp1611
g3
(I6
I165
tp1612
sg5
I200
sg6
(I192
I50
I158
I53
tp1613
sg8
(lp1614
(I0
I191
tp1615
a(I34
I177
tp1616
a(I7
I145
tp1617
asg16
I200
sba(imain2
Polygon
p1618
(dp1619
g3
(I125
I173
tp1620
sg5
I200
sg6
(I91
I28
I31
I119
tp1621
sg8
(lp1622
(I145
I181
tp1623
a(I132
I145
tp1624
a(I105
I138
tp1625
a(I135
I166
tp1626
a(I143
I200
tp1627
a(I165
I200
tp1628
a(I85
I166
tp1629
a(I93
I145
tp1630
a(I79
I141
tp1631
a(I145
I159
tp1632
a(I157
I200
tp1633
a(I143
I189
tp1634
asg16
I200
sba(imain2
Polygon
p1635
(dp1636
g3
(I63
I154
tp1637
sg5
I200
sg6
(I122
I159
I2
I0
tp1638
sg8
(lp1639
(I90
I156
tp1640
a(I61
I175
tp1641
a(I112
I105
tp1642
a(I100
I174
tp1643
a(I110
I126
tp1644
a(I27
I140
tp1645
a(I66
I149
tp1646
a(I45
I194
tp1647
a(I85
I125
tp1648
a(I27
I122
tp1649
asg16
I200
sba(imain2
Polygon
p1650
(dp1651
g3
(I152
I171
tp1652
sg5
I200
sg6
(I192
I3
I227
I1
tp1653
sg8
(lp1654
(I106
I145
tp1655
a(I119
I163
tp1656
a(I200
I191
tp1657
a(I105
I165
tp1658
a(I114
I145
tp1659
a(I193
I126
tp1660
a(I180
I200
tp1661
a(I171
I163
tp1662
asg16
I200
sba(imain2
Polygon
p1663
(dp1664
g3
(I67
I143
tp1665
sg5
I200
sg6
(I71
I72
I132
I115
tp1666
sg8
(lp1667
(I100
I175
tp1668
a(I113
I120
tp1669
a(I113
I130
tp1670
a(I111
I131
tp1671
asg16
I200
sba(imain2
Polygon
p1672
(dp1673
g3
(I153
I79
tp1674
sg5
I200
sg6
(I134
I30
I161
I1
tp1675
sg8
(lp1676
(I156
I115
tp1677
a(I178
I118
tp1678
a(I198
I89
tp1679
a(I140
I45
tp1680
a(I175
I77
tp1681
a(I167
I73
tp1682
a(I142
I107
tp1683
a(I148
I111
tp1684
a(I175
I118
tp1685
a(I152
I113
tp1686
a(I120
I111
tp1687
a(I130
I94
tp1688
asg16
I200
sba(imain2
Polygon
p1689
(dp1690
g3
(I142
I192
tp1691
sg5
I200
sg6
(I50
I236
I0
I1
tp1692
sg8
(lp1693
(I130
I200
tp1694
a(I94
I200
tp1695
a(I151
I200
tp1696
a(I170
I191
tp1697
a(I122
I151
tp1698
a(I140
I162
tp1699
a(I115
I176
tp1700
a(I94
I200
tp1701
a(I104
I188
tp1702
asg16
I200
sba(imain2
Polygon
p1703
(dp1704
g3
(I144
I12
tp1705
sg5
I200
sg6
(I185
I74
I98
I0
tp1706
sg8
(lp1707
(I115
I0
tp1708
a(I131
I0
tp1709
a(I171
I26
tp1710
a(I111
I0
tp1711
a(I166
I26
tp1712
a(I140
I27
tp1713
a(I166
I23
tp1714
a(I184
I13
tp1715
a(I190
I2
tp1716
a(I118
I1
tp1717
a(I143
I13
tp1718
a(I167
I46
tp1719
a(I122
I5
tp1720
asg16
I200
sba(imain2
Polygon
p1721
(dp1722
g3
(I144
I92
tp1723
sg5
I200
sg6
(I224
I44
I149
I143
tp1724
sg8
(lp1725
(I175
I55
tp1726
a(I181
I55
tp1727
a(I190
I118
tp1728
a(I178
I108
tp1729
a(I159
I52
tp1730
asg16
I200
sba(imain2
Polygon
p1731
(dp1732
g3
(I167
I23
tp1733
sg5
I200
sg6
(I170
I30
I241
I2
tp1734
sg8
(lp1735
(I174
I4
tp1736
a(I156
I11
tp1737
a(I200
I70
tp1738
a(I200
I14
tp1739
a(I197
I0
tp1740
a(I139
I19
tp1741
a(I166
I58
tp1742
a(I200
I0
tp1743
a(I164
I43
tp1744
a(I200
I32
tp1745
a(I194
I34
tp1746
a(I156
I3
tp1747
asg16
I200
sba(imain2
Polygon
p1748
(dp1749
g3
(I200
I102
tp1750
sg5
I200
sg6
(I50
I231
I149
I42
tp1751
sg8
(lp1752
(I161
I70
tp1753
a(I171
I83
tp1754
a(I193
I55
tp1755
a(I200
I120
tp1756
a(I200
I145
tp1757
a(I181
I124
tp1758
a(I167
I86
tp1759
a(I200
I76
tp1760
a(I200
I100
tp1761
a(I200
I61
tp1762
a(I155
I69
tp1763
a(I180
I53
tp1764
a(I170
I125
tp1765
a(I177
I108
tp1766
asg16
I200
sba(imain2
Polygon
p1767
(dp1768
g3
(I20
I176
tp1769
sg5
I200
sg6
(I11
I202
I1
I0
tp1770
sg8
(lp1771
(I32
I132
tp1772
a(I4
I200
tp1773
a(I0
I164
tp1774
a(I65
I153
tp1775
a(I0
I196
tp1776
a(I30
I200
tp1777
a(I43
I145
tp1778
a(I17
I200
tp1779
a(I52
I175
tp1780
a(I7
I138
tp1781
a(I67
I130
tp1782
a(I15
I152
tp1783
a(I45
I161
tp1784
a(I44
I189
tp1785
a(I1
I173
tp1786
a(I4
I200
tp1787
asg16
I200
sba(imain2
Polygon
p1788
(dp1789
g3
(I51
I87
tp1790
sg5
I200
sg6
(I98
I176
I46
I75
tp1791
sg8
(lp1792
(I14
I70
tp1793
a(I30
I71
tp1794
a(I35
I93
tp1795
a(I60
I82
tp1796
a(I3
I114
tp1797
a(I4
I50
tp1798
a(I33
I62
tp1799
a(I40
I55
tp1800
a(I63
I97
tp1801
a(I59
I88
tp1802
a(I73
I95
tp1803
a(I30
I52
tp1804
asg16
I200
sba(imain2
Polygon
p1805
(dp1806
g3
(I124
I18
tp1807
sg5
I200
sg6
(I57
I202
I230
I1
tp1808
sg8
(lp1809
(I104
I18
tp1810
a(I112
I30
tp1811
a(I94
I26
tp1812
a(I160
I36
tp1813
a(I80
I11
tp1814
asg16
I200
sba(imain2
Polygon
p1815
(dp1816
g3
(I170
I179
tp1817
sg5
I200
sg6
(I139
I190
I57
I9
tp1818
sg8
(lp1819
(I186
I184
tp1820
a(I140
I155
tp1821
a(I146
I200
tp1822
a(I200
I129
tp1823
a(I200
I200
tp1824
a(I125
I200
tp1825
a(I129
I168
tp1826
a(I156
I140
tp1827
a(I155
I179
tp1828
asg16
I200
sba(imain2
Polygon
p1829
(dp1830
g3
(I93
I4
tp1831
sg5
I200
sg6
(I125
I127
I1
I130
tp1832
sg8
(lp1833
(I86
I28
tp1834
a(I51
I53
tp1835
a(I57
I28
tp1836
a(I47
I35
tp1837
a(I62
I48
tp1838
a(I51
I52
tp1839
asg16
I200
sba(imain2
Polygon
p1840
(dp1841
g3
(I33
I157
tp1842
sg5
I200
sg6
(I38
I118
I125
I0
tp1843
sg8
(lp1844
(I73
I200
tp1845
a(I50
I130
tp1846
a(I67
I128
tp1847
a(I55
I146
tp1848
a(I66
I120
tp1849
a(I47
I170
tp1850
a(I9
I140
tp1851
a(I0
I200
tp1852
a(I69
I135
tp1853
a(I50
I162
tp1854
a(I26
I121
tp1855
asg16
I200
sba(imain2
Polygon
p1856
(dp1857
g3
(I91
I9
tp1858
sg5
I200
sg6
(I67
I183
I12
I1
tp1859
sg8
(lp1860
(I135
I0
tp1861
a(I135
I0
tp1862
a(I115
I0
tp1863
a(I54
I0
tp1864
a(I134
I0
tp1865
a(I132
I0
tp1866
a(I72
I0
tp1867
a(I42
I0
tp1868
a(I93
I27
tp1869
a(I55
I45
tp1870
asg16
I200
sba(imain2
Polygon
p1871
(dp1872
g3
(I50
I13
tp1873
sg5
I200
sg6
(I92
I178
I162
I119
tp1874
sg8
(lp1875
(I31
I61
tp1876
a(I3
I50
tp1877
a(I0
I0
tp1878
a(I11
I0
tp1879
a(I7
I0
tp1880
a(I82
I0
tp1881
asg16
I200
sba(imain2
Polygon
p1882
(dp1883
g3
(I157
I108
tp1884
sg5
I200
sg6
(I128
I116
I1
I80
tp1885
sg8
(lp1886
(I168
I137
tp1887
a(I108
I127
tp1888
a(I123
I82
tp1889
a(I135
I90
tp1890
a(I108
I149
tp1891
a(I172
I125
tp1892
a(I193
I83
tp1893
a(I200
I120
tp1894
a(I184
I155
tp1895
a(I168
I127
tp1896
a(I188
I141
tp1897
asg16
I200
sba(imain2
Polygon
p1898
(dp1899
g3
(I7
I150
tp1900
sg5
I200
sg6
(I177
I11
I55
I17
tp1901
sg8
(lp1902
(I0
I180
tp1903
a(I0
I107
tp1904
a(I57
I154
tp1905
a(I0
I142
tp1906
a(I0
I123
tp1907
a(I45
I176
tp1908
a(I4
I171
tp1909
a(I0
I137
tp1910
a(I32
I102
tp1911
a(I0
I157
tp1912
a(I49
I173
tp1913
a(I23
I114
tp1914
a(I26
I151
tp1915
asg16
I200
sba(imain2
Polygon
p1916
(dp1917
g3
(I89
I125
tp1918
sg5
I200
sg6
(I42
I0
I214
I16
tp1919
sg8
(lp1920
(I59
I165
tp1921
a(I51
I118
tp1922
a(I61
I151
tp1923
a(I56
I165
tp1924
a(I76
I125
tp1925
a(I45
I157
tp1926
a(I89
I111
tp1927
asg16
I200
sba(imain2
Polygon
p1928
(dp1929
g3
(I18
I178
tp1930
sg5
I200
sg6
(I86
I163
I41
I98
tp1931
sg8
(lp1932
(I0
I148
tp1933
a(I0
I148
tp1934
a(I10
I175
tp1935
a(I0
I137
tp1936
a(I46
I200
tp1937
a(I23
I175
tp1938
asg16
I200
sba(imain2
Polygon
p1939
(dp1940
g3
(I81
I53
tp1941
sg5
I200
sg6
(I217
I83
I79
I1
tp1942
sg8
(lp1943
(I89
I81
tp1944
a(I89
I58
tp1945
a(I66
I39
tp1946
a(I42
I77
tp1947
a(I37
I46
tp1948
a(I119
I4
tp1949
a(I97
I100
tp1950
a(I73
I54
tp1951
a(I96
I16
tp1952
a(I71
I87
tp1953
a(I89
I26
tp1954
asg16
I200
sba(imain2
Polygon
p1955
(dp1956
g3
(I117
I32
tp1957
sg5
I200
sg6
(I165
I186
I82
I1
tp1958
sg8
(lp1959
(I89
I46
tp1960
a(I147
I0
tp1961
a(I134
I30
tp1962
asg16
I200
sba(imain2
Polygon
p1963
(dp1964
g3
(I79
I140
tp1965
sg5
I200
sg6
(I225
I1
I161
I27
tp1966
sg8
(lp1967
(I108
I95
tp1968
a(I107
I173
tp1969
a(I52
I148
tp1970
a(I123
I97
tp1971
a(I103
I173
tp1972
a(I75
I159
tp1973
a(I64
I113
tp1974
a(I80
I158
tp1975
asg16
I200
sba(imain2
Polygon
p1976
(dp1977
g3
(I26
I4
tp1978
sg5
I200
sg6
(I197
I73
I69
I0
tp1979
sg8
(lp1980
(I49
I0
tp1981
a(I23
I0
tp1982
a(I7
I0
tp1983
a(I69
I0
tp1984
a(I0
I0
tp1985
a(I0
I11
tp1986
a(I0
I0
tp1987
a(I4
I0
tp1988
a(I38
I0
tp1989
asg16
I200
sba(imain2
Polygon
p1990
(dp1991
g3
(I15
I121
tp1992
sg5
I200
sg6
(I1
I223
I150
I1
tp1993
sg8
(lp1994
(I58
I148
tp1995
a(I16
I84
tp1996
a(I51
I75
tp1997
a(I60
I87
tp1998
a(I0
I74
tp1999
a(I1
I112
tp2000
a(I46
I142
tp2001
a(I46
I91
tp2002
a(I59
I105
tp2003
a(I61
I107
tp2004
a(I0
I154
tp2005
a(I16
I86
tp2006
a(I35
I105
tp2007
a(I53
I137
tp2008
a(I5
I124
tp2009
asg16
I200
sba(imain2
Polygon
p2010
(dp2011
g3
(I163
I195
tp2012
sg5
I200
sg6
(I9
I148
I193
I10
tp2013
sg8
(lp2014
(I187
I200
tp2015
a(I125
I198
tp2016
a(I169
I200
tp2017
a(I200
I185
tp2018
a(I135
I161
tp2019
a(I198
I192
tp2020
a(I172
I200
tp2021
a(I193
I191
tp2022
a(I200
I200
tp2023
asg16
I200
sba(imain2
Polygon
p2024
(dp2025
g3
(I118
I106
tp2026
sg5
I200
sg6
(I6
I134
I123
I117
tp2027
sg8
(lp2028
(I132
I104
tp2029
a(I145
I78
tp2030
a(I102
I87
tp2031
a(I125
I104
tp2032
a(I121
I98
tp2033
a(I123
I91
tp2034
a(I151
I66
tp2035
a(I130
I116
tp2036
a(I127
I105
tp2037
a(I140
I99
tp2038
asg16
I200
sba(imain2
Polygon
p2039
(dp2040
g3
(I56
I6
tp2041
sg5
I200
sg6
(I197
I1
I175
I1
tp2042
sg8
(lp2043
(I82
I0
tp2044
a(I79
I0
tp2045
a(I71
I0
tp2046
a(I21
I0
tp2047
a(I75
I2
tp2048
asg16
I200
sba(imain2
Polygon
p2049
(dp2050
g3
(I174
I69
tp2051
sg5
I200
sg6
(I118
I36
I47
I102
tp2052
sg8
(lp2053
(I200
I23
tp2054
a(I200
I29
tp2055
a(I160
I53
tp2056
a(I199
I86
tp2057
a(I196
I88
tp2058
a(I200
I90
tp2059
a(I151
I40
tp2060
a(I126
I41
tp2061
a(I189
I42
tp2062
a(I171
I43
tp2063
a(I130
I47
tp2064
a(I191
I41
tp2065
a(I183
I53
tp2066
a(I173
I86
tp2067
asg16
I200
sba(imain2
Polygon
p2068
(dp2069
g3
(I0
I30
tp2070
sg5
I200
sg6
(I172
I40
I100
I1
tp2071
sg8
(lp2072
(I6
I31
tp2073
a(I0
I48
tp2074
a(I39
I78
tp2075
a(I29
I6
tp2076
a(I0
I44
tp2077
a(I0
I0
tp2078
asg16
I200
sba(imain2
Polygon
p2079
(dp2080
g3
(I134
I58
tp2081
sg5
I200
sg6
(I241
I178
I117
I112
tp2082
sg8
(lp2083
(I179
I58
tp2084
a(I110
I8
tp2085
a(I156
I8
tp2086
a(I179
I9
tp2087
asg16
I200
sba(imain2
Polygon
p2088
(dp2089
g3
(I142
I75
tp2090
sg5
I200
sg6
(I201
I61
I194
I82
tp2091
sg8
(lp2092
(I191
I83
tp2093
a(I154
I36
tp2094
a(I185
I48
tp2095
asg16
I200
sba(imain2
Polygon
p2096
(dp2097
g3
(I129
I65
tp2098
sg5
I200
sg6
(I89
I0
I164
I132
tp2099
sg8
(lp2100
(I155
I65
tp2101
a(I159
I69
tp2102
a(I151
I68
tp2103
asg16
I200
sba(imain2
Polygon
p2104
(dp2105
g3
(I163
I171
tp2106
sg5
I200
sg6
(I199
I12
I130
I1
tp2107
sg8
(lp2108
(I176
I200
tp2109
a(I161
I200
tp2110
a(I131
I200
tp2111
a(I125
I138
tp2112
a(I193
I148
tp2113
a(I200
I169
tp2114
a(I170
I142
tp2115
a(I187
I200
tp2116
a(I158
I178
tp2117
a(I189
I200
tp2118
a(I175
I200
tp2119
a(I200
I124
tp2120
a(I188
I187
tp2121
a(I141
I126
tp2122
a(I113
I200
tp2123
asg16
I200
sba(imain2
Polygon
p2124
(dp2125
g3
(I184
I20
tp2126
sg5
I200
sg6
(I213
I92
I227
I77
tp2127
sg8
(lp2128
(I200
I60
tp2129
a(I200
I0
tp2130
a(I200
I69
tp2131
a(I160
I57
tp2132
a(I140
I0
tp2133
a(I144
I0
tp2134
a(I200
I0
tp2135
a(I200
I0
tp2136
asg16
I200
sba(imain2
Polygon
p2137
(dp2138
g3
(I145
I135
tp2139
sg5
I200
sg6
(I31
I41
I59
I42
tp2140
sg8
(lp2141
(I160
I178
tp2142
a(I183
I129
tp2143
a(I135
I88
tp2144
a(I110
I168
tp2145
a(I166
I183
tp2146
asg16
I200
sba(imain2
Polygon
p2147
(dp2148
g3
(I64
I74
tp2149
sg5
I200
sg6
(I136
I209
I149
I1
tp2150
sg8
(lp2151
(I111
I67
tp2152
a(I74
I124
tp2153
a(I19
I47
tp2154
a(I94
I61
tp2155
asg16
I200
sba(imain2
Polygon
p2156
(dp2157
g3
(I82
I104
tp2158
sg5
I200
sg6
(I48
I155
I198
I1
tp2159
sg8
(lp2160
(I97
I106
tp2161
a(I98
I78
tp2162
a(I54
I93
tp2163
a(I41
I74
tp2164
a(I87
I71
tp2165
a(I92
I82
tp2166
a(I105
I79
tp2167
a(I131
I77
tp2168
a(I51
I70
tp2169
a(I76
I62
tp2170
asg16
I200
sba(imain2
Polygon
p2171
(dp2172
g3
(I176
I51
tp2173
sg5
I200
sg6
(I114
I211
I85
I0
tp2174
sg8
(lp2175
(I200
I6
tp2176
a(I143
I9
tp2177
a(I137
I58
tp2178
a(I148
I79
tp2179
a(I174
I33
tp2180
a(I193
I2
tp2181
a(I200
I28
tp2182
asg16
I200
sba(imain2
Polygon
p2183
(dp2184
g3
(I18
I179
tp2185
sg5
I200
sg6
(I9
I98
I96
I37
tp2186
sg8
(lp2187
(I0
I150
tp2188
a(I0
I135
tp2189
a(I0
I198
tp2190
a(I21
I200
tp2191
a(I22
I196
tp2192
a(I36
I190
tp2193
a(I19
I154
tp2194
a(I34
I156
tp2195
asg16
I200
sba(imain2
Polygon
p2196
(dp2197
g3
(I112
I97
tp2198
sg5
I200
sg6
(I96
I198
I68
I55
tp2199
sg8
(lp2200
(I117
I118
tp2201
a(I70
I139
tp2202
a(I97
I92
tp2203
a(I75
I68
tp2204
a(I76
I136
tp2205
a(I93
I140
tp2206
a(I98
I68
tp2207
a(I89
I89
tp2208
a(I130
I88
tp2209
asg16
I200
sba(imain2
Polygon
p2210
(dp2211
g3
(I3
I120
tp2212
sg5
I200
sg6
(I62
I87
I145
I94
tp2213
sg8
(lp2214
(I0
I86
tp2215
a(I0
I74
tp2216
a(I0
I159
tp2217
a(I0
I109
tp2218
a(I43
I80
tp2219
asg16
I200
sba(imain2
Polygon
p2220
(dp2221
g3
(I7
I32
tp2222
sg5
I200
sg6
(I148
I30
I186
I1
tp2223
sg8
(lp2224
(I0
I45
tp2225
a(I0
I27
tp2226
a(I0
I0
tp2227
a(I8
I32
tp2228
a(I38
I59
tp2229
a(I27
I38
tp2230
a(I0
I62
tp2231
a(I0
I49
tp2232
a(I0
I15
tp2233
a(I0
I75
tp2234
a(I48
I82
tp2235
a(I15
I15
tp2236
a(I0
I0
tp2237
asg16
I200
sba(imain2
Polygon
p2238
(dp2239
g3
(I166
I95
tp2240
sg5
I200
sg6
(I185
I3
I141
I149
tp2241
sg8
(lp2242
(I192
I50
tp2243
a(I200
I127
tp2244
a(I200
I60
tp2245
asg16
I200
sba(imain2
Polygon
p2246
(dp2247
g3
(I197
I92
tp2248
sg5
I200
sg6
(I116
I6
I30
I0
tp2249
sg8
(lp2250
(I200
I101
tp2251
a(I200
I65
tp2252
a(I200
I70
tp2253
a(I161
I97
tp2254
a(I158
I100
tp2255
a(I147
I82
tp2256
a(I200
I78
tp2257
a(I200
I66
tp2258
a(I191
I88
tp2259
a(I154
I82
tp2260
a(I200
I86
tp2261
a(I200
I138
tp2262
a(I147
I62
tp2263
a(I176
I122
tp2264
asg16
I200
sba(imain2
Polygon
p2265
(dp2266
g3
(I167
I132
tp2267
sg5
I200
sg6
(I220
I55
I85
I0
tp2268
sg8
(lp2269
(I166
I121
tp2270
a(I157
I116
tp2271
a(I169
I137
tp2272
a(I134
I127
tp2273
a(I188
I175
tp2274
a(I118
I159
tp2275
a(I155
I152
tp2276
a(I175
I142
tp2277
a(I117
I113
tp2278
a(I178
I149
tp2279
a(I177
I84
tp2280
a(I132
I168
tp2281
a(I184
I111
tp2282
a(I200
I101
tp2283
asg16
I200
sba(imain2
Polygon
p2284
(dp2285
g3
(I2
I175
tp2286
sg5
I200
sg6
(I101
I198
I107
I1
tp2287
sg8
(lp2288
(I34
I200
tp2289
a(I4
I200
tp2290
a(I28
I126
tp2291
asg16
I200
sba(imain2
Polygon
p2292
(dp2293
g3
(I148
I121
tp2294
sg5
I200
sg6
(I128
I197
I133
I23
tp2295
sg8
(lp2296
(I120
I135
tp2297
a(I118
I71
tp2298
a(I101
I103
tp2299
a(I128
I125
tp2300
asg16
I200
sba(imain2
Polygon
p2301
(dp2302
g3
(I26
I154
tp2303
sg5
I200
sg6
(I142
I63
I224
I31
tp2304
sg8
(lp2305
(I52
I148
tp2306
a(I0
I196
tp2307
a(I20
I155
tp2308
asg16
I200
sba(imain2
Polygon
p2309
(dp2310
g3
(I188
I60
tp2311
sg5
I200
sg6
(I22
I76
I8
I50
tp2312
sg8
(lp2313
(I200
I100
tp2314
a(I148
I100
tp2315
a(I139
I27
tp2316
a(I200
I98
tp2317
a(I200
I21
tp2318
a(I200
I12
tp2319
a(I200
I49
tp2320
a(I200
I22
tp2321
asg16
I200
sba(imain2
Polygon
p2322
(dp2323
g3
(I29
I0
tp2324
sg5
I200
sg6
(I200
I201
I8
I90
tp2325
sg8
(lp2326
(I29
I0
tp2327
a(I0
I0
tp2328
a(I50
I36
tp2329
a(I45
I18
tp2330
a(I61
I0
tp2331
a(I0
I0
tp2332
a(I0
I50
tp2333
a(I70
I50
tp2334
a(I0
I0
tp2335
a(I0
I0
tp2336
a(I77
I0
tp2337
a(I74
I14
tp2338
a(I36
I44
tp2339
a(I51
I8
tp2340
a(I74
I0
tp2341
a(I5
I0
tp2342
a(I20
I0
tp2343
asg16
I200
sba(imain2
Polygon
p2344
(dp2345
g3
(I92
I198
tp2346
sg5
I200
sg6
(I138
I2
I12
I61
tp2347
sg8
(lp2348
(I96
I170
tp2349
a(I67
I151
tp2350
a(I90
I200
tp2351
a(I44
I200
tp2352
a(I99
I200
tp2353
a(I73
I181
tp2354
a(I108
I179
tp2355
asg16
I200
sba(imain2
Polygon
p2356
(dp2357
g3
(I149
I42
tp2358
sg5
I200
sg6
(I90
I14
I53
I53
tp2359
sg8
(lp2360
(I145
I16
tp2361
a(I99
I9
tp2362
a(I127
I88
tp2363
a(I167
I91
tp2364
a(I167
I66
tp2365
a(I135
I17
tp2366
a(I145
I8
tp2367
a(I113
I48
tp2368
a(I119
I35
tp2369
asg16
I200
sba(imain2
Polygon
p2370
(dp2371
g3
(I18
I189
tp2372
sg5
I200
sg6
(I70
I7
I170
I1
tp2373
sg8
(lp2374
(I0
I200
tp2375
a(I36
I189
tp2376
a(I9
I200
tp2377
a(I11
I160
tp2378
a(I0
I200
tp2379
a(I5
I167
tp2380
a(I62
I200
tp2381
a(I8
I175
tp2382
a(I8
I170
tp2383
a(I0
I200
tp2384
a(I68
I200
tp2385
a(I56
I183
tp2386
a(I51
I175
tp2387
a(I19
I163
tp2388
a(I0
I178
tp2389
a(I63
I164
tp2390
asg16
I200
sba(imain2
Polygon
p2391
(dp2392
g3
(I88
I199
tp2393
sg5
I200
sg6
(I15
I199
I77
I77
tp2394
sg8
(lp2395
(I40
I200
tp2396
a(I39
I200
tp2397
a(I52
I200
tp2398
a(I46
I200
tp2399
a(I126
I200
tp2400
a(I62
I200
tp2401
a(I70
I200
tp2402
a(I39
I200
tp2403
a(I84
I200
tp2404
asg16
I200
sba(imain2
Polygon
p2405
(dp2406
g3
(I57
I178
tp2407
sg5
I200
sg6
(I19
I118
I163
I0
tp2408
sg8
(lp2409
(I27
I177
tp2410
a(I21
I164
tp2411
a(I14
I171
tp2412
a(I47
I135
tp2413
a(I39
I141
tp2414
asg16
I200
sba(imain2
Polygon
p2415
(dp2416
g3
(I192
I63
tp2417
sg5
I200
sg6
(I115
I239
I124
I108
tp2418
sg8
(lp2419
(I200
I102
tp2420
a(I200
I19
tp2421
a(I200
I28
tp2422
a(I169
I43
tp2423
a(I142
I25
tp2424
a(I200
I102
tp2425
a(I161
I50
tp2426
a(I175
I96
tp2427
a(I200
I41
tp2428
a(I181
I96
tp2429
asg16
I200
sba(imain2
Polygon
p2430
(dp2431
g3
(I115
I149
tp2432
sg5
I200
sg6
(I105
I195
I239
I1
tp2433
sg8
(lp2434
(I118
I155
tp2435
a(I138
I198
tp2436
a(I102
I100
tp2437
a(I125
I181
tp2438
a(I110
I178
tp2439
a(I84
I110
tp2440
a(I68
I102
tp2441
a(I85
I145
tp2442
a(I67
I194
tp2443
asg16
I200
sba(imain2
Polygon
p2444
(dp2445
g3
(I89
I107
tp2446
sg5
I200
sg6
(I31
I11
I110
I101
tp2447
sg8
(lp2448
(I137
I85
tp2449
a(I129
I120
tp2450
a(I138
I81
tp2451
asg16
I200
sba(imain2
Polygon
p2452
(dp2453
g3
(I87
I130
tp2454
sg5
I200
sg6
(I167
I110
I147
I1
tp2455
sg8
(lp2456
(I48
I159
tp2457
a(I114
I131
tp2458
a(I70
I91
tp2459
a(I111
I140
tp2460
a(I96
I151
tp2461
a(I87
I159
tp2462
a(I132
I175
tp2463
a(I91
I179
tp2464
a(I43
I167
tp2465
asg16
I200
sba(imain2
Polygon
p2466
(dp2467
g3
(I62
I187
tp2468
sg5
I200
sg6
(I112
I14
I175
I54
tp2469
sg8
(lp2470
(I22
I200
tp2471
a(I20
I200
tp2472
a(I38
I200
tp2473
a(I35
I200
tp2474
a(I77
I200
tp2475
a(I98
I200
tp2476
a(I71
I196
tp2477
a(I71
I200
tp2478
a(I71
I200
tp2479
a(I69
I200
tp2480
a(I45
I197
tp2481
asg16
I200
sba(imain2
Polygon
p2482
(dp2483
g3
(I59
I26
tp2484
sg5
I200
sg6
(I60
I4
I237
I1
tp2485
sg8
(lp2486
(I83
I0
tp2487
a(I21
I56
tp2488
a(I81
I0
tp2489
a(I33
I0
tp2490
a(I104
I10
tp2491
a(I79
I61
tp2492
a(I80
I5
tp2493
asg16
I200
sba(imain2
Polygon
p2494
(dp2495
g3
(I74
I59
tp2496
sg5
I200
sg6
(I1
I47
I104
I0
tp2497
sg8
(lp2498
(I84
I47
tp2499
a(I46
I42
tp2500
a(I99
I13
tp2501
a(I67
I44
tp2502
a(I79
I79
tp2503
a(I86
I46
tp2504
a(I39
I17
tp2505
a(I57
I45
tp2506
a(I58
I60
tp2507
asg16
I200
sba(imain2
Polygon
p2508
(dp2509
g3
(I141
I175
tp2510
sg5
I200
sg6
(I87
I37
I9
I1
tp2511
sg8
(lp2512
(I169
I200
tp2513
a(I159
I193
tp2514
a(I119
I183
tp2515
a(I149
I186
tp2516
a(I112
I195
tp2517
a(I149
I162
tp2518
a(I141
I132
tp2519
a(I169
I161
tp2520
a(I155
I171
tp2521
a(I128
I200
tp2522
a(I160
I169
tp2523
a(I136
I145
tp2524
a(I137
I186
tp2525
a(I136
I165
tp2526
a(I175
I200
tp2527
a(I100
I200
tp2528
a(I155
I191
tp2529
a(I146
I197
tp2530
asg16
I200
sba(imain2
Polygon
p2531
(dp2532
g3
(I114
I81
tp2533
sg5
I200
sg6
(I234
I16
I199
I73
tp2534
sg8
(lp2535
(I121
I101
tp2536
a(I81
I76
tp2537
a(I125
I101
tp2538
a(I121
I83
tp2539
asg16
I200
sba(imain2
Polygon
p2540
(dp2541
g3
(I191
I128
tp2542
sg5
I200
sg6
(I244
I3
I244
I9
tp2543
sg8
(lp2544
(I200
I162
tp2545
a(I144
I170
tp2546
a(I200
I89
tp2547
a(I200
I148
tp2548
a(I182
I162
tp2549
a(I147
I78
tp2550
a(I173
I163
tp2551
asg16
I200
sba(imain2
Polygon
p2552
(dp2553
g3
(I40
I13
tp2554
sg5
I200
sg6
(I70
I180
I120
I0
tp2555
sg8
(lp2556
(I15
I22
tp2557
a(I55
I33
tp2558
a(I62
I16
tp2559
a(I0
I0
tp2560
a(I84
I0
tp2561
a(I76
I9
tp2562
a(I29
I47
tp2563
a(I0
I0
tp2564
a(I67
I7
tp2565
a(I68
I27
tp2566
a(I45
I0
tp2567
a(I7
I27
tp2568
a(I0
I43
tp2569
a(I44
I9
tp2570
a(I76
I0
tp2571
a(I0
I0
tp2572
a(I19
I16
tp2573
a(I0
I0
tp2574
a(I27
I8
tp2575
a(I88
I47
tp2576
asg16
I200
sba(imain2
Polygon
p2577
(dp2578
g3
(I50
I145
tp2579
sg5
I200
sg6
(I56
I210
I123
I14
tp2580
sg8
(lp2581
(I92
I106
tp2582
a(I87
I159
tp2583
a(I93
I124
tp2584
asg16
I200
sba(imain2
Polygon
p2585
(dp2586
g3
(I184
I69
tp2587
sg5
I200
sg6
(I122
I136
I35
I145
tp2588
sg8
(lp2589
(I200
I63
tp2590
a(I200
I31
tp2591
a(I200
I33
tp2592
a(I200
I67
tp2593
a(I164
I71
tp2594
a(I174
I114
tp2595
a(I200
I115
tp2596
a(I200
I101
tp2597
a(I195
I79
tp2598
asg16
I200
sba(imain2
Polygon
p2599
(dp2600
g3
(I6
I29
tp2601
sg5
I200
sg6
(I137
I34
I214
I1
tp2602
sg8
(lp2603
(I56
I14
tp2604
a(I42
I0
tp2605
a(I0
I41
tp2606
a(I22
I65
tp2607
a(I48
I0
tp2608
a(I28
I0
tp2609
a(I21
I47
tp2610
asg16
I200
sba(imain2
Polygon
p2611
(dp2612
g3
(I100
I197
tp2613
sg5
I200
sg6
(I28
I135
I60
I70
tp2614
sg8
(lp2615
(I123
I200
tp2616
a(I79
I200
tp2617
a(I85
I200
tp2618
a(I74
I200
tp2619
a(I130
I200
tp2620
a(I68
I200
tp2621
a(I62
I200
tp2622
a(I131
I200
tp2623
asg16
I200
sba(imain2
Polygon
p2624
(dp2625
g3
(I102
I67
tp2626
sg5
I200
sg6
(I107
I63
I87
I0
tp2627
sg8
(lp2628
(I136
I109
tp2629
a(I78
I100
tp2630
a(I71
I94
tp2631
a(I144
I70
tp2632
a(I83
I63
tp2633
a(I116
I116
tp2634
a(I112
I80
tp2635
a(I84
I99
tp2636
a(I85
I70
tp2637
asg16
I200
sba(imain2
Polygon
p2638
(dp2639
g3
(I91
I124
tp2640
sg5
I200
sg6
(I166
I67
I8
I120
tp2641
sg8
(lp2642
(I41
I114
tp2643
a(I80
I127
tp2644
a(I83
I75
tp2645
a(I119
I114
tp2646
a(I111
I171
tp2647
a(I45
I142
tp2648
a(I66
I81
tp2649
a(I119
I80
tp2650
a(I129
I117
tp2651
a(I81
I119
tp2652
a(I76
I76
tp2653
a(I54
I89
tp2654
a(I76
I94
tp2655
a(I79
I84
tp2656
asg16
I200
sba(imain2
Polygon
p2657
(dp2658
g3
(I133
I74
tp2659
sg5
I200
sg6
(I15
I174
I91
I0
tp2660
sg8
(lp2661
(I93
I104
tp2662
a(I129
I31
tp2663
a(I176
I108
tp2664
a(I157
I40
tp2665
a(I132
I33
tp2666
a(I137
I43
tp2667
a(I178
I48
tp2668
a(I117
I90
tp2669
a(I141
I112
tp2670
a(I95
I100
tp2671
a(I123
I40
tp2672
a(I181
I26
tp2673
a(I95
I85
tp2674
a(I154
I71
tp2675
a(I166
I88
tp2676
a(I171
I56
tp2677
asg16
I200
sba(imain2
Polygon
p2678
(dp2679
g3
(I181
I185
tp2680
sg5
I200
sg6
(I0
I135
I61
I5
tp2681
sg8
(lp2682
(I192
I200
tp2683
a(I200
I200
tp2684
a(I197
I153
tp2685
a(I200
I157
tp2686
asg16
I200
sba(imain2
Polygon
p2687
(dp2688
g3
(I3
I9
tp2689
sg5
I200
sg6
(I112
I13
I41
I113
tp2690
sg8
(lp2691
(I0
I0
tp2692
a(I49
I0
tp2693
a(I0
I0
tp2694
asg16
I200
sba(imain2
Polygon
p2695
(dp2696
g3
(I154
I22
tp2697
sg5
I200
sg6
(I80
I179
I129
I1
tp2698
sg8
(lp2699
(I198
I49
tp2700
a(I180
I27
tp2701
a(I193
I61
tp2702
asg16
I200
sba(imain2
Polygon
p2703
(dp2704
g3
(I3
I51
tp2705
sg5
I200
sg6
(I8
I165
I11
I34
tp2706
sg8
(lp2707
(I0
I63
tp2708
a(I0
I78
tp2709
a(I0
I34
tp2710
asg16
I200
sba(imain2
Polygon
p2711
(dp2712
g3
(I183
I123
tp2713
sg5
I200
sg6
(I43
I171
I188
I93
tp2714
sg8
(lp2715
(I200
I171
tp2716
a(I200
I140
tp2717
a(I200
I152
tp2718
a(I200
I132
tp2719
asg16
I200
sba.