(lp0
(imain2
Polygon
p1
(dp2
S'origin'
p3
(I100
I102
tp4
sS'h'
p5
I200
sS'color'
p6
(I132
I172
I187
I1
tp7
sS'corner_list'
p8
(lp9
(I77
I128
tp10
a(I139
I81
tp11
a(I128
I109
tp12
a(I148
I118
tp13
a(I83
I86
tp14
a(I62
I111
tp15
a(I106
I72
tp16
asS'w'
p17
I200
sba(imain2
Polygon
p18
(dp19
g3
(I142
I122
tp20
sg5
I200
sg6
(I20
I220
I130
I25
tp21
sg8
(lp22
(I101
I108
tp23
a(I95
I104
tp24
a(I106
I160
tp25
a(I149
I145
tp26
a(I109
I157
tp27
a(I109
I92
tp28
a(I119
I85
tp29
a(I188
I130
tp30
a(I164
I94
tp31
a(I192
I113
tp32
a(I136
I104
tp33
a(I134
I86
tp34
a(I102
I138
tp35
asg17
I200
sba(imain2
Polygon
p36
(dp37
g3
(I39
I24
tp38
sg5
I200
sg6
(I239
I162
I199
I1
tp39
sg8
(lp40
(I58
I0
tp41
a(I42
I0
tp42
a(I43
I65
tp43
a(I50
I25
tp44
asg17
I200
sba(imain2
Polygon
p45
(dp46
g3
(I87
I73
tp47
sg5
I200
sg6
(I159
I17
I197
I85
tp48
sg8
(lp49
(I103
I121
tp50
a(I74
I69
tp51
a(I82
I102
tp52
a(I62
I79
tp53
a(I68
I47
tp54
a(I56
I110
tp55
a(I92
I70
tp56
a(I63
I114
tp57
a(I47
I56
tp58
a(I77
I37
tp59
a(I131
I68
tp60
a(I58
I120
tp61
a(I69
I107
tp62
a(I80
I99
tp63
a(I53
I119
tp64
asg17
I200
sba(imain2
Polygon
p65
(dp66
g3
(I75
I185
tp67
sg5
I200
sg6
(I70
I1
I88
I76
tp68
sg8
(lp69
(I84
I199
tp70
a(I125
I163
tp71
a(I123
I140
tp72
a(I120
I200
tp73
a(I75
I200
tp74
a(I68
I195
tp75
a(I98
I174
tp76
a(I100
I200
tp77
asg17
I200
sba(imain2
Polygon
p78
(dp79
g3
(I51
I161
tp80
sg5
I200
sg6
(I130
I131
I13
I88
tp81
sg8
(lp82
(I86
I200
tp83
a(I55
I200
tp84
a(I96
I190
tp85
a(I67
I140
tp86
a(I76
I152
tp87
asg17
I200
sba(imain2
Polygon
p88
(dp89
g3
(I76
I107
tp90
sg5
I200
sg6
(I159
I37
I202
I108
tp91
sg8
(lp92
(I113
I136
tp93
a(I40
I71
tp94
a(I56
I71
tp95
a(I55
I67
tp96
a(I115
I57
tp97
a(I107
I154
tp98
a(I53
I141
tp99
a(I48
I92
tp100
a(I101
I62
tp101
a(I75
I123
tp102
a(I85
I132
tp103
a(I87
I117
tp104
asg17
I200
sba(imain2
Polygon
p105
(dp106
g3
(I79
I45
tp107
sg5
I200
sg6
(I221
I1
I239
I0
tp108
sg8
(lp109
(I84
I11
tp110
a(I121
I88
tp111
a(I37
I47
tp112
a(I70
I64
tp113
a(I88
I9
tp114
asg17
I200
sba(imain2
Polygon
p115
(dp116
g3
(I123
I186
tp117
sg5
I200
sg6
(I45
I14
I42
I1
tp118
sg8
(lp119
(I93
I159
tp120
a(I119
I194
tp121
a(I86
I200
tp122
asg17
I200
sba(imain2
Polygon
p123
(dp124
g3
(I74
I162
tp125
sg5
I200
sg6
(I154
I93
I211
I1
tp126
sg8
(lp127
(I111
I187
tp128
a(I28
I142
tp129
a(I74
I188
tp130
a(I60
I138
tp131
a(I124
I140
tp132
a(I43
I200
tp133
a(I54
I193
tp134
a(I62
I188
tp135
a(I124
I196
tp136
a(I110
I141
tp137
a(I120
I166
tp138
asg17
I200
sba(imain2
Polygon
p139
(dp140
g3
(I64
I120
tp141
sg5
I200
sg6
(I232
I39
I170
I0
tp142
sg8
(lp143
(I113
I141
tp144
a(I100
I116
tp145
a(I104
I125
tp146
asg17
I200
sba(imain2
Polygon
p147
(dp148
g3
(I2
I37
tp149
sg5
I200
sg6
(I134
I133
I101
I107
tp150
sg8
(lp151
(I0
I0
tp152
a(I45
I3
tp153
a(I4
I47
tp154
a(I20
I35
tp155
a(I0
I66
tp156
a(I41
I3
tp157
a(I36
I68
tp158
a(I21
I15
tp159
a(I39
I86
tp160
a(I0
I85
tp161
a(I0
I9
tp162
asg17
I200
sba(imain2
Polygon
p163
(dp164
g3
(I161
I116
tp165
sg5
I200
sg6
(I150
I91
I113
I48
tp166
sg8
(lp167
(I191
I88
tp168
a(I154
I98
tp169
a(I168
I90
tp170
a(I170
I71
tp171
a(I163
I108
tp172
a(I198
I163
tp173
a(I182
I147
tp174
a(I200
I152
tp175
asg17
I200
sba(imain2
Polygon
p176
(dp177
g3
(I171
I44
tp178
sg5
I200
sg6
(I130
I233
I105
I107
tp179
sg8
(lp180
(I151
I30
tp181
a(I157
I22
tp182
a(I200
I89
tp183
a(I200
I0
tp184
a(I132
I0
tp185
a(I134
I21
tp186
a(I132
I4
tp187
a(I161
I77
tp188
a(I200
I93
tp189
a(I143
I0
tp190
a(I170
I71
tp191
a(I157
I81
tp192
a(I150
I41
tp193
asg17
I200
sba(imain2
Polygon
p194
(dp195
g3
(I196
I163
tp196
sg5
I200
sg6
(I37
I166
I6
I18
tp197
sg8
(lp198
(I195
I117
tp199
a(I200
I197
tp200
a(I200
I191
tp201
a(I200
I134
tp202
a(I193
I170
tp203
a(I200
I141
tp204
a(I155
I170
tp205
a(I200
I182
tp206
a(I200
I148
tp207
a(I152
I136
tp208
a(I170
I173
tp209
a(I166
I156
tp210
a(I191
I200
tp211
asg17
I200
sba(imain2
Polygon
p212
(dp213
g3
(I123
I35
tp214
sg5
I200
sg6
(I142
I61
I71
I1
tp215
sg8
(lp216
(I73
I77
tp217
a(I134
I57
tp218
a(I79
I65
tp219
a(I158
I15
tp220
a(I90
I72
tp221
a(I140
I0
tp222
a(I94
I0
tp223
a(I100
I0
tp224
asg17
I200
sba(imain2
Polygon
p225
(dp226
g3
(I38
I152
tp227
sg5
I200
sg6
(I92
I164
I32
I127
tp228
sg8
(lp229
(I87
I136
tp230
a(I53
I103
tp231
a(I49
I126
tp232
a(I73
I158
tp233
asg17
I200
sba(imain2
Polygon
p234
(dp235
g3
(I118
I157
tp236
sg5
I200
sg6
(I85
I63
I42
I1
tp237
sg8
(lp238
(I79
I185
tp239
a(I115
I173
tp240
a(I168
I133
tp241
a(I160
I116
tp242
a(I154
I175
tp243
asg17
I200
sba(imain2
Polygon
p244
(dp245
g3
(I10
I175
tp246
sg5
I200
sg6
(I174
I52
I58
I12
tp247
sg8
(lp248
(I0
I141
tp249
a(I0
I148
tp250
a(I0
I200
tp251
a(I45
I192
tp252
asg17
I200
sba(imain2
Polygon
p253
(dp254
g3
(I4
I131
tp255
sg5
I200
sg6
(I122
I51
I61
I1
tp256
sg8
(lp257
(I51
I108
tp258
a(I2
I88
tp259
a(I0
I173
tp260
a(I45
I150
tp261
a(I0
I145
tp262
a(I18
I159
tp263
a(I41
I133
tp264
a(I0
I159
tp265
a(I19
I89
tp266
a(I0
I108
tp267
a(I12
I86
tp268
a(I0
I92
tp269
a(I0
I87
tp270
asg17
I200
sba(imain2
Polygon
p271
(dp272
g3
(I75
I51
tp273
sg5
I200
sg6
(I101
I195
I0
I8
tp274
sg8
(lp275
(I73
I93
tp276
a(I28
I87
tp277
a(I34
I7
tp278
a(I105
I56
tp279
a(I112
I100
tp280
asg17
I200
sba(imain2
Polygon
p281
(dp282
g3
(I18
I101
tp283
sg5
I200
sg6
(I0
I11
I65
I41
tp284
sg8
(lp285
(I56
I62
tp286
a(I15
I116
tp287
a(I0
I56
tp288
a(I5
I78
tp289
a(I20
I101
tp290
a(I0
I111
tp291
a(I45
I64
tp292
asg17
I200
sba(imain2
Polygon
p293
(dp294
g3
(I97
I199
tp295
sg5
I200
sg6
(I0
I105
I44
I103
tp296
sg8
(lp297
(I91
I200
tp298
a(I134
I200
tp299
a(I135
I171
tp300
a(I78
I156
tp301
a(I97
I158
tp302
a(I127
I200
tp303
a(I118
I173
tp304
a(I87
I171
tp305
a(I99
I160
tp306
a(I95
I152
tp307
a(I75
I200
tp308
a(I82
I188
tp309
asg17
I200
sba(imain2
Polygon
p310
(dp311
g3
(I102
I104
tp312
sg5
I200
sg6
(I219
I121
I126
I62
tp313
sg8
(lp314
(I105
I151
tp315
a(I126
I71
tp316
a(I59
I58
tp317
a(I57
I131
tp318
a(I74
I153
tp319
asg17
I200
sba(imain2
Polygon
p320
(dp321
g3
(I177
I176
tp322
sg5
I200
sg6
(I112
I206
I213
I41
tp323
sg8
(lp324
(I200
I138
tp325
a(I167
I145
tp326
a(I200
I200
tp327
asg17
I200
sba(imain2
Polygon
p328
(dp329
g3
(I99
I27
tp330
sg5
I200
sg6
(I71
I83
I1
I103
tp331
sg8
(lp332
(I143
I0
tp333
a(I53
I0
tp334
a(I97
I73
tp335
a(I139
I50
tp336
a(I73
I29
tp337
asg17
I200
sba(imain2
Polygon
p338
(dp339
g3
(I138
I156
tp340
sg5
I200
sg6
(I16
I57
I186
I0
tp341
sg8
(lp342
(I134
I187
tp343
a(I91
I144
tp344
a(I111
I148
tp345
a(I101
I146
tp346
asg17
I200
sba(imain2
Polygon
p347
(dp348
g3
(I100
I129
tp349
sg5
I200
sg6
(I113
I214
I219
I0
tp350
sg8
(lp351
(I93
I100
tp352
a(I85
I161
tp353
a(I66
I171
tp354
a(I97
I125
tp355
a(I67
I109
tp356
asg17
I200
sba(imain2
Polygon
p357
(dp358
g3
(I90
I2
tp359
sg5
I200
sg6
(I194
I194
I1
I1
tp360
sg8
(lp361
(I91
I29
tp362
a(I109
I0
tp363
a(I88
I0
tp364
a(I82
I20
tp365
a(I90
I51
tp366
a(I65
I45
tp367
a(I79
I40
tp368
a(I120
I36
tp369
a(I56
I1
tp370
a(I52
I0
tp371
asg17
I200
sba(imain2
Polygon
p372
(dp373
g3
(I76
I49
tp374
sg5
I200
sg6
(I245
I163
I175
I95
tp375
sg8
(lp376
(I52
I54
tp377
a(I62
I34
tp378
a(I99
I36
tp379
a(I124
I78
tp380
a(I91
I88
tp381
a(I47
I82
tp382
asg17
I200
sba(imain2
Polygon
p383
(dp384
g3
(I135
I193
tp385
sg5
I200
sg6
(I199
I198
I62
I1
tp386
sg8
(lp387
(I131
I160
tp388
a(I146
I200
tp389
a(I87
I200
tp390
a(I91
I200
tp391
a(I178
I191
tp392
a(I174
I190
tp393
a(I129
I171
tp394
a(I149
I200
tp395
a(I181
I168
tp396
asg17
I200
sba(imain2
Polygon
p397
(dp398
g3
(I156
I197
tp399
sg5
I200
sg6
(I78
I232
I78
I1
tp400
sg8
(lp401
(I182
I200
tp402
a(I198
I200
tp403
a(I152
I200
tp404
a(I108
I171
tp405
a(I189
I188
tp406
asg17
I200
sba(imain2
Polygon
p407
(dp408
g3
(I159
I95
tp409
sg5
I200
sg6
(I160
I19
I13
I1
tp410
sg8
(lp411
(I196
I80
tp412
a(I177
I72
tp413
a(I114
I45
tp414
a(I184
I46
tp415
a(I184
I145
tp416
a(I154
I110
tp417
a(I130
I98
tp418
a(I171
I87
tp419
a(I136
I123
tp420
asg17
I200
sba(imain2
Polygon
p421
(dp422
g3
(I130
I187
tp423
sg5
I200
sg6
(I177
I73
I86
I66
tp424
sg8
(lp425
(I138
I200
tp426
a(I161
I187
tp427
a(I161
I161
tp428
a(I168
I192
tp429
a(I164
I200
tp430
a(I97
I159
tp431
a(I90
I200
tp432
asg17
I200
sba(imain2
Polygon
p433
(dp434
g3
(I56
I194
tp435
sg5
I200
sg6
(I191
I172
I1
I30
tp436
sg8
(lp437
(I99
I158
tp438
a(I59
I200
tp439
a(I15
I171
tp440
a(I36
I176
tp441
a(I24
I145
tp442
a(I7
I195
tp443
a(I6
I200
tp444
a(I13
I151
tp445
a(I20
I200
tp446
a(I102
I200
tp447
a(I101
I170
tp448
a(I70
I200
tp449
asg17
I200
sba(imain2
Polygon
p450
(dp451
g3
(I180
I160
tp452
sg5
I200
sg6
(I28
I39
I107
I46
tp453
sg8
(lp454
(I160
I132
tp455
a(I175
I200
tp456
a(I200
I200
tp457
a(I159
I131
tp458
a(I191
I178
tp459
a(I200
I161
tp460
a(I200
I118
tp461
a(I161
I136
tp462
a(I200
I128
tp463
a(I200
I139
tp464
asg17
I200
sba(imain2
Polygon
p465
(dp466
g3
(I12
I87
tp467
sg5
I200
sg6
(I48
I129
I181
I1
tp468
sg8
(lp469
(I0
I54
tp470
a(I20
I73
tp471
a(I0
I107
tp472
a(I0
I121
tp473
asg17
I200
sba(imain2
Polygon
p474
(dp475
g3
(I123
I91
tp476
sg5
I200
sg6
(I229
I0
I184
I52
tp477
sg8
(lp478
(I93
I69
tp479
a(I99
I140
tp480
a(I88
I106
tp481
a(I77
I123
tp482
a(I134
I104
tp483
a(I92
I73
tp484
asg17
I200
sba(imain2
Polygon
p485
(dp486
g3
(I80
I122
tp487
sg5
I200
sg6
(I220
I175
I138
I72
tp488
sg8
(lp489
(I116
I143
tp490
a(I129
I85
tp491
a(I44
I101
tp492
a(I75
I158
tp493
a(I123
I146
tp494
asg17
I200
sba(imain2
Polygon
p495
(dp496
g3
(I119
I156
tp497
sg5
I200
sg6
(I125
I213
I195
I44
tp498
sg8
(lp499
(I96
I178
tp500
a(I141
I200
tp501
a(I103
I123
tp502
a(I90
I178
tp503
a(I70
I199
tp504
a(I133
I200
tp505
a(I69
I119
tp506
a(I102
I114
tp507
a(I114
I170
tp508
a(I88
I157
tp509
asg17
I200
sba(imain2
Polygon
p510
(dp511
g3
(I66
I96
tp512
sg5
I200
sg6
(I106
I72
I64
I91
tp513
sg8
(lp514
(I24
I133
tp515
a(I20
I88
tp516
a(I59
I80
tp517
a(I72
I129
tp518
a(I100
I145
tp519
a(I30
I82
tp520
a(I36
I114
tp521
asg17
I200
sba(imain2
Polygon
p522
(dp523
g3
(I17
I178
tp524
sg5
I200
sg6
(I81
I63
I10
I0
tp525
sg8
(lp526
(I63
I167
tp527
a(I0
I174
tp528
a(I21
I149
tp529
a(I20
I150
tp530
a(I0
I128
tp531
a(I51
I200
tp532
a(I45
I141
tp533
a(I63
I188
tp534
asg17
I200
sba(imain2
Polygon
p535
(dp536
g3
(I196
I157
tp537
sg5
I200
sg6
(I26
I207
I67
I1
tp538
sg8
(lp539
(I147
I199
tp540
a(I200
I112
tp541
a(I200
I131
tp542
a(I195
I135
tp543
a(I200
I158
tp544
a(I200
I123
tp545
a(I147
I107
tp546
a(I165
I144
tp547
a(I200
I113
tp548
a(I200
I173
tp549
a(I200
I143
tp550
a(I200
I195
tp551
a(I200
I151
tp552
a(I200
I195
tp553
a(I161
I119
tp554
a(I200
I151
tp555
a(I200
I135
tp556
a(I158
I128
tp557
asg17
I200
sba(imain2
Polygon
p558
(dp559
g3
(I7
I138
tp560
sg5
I200
sg6
(I208
I109
I8
I0
tp561
sg8
(lp562
(I0
I174
tp563
a(I0
I103
tp564
a(I0
I109
tp565
a(I43
I88
tp566
a(I11
I151
tp567
a(I0
I88
tp568
a(I0
I180
tp569
a(I44
I169
tp570
a(I0
I157
tp571
a(I0
I147
tp572
a(I21
I180
tp573
a(I0
I158
tp574
a(I24
I89
tp575
a(I41
I89
tp576
asg17
I200
sba(imain2
Polygon
p577
(dp578
g3
(I49
I75
tp579
sg5
I200
sg6
(I117
I227
I9
I19
tp580
sg8
(lp581
(I97
I31
tp582
a(I96
I95
tp583
a(I60
I123
tp584
a(I28
I81
tp585
a(I35
I74
tp586
a(I91
I46
tp587
a(I35
I64
tp588
a(I75
I88
tp589
a(I0
I118
tp590
a(I3
I64
tp591
a(I8
I49
tp592
a(I41
I49
tp593
a(I53
I73
tp594
a(I77
I48
tp595
a(I41
I61
tp596
a(I63
I36
tp597
a(I7
I38
tp598
a(I35
I36
tp599
asg17
I200
sba(imain2
Polygon
p600
(dp601
g3
(I75
I73
tp602
sg5
I200
sg6
(I161
I134
I134
I133
tp603
sg8
(lp604
(I108
I39
tp605
a(I123
I118
tp606
a(I47
I117
tp607
a(I62
I34
tp608
asg17
I200
sba(imain2
Polygon
p609
(dp610
g3
(I82
I103
tp611
sg5
I200
sg6
(I94
I95
I57
I1
tp612
sg8
(lp613
(I123
I116
tp614
a(I83
I145
tp615
a(I53
I131
tp616
a(I124
I68
tp617
a(I71
I103
tp618
a(I67
I133
tp619
a(I98
I99
tp620
a(I124
I151
tp621
a(I97
I112
tp622
a(I41
I102
tp623
a(I39
I61
tp624
a(I43
I63
tp625
a(I41
I99
tp626
a(I132
I75
tp627
a(I128
I131
tp628
a(I107
I59
tp629
a(I91
I128
tp630
a(I55
I149
tp631
asg17
I200
sba(imain2
Polygon
p632
(dp633
g3
(I126
I26
tp634
sg5
I200
sg6
(I237
I182
I126
I105
tp635
sg8
(lp636
(I138
I12
tp637
a(I148
I21
tp638
a(I124
I16
tp639
a(I83
I10
tp640
a(I77
I0
tp641
a(I162
I0
tp642
a(I176
I38
tp643
a(I168
I75
tp644
asg17
I200
sba(imain2
Polygon
p645
(dp646
g3
(I128
I23
tp647
sg5
I200
sg6
(I105
I1
I83
I0
tp648
sg8
(lp649
(I125
I0
tp650
a(I97
I3
tp651
a(I166
I29
tp652
a(I154
I0
tp653
a(I124
I60
tp654
a(I170
I34
tp655
a(I100
I9
tp656
a(I116
I0
tp657
a(I84
I17
tp658
a(I157
I34
tp659
a(I144
I0
tp660
a(I92
I33
tp661
a(I172
I71
tp662
a(I107
I22
tp663
asg17
I200
sba(imain2
Polygon
p664
(dp665
g3
(I147
I59
tp666
sg5
I200
sg6
(I1
I240
I188
I59
tp667
sg8
(lp668
(I191
I38
tp669
a(I155
I19
tp670
a(I190
I84
tp671
asg17
I200
sba(imain2
Polygon
p672
(dp673
g3
(I105
I192
tp674
sg5
I200
sg6
(I177
I19
I173
I0
tp675
sg8
(lp676
(I150
I178
tp677
a(I68
I169
tp678
a(I146
I145
tp679
a(I118
I200
tp680
a(I92
I167
tp681
asg17
I200
sba(imain2
Polygon
p682
(dp683
g3
(I144
I60
tp684
sg5
I200
sg6
(I58
I232
I7
I0
tp685
sg8
(lp686
(I100
I77
tp687
a(I157
I97
tp688
a(I151
I46
tp689
a(I135
I106
tp690
a(I122
I34
tp691
a(I180
I75
tp692
a(I143
I104
tp693
a(I114
I17
tp694
asg17
I200
sba(imain2
Polygon
p695
(dp696
g3
(I177
I86
tp697
sg5
I200
sg6
(I168
I32
I16
I1
tp698
sg8
(lp699
(I179
I46
tp700
a(I165
I74
tp701
a(I199
I65
tp702
a(I167
I118
tp703
a(I200
I65
tp704
a(I141
I67
tp705
a(I139
I126
tp706
asg17
I200
sba(imain2
Polygon
p707
(dp708
g3
(I157
I117
tp709
sg5
I200
sg6
(I42
I28
I0
I52
tp710
sg8
(lp711
(I187
I153
tp712
a(I200
I147
tp713
a(I128
I75
tp714
a(I191
I152
tp715
a(I142
I67
tp716
a(I183
I145
tp717
a(I198
I87
tp718
a(I200
I166
tp719
a(I132
I108
tp720
a(I107
I95
tp721
asg17
I200
sba(imain2
Polygon
p722
(dp723
g3
(I155
I192
tp724
sg5
I200
sg6
(I1
I33
I194
I0
tp725
sg8
(lp726
(I200
I165
tp727
a(I192
I163
tp728
a(I128
I195
tp729
a(I132
I200
tp730
a(I175
I200
tp731
a(I178
I193
tp732
a(I110
I173
tp733
a(I153
I200
tp734
a(I155
I187
tp735
a(I194
I181
tp736
a(I158
I185
tp737
a(I195
I184
tp738
asg17
I200
sba(imain2
Polygon
p739
(dp740
g3
(I103
I158
tp741
sg5
I200
sg6
(I12
I44
I118
I56
tp742
sg8
(lp743
(I107
I154
tp744
a(I72
I200
tp745
a(I127
I113
tp746
a(I98
I169
tp747
a(I82
I153
tp748
a(I131
I117
tp749
a(I66
I200
tp750
a(I96
I148
tp751
asg17
I200
sba(imain2
Polygon
p752
(dp753
g3
(I9
I151
tp754
sg5
I200
sg6
(I120
I83
I56
I32
tp755
sg8
(lp756
(I0
I194
tp757
a(I0
I173
tp758
a(I0
I126
tp759
a(I14
I129
tp760
a(I0
I157
tp761
a(I12
I200
tp762
a(I44
I122
tp763
a(I0
I159
tp764
a(I28
I192
tp765
asg17
I200
sba(imain2
Polygon
p766
(dp767
g3
(I114
I115
tp768
sg5
I200
sg6
(I165
I156
I137
I1
tp769
sg8
(lp770
(I136
I133
tp771
a(I156
I103
tp772
a(I64
I113
tp773
a(I76
I151
tp774
a(I75
I83
tp775
a(I144
I106
tp776
a(I99
I110
tp777
asg17
I200
sba(imain2
Polygon
p778
(dp779
g3
(I114
I99
tp780
sg5
I200
sg6
(I60
I240
I7
I43
tp781
sg8
(lp782
(I128
I108
tp783
a(I104
I71
tp784
a(I68
I97
tp785
a(I85
I70
tp786
a(I72
I108
tp787
a(I117
I58
tp788
a(I70
I56
tp789
a(I109
I134
tp790
a(I103
I135
tp791
a(I69
I62
tp792
a(I139
I67
tp793
a(I84
I133
tp794
asg17
I200
sba(imain2
Polygon
p795
(dp796
g3
(I173
I62
tp797
sg5
I200
sg6
(I1
I40
I167
I94
tp798
sg8
(lp799
(I200
I82
tp800
a(I200
I84
tp801
a(I168
I49
tp802
a(I146
I31
tp803
a(I162
I46
tp804
asg17
I200
sba(imain2
Polygon
p805
(dp806
g3
(I199
I171
tp807
sg5
I200
sg6
(I0
I233
I13
I20
tp808
sg8
(lp809
(I200
I164
tp810
a(I200
I174
tp811
a(I162
I194
tp812
asg17
I200
sba(imain2
Polygon
p813
(dp814
g3
(I195
I126
tp815
sg5
I200
sg6
(I211
I215
I27
I1
tp816
sg8
(lp817
(I182
I167
tp818
a(I200
I175
tp819
a(I172
I118
tp820
a(I200
I164
tp821
a(I200
I93
tp822
a(I200
I82
tp823
a(I175
I79
tp824
a(I200
I91
tp825
a(I154
I148
tp826
a(I170
I107
tp827
a(I183
I169
tp828
a(I199
I106
tp829
a(I200
I123
tp830
a(I200
I117
tp831
a(I200
I143
tp832
a(I200
I156
tp833
a(I200
I136
tp834
asg17
I200
sba(imain2
Polygon
p835
(dp836
g3
(I51
I190
tp837
sg5
I200
sg6
(I124
I172
I99
I55
tp838
sg8
(lp839
(I63
I200
tp840
a(I11
I200
tp841
a(I86
I200
tp842
a(I60
I200
tp843
a(I96
I168
tp844
a(I97
I200
tp845
a(I14
I192
tp846
a(I88
I200
tp847
asg17
I200
sba(imain2
Polygon
p848
(dp849
g3
(I200
I5
tp850
sg5
I200
sg6
(I187
I107
I44
I1
tp851
sg8
(lp852
(I200
I50
tp853
a(I200
I17
tp854
a(I200
I0
tp855
a(I196
I26
tp856
a(I171
I11
tp857
a(I200
I0
tp858
a(I200
I0
tp859
a(I186
I29
tp860
a(I200
I0
tp861
a(I186
I38
tp862
asg17
I200
sba(imain2
Polygon
p863
(dp864
g3
(I147
I166
tp865
sg5
I200
sg6
(I114
I241
I223
I6
tp866
sg8
(lp867
(I108
I131
tp868
a(I109
I190
tp869
a(I179
I180
tp870
a(I123
I166
tp871
a(I132
I125
tp872
a(I110
I196
tp873
a(I108
I150
tp874
a(I150
I117
tp875
asg17
I200
sba(imain2
Polygon
p876
(dp877
g3
(I16
I191
tp878
sg5
I200
sg6
(I128
I46
I221
I1
tp879
sg8
(lp880
(I9
I161
tp881
a(I59
I200
tp882
a(I55
I168
tp883
a(I50
I200
tp884
asg17
I200
sba(imain2
Polygon
p885
(dp886
g3
(I94
I9
tp887
sg5
I200
sg6
(I199
I50
I20
I1
tp888
sg8
(lp889
(I82
I0
tp890
a(I131
I0
tp891
a(I130
I0
tp892
a(I83
I0
tp893
a(I114
I19
tp894
a(I62
I0
tp895
a(I67
I26
tp896
a(I109
I24
tp897
a(I99
I22
tp898
a(I109
I25
tp899
a(I137
I19
tp900
a(I50
I53
tp901
a(I103
I57
tp902
asg17
I200
sba(imain2
Polygon
p903
(dp904
g3
(I111
I113
tp905
sg5
I200
sg6
(I89
I30
I145
I1
tp906
sg8
(lp907
(I95
I159
tp908
a(I120
I136
tp909
a(I150
I136
tp910
asg17
I200
sba(imain2
Polygon
p911
(dp912
g3
(I10
I81
tp913
sg5
I200
sg6
(I218
I162
I192
I0
tp914
sg8
(lp915
(I60
I131
tp916
a(I0
I44
tp917
a(I0
I129
tp918
a(I12
I107
tp919
a(I11
I125
tp920
a(I59
I45
tp921
a(I0
I116
tp922
a(I21
I59
tp923
a(I22
I107
tp924
a(I46
I129
tp925
a(I2
I80
tp926
a(I24
I55
tp927
a(I9
I81
tp928
asg17
I200
sba(imain2
Polygon
p929
(dp930
g3
(I10
I22
tp931
sg5
I200
sg6
(I217
I204
I104
I67
tp932
sg8
(lp933
(I0
I19
tp934
a(I41
I0
tp935
a(I47
I58
tp936
a(I19
I72
tp937
a(I0
I72
tp938
a(I12
I0
tp939
a(I0
I0
tp940
a(I0
I66
tp941
a(I13
I7
tp942
a(I0
I14
tp943
a(I26
I4
tp944
a(I0
I13
tp945
a(I15
I70
tp946
asg17
I200
sba(imain2
Polygon
p947
(dp948
g3
(I19
I169
tp949
sg5
I200
sg6
(I89
I215
I78
I1
tp950
sg8
(lp951
(I41
I147
tp952
a(I68
I169
tp953
a(I20
I192
tp954
a(I7
I200
tp955
a(I28
I122
tp956
asg17
I200
sba(imain2
Polygon
p957
(dp958
g3
(I194
I7
tp959
sg5
I200
sg6
(I161
I88
I133
I1
tp960
sg8
(lp961
(I200
I44
tp962
a(I200
I0
tp963
a(I200
I35
tp964
a(I160
I25
tp965
a(I170
I0
tp966
a(I184
I0
tp967
a(I200
I0
tp968
a(I174
I0
tp969
a(I200
I0
tp970
a(I180
I5
tp971
asg17
I200
sba(imain2
Polygon
p972
(dp973
g3
(I42
I15
tp974
sg5
I200
sg6
(I147
I135
I162
I1
tp975
sg8
(lp976
(I55
I36
tp977
a(I61
I9
tp978
a(I73
I63
tp979
a(I0
I65
tp980
a(I11
I0
tp981
a(I12
I32
tp982
a(I91
I0
tp983
a(I20
I58
tp984
a(I16
I37
tp985
asg17
I200
sba(imain2
Polygon
p986
(dp987
g3
(I183
I77
tp988
sg5
I200
sg6
(I25
I140
I27
I26
tp989
sg8
(lp990
(I170
I55
tp991
a(I200
I86
tp992
a(I156
I32
tp993
a(I189
I40
tp994
a(I161
I65
tp995
a(I196
I42
tp996
a(I200
I43
tp997
asg17
I200
sba(imain2
Polygon
p998
(dp999
g3
(I190
I45
tp1000
sg5
I200
sg6
(I176
I45
I183
I1
tp1001
sg8
(lp1002
(I200
I8
tp1003
a(I200
I26
tp1004
a(I153
I42
tp1005
a(I200
I46
tp1006
a(I179
I86
tp1007
a(I199
I57
tp1008
a(I183
I37
tp1009
a(I200
I7
tp1010
a(I200
I75
tp1011
asg17
I200
sba(imain2
Polygon
p1012
(dp1013
g3
(I115
I69
tp1014
sg5
I200
sg6
(I0
I121
I192
I0
tp1015
sg8
(lp1016
(I121
I86
tp1017
a(I84
I62
tp1018
a(I118
I32
tp1019
asg17
I200
sba(imain2
Polygon
p1020
(dp1021
g3
(I173
I121
tp1022
sg5
I200
sg6
(I242
I53
I20
I0
tp1023
sg8
(lp1024
(I155
I105
tp1025
a(I137
I112
tp1026
a(I175
I87
tp1027
a(I169
I95
tp1028
a(I184
I89
tp1029
a(I200
I116
tp1030
a(I192
I122
tp1031
a(I144
I170
tp1032
asg17
I200
sba(imain2
Polygon
p1033
(dp1034
g3
(I45
I135
tp1035
sg5
I200
sg6
(I147
I126
I175
I35
tp1036
sg8
(lp1037
(I7
I177
tp1038
a(I21
I178
tp1039
a(I23
I86
tp1040
a(I14
I133
tp1041
a(I35
I86
tp1042
a(I9
I89
tp1043
a(I2
I91
tp1044
asg17
I200
sba(imain2
Polygon
p1045
(dp1046
g3
(I61
I48
tp1047
sg5
I200
sg6
(I76
I33
I123
I111
tp1048
sg8
(lp1049
(I81
I91
tp1050
a(I73
I78
tp1051
a(I47
I85
tp1052
a(I68
I93
tp1053
a(I86
I72
tp1054
a(I85
I73
tp1055
a(I45
I93
tp1056
a(I66
I90
tp1057
a(I106
I80
tp1058
asg17
I200
sba(imain2
Polygon
p1059
(dp1060
g3
(I96
I154
tp1061
sg5
I200
sg6
(I149
I182
I184
I61
tp1062
sg8
(lp1063
(I53
I107
tp1064
a(I75
I149
tp1065
a(I90
I200
tp1066
a(I142
I200
tp1067
a(I53
I114
tp1068
a(I107
I120
tp1069
asg17
I200
sba(imain2
Polygon
p1070
(dp1071
g3
(I32
I146
tp1072
sg5
I200
sg6
(I62
I240
I69
I94
tp1073
sg8
(lp1074
(I0
I157
tp1075
a(I0
I178
tp1076
a(I0
I132
tp1077
asg17
I200
sba(imain2
Polygon
p1078
(dp1079
g3
(I3
I120
tp1080
sg5
I200
sg6
(I186
I176
I16
I53
tp1081
sg8
(lp1082
(I38
I71
tp1083
a(I0
I72
tp1084
a(I0
I121
tp1085
a(I0
I132
tp1086
a(I20
I116
tp1087
asg17
I200
sba(imain2
Polygon
p1088
(dp1089
g3
(I74
I152
tp1090
sg5
I200
sg6
(I59
I79
I125
I0
tp1091
sg8
(lp1092
(I107
I180
tp1093
a(I80
I138
tp1094
a(I39
I140
tp1095
a(I117
I121
tp1096
a(I113
I188
tp1097
a(I118
I127
tp1098
a(I32
I179
tp1099
a(I33
I191
tp1100
a(I87
I200
tp1101
a(I56
I110
tp1102
a(I60
I153
tp1103
a(I76
I188
tp1104
asg17
I200
sba(imain2
Polygon
p1105
(dp1106
g3
(I31
I192
tp1107
sg5
I200
sg6
(I153
I32
I134
I1
tp1108
sg8
(lp1109
(I0
I181
tp1110
a(I7
I200
tp1111
a(I0
I200
tp1112
a(I0
I175
tp1113
a(I80
I200
tp1114
a(I17
I200
tp1115
a(I0
I142
tp1116
a(I41
I172
tp1117
a(I57
I200
tp1118
a(I28
I166
tp1119
a(I55
I200
tp1120
a(I0
I187
tp1121
a(I39
I200
tp1122
a(I54
I200
tp1123
a(I21
I181
tp1124
a(I56
I200
tp1125
a(I0
I195
tp1126
asg17
I200
sba(imain2
Polygon
p1127
(dp1128
g3
(I99
I149
tp1129
sg5
I200
sg6
(I188
I31
I203
I0
tp1130
sg8
(lp1131
(I110
I116
tp1132
a(I136
I173
tp1133
a(I101
I127
tp1134
a(I82
I109
tp1135
a(I114
I142
tp1136
a(I79
I154
tp1137
a(I51
I112
tp1138
a(I55
I173
tp1139
a(I92
I139
tp1140
a(I101
I140
tp1141
a(I109
I193
tp1142
a(I103
I151
tp1143
a(I123
I124
tp1144
a(I105
I153
tp1145
a(I52
I171
tp1146
a(I131
I198
tp1147
a(I76
I153
tp1148
asg17
I200
sba(imain2
Polygon
p1149
(dp1150
g3
(I183
I115
tp1151
sg5
I200
sg6
(I17
I108
I176
I134
tp1152
sg8
(lp1153
(I200
I102
tp1154
a(I193
I132
tp1155
a(I181
I84
tp1156
a(I200
I87
tp1157
a(I200
I142
tp1158
asg17
I200
sba(imain2
Polygon
p1159
(dp1160
g3
(I141
I107
tp1161
sg5
I200
sg6
(I78
I145
I85
I139
tp1162
sg8
(lp1163
(I119
I86
tp1164
a(I112
I86
tp1165
a(I111
I152
tp1166
asg17
I200
sba(imain2
Polygon
p1167
(dp1168
g3
(I149
I72
tp1169
sg5
I200
sg6
(I62
I107
I163
I24
tp1170
sg8
(lp1171
(I160
I35
tp1172
a(I195
I56
tp1173
a(I155
I38
tp1174
a(I99
I25
tp1175
a(I173
I40
tp1176
a(I176
I38
tp1177
a(I195
I35
tp1178
a(I127
I88
tp1179
a(I150
I68
tp1180
a(I168
I73
tp1181
a(I169
I57
tp1182
asg17
I200
sba(imain2
Polygon
p1183
(dp1184
g3
(I67
I128
tp1185
sg5
I200
sg6
(I210
I147
I52
I25
tp1186
sg8
(lp1187
(I106
I157
tp1188
a(I73
I95
tp1189
a(I108
I113
tp1190
a(I115
I152
tp1191
a(I62
I84
tp1192
a(I62
I102
tp1193
a(I63
I145
tp1194
a(I75
I164
tp1195
asg17
I200
sba(imain2
Polygon
p1196
(dp1197
g3
(I183
I44
tp1198
sg5
I200
sg6
(I80
I9
I171
I0
tp1199
sg8
(lp1200
(I200
I28
tp1201
a(I138
I92
tp1202
a(I184
I85
tp1203
a(I175
I30
tp1204
a(I136
I16
tp1205
a(I179
I0
tp1206
asg17
I200
sba(imain2
Polygon
p1207
(dp1208
g3
(I100
I61
tp1209
sg5
I200
sg6
(I199
I96
I41
I36
tp1210
sg8
(lp1211
(I56
I38
tp1212
a(I99
I64
tp1213
a(I91
I106
tp1214
a(I131
I96
tp1215
a(I95
I52
tp1216
a(I80
I38
tp1217
a(I74
I24
tp1218
a(I146
I15
tp1219
a(I96
I45
tp1220
a(I109
I45
tp1221
a(I143
I70
tp1222
a(I84
I63
tp1223
a(I126
I79
tp1224
asg17
I200
sba(imain2
Polygon
p1225
(dp1226
g3
(I52
I190
tp1227
sg5
I200
sg6
(I175
I147
I49
I76
tp1228
sg8
(lp1229
(I71
I200
tp1230
a(I89
I171
tp1231
a(I102
I200
tp1232
a(I94
I200
tp1233
a(I95
I200
tp1234
a(I34
I200
tp1235
asg17
I200
sba(imain2
Polygon
p1236
(dp1237
g3
(I151
I65
tp1238
sg5
I200
sg6
(I62
I179
I1
I97
tp1239
sg8
(lp1240
(I176
I54
tp1241
a(I179
I51
tp1242
a(I192
I90
tp1243
a(I186
I39
tp1244
a(I139
I65
tp1245
a(I111
I63
tp1246
a(I119
I77
tp1247
a(I169
I47
tp1248
a(I182
I28
tp1249
a(I162
I60
tp1250
asg17
I200
sba(imain2
Polygon
p1251
(dp1252
g3
(I67
I20
tp1253
sg5
I200
sg6
(I165
I92
I187
I97
tp1254
sg8
(lp1255
(I17
I0
tp1256
a(I29
I39
tp1257
a(I114
I0
tp1258
a(I110
I0
tp1259
a(I95
I23
tp1260
a(I113
I0
tp1261
a(I74
I0
tp1262
asg17
I200
sba(imain2
Polygon
p1263
(dp1264
g3
(I199
I56
tp1265
sg5
I200
sg6
(I159
I0
I107
I1
tp1266
sg8
(lp1267
(I200
I8
tp1268
a(I165
I70
tp1269
a(I200
I46
tp1270
a(I200
I83
tp1271
a(I181
I100
tp1272
a(I186
I53
tp1273
a(I198
I104
tp1274
a(I155
I97
tp1275
a(I200
I28
tp1276
a(I149
I58
tp1277
a(I168
I34
tp1278
asg17
I200
sba(imain2
Polygon
p1279
(dp1280
g3
(I185
I38
tp1281
sg5
I200
sg6
(I128
I217
I66
I157
tp1282
sg8
(lp1283
(I200
I69
tp1284
a(I200
I0
tp1285
a(I177
I0
tp1286
a(I154
I0
tp1287
a(I146
I42
tp1288
a(I200
I5
tp1289
a(I168
I28
tp1290
a(I142
I46
tp1291
a(I155
I22
tp1292
a(I181
I67
tp1293
a(I187
I70
tp1294
a(I138
I0
tp1295
a(I200
I50
tp1296
a(I141
I1
tp1297
a(I171
I85
tp1298
a(I189
I82
tp1299
asg17
I200
sba(imain2
Polygon
p1300
(dp1301
g3
(I67
I149
tp1302
sg5
I200
sg6
(I90
I205
I212
I36
tp1303
sg8
(lp1304
(I20
I169
tp1305
a(I92
I149
tp1306
a(I45
I104
tp1307
a(I47
I101
tp1308
a(I64
I107
tp1309
a(I75
I131
tp1310
a(I69
I155
tp1311
asg17
I200
sba(imain2
Polygon
p1312
(dp1313
g3
(I21
I182
tp1314
sg5
I200
sg6
(I110
I114
I1
I77
tp1315
sg8
(lp1316
(I67
I200
tp1317
a(I0
I166
tp1318
a(I30
I184
tp1319
a(I20
I169
tp1320
a(I19
I200
tp1321
a(I41
I195
tp1322
a(I19
I200
tp1323
a(I32
I200
tp1324
a(I13
I200
tp1325
a(I0
I144
tp1326
a(I0
I194
tp1327
a(I27
I167
tp1328
a(I8
I162
tp1329
a(I28
I152
tp1330
a(I0
I133
tp1331
a(I47
I191
tp1332
asg17
I200
sba(imain2
Polygon
p1333
(dp1334
g3
(I145
I176
tp1335
sg5
I200
sg6
(I183
I171
I1
I35
tp1336
sg8
(lp1337
(I116
I200
tp1338
a(I101
I200
tp1339
a(I177
I200
tp1340
a(I120
I137
tp1341
a(I95
I200
tp1342
asg17
I200
sba(imain2
Polygon
p1343
(dp1344
g3
(I102
I21
tp1345
sg5
I200
sg6
(I180
I177
I184
I55
tp1346
sg8
(lp1347
(I129
I69
tp1348
a(I61
I26
tp1349
a(I88
I12
tp1350
a(I104
I12
tp1351
a(I146
I25
tp1352
a(I143
I7
tp1353
a(I142
I0
tp1354
a(I59
I0
tp1355
a(I54
I68
tp1356
asg17
I200
sba(imain2
Polygon
p1357
(dp1358
g3
(I154
I30
tp1359
sg5
I200
sg6
(I49
I94
I58
I0
tp1360
sg8
(lp1361
(I135
I63
tp1362
a(I126
I17
tp1363
a(I107
I66
tp1364
a(I173
I45
tp1365
a(I162
I48
tp1366
a(I140
I39
tp1367
a(I195
I27
tp1368
a(I135
I57
tp1369
a(I156
I27
tp1370
a(I132
I0
tp1371
asg17
I200
sba(imain2
Polygon
p1372
(dp1373
g3
(I171
I178
tp1374
sg5
I200
sg6
(I93
I228
I32
I1
tp1375
sg8
(lp1376
(I200
I200
tp1377
a(I200
I200
tp1378
a(I200
I195
tp1379
a(I200
I135
tp1380
a(I179
I151
tp1381
a(I176
I162
tp1382
a(I172
I153
tp1383
asg17
I200
sba(imain2
Polygon
p1384
(dp1385
g3
(I189
I152
tp1386
sg5
I200
sg6
(I245
I70
I178
I1
tp1387
sg8
(lp1388
(I184
I192
tp1389
a(I200
I134
tp1390
a(I200
I166
tp1391
a(I200
I155
tp1392
a(I176
I108
tp1393
a(I182
I182
tp1394
a(I200
I166
tp1395
a(I156
I189
tp1396
a(I149
I177
tp1397
asg17
I200
sba(imain2
Polygon
p1398
(dp1399
g3
(I158
I122
tp1400
sg5
I200
sg6
(I42
I0
I155
I34
tp1401
sg8
(lp1402
(I182
I80
tp1403
a(I174
I137
tp1404
a(I200
I145
tp1405
a(I166
I100
tp1406
a(I141
I111
tp1407
a(I124
I81
tp1408
a(I140
I142
tp1409
a(I131
I110
tp1410
a(I189
I78
tp1411
a(I200
I74
tp1412
a(I124
I95
tp1413
asg17
I200
sba(imain2
Polygon
p1414
(dp1415
g3
(I89
I194
tp1416
sg5
I200
sg6
(I226
I74
I38
I1
tp1417
sg8
(lp1418
(I91
I187
tp1419
a(I69
I166
tp1420
a(I81
I189
tp1421
a(I76
I177
tp1422
a(I107
I177
tp1423
a(I122
I200
tp1424
a(I104
I200
tp1425
a(I39
I200
tp1426
a(I64
I164
tp1427
a(I126
I166
tp1428
a(I68
I191
tp1429
a(I84
I198
tp1430
asg17
I200
sba(imain2
Polygon
p1431
(dp1432
g3
(I185
I89
tp1433
sg5
I200
sg6
(I163
I0
I218
I0
tp1434
sg8
(lp1435
(I136
I51
tp1436
a(I200
I98
tp1437
a(I190
I122
tp1438
a(I200
I70
tp1439
a(I152
I101
tp1440
a(I196
I139
tp1441
a(I187
I137
tp1442
a(I197
I79
tp1443
a(I200
I121
tp1444
a(I200
I68
tp1445
a(I175
I68
tp1446
a(I200
I47
tp1447
a(I174
I136
tp1448
asg17
I200
sba(imain2
Polygon
p1449
(dp1450
g3
(I67
I129
tp1451
sg5
I200
sg6
(I72
I191
I56
I110
tp1452
sg8
(lp1453
(I96
I97
tp1454
a(I112
I141
tp1455
a(I78
I170
tp1456
a(I81
I160
tp1457
a(I112
I100
tp1458
a(I67
I121
tp1459
a(I93
I98
tp1460
a(I99
I143
tp1461
a(I96
I122
tp1462
a(I109
I141
tp1463
a(I87
I119
tp1464
a(I87
I107
tp1465
a(I75
I92
tp1466
a(I84
I146
tp1467
a(I52
I135
tp1468
a(I91
I173
tp1469
asg17
I200
sba(imain2
Polygon
p1470
(dp1471
g3
(I95
I80
tp1472
sg5
I200
sg6
(I219
I88
I19
I129
tp1473
sg8
(lp1474
(I121
I57
tp1475
a(I47
I53
tp1476
a(I58
I130
tp1477
a(I123
I114
tp1478
a(I126
I95
tp1479
a(I129
I87
tp1480
asg17
I200
sba(imain2
Polygon
p1481
(dp1482
g3
(I14
I45
tp1483
sg5
I200
sg6
(I223
I0
I43
I104
tp1484
sg8
(lp1485
(I0
I94
tp1486
a(I58
I24
tp1487
a(I0
I13
tp1488
a(I38
I90
tp1489
a(I10
I95
tp1490
asg17
I200
sba(imain2
Polygon
p1491
(dp1492
g3
(I34
I35
tp1493
sg5
I200
sg6
(I107
I9
I200
I16
tp1494
sg8
(lp1495
(I0
I0
tp1496
a(I0
I84
tp1497
a(I51
I56
tp1498
a(I37
I58
tp1499
a(I53
I81
tp1500
a(I24
I1
tp1501
a(I56
I7
tp1502
a(I63
I21
tp1503
asg17
I200
sba(imain2
Polygon
p1504
(dp1505
g3
(I127
I147
tp1506
sg5
I200
sg6
(I114
I171
I188
I71
tp1507
sg8
(lp1508
(I112
I151
tp1509
a(I112
I167
tp1510
a(I161
I125
tp1511
a(I99
I100
tp1512
a(I112
I159
tp1513
a(I126
I158
tp1514
a(I164
I118
tp1515
a(I80
I133
tp1516
a(I125
I141
tp1517
a(I92
I99
tp1518
a(I85
I144
tp1519
a(I105
I137
tp1520
a(I148
I117
tp1521
a(I108
I109
tp1522
a(I100
I118
tp1523
a(I120
I132
tp1524
a(I93
I123
tp1525
asg17
I200
sba(imain2
Polygon
p1526
(dp1527
g3
(I88
I106
tp1528
sg5
I200
sg6
(I189
I11
I58
I108
tp1529
sg8
(lp1530
(I127
I64
tp1531
a(I119
I93
tp1532
a(I117
I112
tp1533
asg17
I200
sba(imain2
Polygon
p1534
(dp1535
g3
(I11
I134
tp1536
sg5
I200
sg6
(I74
I178
I93
I88
tp1537
sg8
(lp1538
(I0
I183
tp1539
a(I0
I169
tp1540
a(I0
I108
tp1541
a(I0
I162
tp1542
a(I12
I180
tp1543
asg17
I200
sba(imain2
Polygon
p1544
(dp1545
g3
(I174
I141
tp1546
sg5
I200
sg6
(I113
I234
I92
I72
tp1547
sg8
(lp1548
(I200
I120
tp1549
a(I187
I97
tp1550
a(I170
I160
tp1551
a(I200
I190
tp1552
asg17
I200
sba(imain2
Polygon
p1553
(dp1554
g3
(I68
I44
tp1555
sg5
I200
sg6
(I2
I228
I127
I32
tp1556
sg8
(lp1557
(I26
I22
tp1558
a(I19
I82
tp1559
a(I62
I45
tp1560
a(I75
I72
tp1561
a(I22
I45
tp1562
a(I83
I85
tp1563
a(I73
I76
tp1564
asg17
I200
sba(imain2
Polygon
p1565
(dp1566
g3
(I80
I68
tp1567
sg5
I200
sg6
(I74
I15
I15
I30
tp1568
sg8
(lp1569
(I52
I50
tp1570
a(I34
I66
tp1571
a(I53
I18
tp1572
a(I117
I21
tp1573
a(I40
I26
tp1574
a(I52
I99
tp1575
a(I37
I27
tp1576
a(I47
I36
tp1577
a(I97
I30
tp1578
a(I37
I35
tp1579
a(I66
I42
tp1580
a(I83
I18
tp1581
asg17
I200
sba(imain2
Polygon
p1582
(dp1583
g3
(I120
I143
tp1584
sg5
I200
sg6
(I151
I157
I82
I1
tp1585
sg8
(lp1586
(I87
I180
tp1587
a(I157
I180
tp1588
a(I104
I174
tp1589
a(I92
I178
tp1590
a(I129
I155
tp1591
a(I119
I179
tp1592
a(I123
I178
tp1593
a(I145
I127
tp1594
a(I120
I158
tp1595
a(I86
I100
tp1596
a(I157
I112
tp1597
a(I170
I95
tp1598
a(I147
I127
tp1599
a(I80
I125
tp1600
asg17
I200
sba(imain2
Polygon
p1601
(dp1602
g3
(I47
I43
tp1603
sg5
I200
sg6
(I224
I145
I62
I44
tp1604
sg8
(lp1605
(I85
I78
tp1606
a(I7
I93
tp1607
a(I0
I83
tp1608
a(I5
I0
tp1609
a(I26
I10
tp1610
a(I13
I2
tp1611
a(I74
I3
tp1612
a(I52
I53
tp1613
a(I45
I0
tp1614
a(I96
I0
tp1615
a(I96
I74
tp1616
asg17
I200
sba(imain2
Polygon
p1617
(dp1618
g3
(I6
I165
tp1619
sg5
I200
sg6
(I192
I49
I158
I47
tp1620
sg8
(lp1621
(I0
I191
tp1622
a(I34
I177
tp1623
a(I7
I145
tp1624
asg17
I200
sba(imain2
Polygon
p1625
(dp1626
g3
(I125
I173
tp1627
sg5
I200
sg6
(I90
I28
I31
I116
tp1628
sg8
(lp1629
(I145
I181
tp1630
a(I132
I145
tp1631
a(I128
I157
tp1632
a(I135
I166
tp1633
a(I143
I200
tp1634
a(I165
I200
tp1635
a(I85
I166
tp1636
a(I93
I145
tp1637
a(I79
I141
tp1638
a(I145
I159
tp1639
a(I157
I200
tp1640
a(I130
I140
tp1641
asg17
I200
sba(imain2
Polygon
p1642
(dp1643
g3
(I63
I154
tp1644
sg5
I200
sg6
(I122
I158
I2
I0
tp1645
sg8
(lp1646
(I90
I156
tp1647
a(I61
I175
tp1648
a(I112
I105
tp1649
a(I100
I174
tp1650
a(I110
I126
tp1651
a(I66
I149
tp1652
a(I45
I194
tp1653
a(I85
I125
tp1654
a(I27
I122
tp1655
a(I101
I117
tp1656
asg17
I200
sba(imain2
Polygon
p1657
(dp1658
g3
(I152
I171
tp1659
sg5
I200
sg6
(I192
I3
I226
I1
tp1660
sg8
(lp1661
(I197
I151
tp1662
a(I119
I163
tp1663
a(I200
I191
tp1664
a(I105
I165
tp1665
a(I114
I145
tp1666
a(I193
I126
tp1667
a(I180
I200
tp1668
a(I171
I163
tp1669
a(I107
I200
tp1670
a(I118
I180
tp1671
asg17
I200
sba(imain2
Polygon
p1672
(dp1673
g3
(I67
I143
tp1674
sg5
I200
sg6
(I71
I71
I132
I110
tp1675
sg8
(lp1676
(I100
I175
tp1677
a(I113
I120
tp1678
a(I113
I130
tp1679
asg17
I200
sba(imain2
Polygon
p1680
(dp1681
g3
(I153
I79
tp1682
sg5
I200
sg6
(I134
I28
I161
I0
tp1683
sg8
(lp1684
(I178
I118
tp1685
a(I198
I89
tp1686
a(I140
I45
tp1687
a(I133
I77
tp1688
a(I112
I71
tp1689
a(I142
I107
tp1690
a(I148
I111
tp1691
a(I175
I118
tp1692
a(I159
I100
tp1693
a(I177
I105
tp1694
a(I130
I94
tp1695
asg17
I200
sba(imain2
Polygon
p1696
(dp1697
g3
(I142
I192
tp1698
sg5
I200
sg6
(I48
I236
I1
I1
tp1699
sg8
(lp1700
(I126
I156
tp1701
a(I94
I200
tp1702
a(I151
I200
tp1703
a(I170
I191
tp1704
a(I122
I151
tp1705
a(I140
I162
tp1706
a(I115
I176
tp1707
a(I94
I200
tp1708
a(I104
I188
tp1709
asg17
I200
sba(imain2
Polygon
p1710
(dp1711
g3
(I144
I12
tp1712
sg5
I200
sg6
(I185
I74
I98
I1
tp1713
sg8
(lp1714
(I115
I0
tp1715
a(I131
I0
tp1716
a(I184
I0
tp1717
a(I135
I0
tp1718
a(I166
I26
tp1719
a(I140
I27
tp1720
a(I166
I23
tp1721
a(I184
I13
tp1722
a(I190
I2
tp1723
a(I138
I0
tp1724
a(I133
I0
tp1725
a(I167
I46
tp1726
a(I122
I5
tp1727
asg17
I200
sba(imain2
Polygon
p1728
(dp1729
g3
(I144
I92
tp1730
sg5
I200
sg6
(I223
I44
I149
I139
tp1731
sg8
(lp1732
(I175
I55
tp1733
a(I181
I55
tp1734
a(I190
I118
tp1735
a(I178
I108
tp1736
a(I159
I52
tp1737
asg17
I200
sba(imain2
Polygon
p1738
(dp1739
g3
(I167
I23
tp1740
sg5
I200
sg6
(I169
I30
I240
I0
tp1741
sg8
(lp1742
(I174
I4
tp1743
a(I156
I11
tp1744
a(I200
I70
tp1745
a(I200
I14
tp1746
a(I188
I60
tp1747
a(I139
I19
tp1748
a(I166
I58
tp1749
a(I200
I0
tp1750
a(I164
I43
tp1751
a(I200
I32
tp1752
a(I194
I34
tp1753
a(I156
I3
tp1754
a(I168
I30
tp1755
asg17
I200
sba(imain2
Polygon
p1756
(dp1757
g3
(I200
I102
tp1758
sg5
I200
sg6
(I50
I231
I149
I31
tp1759
sg8
(lp1760
(I161
I70
tp1761
a(I171
I83
tp1762
a(I193
I55
tp1763
a(I200
I120
tp1764
a(I200
I56
tp1765
a(I200
I118
tp1766
a(I167
I86
tp1767
a(I200
I76
tp1768
a(I200
I100
tp1769
a(I199
I68
tp1770
a(I155
I69
tp1771
a(I159
I62
tp1772
a(I170
I125
tp1773
a(I177
I108
tp1774
a(I200
I127
tp1775
asg17
I200
sba(imain2
Polygon
p1776
(dp1777
g3
(I20
I176
tp1778
sg5
I200
sg6
(I11
I201
I0
I1
tp1779
sg8
(lp1780
(I0
I200
tp1781
a(I4
I200
tp1782
a(I0
I164
tp1783
a(I65
I153
tp1784
a(I0
I166
tp1785
a(I30
I200
tp1786
a(I43
I145
tp1787
a(I17
I200
tp1788
a(I54
I157
tp1789
a(I0
I200
tp1790
a(I67
I130
tp1791
a(I15
I152
tp1792
a(I45
I161
tp1793
a(I44
I189
tp1794
a(I1
I173
tp1795
a(I4
I200
tp1796
asg17
I200
sba(imain2
Polygon
p1797
(dp1798
g3
(I51
I87
tp1799
sg5
I200
sg6
(I97
I176
I45
I75
tp1800
sg8
(lp1801
(I14
I70
tp1802
a(I30
I71
tp1803
a(I35
I93
tp1804
a(I19
I105
tp1805
a(I3
I114
tp1806
a(I4
I50
tp1807
a(I40
I55
tp1808
a(I63
I97
tp1809
a(I59
I88
tp1810
a(I73
I95
tp1811
a(I30
I52
tp1812
a(I37
I81
tp1813
asg17
I200
sba(imain2
Polygon
p1814
(dp1815
g3
(I124
I18
tp1816
sg5
I200
sg6
(I57
I202
I228
I0
tp1817
sg8
(lp1818
(I104
I18
tp1819
a(I89
I0
tp1820
a(I94
I26
tp1821
a(I160
I36
tp1822
asg17
I200
sba(imain2
Polygon
p1823
(dp1824
g3
(I170
I179
tp1825
sg5
I200
sg6
(I139
I190
I55
I7
tp1826
sg8
(lp1827
(I186
I184
tp1828
a(I146
I200
tp1829
a(I200
I129
tp1830
a(I200
I200
tp1831
a(I125
I200
tp1832
a(I129
I168
tp1833
a(I177
I200
tp1834
a(I155
I179
tp1835
a(I200
I200
tp1836
a(I200
I160
tp1837
asg17
I200
sba(imain2
Polygon
p1838
(dp1839
g3
(I93
I4
tp1840
sg5
I200
sg6
(I123
I127
I1
I124
tp1841
sg8
(lp1842
(I46
I0
tp1843
a(I51
I53
tp1844
a(I57
I28
tp1845
a(I47
I35
tp1846
a(I62
I48
tp1847
a(I51
I52
tp1848
asg17
I200
sba(imain2
Polygon
p1849
(dp1850
g3
(I33
I157
tp1851
sg5
I200
sg6
(I38
I117
I125
I0
tp1852
sg8
(lp1853
(I43
I167
tp1854
a(I50
I130
tp1855
a(I67
I128
tp1856
a(I42
I136
tp1857
a(I66
I120
tp1858
a(I9
I140
tp1859
a(I79
I175
tp1860
a(I69
I135
tp1861
a(I50
I162
tp1862
a(I0
I163
tp1863
asg17
I200
sba(imain2
Polygon
p1864
(dp1865
g3
(I91
I9
tp1866
sg5
I200
sg6
(I66
I183
I12
I1
tp1867
sg8
(lp1868
(I124
I35
tp1869
a(I135
I0
tp1870
a(I115
I0
tp1871
a(I54
I0
tp1872
a(I134
I0
tp1873
a(I132
I0
tp1874
a(I72
I0
tp1875
a(I42
I0
tp1876
a(I122
I0
tp1877
a(I55
I45
tp1878
asg17
I200
sba(imain2
Polygon
p1879
(dp1880
g3
(I50
I13
tp1881
sg5
I200
sg6
(I92
I178
I161
I114
tp1882
sg8
(lp1883
(I31
I61
tp1884
a(I3
I50
tp1885
a(I0
I0
tp1886
a(I11
I0
tp1887
a(I7
I0
tp1888
a(I82
I0
tp1889
asg17
I200
sba(imain2
Polygon
p1890
(dp1891
g3
(I157
I108
tp1892
sg5
I200
sg6
(I128
I116
I1
I75
tp1893
sg8
(lp1894
(I168
I137
tp1895
a(I108
I127
tp1896
a(I123
I82
tp1897
a(I135
I90
tp1898
a(I108
I149
tp1899
a(I172
I125
tp1900
a(I166
I61
tp1901
a(I200
I120
tp1902
a(I184
I155
tp1903
a(I168
I127
tp1904
a(I188
I141
tp1905
a(I158
I120
tp1906
asg17
I200
sba(imain2
Polygon
p1907
(dp1908
g3
(I7
I150
tp1909
sg5
I200
sg6
(I177
I10
I55
I11
tp1910
sg8
(lp1911
(I0
I184
tp1912
a(I0
I112
tp1913
a(I57
I154
tp1914
a(I22
I183
tp1915
a(I0
I123
tp1916
a(I0
I149
tp1917
a(I4
I171
tp1918
a(I55
I115
tp1919
a(I32
I102
tp1920
a(I49
I122
tp1921
a(I24
I105
tp1922
a(I23
I114
tp1923
a(I26
I151
tp1924
asg17
I200
sba(imain2
Polygon
p1925
(dp1926
g3
(I89
I125
tp1927
sg5
I200
sg6
(I42
I0
I214
I12
tp1928
sg8
(lp1929
(I59
I165
tp1930
a(I101
I135
tp1931
a(I56
I165
tp1932
a(I76
I125
tp1933
asg17
I200
sba(imain2
Polygon
p1934
(dp1935
g3
(I18
I178
tp1936
sg5
I200
sg6
(I85
I163
I41
I90
tp1937
sg8
(lp1938
(I0
I148
tp1939
a(I6
I154
tp1940
a(I10
I175
tp1941
a(I0
I137
tp1942
a(I30
I144
tp1943
a(I23
I175
tp1944
a(I24
I189
tp1945
a(I0
I167
tp1946
asg17
I200
sba(imain2
Polygon
p1947
(dp1948
g3
(I81
I53
tp1949
sg5
I200
sg6
(I217
I83
I79
I0
tp1950
sg8
(lp1951
(I80
I31
tp1952
a(I89
I58
tp1953
a(I66
I39
tp1954
a(I42
I77
tp1955
a(I37
I46
tp1956
a(I80
I82
tp1957
a(I97
I100
tp1958
a(I73
I54
tp1959
a(I96
I16
tp1960
a(I71
I87
tp1961
a(I89
I26
tp1962
asg17
I200
sba(imain2
Polygon
p1963
(dp1964
g3
(I117
I32
tp1965
sg5
I200
sg6
(I165
I186
I81
I0
tp1966
sg8
(lp1967
(I89
I46
tp1968
a(I99
I56
tp1969
a(I134
I30
tp1970
asg17
I200
sba(imain2
Polygon
p1971
(dp1972
g3
(I79
I140
tp1973
sg5
I200
sg6
(I224
I0
I161
I25
tp1974
sg8
(lp1975
(I108
I95
tp1976
a(I107
I173
tp1977
a(I52
I148
tp1978
a(I123
I97
tp1979
a(I103
I173
tp1980
a(I75
I159
tp1981
a(I80
I158
tp1982
a(I127
I127
tp1983
asg17
I200
sba(imain2
Polygon
p1984
(dp1985
g3
(I26
I4
tp1986
sg5
I200
sg6
(I196
I73
I69
I1
tp1987
sg8
(lp1988
(I64
I27
tp1989
a(I7
I0
tp1990
a(I69
I0
tp1991
a(I0
I0
tp1992
a(I69
I0
tp1993
a(I0
I0
tp1994
a(I4
I0
tp1995
a(I38
I0
tp1996
asg17
I200
sba(imain2
Polygon
p1997
(dp1998
g3
(I15
I121
tp1999
sg5
I200
sg6
(I1
I223
I148
I0
tp2000
sg8
(lp2001
(I36
I104
tp2002
a(I16
I84
tp2003
a(I51
I75
tp2004
a(I60
I87
tp2005
a(I0
I74
tp2006
a(I24
I149
tp2007
a(I46
I142
tp2008
a(I31
I72
tp2009
a(I54
I97
tp2010
a(I61
I107
tp2011
a(I0
I154
tp2012
a(I16
I86
tp2013
a(I35
I105
tp2014
a(I43
I154
tp2015
a(I5
I124
tp2016
asg17
I200
sba(imain2
Polygon
p2017
(dp2018
g3
(I163
I195
tp2019
sg5
I200
sg6
(I8
I147
I192
I3
tp2020
sg8
(lp2021
(I187
I200
tp2022
a(I191
I191
tp2023
a(I180
I194
tp2024
a(I200
I194
tp2025
a(I127
I200
tp2026
a(I198
I192
tp2027
a(I172
I200
tp2028
a(I193
I191
tp2029
a(I200
I160
tp2030
asg17
I200
sba(imain2
Polygon
p2031
(dp2032
g3
(I118
I106
tp2033
sg5
I200
sg6
(I6
I133
I123
I114
tp2034
sg8
(lp2035
(I132
I104
tp2036
a(I145
I78
tp2037
a(I102
I87
tp2038
a(I125
I104
tp2039
a(I121
I98
tp2040
a(I123
I91
tp2041
a(I151
I66
tp2042
a(I132
I101
tp2043
a(I127
I105
tp2044
a(I140
I99
tp2045
asg17
I200
sba(imain2
Polygon
p2046
(dp2047
g3
(I56
I6
tp2048
sg5
I200
sg6
(I197
I1
I174
I0
tp2049
sg8
(lp2050
(I88
I24
tp2051
a(I79
I0
tp2052
a(I71
I0
tp2053
a(I21
I0
tp2054
a(I75
I2
tp2055
a(I10
I41
tp2056
asg17
I200
sba(imain2
Polygon
p2057
(dp2058
g3
(I174
I69
tp2059
sg5
I200
sg6
(I118
I35
I47
I100
tp2060
sg8
(lp2061
(I200
I23
tp2062
a(I200
I29
tp2063
a(I160
I53
tp2064
a(I199
I86
tp2065
a(I196
I88
tp2066
a(I200
I90
tp2067
a(I151
I40
tp2068
a(I126
I41
tp2069
a(I189
I42
tp2070
a(I171
I43
tp2071
a(I130
I47
tp2072
a(I191
I41
tp2073
a(I183
I53
tp2074
a(I173
I86
tp2075
a(I165
I92
tp2076
asg17
I200
sba(imain2
Polygon
p2077
(dp2078
g3
(I0
I30
tp2079
sg5
I200
sg6
(I170
I39
I99
I1
tp2080
sg8
(lp2081
(I0
I69
tp2082
a(I0
I48
tp2083
a(I39
I78
tp2084
a(I29
I6
tp2085
a(I0
I35
tp2086
asg17
I200
sba(imain2
Polygon
p2087
(dp2088
g3
(I134
I58
tp2089
sg5
I200
sg6
(I241
I178
I117
I112
tp2090
sg8
(lp2091
(I179
I58
tp2092
a(I110
I8
tp2093
a(I156
I8
tp2094
a(I179
I9
tp2095
asg17
I200
sba(imain2
Polygon
p2096
(dp2097
g3
(I142
I75
tp2098
sg5
I200
sg6
(I201
I59
I194
I75
tp2099
sg8
(lp2100
(I191
I83
tp2101
a(I154
I36
tp2102
a(I163
I54
tp2103
a(I192
I28
tp2104
asg17
I200
sba(imain2
Polygon
p2105
(dp2106
g3
(I129
I65
tp2107
sg5
I200
sg6
(I88
I0
I164
I129
tp2108
sg8
(lp2109
(I155
I65
tp2110
a(I158
I67
tp2111
a(I151
I68
tp2112
asg17
I200
sba(imain2
Polygon
p2113
(dp2114
g3
(I163
I171
tp2115
sg5
I200
sg6
(I196
I10
I130
I1
tp2116
sg8
(lp2117
(I145
I198
tp2118
a(I161
I200
tp2119
a(I200
I190
tp2120
a(I178
I200
tp2121
a(I127
I200
tp2122
a(I170
I142
tp2123
a(I165
I165
tp2124
a(I158
I178
tp2125
a(I189
I200
tp2126
a(I161
I197
tp2127
a(I200
I124
tp2128
a(I200
I191
tp2129
a(I141
I126
tp2130
a(I113
I200
tp2131
asg17
I200
sba(imain2
Polygon
p2132
(dp2133
g3
(I184
I20
tp2134
sg5
I200
sg6
(I213
I92
I227
I76
tp2135
sg8
(lp2136
(I200
I60
tp2137
a(I200
I0
tp2138
a(I200
I69
tp2139
a(I160
I57
tp2140
a(I140
I0
tp2141
a(I144
I0
tp2142
a(I200
I0
tp2143
a(I200
I0
tp2144
asg17
I200
sba(imain2
Polygon
p2145
(dp2146
g3
(I145
I135
tp2147
sg5
I200
sg6
(I31
I41
I59
I39
tp2148
sg8
(lp2149
(I160
I178
tp2150
a(I183
I129
tp2151
a(I135
I88
tp2152
a(I110
I168
tp2153
a(I166
I183
tp2154
asg17
I200
sba(imain2
Polygon
p2155
(dp2156
g3
(I64
I74
tp2157
sg5
I200
sg6
(I134
I208
I148
I1
tp2158
sg8
(lp2159
(I111
I67
tp2160
a(I74
I124
tp2161
a(I19
I47
tp2162
a(I94
I61
tp2163
asg17
I200
sba(imain2
Polygon
p2164
(dp2165
g3
(I82
I104
tp2166
sg5
I200
sg6
(I48
I155
I198
I1
tp2167
sg8
(lp2168
(I129
I123
tp2169
a(I98
I78
tp2170
a(I60
I150
tp2171
a(I61
I58
tp2172
a(I87
I71
tp2173
a(I37
I116
tp2174
a(I105
I79
tp2175
a(I131
I77
tp2176
a(I51
I70
tp2177
a(I76
I62
tp2178
asg17
I200
sba(imain2
Polygon
p2179
(dp2180
g3
(I176
I51
tp2181
sg5
I200
sg6
(I114
I211
I85
I0
tp2182
sg8
(lp2183
(I200
I6
tp2184
a(I143
I9
tp2185
a(I148
I79
tp2186
a(I174
I33
tp2187
a(I171
I13
tp2188
a(I200
I28
tp2189
asg17
I200
sba(imain2
Polygon
p2190
(dp2191
g3
(I18
I179
tp2192
sg5
I200
sg6
(I8
I98
I96
I30
tp2193
sg8
(lp2194
(I0
I146
tp2195
a(I0
I200
tp2196
a(I0
I198
tp2197
a(I21
I200
tp2198
a(I22
I196
tp2199
a(I36
I190
tp2200
a(I19
I154
tp2201
a(I23
I153
tp2202
asg17
I200
sba(imain2
Polygon
p2203
(dp2204
g3
(I112
I97
tp2205
sg5
I200
sg6
(I96
I198
I67
I50
tp2206
sg8
(lp2207
(I117
I118
tp2208
a(I70
I139
tp2209
a(I97
I92
tp2210
a(I122
I146
tp2211
a(I76
I136
tp2212
a(I79
I54
tp2213
a(I98
I68
tp2214
a(I123
I104
tp2215
a(I130
I88
tp2216
a(I96
I146
tp2217
asg17
I200
sba(imain2
Polygon
p2218
(dp2219
g3
(I3
I120
tp2220
sg5
I200
sg6
(I62
I87
I145
I90
tp2221
sg8
(lp2222
(I0
I86
tp2223
a(I0
I74
tp2224
a(I0
I159
tp2225
a(I0
I109
tp2226
a(I43
I80
tp2227
asg17
I200
sba(imain2
Polygon
p2228
(dp2229
g3
(I7
I32
tp2230
sg5
I200
sg6
(I148
I30
I185
I1
tp2231
sg8
(lp2232
(I0
I45
tp2233
a(I0
I27
tp2234
a(I0
I0
tp2235
a(I8
I32
tp2236
a(I0
I17
tp2237
a(I27
I38
tp2238
a(I0
I62
tp2239
a(I0
I49
tp2240
a(I0
I15
tp2241
a(I0
I75
tp2242
a(I56
I76
tp2243
a(I0
I7
tp2244
a(I0
I0
tp2245
asg17
I200
sba(imain2
Polygon
p2246
(dp2247
g3
(I166
I95
tp2248
sg5
I200
sg6
(I185
I1
I141
I143
tp2249
sg8
(lp2250
(I192
I50
tp2251
a(I200
I127
tp2252
a(I200
I60
tp2253
asg17
I200
sba(imain2
Polygon
p2254
(dp2255
g3
(I197
I92
tp2256
sg5
I200
sg6
(I116
I6
I30
I0
tp2257
sg8
(lp2258
(I154
I60
tp2259
a(I200
I65
tp2260
a(I200
I70
tp2261
a(I155
I138
tp2262
a(I158
I100
tp2263
a(I147
I82
tp2264
a(I200
I78
tp2265
a(I200
I131
tp2266
a(I187
I130
tp2267
a(I154
I82
tp2268
a(I155
I44
tp2269
a(I197
I58
tp2270
a(I147
I62
tp2271
a(I176
I122
tp2272
asg17
I200
sba(imain2
Polygon
p2273
(dp2274
g3
(I167
I132
tp2275
sg5
I200
sg6
(I220
I55
I85
I1
tp2276
sg8
(lp2277
(I166
I121
tp2278
a(I157
I116
tp2279
a(I169
I137
tp2280
a(I134
I127
tp2281
a(I199
I86
tp2282
a(I197
I112
tp2283
a(I198
I133
tp2284
a(I175
I142
tp2285
a(I117
I113
tp2286
a(I178
I149
tp2287
a(I136
I156
tp2288
a(I132
I168
tp2289
a(I138
I92
tp2290
a(I132
I148
tp2291
asg17
I200
sba(imain2
Polygon
p2292
(dp2293
g3
(I2
I175
tp2294
sg5
I200
sg6
(I101
I198
I106
I1
tp2295
sg8
(lp2296
(I34
I200
tp2297
a(I4
I200
tp2298
a(I28
I126
tp2299
asg17
I200
sba(imain2
Polygon
p2300
(dp2301
g3
(I148
I121
tp2302
sg5
I200
sg6
(I127
I195
I132
I20
tp2303
sg8
(lp2304
(I120
I135
tp2305
a(I118
I71
tp2306
a(I101
I103
tp2307
asg17
I200
sba(imain2
Polygon
p2308
(dp2309
g3
(I26
I154
tp2310
sg5
I200
sg6
(I140
I62
I224
I27
tp2311
sg8
(lp2312
(I52
I148
tp2313
a(I0
I196
tp2314
a(I20
I155
tp2315
asg17
I200
sba(imain2
Polygon
p2316
(dp2317
g3
(I188
I60
tp2318
sg5
I200
sg6
(I21
I75
I8
I46
tp2319
sg8
(lp2320
(I148
I100
tp2321
a(I139
I27
tp2322
a(I200
I98
tp2323
a(I200
I21
tp2324
a(I200
I63
tp2325
a(I200
I22
tp2326
a(I200
I105
tp2327
asg17
I200
sba(imain2
Polygon
p2328
(dp2329
g3
(I29
I0
tp2330
sg5
I200
sg6
(I200
I201
I8
I85
tp2331
sg8
(lp2332
(I29
I0
tp2333
a(I0
I0
tp2334
a(I50
I36
tp2335
a(I45
I18
tp2336
a(I61
I0
tp2337
a(I0
I0
tp2338
a(I0
I50
tp2339
a(I70
I50
tp2340
a(I0
I0
tp2341
a(I0
I0
tp2342
a(I77
I0
tp2343
a(I74
I14
tp2344
a(I36
I44
tp2345
a(I58
I0
tp2346
a(I74
I0
tp2347
a(I5
I0
tp2348
asg17
I200
sba(imain2
Polygon
p2349
(dp2350
g3
(I92
I198
tp2351
sg5
I200
sg6
(I138
I2
I12
I57
tp2352
sg8
(lp2353
(I96
I170
tp2354
a(I67
I151
tp2355
a(I90
I200
tp2356
a(I122
I155
tp2357
a(I99
I200
tp2358
a(I73
I181
tp2359
a(I108
I179
tp2360
asg17
I200
sba(imain2
Polygon
p2361
(dp2362
g3
(I149
I42
tp2363
sg5
I200
sg6
(I90
I12
I52
I52
tp2364
sg8
(lp2365
(I99
I9
tp2366
a(I127
I88
tp2367
a(I167
I91
tp2368
a(I167
I66
tp2369
a(I135
I17
tp2370
a(I145
I8
tp2371
a(I113
I48
tp2372
a(I150
I53
tp2373
asg17
I200
sba(imain2
Polygon
p2374
(dp2375
g3
(I18
I189
tp2376
sg5
I200
sg6
(I70
I6
I170
I1
tp2377
sg8
(lp2378
(I0
I200
tp2379
a(I36
I189
tp2380
a(I61
I197
tp2381
a(I12
I200
tp2382
a(I0
I200
tp2383
a(I5
I167
tp2384
a(I59
I181
tp2385
a(I13
I200
tp2386
a(I8
I170
tp2387
a(I40
I174
tp2388
a(I68
I200
tp2389
a(I56
I183
tp2390
a(I0
I162
tp2391
a(I19
I163
tp2392
a(I0
I178
tp2393
asg17
I200
sba(imain2
Polygon
p2394
(dp2395
g3
(I88
I199
tp2396
sg5
I200
sg6
(I15
I199
I77
I72
tp2397
sg8
(lp2398
(I40
I200
tp2399
a(I39
I200
tp2400
a(I108
I200
tp2401
a(I46
I200
tp2402
a(I126
I200
tp2403
a(I62
I200
tp2404
a(I70
I200
tp2405
a(I39
I200
tp2406
a(I84
I200
tp2407
asg17
I200
sba(imain2
Polygon
p2408
(dp2409
g3
(I57
I178
tp2410
sg5
I200
sg6
(I19
I117
I163
I1
tp2411
sg8
(lp2412
(I54
I200
tp2413
a(I21
I164
tp2414
a(I14
I171
tp2415
a(I47
I135
tp2416
a(I105
I163
tp2417
asg17
I200
sba(imain2
Polygon
p2418
(dp2419
g3
(I192
I63
tp2420
sg5
I200
sg6
(I115
I239
I124
I106
tp2421
sg8
(lp2422
(I200
I102
tp2423
a(I200
I19
tp2424
a(I200
I19
tp2425
a(I169
I43
tp2426
a(I142
I25
tp2427
a(I200
I102
tp2428
a(I161
I50
tp2429
a(I175
I96
tp2430
a(I200
I41
tp2431
a(I181
I96
tp2432
asg17
I200
sba(imain2
Polygon
p2433
(dp2434
g3
(I115
I149
tp2435
sg5
I200
sg6
(I104
I195
I238
I0
tp2436
sg8
(lp2437
(I118
I155
tp2438
a(I138
I198
tp2439
a(I102
I100
tp2440
a(I125
I181
tp2441
a(I129
I132
tp2442
a(I84
I110
tp2443
a(I68
I102
tp2444
a(I85
I145
tp2445
a(I77
I169
tp2446
a(I130
I139
tp2447
asg17
I200
sba(imain2
Polygon
p2448
(dp2449
g3
(I89
I107
tp2450
sg5
I200
sg6
(I30
I9
I110
I96
tp2451
sg8
(lp2452
(I137
I85
tp2453
a(I127
I58
tp2454
a(I139
I80
tp2455
asg17
I200
sba(imain2
Polygon
p2456
(dp2457
g3
(I87
I130
tp2458
sg5
I200
sg6
(I167
I110
I147
I0
tp2459
sg8
(lp2460
(I42
I113
tp2461
a(I49
I92
tp2462
a(I69
I137
tp2463
a(I111
I140
tp2464
a(I96
I151
tp2465
a(I132
I117
tp2466
a(I132
I175
tp2467
a(I91
I179
tp2468
a(I53
I89
tp2469
asg17
I200
sba(imain2
Polygon
p2470
(dp2471
g3
(I62
I187
tp2472
sg5
I200
sg6
(I112
I14
I175
I52
tp2473
sg8
(lp2474
(I22
I200
tp2475
a(I110
I200
tp2476
a(I38
I200
tp2477
a(I77
I200
tp2478
a(I98
I200
tp2479
a(I71
I196
tp2480
a(I71
I200
tp2481
a(I13
I197
tp2482
a(I69
I200
tp2483
a(I45
I197
tp2484
a(I72
I200
tp2485
asg17
I200
sba(imain2
Polygon
p2486
(dp2487
g3
(I59
I26
tp2488
sg5
I200
sg6
(I57
I3
I237
I0
tp2489
sg8
(lp2490
(I26
I72
tp2491
a(I103
I17
tp2492
a(I81
I0
tp2493
a(I76
I0
tp2494
a(I104
I10
tp2495
a(I79
I61
tp2496
a(I80
I5
tp2497
a(I41
I24
tp2498
asg17
I200
sba(imain2
Polygon
p2499
(dp2500
g3
(I74
I59
tp2501
sg5
I200
sg6
(I1
I47
I103
I0
tp2502
sg8
(lp2503
(I84
I47
tp2504
a(I36
I36
tp2505
a(I99
I13
tp2506
a(I97
I62
tp2507
a(I79
I79
tp2508
a(I120
I40
tp2509
a(I39
I17
tp2510
a(I27
I50
tp2511
a(I58
I60
tp2512
a(I44
I35
tp2513
asg17
I200
sba(imain2
Polygon
p2514
(dp2515
g3
(I141
I175
tp2516
sg5
I200
sg6
(I87
I37
I8
I1
tp2517
sg8
(lp2518
(I169
I200
tp2519
a(I134
I138
tp2520
a(I119
I183
tp2521
a(I149
I186
tp2522
a(I115
I184
tp2523
a(I149
I162
tp2524
a(I131
I125
tp2525
a(I169
I161
tp2526
a(I160
I187
tp2527
a(I128
I200
tp2528
a(I160
I169
tp2529
a(I136
I145
tp2530
a(I137
I186
tp2531
a(I136
I165
tp2532
a(I143
I165
tp2533
a(I94
I176
tp2534
a(I103
I156
tp2535
a(I146
I197
tp2536
a(I167
I133
tp2537
asg17
I200
sba(imain2
Polygon
p2538
(dp2539
g3
(I114
I81
tp2540
sg5
I200
sg6
(I234
I16
I199
I70
tp2541
sg8
(lp2542
(I121
I101
tp2543
a(I81
I76
tp2544
a(I125
I101
tp2545
a(I121
I83
tp2546
asg17
I200
sba(imain2
Polygon
p2547
(dp2548
g3
(I191
I128
tp2549
sg5
I200
sg6
(I243
I3
I243
I6
tp2550
sg8
(lp2551
(I200
I162
tp2552
a(I144
I170
tp2553
a(I200
I89
tp2554
a(I200
I148
tp2555
a(I153
I103
tp2556
a(I147
I78
tp2557
a(I167
I95
tp2558
asg17
I200
sba(imain2
Polygon
p2559
(dp2560
g3
(I40
I13
tp2561
sg5
I200
sg6
(I69
I180
I117
I0
tp2562
sg8
(lp2563
(I87
I0
tp2564
a(I55
I33
tp2565
a(I62
I16
tp2566
a(I0
I0
tp2567
a(I84
I0
tp2568
a(I0
I0
tp2569
a(I29
I47
tp2570
a(I0
I0
tp2571
a(I67
I7
tp2572
a(I68
I27
tp2573
a(I75
I36
tp2574
a(I7
I27
tp2575
a(I0
I43
tp2576
a(I65
I44
tp2577
a(I76
I0
tp2578
a(I0
I0
tp2579
a(I40
I25
tp2580
a(I0
I0
tp2581
a(I27
I8
tp2582
a(I53
I0
tp2583
a(I12
I0
tp2584
asg17
I200
sba(imain2
Polygon
p2585
(dp2586
g3
(I50
I145
tp2587
sg5
I200
sg6
(I54
I210
I123
I12
tp2588
sg8
(lp2589
(I3
I96
tp2590
a(I87
I159
tp2591
a(I82
I95
tp2592
asg17
I200
sba(imain2
Polygon
p2593
(dp2594
g3
(I184
I69
tp2595
sg5
I200
sg6
(I121
I136
I35
I141
tp2596
sg8
(lp2597
(I200
I63
tp2598
a(I200
I31
tp2599
a(I200
I33
tp2600
a(I200
I67
tp2601
a(I164
I71
tp2602
a(I174
I114
tp2603
a(I200
I115
tp2604
a(I200
I101
tp2605
a(I195
I79
tp2606
asg17
I200
sba(imain2
Polygon
p2607
(dp2608
g3
(I6
I29
tp2609
sg5
I200
sg6
(I137
I34
I214
I1
tp2610
sg8
(lp2611
(I56
I14
tp2612
a(I42
I0
tp2613
a(I0
I41
tp2614
a(I0
I11
tp2615
a(I48
I0
tp2616
a(I28
I0
tp2617
asg17
I200
sba(imain2
Polygon
p2618
(dp2619
g3
(I100
I197
tp2620
sg5
I200
sg6
(I28
I135
I60
I69
tp2621
sg8
(lp2622
(I123
I200
tp2623
a(I79
I200
tp2624
a(I74
I200
tp2625
a(I130
I200
tp2626
a(I68
I200
tp2627
a(I62
I200
tp2628
a(I148
I200
tp2629
asg17
I200
sba(imain2
Polygon
p2630
(dp2631
g3
(I102
I67
tp2632
sg5
I200
sg6
(I107
I63
I86
I0
tp2633
sg8
(lp2634
(I136
I109
tp2635
a(I78
I100
tp2636
a(I144
I70
tp2637
a(I83
I63
tp2638
a(I116
I116
tp2639
a(I84
I99
tp2640
a(I85
I70
tp2641
asg17
I200
sba(imain2
Polygon
p2642
(dp2643
g3
(I91
I124
tp2644
sg5
I200
sg6
(I165
I66
I8
I107
tp2645
sg8
(lp2646
(I41
I114
tp2647
a(I80
I127
tp2648
a(I83
I75
tp2649
a(I119
I114
tp2650
a(I115
I160
tp2651
a(I45
I142
tp2652
a(I66
I81
tp2653
a(I119
I80
tp2654
a(I129
I117
tp2655
a(I81
I119
tp2656
a(I76
I76
tp2657
a(I54
I89
tp2658
a(I76
I94
tp2659
a(I51
I90
tp2660
asg17
I200
sba(imain2
Polygon
p2661
(dp2662
g3
(I133
I74
tp2663
sg5
I200
sg6
(I15
I173
I91
I1
tp2664
sg8
(lp2665
(I93
I104
tp2666
a(I116
I102
tp2667
a(I145
I99
tp2668
a(I157
I40
tp2669
a(I132
I33
tp2670
a(I106
I93
tp2671
a(I153
I122
tp2672
a(I137
I81
tp2673
a(I116
I66
tp2674
a(I90
I44
tp2675
a(I181
I26
tp2676
a(I134
I86
tp2677
a(I154
I71
tp2678
a(I166
I88
tp2679
a(I171
I56
tp2680
asg17
I200
sba(imain2
Polygon
p2681
(dp2682
g3
(I181
I185
tp2683
sg5
I200
sg6
(I0
I135
I60
I1
tp2684
sg8
(lp2685
(I192
I200
tp2686
a(I197
I153
tp2687
a(I200
I157
tp2688
asg17
I200
sba(imain2
Polygon
p2689
(dp2690
g3
(I3
I9
tp2691
sg5
I200
sg6
(I112
I13
I41
I110
tp2692
sg8
(lp2693
(I0
I0
tp2694
a(I49
I0
tp2695
a(I0
I0
tp2696
asg17
I200
sba(imain2
Polygon
p2697
(dp2698
g3
(I154
I22
tp2699
sg5
I200
sg6
(I80
I179
I129
I0
tp2700
sg8
(lp2701
(I198
I49
tp2702
a(I180
I27
tp2703
a(I193
I61
tp2704
a(I124
I56
tp2705
a(I149
I0
tp2706
asg17
I200
sba(imain2
Polygon
p2707
(dp2708
g3
(I3
I51
tp2709
sg5
I200
sg6
(I8
I164
I11
I25
tp2710
sg8
(lp2711
(I0
I63
tp2712
a(I0
I78
tp2713
a(I0
I34
tp2714
a(I0
I93
tp2715
asg17
I200
sba(imain2
Polygon
p2716
(dp2717
g3
(I183
I123
tp2718
sg5
I200
sg6
(I43
I171
I187
I88
tp2719
sg8
(lp2720
(I200
I171
tp2721
a(I200
I140
tp2722
a(I200
I152
tp2723
a(I200
I132
tp2724
asg17
I200
sba.