(lp0
(imain2
Polygon
p1
(dp2
S'origin'
p3
(I100
I102
tp4
sS'h'
p5
I200
sS'color'
p6
(I132
I172
I187
I1
tp7
sS'corner_list'
p8
(lp9
(I77
I128
tp10
a(I139
I81
tp11
a(I128
I109
tp12
a(I148
I118
tp13
a(I83
I86
tp14
a(I122
I57
tp15
asS'w'
p16
I200
sba(imain2
Polygon
p17
(dp18
g3
(I142
I122
tp19
sg5
I200
sg6
(I20
I220
I130
I24
tp20
sg8
(lp21
(I101
I108
tp22
a(I95
I104
tp23
a(I106
I160
tp24
a(I149
I145
tp25
a(I109
I157
tp26
a(I109
I92
tp27
a(I119
I85
tp28
a(I188
I130
tp29
a(I164
I94
tp30
a(I192
I113
tp31
a(I136
I104
tp32
a(I134
I86
tp33
a(I102
I138
tp34
asg16
I200
sba(imain2
Polygon
p35
(dp36
g3
(I39
I24
tp37
sg5
I200
sg6
(I239
I162
I198
I1
tp38
sg8
(lp39
(I58
I0
tp40
a(I0
I71
tp41
a(I43
I65
tp42
a(I50
I25
tp43
asg16
I200
sba(imain2
Polygon
p44
(dp45
g3
(I87
I73
tp46
sg5
I200
sg6
(I159
I16
I197
I84
tp47
sg8
(lp48
(I108
I101
tp49
a(I74
I69
tp50
a(I82
I102
tp51
a(I62
I79
tp52
a(I68
I47
tp53
a(I56
I110
tp54
a(I92
I70
tp55
a(I63
I114
tp56
a(I47
I56
tp57
a(I77
I37
tp58
a(I131
I68
tp59
a(I127
I68
tp60
a(I69
I107
tp61
a(I80
I99
tp62
a(I53
I119
tp63
asg16
I200
sba(imain2
Polygon
p64
(dp65
g3
(I75
I185
tp66
sg5
I200
sg6
(I70
I1
I88
I75
tp67
sg8
(lp68
(I84
I199
tp69
a(I125
I163
tp70
a(I123
I140
tp71
a(I120
I200
tp72
a(I117
I200
tp73
a(I68
I195
tp74
a(I98
I174
tp75
a(I100
I200
tp76
asg16
I200
sba(imain2
Polygon
p77
(dp78
g3
(I51
I161
tp79
sg5
I200
sg6
(I130
I131
I12
I88
tp80
sg8
(lp81
(I86
I200
tp82
a(I55
I200
tp83
a(I96
I190
tp84
a(I67
I140
tp85
a(I76
I152
tp86
asg16
I200
sba(imain2
Polygon
p87
(dp88
g3
(I76
I107
tp89
sg5
I200
sg6
(I158
I37
I202
I106
tp90
sg8
(lp91
(I113
I136
tp92
a(I40
I71
tp93
a(I56
I71
tp94
a(I55
I67
tp95
a(I115
I57
tp96
a(I107
I154
tp97
a(I53
I141
tp98
a(I48
I92
tp99
a(I101
I62
tp100
a(I75
I123
tp101
a(I89
I148
tp102
a(I87
I117
tp103
asg16
I200
sba(imain2
Polygon
p104
(dp105
g3
(I79
I45
tp106
sg5
I200
sg6
(I221
I1
I239
I1
tp107
sg8
(lp108
(I93
I67
tp109
a(I121
I88
tp110
a(I37
I47
tp111
a(I70
I64
tp112
a(I88
I9
tp113
asg16
I200
sba(imain2
Polygon
p114
(dp115
g3
(I123
I186
tp116
sg5
I200
sg6
(I45
I14
I42
I0
tp117
sg8
(lp118
(I155
I200
tp119
a(I119
I194
tp120
a(I86
I200
tp121
asg16
I200
sba(imain2
Polygon
p122
(dp123
g3
(I74
I162
tp124
sg5
I200
sg6
(I152
I92
I211
I1
tp125
sg8
(lp126
(I111
I187
tp127
a(I28
I142
tp128
a(I74
I188
tp129
a(I60
I138
tp130
a(I124
I140
tp131
a(I43
I200
tp132
a(I54
I193
tp133
a(I62
I188
tp134
a(I124
I196
tp135
a(I110
I141
tp136
a(I120
I166
tp137
asg16
I200
sba(imain2
Polygon
p138
(dp139
g3
(I64
I120
tp140
sg5
I200
sg6
(I232
I39
I170
I1
tp141
sg8
(lp142
(I71
I131
tp143
a(I100
I116
tp144
a(I92
I111
tp145
asg16
I200
sba(imain2
Polygon
p146
(dp147
g3
(I2
I37
tp148
sg5
I200
sg6
(I134
I133
I101
I107
tp149
sg8
(lp150
(I0
I0
tp151
a(I45
I3
tp152
a(I4
I47
tp153
a(I20
I35
tp154
a(I0
I66
tp155
a(I41
I3
tp156
a(I36
I68
tp157
a(I21
I15
tp158
a(I39
I86
tp159
a(I0
I85
tp160
a(I0
I9
tp161
a(I0
I87
tp162
asg16
I200
sba(imain2
Polygon
p163
(dp164
g3
(I161
I116
tp165
sg5
I200
sg6
(I150
I91
I113
I46
tp166
sg8
(lp167
(I191
I88
tp168
a(I181
I70
tp169
a(I168
I90
tp170
a(I170
I71
tp171
a(I163
I108
tp172
a(I198
I163
tp173
a(I182
I147
tp174
a(I200
I152
tp175
asg16
I200
sba(imain2
Polygon
p176
(dp177
g3
(I171
I44
tp178
sg5
I200
sg6
(I130
I233
I104
I107
tp179
sg8
(lp180
(I151
I30
tp181
a(I157
I22
tp182
a(I200
I89
tp183
a(I200
I0
tp184
a(I132
I0
tp185
a(I134
I21
tp186
a(I199
I85
tp187
a(I161
I77
tp188
a(I200
I93
tp189
a(I143
I0
tp190
a(I170
I71
tp191
a(I173
I79
tp192
a(I159
I42
tp193
asg16
I200
sba(imain2
Polygon
p194
(dp195
g3
(I196
I163
tp196
sg5
I200
sg6
(I37
I166
I6
I16
tp197
sg8
(lp198
(I195
I117
tp199
a(I200
I197
tp200
a(I200
I191
tp201
a(I200
I134
tp202
a(I193
I170
tp203
a(I200
I141
tp204
a(I155
I170
tp205
a(I200
I182
tp206
a(I200
I148
tp207
a(I152
I136
tp208
a(I170
I173
tp209
a(I166
I156
tp210
a(I191
I200
tp211
asg16
I200
sba(imain2
Polygon
p212
(dp213
g3
(I123
I35
tp214
sg5
I200
sg6
(I142
I60
I71
I1
tp215
sg8
(lp216
(I73
I77
tp217
a(I139
I1
tp218
a(I102
I82
tp219
a(I158
I15
tp220
a(I90
I72
tp221
a(I140
I0
tp222
a(I121
I80
tp223
a(I99
I62
tp224
asg16
I200
sba(imain2
Polygon
p225
(dp226
g3
(I38
I152
tp227
sg5
I200
sg6
(I92
I164
I32
I126
tp228
sg8
(lp229
(I87
I136
tp230
a(I53
I103
tp231
a(I49
I126
tp232
a(I73
I158
tp233
asg16
I200
sba(imain2
Polygon
p234
(dp235
g3
(I118
I157
tp236
sg5
I200
sg6
(I85
I62
I42
I0
tp237
sg8
(lp238
(I133
I198
tp239
a(I115
I173
tp240
a(I168
I133
tp241
a(I160
I116
tp242
a(I154
I175
tp243
asg16
I200
sba(imain2
Polygon
p244
(dp245
g3
(I10
I175
tp246
sg5
I200
sg6
(I174
I52
I58
I9
tp247
sg8
(lp248
(I0
I141
tp249
a(I0
I148
tp250
a(I0
I200
tp251
a(I45
I192
tp252
a(I54
I200
tp253
asg16
I200
sba(imain2
Polygon
p254
(dp255
g3
(I4
I131
tp256
sg5
I200
sg6
(I120
I51
I61
I0
tp257
sg8
(lp258
(I35
I93
tp259
a(I2
I88
tp260
a(I0
I173
tp261
a(I0
I134
tp262
a(I0
I145
tp263
a(I18
I159
tp264
a(I0
I176
tp265
a(I0
I159
tp266
a(I19
I89
tp267
a(I0
I108
tp268
a(I32
I131
tp269
a(I0
I92
tp270
a(I0
I87
tp271
asg16
I200
sba(imain2
Polygon
p272
(dp273
g3
(I75
I51
tp274
sg5
I200
sg6
(I101
I195
I0
I5
tp275
sg8
(lp276
(I73
I93
tp277
a(I28
I87
tp278
a(I34
I7
tp279
a(I105
I56
tp280
a(I123
I15
tp281
asg16
I200
sba(imain2
Polygon
p282
(dp283
g3
(I18
I101
tp284
sg5
I200
sg6
(I0
I11
I65
I39
tp285
sg8
(lp286
(I56
I62
tp287
a(I15
I116
tp288
a(I6
I66
tp289
a(I5
I78
tp290
a(I50
I149
tp291
a(I0
I111
tp292
a(I45
I64
tp293
asg16
I200
sba(imain2
Polygon
p294
(dp295
g3
(I97
I199
tp296
sg5
I200
sg6
(I0
I105
I44
I101
tp297
sg8
(lp298
(I91
I200
tp299
a(I134
I200
tp300
a(I135
I171
tp301
a(I78
I156
tp302
a(I97
I158
tp303
a(I127
I200
tp304
a(I118
I173
tp305
a(I87
I171
tp306
a(I99
I160
tp307
a(I95
I152
tp308
a(I75
I200
tp309
a(I82
I188
tp310
asg16
I200
sba(imain2
Polygon
p311
(dp312
g3
(I102
I104
tp313
sg5
I200
sg6
(I219
I121
I126
I61
tp314
sg8
(lp315
(I105
I151
tp316
a(I126
I71
tp317
a(I59
I58
tp318
a(I57
I131
tp319
a(I74
I153
tp320
asg16
I200
sba(imain2
Polygon
p321
(dp322
g3
(I177
I176
tp323
sg5
I200
sg6
(I111
I206
I213
I39
tp324
sg8
(lp325
(I200
I138
tp326
a(I167
I145
tp327
a(I200
I200
tp328
a(I200
I169
tp329
asg16
I200
sba(imain2
Polygon
p330
(dp331
g3
(I99
I27
tp332
sg5
I200
sg6
(I71
I83
I0
I101
tp333
sg8
(lp334
(I143
I0
tp335
a(I53
I0
tp336
a(I97
I73
tp337
a(I139
I50
tp338
a(I73
I29
tp339
a(I149
I10
tp340
asg16
I200
sba(imain2
Polygon
p341
(dp342
g3
(I138
I156
tp343
sg5
I200
sg6
(I16
I56
I186
I1
tp344
sg8
(lp345
(I150
I181
tp346
a(I104
I133
tp347
a(I111
I148
tp348
a(I101
I146
tp349
asg16
I200
sba(imain2
Polygon
p350
(dp351
g3
(I100
I129
tp352
sg5
I200
sg6
(I113
I214
I219
I0
tp353
sg8
(lp354
(I93
I100
tp355
a(I77
I153
tp356
a(I66
I171
tp357
a(I97
I125
tp358
a(I67
I109
tp359
asg16
I200
sba(imain2
Polygon
p360
(dp361
g3
(I90
I2
tp362
sg5
I200
sg6
(I193
I194
I1
I1
tp363
sg8
(lp364
(I91
I29
tp365
a(I109
I0
tp366
a(I88
I0
tp367
a(I82
I20
tp368
a(I90
I51
tp369
a(I65
I45
tp370
a(I106
I0
tp371
a(I54
I32
tp372
a(I56
I1
tp373
a(I52
I0
tp374
a(I119
I0
tp375
asg16
I200
sba(imain2
Polygon
p376
(dp377
g3
(I76
I49
tp378
sg5
I200
sg6
(I245
I163
I175
I94
tp379
sg8
(lp380
(I52
I54
tp381
a(I62
I34
tp382
a(I99
I36
tp383
a(I124
I78
tp384
a(I91
I88
tp385
a(I47
I82
tp386
asg16
I200
sba(imain2
Polygon
p387
(dp388
g3
(I135
I193
tp389
sg5
I200
sg6
(I199
I198
I62
I1
tp390
sg8
(lp391
(I131
I160
tp392
a(I98
I200
tp393
a(I87
I200
tp394
a(I91
I200
tp395
a(I178
I191
tp396
a(I174
I190
tp397
a(I129
I171
tp398
a(I149
I200
tp399
a(I181
I168
tp400
asg16
I200
sba(imain2
Polygon
p401
(dp402
g3
(I156
I197
tp403
sg5
I200
sg6
(I78
I232
I78
I0
tp404
sg8
(lp405
(I182
I200
tp406
a(I198
I200
tp407
a(I152
I200
tp408
a(I108
I171
tp409
a(I189
I188
tp410
asg16
I200
sba(imain2
Polygon
p411
(dp412
g3
(I159
I95
tp413
sg5
I200
sg6
(I159
I19
I13
I1
tp414
sg8
(lp415
(I196
I80
tp416
a(I135
I57
tp417
a(I114
I45
tp418
a(I184
I46
tp419
a(I184
I145
tp420
a(I154
I110
tp421
a(I154
I96
tp422
a(I171
I87
tp423
a(I136
I123
tp424
asg16
I200
sba(imain2
Polygon
p425
(dp426
g3
(I130
I187
tp427
sg5
I200
sg6
(I177
I73
I86
I65
tp428
sg8
(lp429
(I138
I200
tp430
a(I161
I187
tp431
a(I161
I161
tp432
a(I168
I192
tp433
a(I164
I200
tp434
a(I97
I159
tp435
a(I90
I200
tp436
asg16
I200
sba(imain2
Polygon
p437
(dp438
g3
(I56
I194
tp439
sg5
I200
sg6
(I191
I171
I1
I29
tp440
sg8
(lp441
(I99
I158
tp442
a(I59
I200
tp443
a(I15
I171
tp444
a(I36
I176
tp445
a(I24
I145
tp446
a(I7
I195
tp447
a(I6
I200
tp448
a(I13
I151
tp449
a(I20
I200
tp450
a(I102
I200
tp451
a(I101
I170
tp452
a(I70
I200
tp453
asg16
I200
sba(imain2
Polygon
p454
(dp455
g3
(I180
I160
tp456
sg5
I200
sg6
(I28
I39
I107
I44
tp457
sg8
(lp458
(I160
I132
tp459
a(I175
I200
tp460
a(I200
I200
tp461
a(I159
I131
tp462
a(I200
I133
tp463
a(I200
I161
tp464
a(I200
I118
tp465
a(I161
I136
tp466
a(I200
I128
tp467
a(I200
I139
tp468
a(I200
I197
tp469
asg16
I200
sba(imain2
Polygon
p470
(dp471
g3
(I12
I87
tp472
sg5
I200
sg6
(I47
I129
I180
I1
tp473
sg8
(lp474
(I0
I54
tp475
a(I20
I73
tp476
a(I0
I107
tp477
a(I0
I136
tp478
asg16
I200
sba(imain2
Polygon
p479
(dp480
g3
(I123
I91
tp481
sg5
I200
sg6
(I229
I0
I184
I50
tp482
sg8
(lp483
(I93
I69
tp484
a(I99
I140
tp485
a(I88
I106
tp486
a(I77
I123
tp487
a(I134
I104
tp488
a(I92
I73
tp489
asg16
I200
sba(imain2
Polygon
p490
(dp491
g3
(I80
I122
tp492
sg5
I200
sg6
(I220
I175
I138
I71
tp493
sg8
(lp494
(I116
I143
tp495
a(I129
I85
tp496
a(I44
I101
tp497
a(I65
I159
tp498
a(I98
I155
tp499
asg16
I200
sba(imain2
Polygon
p500
(dp501
g3
(I119
I156
tp502
sg5
I200
sg6
(I125
I213
I195
I44
tp503
sg8
(lp504
(I96
I178
tp505
a(I141
I200
tp506
a(I103
I123
tp507
a(I90
I178
tp508
a(I70
I199
tp509
a(I133
I200
tp510
a(I69
I119
tp511
a(I102
I114
tp512
a(I114
I170
tp513
a(I88
I157
tp514
asg16
I200
sba(imain2
Polygon
p515
(dp516
g3
(I66
I96
tp517
sg5
I200
sg6
(I106
I72
I64
I88
tp518
sg8
(lp519
(I24
I133
tp520
a(I20
I88
tp521
a(I59
I80
tp522
a(I72
I129
tp523
a(I100
I145
tp524
a(I30
I82
tp525
a(I36
I114
tp526
asg16
I200
sba(imain2
Polygon
p527
(dp528
g3
(I17
I178
tp529
sg5
I200
sg6
(I81
I63
I10
I1
tp530
sg8
(lp531
(I0
I130
tp532
a(I0
I174
tp533
a(I21
I149
tp534
a(I20
I150
tp535
a(I0
I128
tp536
a(I49
I135
tp537
a(I45
I141
tp538
a(I63
I188
tp539
a(I0
I180
tp540
asg16
I200
sba(imain2
Polygon
p541
(dp542
g3
(I196
I157
tp543
sg5
I200
sg6
(I26
I207
I67
I0
tp544
sg8
(lp545
(I147
I199
tp546
a(I200
I112
tp547
a(I200
I131
tp548
a(I195
I135
tp549
a(I200
I158
tp550
a(I200
I177
tp551
a(I147
I107
tp552
a(I165
I144
tp553
a(I200
I113
tp554
a(I200
I173
tp555
a(I200
I143
tp556
a(I186
I200
tp557
a(I200
I151
tp558
a(I200
I195
tp559
a(I161
I119
tp560
a(I200
I151
tp561
a(I200
I135
tp562
a(I158
I128
tp563
asg16
I200
sba(imain2
Polygon
p564
(dp565
g3
(I7
I138
tp566
sg5
I200
sg6
(I208
I109
I8
I1
tp567
sg8
(lp568
(I0
I174
tp569
a(I0
I103
tp570
a(I0
I109
tp571
a(I43
I88
tp572
a(I0
I158
tp573
a(I0
I88
tp574
a(I48
I161
tp575
a(I0
I109
tp576
a(I0
I157
tp577
a(I0
I147
tp578
a(I21
I180
tp579
a(I0
I102
tp580
a(I24
I89
tp581
a(I41
I89
tp582
asg16
I200
sba(imain2
Polygon
p583
(dp584
g3
(I49
I75
tp585
sg5
I200
sg6
(I117
I227
I9
I19
tp586
sg8
(lp587
(I97
I31
tp588
a(I96
I95
tp589
a(I60
I123
tp590
a(I28
I81
tp591
a(I35
I74
tp592
a(I91
I46
tp593
a(I35
I64
tp594
a(I75
I88
tp595
a(I0
I118
tp596
a(I3
I64
tp597
a(I8
I49
tp598
a(I41
I49
tp599
a(I53
I73
tp600
a(I77
I48
tp601
a(I41
I61
tp602
a(I63
I36
tp603
a(I7
I38
tp604
a(I35
I36
tp605
asg16
I200
sba(imain2
Polygon
p606
(dp607
g3
(I75
I73
tp608
sg5
I200
sg6
(I161
I134
I134
I133
tp609
sg8
(lp610
(I108
I39
tp611
a(I123
I118
tp612
a(I47
I117
tp613
a(I62
I34
tp614
asg16
I200
sba(imain2
Polygon
p615
(dp616
g3
(I82
I103
tp617
sg5
I200
sg6
(I94
I95
I57
I0
tp618
sg8
(lp619
(I123
I116
tp620
a(I83
I145
tp621
a(I53
I131
tp622
a(I124
I68
tp623
a(I71
I103
tp624
a(I67
I133
tp625
a(I98
I99
tp626
a(I124
I151
tp627
a(I97
I112
tp628
a(I79
I66
tp629
a(I39
I61
tp630
a(I43
I63
tp631
a(I41
I99
tp632
a(I132
I75
tp633
a(I128
I131
tp634
a(I98
I78
tp635
a(I91
I128
tp636
a(I55
I149
tp637
asg16
I200
sba(imain2
Polygon
p638
(dp639
g3
(I126
I26
tp640
sg5
I200
sg6
(I237
I182
I126
I103
tp641
sg8
(lp642
(I138
I12
tp643
a(I148
I21
tp644
a(I124
I16
tp645
a(I83
I10
tp646
a(I77
I0
tp647
a(I162
I0
tp648
a(I176
I38
tp649
a(I168
I75
tp650
asg16
I200
sba(imain2
Polygon
p651
(dp652
g3
(I128
I23
tp653
sg5
I200
sg6
(I105
I0
I83
I0
tp654
sg8
(lp655
(I125
I0
tp656
a(I97
I3
tp657
a(I166
I29
tp658
a(I154
I0
tp659
a(I124
I60
tp660
a(I104
I32
tp661
a(I100
I9
tp662
a(I116
I0
tp663
a(I84
I17
tp664
a(I157
I34
tp665
a(I144
I0
tp666
a(I110
I58
tp667
a(I162
I57
tp668
a(I107
I22
tp669
asg16
I200
sba(imain2
Polygon
p670
(dp671
g3
(I147
I59
tp672
sg5
I200
sg6
(I1
I240
I188
I59
tp673
sg8
(lp674
(I191
I38
tp675
a(I155
I19
tp676
a(I190
I84
tp677
asg16
I200
sba(imain2
Polygon
p678
(dp679
g3
(I105
I192
tp680
sg5
I200
sg6
(I176
I19
I173
I0
tp681
sg8
(lp682
(I150
I178
tp683
a(I68
I169
tp684
a(I149
I158
tp685
a(I109
I200
tp686
asg16
I200
sba(imain2
Polygon
p687
(dp688
g3
(I144
I60
tp689
sg5
I200
sg6
(I58
I232
I7
I1
tp690
sg8
(lp691
(I100
I77
tp692
a(I157
I97
tp693
a(I135
I99
tp694
a(I135
I106
tp695
a(I122
I34
tp696
a(I180
I75
tp697
a(I143
I104
tp698
a(I114
I17
tp699
asg16
I200
sba(imain2
Polygon
p700
(dp701
g3
(I177
I86
tp702
sg5
I200
sg6
(I168
I32
I15
I1
tp703
sg8
(lp704
(I179
I46
tp705
a(I137
I49
tp706
a(I199
I65
tp707
a(I167
I118
tp708
a(I200
I65
tp709
a(I141
I67
tp710
a(I139
I126
tp711
a(I143
I108
tp712
a(I158
I58
tp713
asg16
I200
sba(imain2
Polygon
p714
(dp715
g3
(I157
I117
tp716
sg5
I200
sg6
(I42
I28
I0
I51
tp717
sg8
(lp718
(I187
I153
tp719
a(I200
I147
tp720
a(I128
I75
tp721
a(I191
I152
tp722
a(I140
I84
tp723
a(I183
I145
tp724
a(I198
I87
tp725
a(I200
I166
tp726
a(I132
I108
tp727
a(I107
I95
tp728
asg16
I200
sba(imain2
Polygon
p729
(dp730
g3
(I155
I192
tp731
sg5
I200
sg6
(I1
I33
I194
I1
tp732
sg8
(lp733
(I200
I165
tp734
a(I192
I163
tp735
a(I128
I195
tp736
a(I132
I200
tp737
a(I175
I200
tp738
a(I178
I193
tp739
a(I110
I173
tp740
a(I153
I200
tp741
a(I155
I187
tp742
a(I194
I181
tp743
a(I158
I185
tp744
a(I167
I175
tp745
asg16
I200
sba(imain2
Polygon
p746
(dp747
g3
(I103
I158
tp748
sg5
I200
sg6
(I12
I44
I118
I54
tp749
sg8
(lp750
(I107
I154
tp751
a(I72
I200
tp752
a(I127
I113
tp753
a(I98
I169
tp754
a(I111
I126
tp755
a(I131
I117
tp756
a(I66
I200
tp757
a(I96
I148
tp758
a(I71
I172
tp759
asg16
I200
sba(imain2
Polygon
p760
(dp761
g3
(I9
I151
tp762
sg5
I200
sg6
(I120
I83
I56
I31
tp763
sg8
(lp764
(I0
I194
tp765
a(I0
I173
tp766
a(I0
I126
tp767
a(I14
I129
tp768
a(I0
I157
tp769
a(I12
I200
tp770
a(I44
I122
tp771
a(I0
I159
tp772
a(I28
I192
tp773
asg16
I200
sba(imain2
Polygon
p774
(dp775
g3
(I114
I115
tp776
sg5
I200
sg6
(I165
I156
I137
I0
tp777
sg8
(lp778
(I136
I133
tp779
a(I156
I103
tp780
a(I64
I113
tp781
a(I76
I151
tp782
a(I75
I83
tp783
a(I144
I106
tp784
a(I99
I110
tp785
asg16
I200
sba(imain2
Polygon
p786
(dp787
g3
(I114
I99
tp788
sg5
I200
sg6
(I60
I240
I6
I42
tp789
sg8
(lp790
(I128
I108
tp791
a(I104
I71
tp792
a(I68
I97
tp793
a(I85
I70
tp794
a(I72
I108
tp795
a(I117
I58
tp796
a(I70
I56
tp797
a(I109
I134
tp798
a(I103
I135
tp799
a(I69
I62
tp800
a(I139
I67
tp801
a(I84
I133
tp802
asg16
I200
sba(imain2
Polygon
p803
(dp804
g3
(I173
I62
tp805
sg5
I200
sg6
(I1
I40
I167
I93
tp806
sg8
(lp807
(I200
I82
tp808
a(I200
I84
tp809
a(I168
I49
tp810
a(I179
I16
tp811
a(I167
I67
tp812
asg16
I200
sba(imain2
Polygon
p813
(dp814
g3
(I199
I171
tp815
sg5
I200
sg6
(I1
I233
I13
I19
tp816
sg8
(lp817
(I200
I164
tp818
a(I200
I174
tp819
a(I162
I194
tp820
asg16
I200
sba(imain2
Polygon
p821
(dp822
g3
(I195
I126
tp823
sg5
I200
sg6
(I210
I215
I27
I0
tp824
sg8
(lp825
(I200
I155
tp826
a(I200
I175
tp827
a(I172
I118
tp828
a(I200
I164
tp829
a(I200
I93
tp830
a(I200
I82
tp831
a(I175
I79
tp832
a(I200
I91
tp833
a(I154
I148
tp834
a(I170
I107
tp835
a(I183
I169
tp836
a(I199
I106
tp837
a(I200
I123
tp838
a(I200
I117
tp839
a(I200
I143
tp840
a(I200
I156
tp841
a(I200
I156
tp842
asg16
I200
sba(imain2
Polygon
p843
(dp844
g3
(I51
I190
tp845
sg5
I200
sg6
(I124
I172
I99
I54
tp846
sg8
(lp847
(I63
I200
tp848
a(I57
I200
tp849
a(I86
I200
tp850
a(I60
I200
tp851
a(I96
I168
tp852
a(I97
I200
tp853
a(I14
I192
tp854
a(I88
I200
tp855
asg16
I200
sba(imain2
Polygon
p856
(dp857
g3
(I200
I5
tp858
sg5
I200
sg6
(I187
I107
I44
I1
tp859
sg8
(lp860
(I200
I50
tp861
a(I200
I17
tp862
a(I200
I0
tp863
a(I196
I26
tp864
a(I171
I11
tp865
a(I163
I0
tp866
a(I150
I43
tp867
a(I186
I29
tp868
a(I200
I0
tp869
a(I186
I38
tp870
asg16
I200
sba(imain2
Polygon
p871
(dp872
g3
(I147
I166
tp873
sg5
I200
sg6
(I114
I241
I223
I6
tp874
sg8
(lp875
(I108
I131
tp876
a(I109
I190
tp877
a(I179
I180
tp878
a(I123
I166
tp879
a(I132
I125
tp880
a(I110
I196
tp881
a(I108
I150
tp882
a(I150
I117
tp883
a(I142
I153
tp884
asg16
I200
sba(imain2
Polygon
p885
(dp886
g3
(I16
I191
tp887
sg5
I200
sg6
(I128
I46
I221
I0
tp888
sg8
(lp889
(I9
I161
tp890
a(I59
I200
tp891
a(I55
I168
tp892
a(I50
I200
tp893
asg16
I200
sba(imain2
Polygon
p894
(dp895
g3
(I94
I9
tp896
sg5
I200
sg6
(I199
I50
I20
I0
tp897
sg8
(lp898
(I82
I0
tp899
a(I131
I0
tp900
a(I130
I0
tp901
a(I83
I0
tp902
a(I114
I19
tp903
a(I89
I0
tp904
a(I79
I0
tp905
a(I109
I24
tp906
a(I106
I0
tp907
a(I136
I56
tp908
a(I137
I19
tp909
a(I131
I0
tp910
a(I103
I57
tp911
asg16
I200
sba(imain2
Polygon
p912
(dp913
g3
(I111
I113
tp914
sg5
I200
sg6
(I89
I30
I145
I0
tp915
sg8
(lp916
(I95
I159
tp917
a(I120
I136
tp918
a(I150
I136
tp919
asg16
I200
sba(imain2
Polygon
p920
(dp921
g3
(I10
I81
tp922
sg5
I200
sg6
(I218
I162
I192
I0
tp923
sg8
(lp924
(I60
I131
tp925
a(I0
I102
tp926
a(I0
I129
tp927
a(I12
I107
tp928
a(I11
I125
tp929
a(I59
I45
tp930
a(I0
I116
tp931
a(I21
I59
tp932
a(I22
I107
tp933
a(I35
I82
tp934
a(I24
I55
tp935
a(I9
I81
tp936
asg16
I200
sba(imain2
Polygon
p937
(dp938
g3
(I10
I22
tp939
sg5
I200
sg6
(I217
I204
I103
I65
tp940
sg8
(lp941
(I0
I19
tp942
a(I41
I0
tp943
a(I47
I58
tp944
a(I19
I72
tp945
a(I0
I72
tp946
a(I12
I0
tp947
a(I0
I0
tp948
a(I0
I66
tp949
a(I13
I7
tp950
a(I0
I14
tp951
a(I26
I4
tp952
a(I0
I13
tp953
a(I0
I29
tp954
asg16
I200
sba(imain2
Polygon
p955
(dp956
g3
(I19
I169
tp957
sg5
I200
sg6
(I88
I215
I78
I1
tp958
sg8
(lp959
(I41
I147
tp960
a(I68
I169
tp961
a(I20
I192
tp962
a(I7
I200
tp963
a(I28
I122
tp964
asg16
I200
sba(imain2
Polygon
p965
(dp966
g3
(I194
I7
tp967
sg5
I200
sg6
(I160
I88
I133
I0
tp968
sg8
(lp969
(I200
I44
tp970
a(I200
I0
tp971
a(I200
I35
tp972
a(I170
I0
tp973
a(I184
I0
tp974
a(I200
I0
tp975
a(I174
I0
tp976
a(I200
I0
tp977
a(I175
I18
tp978
asg16
I200
sba(imain2
Polygon
p979
(dp980
g3
(I42
I15
tp981
sg5
I200
sg6
(I147
I135
I162
I1
tp982
sg8
(lp983
(I55
I36
tp984
a(I61
I9
tp985
a(I73
I63
tp986
a(I0
I65
tp987
a(I11
I0
tp988
a(I12
I32
tp989
a(I91
I0
tp990
a(I20
I58
tp991
a(I16
I37
tp992
asg16
I200
sba(imain2
Polygon
p993
(dp994
g3
(I183
I77
tp995
sg5
I200
sg6
(I25
I140
I26
I26
tp996
sg8
(lp997
(I170
I55
tp998
a(I200
I86
tp999
a(I200
I70
tp1000
a(I189
I40
tp1001
a(I161
I65
tp1002
a(I196
I42
tp1003
a(I200
I51
tp1004
a(I200
I102
tp1005
asg16
I200
sba(imain2
Polygon
p1006
(dp1007
g3
(I190
I45
tp1008
sg5
I200
sg6
(I176
I45
I182
I1
tp1009
sg8
(lp1010
(I200
I8
tp1011
a(I200
I26
tp1012
a(I153
I42
tp1013
a(I200
I46
tp1014
a(I179
I86
tp1015
a(I199
I57
tp1016
a(I183
I37
tp1017
a(I200
I7
tp1018
a(I200
I46
tp1019
asg16
I200
sba(imain2
Polygon
p1020
(dp1021
g3
(I115
I69
tp1022
sg5
I200
sg6
(I0
I121
I192
I0
tp1023
sg8
(lp1024
(I121
I86
tp1025
a(I84
I62
tp1026
a(I118
I32
tp1027
asg16
I200
sba(imain2
Polygon
p1028
(dp1029
g3
(I173
I121
tp1030
sg5
I200
sg6
(I242
I53
I20
I1
tp1031
sg8
(lp1032
(I155
I105
tp1033
a(I137
I112
tp1034
a(I175
I87
tp1035
a(I169
I95
tp1036
a(I184
I89
tp1037
a(I200
I116
tp1038
a(I192
I122
tp1039
a(I144
I170
tp1040
asg16
I200
sba(imain2
Polygon
p1041
(dp1042
g3
(I45
I135
tp1043
sg5
I200
sg6
(I147
I126
I175
I34
tp1044
sg8
(lp1045
(I7
I177
tp1046
a(I21
I178
tp1047
a(I23
I86
tp1048
a(I14
I133
tp1049
a(I35
I86
tp1050
a(I9
I89
tp1051
a(I2
I91
tp1052
a(I0
I127
tp1053
asg16
I200
sba(imain2
Polygon
p1054
(dp1055
g3
(I61
I48
tp1056
sg5
I200
sg6
(I75
I33
I121
I108
tp1057
sg8
(lp1058
(I81
I91
tp1059
a(I73
I78
tp1060
a(I47
I85
tp1061
a(I68
I93
tp1062
a(I86
I72
tp1063
a(I85
I73
tp1064
a(I45
I93
tp1065
a(I66
I90
tp1066
a(I106
I80
tp1067
asg16
I200
sba(imain2
Polygon
p1068
(dp1069
g3
(I96
I154
tp1070
sg5
I200
sg6
(I149
I181
I184
I61
tp1071
sg8
(lp1072
(I53
I107
tp1073
a(I75
I149
tp1074
a(I90
I200
tp1075
a(I142
I200
tp1076
a(I53
I114
tp1077
a(I107
I120
tp1078
asg16
I200
sba(imain2
Polygon
p1079
(dp1080
g3
(I32
I146
tp1081
sg5
I200
sg6
(I62
I240
I68
I91
tp1082
sg8
(lp1083
(I0
I157
tp1084
a(I0
I178
tp1085
a(I0
I132
tp1086
asg16
I200
sba(imain2
Polygon
p1087
(dp1088
g3
(I3
I120
tp1089
sg5
I200
sg6
(I186
I176
I16
I53
tp1090
sg8
(lp1091
(I38
I71
tp1092
a(I0
I72
tp1093
a(I0
I121
tp1094
a(I0
I132
tp1095
a(I20
I116
tp1096
asg16
I200
sba(imain2
Polygon
p1097
(dp1098
g3
(I74
I152
tp1099
sg5
I200
sg6
(I59
I79
I125
I0
tp1100
sg8
(lp1101
(I25
I195
tp1102
a(I80
I138
tp1103
a(I39
I140
tp1104
a(I117
I121
tp1105
a(I75
I165
tp1106
a(I118
I127
tp1107
a(I32
I179
tp1108
a(I33
I191
tp1109
a(I87
I200
tp1110
a(I56
I110
tp1111
a(I42
I135
tp1112
a(I76
I188
tp1113
asg16
I200
sba(imain2
Polygon
p1114
(dp1115
g3
(I31
I192
tp1116
sg5
I200
sg6
(I153
I32
I134
I0
tp1117
sg8
(lp1118
(I0
I181
tp1119
a(I7
I200
tp1120
a(I64
I200
tp1121
a(I0
I175
tp1122
a(I80
I200
tp1123
a(I17
I200
tp1124
a(I0
I142
tp1125
a(I41
I172
tp1126
a(I57
I200
tp1127
a(I28
I166
tp1128
a(I50
I144
tp1129
a(I0
I187
tp1130
a(I64
I200
tp1131
a(I0
I165
tp1132
a(I21
I181
tp1133
a(I56
I200
tp1134
a(I0
I195
tp1135
asg16
I200
sba(imain2
Polygon
p1136
(dp1137
g3
(I99
I149
tp1138
sg5
I200
sg6
(I188
I31
I203
I1
tp1139
sg8
(lp1140
(I110
I116
tp1141
a(I136
I173
tp1142
a(I101
I127
tp1143
a(I82
I109
tp1144
a(I114
I142
tp1145
a(I79
I154
tp1146
a(I51
I112
tp1147
a(I55
I173
tp1148
a(I92
I139
tp1149
a(I101
I140
tp1150
a(I109
I193
tp1151
a(I103
I151
tp1152
a(I123
I124
tp1153
a(I105
I153
tp1154
a(I52
I171
tp1155
a(I107
I131
tp1156
a(I76
I153
tp1157
asg16
I200
sba(imain2
Polygon
p1158
(dp1159
g3
(I183
I115
tp1160
sg5
I200
sg6
(I17
I108
I176
I133
tp1161
sg8
(lp1162
(I200
I102
tp1163
a(I193
I132
tp1164
a(I181
I84
tp1165
a(I200
I87
tp1166
a(I200
I142
tp1167
asg16
I200
sba(imain2
Polygon
p1168
(dp1169
g3
(I141
I107
tp1170
sg5
I200
sg6
(I78
I144
I85
I138
tp1171
sg8
(lp1172
(I119
I86
tp1173
a(I112
I86
tp1174
a(I111
I152
tp1175
asg16
I200
sba(imain2
Polygon
p1176
(dp1177
g3
(I149
I72
tp1178
sg5
I200
sg6
(I62
I107
I163
I23
tp1179
sg8
(lp1180
(I160
I35
tp1181
a(I195
I56
tp1182
a(I155
I38
tp1183
a(I99
I25
tp1184
a(I173
I40
tp1185
a(I176
I38
tp1186
a(I195
I35
tp1187
a(I127
I88
tp1188
a(I150
I68
tp1189
a(I168
I73
tp1190
a(I169
I57
tp1191
asg16
I200
sba(imain2
Polygon
p1192
(dp1193
g3
(I67
I128
tp1194
sg5
I200
sg6
(I210
I145
I52
I24
tp1195
sg8
(lp1196
(I106
I157
tp1197
a(I73
I95
tp1198
a(I108
I113
tp1199
a(I115
I152
tp1200
a(I62
I84
tp1201
a(I62
I102
tp1202
a(I63
I145
tp1203
a(I75
I164
tp1204
asg16
I200
sba(imain2
Polygon
p1205
(dp1206
g3
(I183
I44
tp1207
sg5
I200
sg6
(I80
I9
I170
I1
tp1208
sg8
(lp1209
(I200
I28
tp1210
a(I138
I92
tp1211
a(I163
I30
tp1212
a(I175
I30
tp1213
a(I136
I16
tp1214
a(I191
I71
tp1215
asg16
I200
sba(imain2
Polygon
p1216
(dp1217
g3
(I100
I61
tp1218
sg5
I200
sg6
(I199
I96
I41
I36
tp1219
sg8
(lp1220
(I56
I38
tp1221
a(I99
I64
tp1222
a(I91
I106
tp1223
a(I131
I96
tp1224
a(I95
I52
tp1225
a(I60
I37
tp1226
a(I74
I24
tp1227
a(I146
I15
tp1228
a(I96
I45
tp1229
a(I109
I45
tp1230
a(I143
I70
tp1231
a(I84
I63
tp1232
a(I126
I79
tp1233
a(I104
I97
tp1234
asg16
I200
sba(imain2
Polygon
p1235
(dp1236
g3
(I52
I190
tp1237
sg5
I200
sg6
(I174
I147
I49
I75
tp1238
sg8
(lp1239
(I71
I200
tp1240
a(I89
I171
tp1241
a(I102
I200
tp1242
a(I94
I200
tp1243
a(I95
I200
tp1244
a(I34
I200
tp1245
asg16
I200
sba(imain2
Polygon
p1246
(dp1247
g3
(I151
I65
tp1248
sg5
I200
sg6
(I62
I179
I1
I97
tp1249
sg8
(lp1250
(I176
I54
tp1251
a(I179
I51
tp1252
a(I164
I54
tp1253
a(I186
I39
tp1254
a(I139
I65
tp1255
a(I111
I63
tp1256
a(I119
I77
tp1257
a(I169
I47
tp1258
a(I182
I28
tp1259
a(I158
I17
tp1260
asg16
I200
sba(imain2
Polygon
p1261
(dp1262
g3
(I67
I20
tp1263
sg5
I200
sg6
(I165
I92
I187
I95
tp1264
sg8
(lp1265
(I17
I0
tp1266
a(I29
I39
tp1267
a(I114
I0
tp1268
a(I110
I0
tp1269
a(I112
I0
tp1270
a(I113
I0
tp1271
a(I74
I0
tp1272
asg16
I200
sba(imain2
Polygon
p1273
(dp1274
g3
(I199
I56
tp1275
sg5
I200
sg6
(I159
I0
I107
I1
tp1276
sg8
(lp1277
(I200
I8
tp1278
a(I165
I70
tp1279
a(I200
I46
tp1280
a(I200
I83
tp1281
a(I181
I100
tp1282
a(I186
I53
tp1283
a(I198
I104
tp1284
a(I155
I97
tp1285
a(I200
I55
tp1286
a(I149
I58
tp1287
a(I192
I59
tp1288
asg16
I200
sba(imain2
Polygon
p1289
(dp1290
g3
(I185
I38
tp1291
sg5
I200
sg6
(I128
I217
I66
I157
tp1292
sg8
(lp1293
(I200
I69
tp1294
a(I200
I0
tp1295
a(I177
I0
tp1296
a(I154
I0
tp1297
a(I146
I42
tp1298
a(I200
I5
tp1299
a(I168
I28
tp1300
a(I142
I46
tp1301
a(I155
I22
tp1302
a(I181
I67
tp1303
a(I200
I88
tp1304
a(I138
I0
tp1305
a(I161
I42
tp1306
a(I141
I1
tp1307
a(I171
I85
tp1308
a(I189
I82
tp1309
asg16
I200
sba(imain2
Polygon
p1310
(dp1311
g3
(I67
I149
tp1312
sg5
I200
sg6
(I90
I205
I211
I34
tp1313
sg8
(lp1314
(I20
I169
tp1315
a(I92
I149
tp1316
a(I45
I104
tp1317
a(I47
I101
tp1318
a(I64
I107
tp1319
a(I75
I131
tp1320
a(I69
I155
tp1321
asg16
I200
sba(imain2
Polygon
p1322
(dp1323
g3
(I21
I182
tp1324
sg5
I200
sg6
(I109
I114
I1
I73
tp1325
sg8
(lp1326
(I67
I200
tp1327
a(I0
I166
tp1328
a(I30
I184
tp1329
a(I20
I169
tp1330
a(I19
I200
tp1331
a(I41
I195
tp1332
a(I19
I200
tp1333
a(I32
I200
tp1334
a(I13
I200
tp1335
a(I0
I144
tp1336
a(I0
I194
tp1337
a(I27
I167
tp1338
a(I8
I162
tp1339
a(I28
I152
tp1340
a(I0
I133
tp1341
a(I47
I191
tp1342
asg16
I200
sba(imain2
Polygon
p1343
(dp1344
g3
(I145
I176
tp1345
sg5
I200
sg6
(I183
I171
I1
I34
tp1346
sg8
(lp1347
(I116
I200
tp1348
a(I101
I200
tp1349
a(I177
I200
tp1350
a(I120
I137
tp1351
a(I95
I200
tp1352
asg16
I200
sba(imain2
Polygon
p1353
(dp1354
g3
(I102
I21
tp1355
sg5
I200
sg6
(I180
I177
I184
I55
tp1356
sg8
(lp1357
(I129
I69
tp1358
a(I61
I26
tp1359
a(I88
I12
tp1360
a(I104
I12
tp1361
a(I146
I25
tp1362
a(I143
I7
tp1363
a(I142
I0
tp1364
a(I59
I0
tp1365
a(I54
I68
tp1366
asg16
I200
sba(imain2
Polygon
p1367
(dp1368
g3
(I154
I30
tp1369
sg5
I200
sg6
(I49
I94
I58
I0
tp1370
sg8
(lp1371
(I135
I63
tp1372
a(I107
I66
tp1373
a(I173
I45
tp1374
a(I162
I48
tp1375
a(I150
I48
tp1376
a(I144
I73
tp1377
a(I135
I57
tp1378
a(I156
I27
tp1379
a(I132
I0
tp1380
asg16
I200
sba(imain2
Polygon
p1381
(dp1382
g3
(I171
I178
tp1383
sg5
I200
sg6
(I92
I228
I32
I0
tp1384
sg8
(lp1385
(I200
I200
tp1386
a(I200
I200
tp1387
a(I200
I195
tp1388
a(I200
I135
tp1389
a(I179
I151
tp1390
a(I151
I200
tp1391
a(I172
I153
tp1392
asg16
I200
sba(imain2
Polygon
p1393
(dp1394
g3
(I189
I152
tp1395
sg5
I200
sg6
(I245
I70
I178
I1
tp1396
sg8
(lp1397
(I184
I192
tp1398
a(I200
I134
tp1399
a(I200
I166
tp1400
a(I200
I155
tp1401
a(I187
I169
tp1402
a(I182
I182
tp1403
a(I200
I166
tp1404
a(I156
I189
tp1405
a(I149
I177
tp1406
a(I200
I187
tp1407
asg16
I200
sba(imain2
Polygon
p1408
(dp1409
g3
(I158
I122
tp1410
sg5
I200
sg6
(I42
I0
I155
I32
tp1411
sg8
(lp1412
(I182
I80
tp1413
a(I197
I107
tp1414
a(I200
I145
tp1415
a(I166
I100
tp1416
a(I141
I111
tp1417
a(I124
I81
tp1418
a(I140
I142
tp1419
a(I131
I110
tp1420
a(I189
I78
tp1421
a(I200
I74
tp1422
a(I124
I95
tp1423
asg16
I200
sba(imain2
Polygon
p1424
(dp1425
g3
(I89
I194
tp1426
sg5
I200
sg6
(I226
I74
I37
I1
tp1427
sg8
(lp1428
(I91
I187
tp1429
a(I125
I195
tp1430
a(I49
I167
tp1431
a(I76
I177
tp1432
a(I107
I177
tp1433
a(I115
I200
tp1434
a(I104
I200
tp1435
a(I39
I200
tp1436
a(I64
I164
tp1437
a(I126
I166
tp1438
a(I67
I147
tp1439
a(I84
I198
tp1440
asg16
I200
sba(imain2
Polygon
p1441
(dp1442
g3
(I185
I89
tp1443
sg5
I200
sg6
(I163
I0
I218
I1
tp1444
sg8
(lp1445
(I136
I51
tp1446
a(I200
I98
tp1447
a(I190
I122
tp1448
a(I200
I70
tp1449
a(I152
I101
tp1450
a(I196
I139
tp1451
a(I187
I137
tp1452
a(I197
I79
tp1453
a(I166
I46
tp1454
a(I200
I68
tp1455
a(I175
I68
tp1456
a(I200
I47
tp1457
a(I174
I136
tp1458
a(I181
I50
tp1459
asg16
I200
sba(imain2
Polygon
p1460
(dp1461
g3
(I67
I129
tp1462
sg5
I200
sg6
(I72
I191
I56
I109
tp1463
sg8
(lp1464
(I96
I97
tp1465
a(I112
I141
tp1466
a(I78
I170
tp1467
a(I81
I160
tp1468
a(I112
I100
tp1469
a(I67
I121
tp1470
a(I93
I98
tp1471
a(I99
I143
tp1472
a(I53
I100
tp1473
a(I109
I141
tp1474
a(I87
I119
tp1475
a(I87
I107
tp1476
a(I75
I92
tp1477
a(I84
I146
tp1478
a(I52
I135
tp1479
a(I91
I173
tp1480
asg16
I200
sba(imain2
Polygon
p1481
(dp1482
g3
(I95
I80
tp1483
sg5
I200
sg6
(I219
I88
I19
I129
tp1484
sg8
(lp1485
(I121
I57
tp1486
a(I47
I53
tp1487
a(I58
I130
tp1488
a(I123
I114
tp1489
a(I129
I87
tp1490
asg16
I200
sba(imain2
Polygon
p1491
(dp1492
g3
(I14
I45
tp1493
sg5
I200
sg6
(I223
I0
I43
I104
tp1494
sg8
(lp1495
(I0
I94
tp1496
a(I58
I24
tp1497
a(I0
I13
tp1498
a(I38
I90
tp1499
a(I10
I95
tp1500
asg16
I200
sba(imain2
Polygon
p1501
(dp1502
g3
(I34
I35
tp1503
sg5
I200
sg6
(I106
I9
I200
I16
tp1504
sg8
(lp1505
(I0
I0
tp1506
a(I0
I84
tp1507
a(I51
I56
tp1508
a(I37
I58
tp1509
a(I41
I59
tp1510
a(I24
I1
tp1511
a(I56
I7
tp1512
a(I63
I21
tp1513
asg16
I200
sba(imain2
Polygon
p1514
(dp1515
g3
(I127
I147
tp1516
sg5
I200
sg6
(I114
I171
I188
I71
tp1517
sg8
(lp1518
(I112
I151
tp1519
a(I112
I167
tp1520
a(I161
I125
tp1521
a(I99
I100
tp1522
a(I112
I159
tp1523
a(I126
I158
tp1524
a(I164
I118
tp1525
a(I80
I133
tp1526
a(I125
I141
tp1527
a(I92
I99
tp1528
a(I85
I144
tp1529
a(I105
I137
tp1530
a(I148
I117
tp1531
a(I108
I109
tp1532
a(I100
I118
tp1533
a(I120
I132
tp1534
a(I93
I123
tp1535
a(I80
I136
tp1536
asg16
I200
sba(imain2
Polygon
p1537
(dp1538
g3
(I88
I106
tp1539
sg5
I200
sg6
(I189
I11
I58
I106
tp1540
sg8
(lp1541
(I127
I64
tp1542
a(I119
I93
tp1543
a(I120
I134
tp1544
asg16
I200
sba(imain2
Polygon
p1545
(dp1546
g3
(I11
I134
tp1547
sg5
I200
sg6
(I74
I178
I92
I88
tp1548
sg8
(lp1549
(I0
I183
tp1550
a(I0
I108
tp1551
a(I0
I162
tp1552
a(I12
I180
tp1553
asg16
I200
sba(imain2
Polygon
p1554
(dp1555
g3
(I174
I141
tp1556
sg5
I200
sg6
(I113
I234
I92
I69
tp1557
sg8
(lp1558
(I200
I120
tp1559
a(I187
I97
tp1560
a(I170
I160
tp1561
a(I200
I190
tp1562
asg16
I200
sba(imain2
Polygon
p1563
(dp1564
g3
(I68
I44
tp1565
sg5
I200
sg6
(I2
I227
I127
I30
tp1566
sg8
(lp1567
(I26
I22
tp1568
a(I19
I82
tp1569
a(I62
I45
tp1570
a(I75
I72
tp1571
a(I22
I45
tp1572
a(I83
I85
tp1573
a(I73
I76
tp1574
asg16
I200
sba(imain2
Polygon
p1575
(dp1576
g3
(I80
I68
tp1577
sg5
I200
sg6
(I74
I15
I15
I30
tp1578
sg8
(lp1579
(I52
I50
tp1580
a(I34
I66
tp1581
a(I53
I18
tp1582
a(I117
I21
tp1583
a(I40
I26
tp1584
a(I104
I60
tp1585
a(I37
I27
tp1586
a(I47
I36
tp1587
a(I37
I35
tp1588
a(I66
I42
tp1589
a(I83
I18
tp1590
asg16
I200
sba(imain2
Polygon
p1591
(dp1592
g3
(I120
I143
tp1593
sg5
I200
sg6
(I151
I157
I82
I1
tp1594
sg8
(lp1595
(I87
I180
tp1596
a(I157
I180
tp1597
a(I104
I174
tp1598
a(I92
I178
tp1599
a(I129
I155
tp1600
a(I119
I179
tp1601
a(I123
I178
tp1602
a(I145
I127
tp1603
a(I120
I158
tp1604
a(I86
I100
tp1605
a(I157
I112
tp1606
a(I170
I95
tp1607
a(I147
I127
tp1608
a(I80
I125
tp1609
asg16
I200
sba(imain2
Polygon
p1610
(dp1611
g3
(I47
I43
tp1612
sg5
I200
sg6
(I224
I145
I62
I44
tp1613
sg8
(lp1614
(I85
I78
tp1615
a(I7
I93
tp1616
a(I0
I83
tp1617
a(I5
I0
tp1618
a(I26
I10
tp1619
a(I37
I33
tp1620
a(I91
I13
tp1621
a(I52
I53
tp1622
a(I45
I0
tp1623
a(I96
I0
tp1624
a(I96
I74
tp1625
a(I37
I83
tp1626
asg16
I200
sba(imain2
Polygon
p1627
(dp1628
g3
(I6
I165
tp1629
sg5
I200
sg6
(I192
I49
I158
I45
tp1630
sg8
(lp1631
(I0
I191
tp1632
a(I34
I177
tp1633
a(I7
I145
tp1634
asg16
I200
sba(imain2
Polygon
p1635
(dp1636
g3
(I125
I173
tp1637
sg5
I200
sg6
(I90
I28
I30
I116
tp1638
sg8
(lp1639
(I145
I181
tp1640
a(I132
I145
tp1641
a(I128
I157
tp1642
a(I135
I166
tp1643
a(I143
I200
tp1644
a(I165
I200
tp1645
a(I85
I166
tp1646
a(I93
I145
tp1647
a(I79
I141
tp1648
a(I145
I159
tp1649
a(I157
I200
tp1650
a(I130
I140
tp1651
asg16
I200
sba(imain2
Polygon
p1652
(dp1653
g3
(I63
I154
tp1654
sg5
I200
sg6
(I121
I158
I2
I1
tp1655
sg8
(lp1656
(I90
I156
tp1657
a(I41
I182
tp1658
a(I112
I105
tp1659
a(I100
I174
tp1660
a(I66
I105
tp1661
a(I66
I149
tp1662
a(I45
I194
tp1663
a(I85
I125
tp1664
a(I27
I122
tp1665
a(I101
I117
tp1666
asg16
I200
sba(imain2
Polygon
p1667
(dp1668
g3
(I152
I171
tp1669
sg5
I200
sg6
(I192
I3
I226
I0
tp1670
sg8
(lp1671
(I197
I151
tp1672
a(I189
I161
tp1673
a(I200
I191
tp1674
a(I105
I165
tp1675
a(I114
I145
tp1676
a(I193
I126
tp1677
a(I180
I200
tp1678
a(I171
I163
tp1679
a(I107
I200
tp1680
a(I118
I180
tp1681
a(I154
I143
tp1682
asg16
I200
sba(imain2
Polygon
p1683
(dp1684
g3
(I67
I143
tp1685
sg5
I200
sg6
(I71
I70
I132
I107
tp1686
sg8
(lp1687
(I100
I175
tp1688
a(I113
I120
tp1689
a(I113
I130
tp1690
asg16
I200
sba(imain2
Polygon
p1691
(dp1692
g3
(I153
I79
tp1693
sg5
I200
sg6
(I134
I28
I160
I0
tp1694
sg8
(lp1695
(I178
I118
tp1696
a(I198
I89
tp1697
a(I140
I45
tp1698
a(I133
I77
tp1699
a(I112
I71
tp1700
a(I142
I107
tp1701
a(I148
I111
tp1702
a(I175
I118
tp1703
a(I159
I100
tp1704
a(I177
I105
tp1705
a(I130
I94
tp1706
asg16
I200
sba(imain2
Polygon
p1707
(dp1708
g3
(I142
I192
tp1709
sg5
I200
sg6
(I48
I235
I1
I1
tp1710
sg8
(lp1711
(I126
I156
tp1712
a(I94
I200
tp1713
a(I151
I200
tp1714
a(I131
I200
tp1715
a(I122
I151
tp1716
a(I140
I162
tp1717
a(I115
I176
tp1718
a(I94
I200
tp1719
a(I104
I188
tp1720
asg16
I200
sba(imain2
Polygon
p1721
(dp1722
g3
(I144
I12
tp1723
sg5
I200
sg6
(I185
I74
I98
I0
tp1724
sg8
(lp1725
(I115
I0
tp1726
a(I161
I0
tp1727
a(I184
I0
tp1728
a(I135
I0
tp1729
a(I166
I26
tp1730
a(I140
I27
tp1731
a(I166
I23
tp1732
a(I184
I13
tp1733
a(I190
I2
tp1734
a(I138
I0
tp1735
a(I133
I0
tp1736
a(I167
I46
tp1737
a(I122
I5
tp1738
asg16
I200
sba(imain2
Polygon
p1739
(dp1740
g3
(I144
I92
tp1741
sg5
I200
sg6
(I223
I43
I149
I138
tp1742
sg8
(lp1743
(I175
I55
tp1744
a(I193
I45
tp1745
a(I190
I118
tp1746
a(I178
I108
tp1747
a(I159
I52
tp1748
asg16
I200
sba(imain2
Polygon
p1749
(dp1750
g3
(I167
I23
tp1751
sg5
I200
sg6
(I169
I30
I239
I1
tp1752
sg8
(lp1753
(I174
I4
tp1754
a(I156
I11
tp1755
a(I200
I70
tp1756
a(I200
I14
tp1757
a(I188
I60
tp1758
a(I139
I19
tp1759
a(I166
I58
tp1760
a(I157
I0
tp1761
a(I164
I43
tp1762
a(I200
I32
tp1763
a(I129
I13
tp1764
a(I156
I3
tp1765
a(I168
I30
tp1766
asg16
I200
sba(imain2
Polygon
p1767
(dp1768
g3
(I200
I102
tp1769
sg5
I200
sg6
(I50
I231
I149
I30
tp1770
sg8
(lp1771
(I161
I70
tp1772
a(I171
I83
tp1773
a(I193
I55
tp1774
a(I200
I120
tp1775
a(I200
I56
tp1776
a(I200
I118
tp1777
a(I167
I86
tp1778
a(I200
I124
tp1779
a(I200
I100
tp1780
a(I199
I68
tp1781
a(I155
I69
tp1782
a(I159
I62
tp1783
a(I170
I125
tp1784
a(I177
I108
tp1785
a(I200
I127
tp1786
asg16
I200
sba(imain2
Polygon
p1787
(dp1788
g3
(I20
I176
tp1789
sg5
I200
sg6
(I11
I201
I0
I1
tp1790
sg8
(lp1791
(I8
I177
tp1792
a(I4
I200
tp1793
a(I0
I164
tp1794
a(I65
I153
tp1795
a(I0
I166
tp1796
a(I30
I200
tp1797
a(I43
I145
tp1798
a(I17
I200
tp1799
a(I54
I157
tp1800
a(I0
I200
tp1801
a(I56
I200
tp1802
a(I15
I152
tp1803
a(I45
I161
tp1804
a(I44
I189
tp1805
a(I1
I173
tp1806
a(I4
I200
tp1807
asg16
I200
sba(imain2
Polygon
p1808
(dp1809
g3
(I51
I87
tp1810
sg5
I200
sg6
(I97
I176
I45
I75
tp1811
sg8
(lp1812
(I27
I64
tp1813
a(I30
I71
tp1814
a(I35
I93
tp1815
a(I19
I105
tp1816
a(I3
I114
tp1817
a(I4
I50
tp1818
a(I40
I55
tp1819
a(I63
I97
tp1820
a(I59
I88
tp1821
a(I73
I95
tp1822
a(I30
I52
tp1823
a(I37
I81
tp1824
asg16
I200
sba(imain2
Polygon
p1825
(dp1826
g3
(I124
I18
tp1827
sg5
I200
sg6
(I57
I202
I228
I1
tp1828
sg8
(lp1829
(I104
I18
tp1830
a(I89
I0
tp1831
a(I166
I0
tp1832
a(I160
I36
tp1833
asg16
I200
sba(imain2
Polygon
p1834
(dp1835
g3
(I170
I179
tp1836
sg5
I200
sg6
(I139
I190
I55
I7
tp1837
sg8
(lp1838
(I186
I184
tp1839
a(I146
I200
tp1840
a(I200
I129
tp1841
a(I200
I200
tp1842
a(I125
I200
tp1843
a(I129
I168
tp1844
a(I177
I200
tp1845
a(I155
I179
tp1846
a(I184
I200
tp1847
a(I200
I160
tp1848
asg16
I200
sba(imain2
Polygon
p1849
(dp1850
g3
(I93
I4
tp1851
sg5
I200
sg6
(I122
I127
I1
I123
tp1852
sg8
(lp1853
(I46
I0
tp1854
a(I51
I53
tp1855
a(I57
I28
tp1856
a(I47
I35
tp1857
a(I62
I48
tp1858
a(I51
I52
tp1859
asg16
I200
sba(imain2
Polygon
p1860
(dp1861
g3
(I33
I157
tp1862
sg5
I200
sg6
(I38
I117
I125
I0
tp1863
sg8
(lp1864
(I8
I115
tp1865
a(I50
I130
tp1866
a(I67
I128
tp1867
a(I42
I136
tp1868
a(I66
I120
tp1869
a(I9
I140
tp1870
a(I79
I175
tp1871
a(I69
I135
tp1872
a(I50
I162
tp1873
a(I44
I112
tp1874
asg16
I200
sba(imain2
Polygon
p1875
(dp1876
g3
(I91
I9
tp1877
sg5
I200
sg6
(I66
I182
I12
I1
tp1878
sg8
(lp1879
(I124
I35
tp1880
a(I87
I17
tp1881
a(I115
I0
tp1882
a(I54
I0
tp1883
a(I134
I0
tp1884
a(I94
I28
tp1885
a(I72
I0
tp1886
a(I42
I0
tp1887
a(I122
I0
tp1888
a(I55
I45
tp1889
asg16
I200
sba(imain2
Polygon
p1890
(dp1891
g3
(I50
I13
tp1892
sg5
I200
sg6
(I91
I178
I161
I113
tp1893
sg8
(lp1894
(I31
I61
tp1895
a(I3
I50
tp1896
a(I0
I0
tp1897
a(I11
I0
tp1898
a(I7
I0
tp1899
a(I82
I0
tp1900
asg16
I200
sba(imain2
Polygon
p1901
(dp1902
g3
(I157
I108
tp1903
sg5
I200
sg6
(I127
I116
I1
I75
tp1904
sg8
(lp1905
(I168
I137
tp1906
a(I108
I127
tp1907
a(I123
I82
tp1908
a(I145
I61
tp1909
a(I108
I149
tp1910
a(I172
I125
tp1911
a(I166
I61
tp1912
a(I200
I120
tp1913
a(I184
I155
tp1914
a(I168
I127
tp1915
a(I188
I141
tp1916
a(I158
I120
tp1917
asg16
I200
sba(imain2
Polygon
p1918
(dp1919
g3
(I7
I150
tp1920
sg5
I200
sg6
(I177
I10
I55
I10
tp1921
sg8
(lp1922
(I0
I184
tp1923
a(I0
I112
tp1924
a(I57
I154
tp1925
a(I22
I183
tp1926
a(I7
I147
tp1927
a(I0
I149
tp1928
a(I4
I171
tp1929
a(I55
I115
tp1930
a(I32
I102
tp1931
a(I49
I122
tp1932
a(I24
I105
tp1933
a(I23
I114
tp1934
a(I26
I151
tp1935
asg16
I200
sba(imain2
Polygon
p1936
(dp1937
g3
(I89
I125
tp1938
sg5
I200
sg6
(I42
I0
I213
I10
tp1939
sg8
(lp1940
(I59
I165
tp1941
a(I101
I135
tp1942
a(I56
I165
tp1943
a(I76
I125
tp1944
asg16
I200
sba(imain2
Polygon
p1945
(dp1946
g3
(I18
I178
tp1947
sg5
I200
sg6
(I85
I162
I41
I88
tp1948
sg8
(lp1949
(I0
I148
tp1950
a(I6
I154
tp1951
a(I10
I175
tp1952
a(I0
I137
tp1953
a(I30
I144
tp1954
a(I23
I175
tp1955
a(I24
I189
tp1956
a(I0
I167
tp1957
asg16
I200
sba(imain2
Polygon
p1958
(dp1959
g3
(I81
I53
tp1960
sg5
I200
sg6
(I216
I83
I79
I1
tp1961
sg8
(lp1962
(I80
I31
tp1963
a(I89
I58
tp1964
a(I66
I39
tp1965
a(I42
I77
tp1966
a(I37
I46
tp1967
a(I80
I82
tp1968
a(I97
I100
tp1969
a(I73
I54
tp1970
a(I96
I16
tp1971
a(I92
I99
tp1972
a(I89
I26
tp1973
asg16
I200
sba(imain2
Polygon
p1974
(dp1975
g3
(I117
I32
tp1976
sg5
I200
sg6
(I165
I186
I80
I0
tp1977
sg8
(lp1978
(I89
I46
tp1979
a(I99
I56
tp1980
a(I134
I30
tp1981
asg16
I200
sba(imain2
Polygon
p1982
(dp1983
g3
(I79
I140
tp1984
sg5
I200
sg6
(I224
I0
I161
I24
tp1985
sg8
(lp1986
(I108
I95
tp1987
a(I107
I173
tp1988
a(I52
I148
tp1989
a(I123
I97
tp1990
a(I103
I173
tp1991
a(I75
I159
tp1992
a(I80
I158
tp1993
a(I127
I127
tp1994
asg16
I200
sba(imain2
Polygon
p1995
(dp1996
g3
(I26
I4
tp1997
sg5
I200
sg6
(I196
I73
I69
I1
tp1998
sg8
(lp1999
(I64
I27
tp2000
a(I56
I39
tp2001
a(I69
I0
tp2002
a(I0
I0
tp2003
a(I32
I21
tp2004
a(I0
I0
tp2005
a(I4
I0
tp2006
a(I38
I0
tp2007
asg16
I200
sba(imain2
Polygon
p2008
(dp2009
g3
(I15
I121
tp2010
sg5
I200
sg6
(I1
I223
I148
I1
tp2011
sg8
(lp2012
(I36
I104
tp2013
a(I0
I109
tp2014
a(I51
I75
tp2015
a(I60
I87
tp2016
a(I0
I74
tp2017
a(I0
I86
tp2018
a(I46
I142
tp2019
a(I31
I72
tp2020
a(I43
I156
tp2021
a(I61
I107
tp2022
a(I0
I154
tp2023
a(I16
I86
tp2024
a(I59
I128
tp2025
a(I43
I154
tp2026
a(I5
I124
tp2027
asg16
I200
sba(imain2
Polygon
p2028
(dp2029
g3
(I163
I195
tp2030
sg5
I200
sg6
(I8
I147
I192
I0
tp2031
sg8
(lp2032
(I187
I200
tp2033
a(I170
I200
tp2034
a(I180
I194
tp2035
a(I188
I173
tp2036
a(I198
I192
tp2037
a(I172
I200
tp2038
a(I193
I191
tp2039
a(I165
I200
tp2040
asg16
I200
sba(imain2
Polygon
p2041
(dp2042
g3
(I118
I106
tp2043
sg5
I200
sg6
(I6
I133
I123
I114
tp2044
sg8
(lp2045
(I132
I104
tp2046
a(I145
I78
tp2047
a(I102
I87
tp2048
a(I125
I104
tp2049
a(I121
I98
tp2050
a(I123
I91
tp2051
a(I151
I66
tp2052
a(I132
I101
tp2053
a(I127
I105
tp2054
a(I140
I99
tp2055
asg16
I200
sba(imain2
Polygon
p2056
(dp2057
g3
(I56
I6
tp2058
sg5
I200
sg6
(I197
I1
I173
I1
tp2059
sg8
(lp2060
(I88
I24
tp2061
a(I79
I0
tp2062
a(I71
I0
tp2063
a(I21
I0
tp2064
a(I75
I2
tp2065
a(I10
I41
tp2066
asg16
I200
sba(imain2
Polygon
p2067
(dp2068
g3
(I174
I69
tp2069
sg5
I200
sg6
(I118
I35
I47
I99
tp2070
sg8
(lp2071
(I200
I23
tp2072
a(I200
I29
tp2073
a(I160
I53
tp2074
a(I199
I86
tp2075
a(I196
I88
tp2076
a(I200
I90
tp2077
a(I151
I40
tp2078
a(I126
I41
tp2079
a(I189
I42
tp2080
a(I171
I43
tp2081
a(I191
I41
tp2082
a(I183
I53
tp2083
a(I173
I86
tp2084
a(I165
I92
tp2085
asg16
I200
sba(imain2
Polygon
p2086
(dp2087
g3
(I0
I30
tp2088
sg5
I200
sg6
(I169
I39
I99
I1
tp2089
sg8
(lp2090
(I19
I40
tp2091
a(I28
I80
tp2092
a(I39
I78
tp2093
a(I29
I6
tp2094
a(I0
I35
tp2095
asg16
I200
sba(imain2
Polygon
p2096
(dp2097
g3
(I134
I58
tp2098
sg5
I200
sg6
(I241
I178
I117
I110
tp2099
sg8
(lp2100
(I179
I58
tp2101
a(I110
I8
tp2102
a(I156
I8
tp2103
a(I179
I9
tp2104
asg16
I200
sba(imain2
Polygon
p2105
(dp2106
g3
(I142
I75
tp2107
sg5
I200
sg6
(I201
I59
I194
I75
tp2108
sg8
(lp2109
(I191
I83
tp2110
a(I154
I36
tp2111
a(I163
I54
tp2112
a(I192
I28
tp2113
asg16
I200
sba(imain2
Polygon
p2114
(dp2115
g3
(I129
I65
tp2116
sg5
I200
sg6
(I88
I0
I164
I129
tp2117
sg8
(lp2118
(I155
I65
tp2119
a(I158
I67
tp2120
a(I151
I68
tp2121
asg16
I200
sba(imain2
Polygon
p2122
(dp2123
g3
(I163
I171
tp2124
sg5
I200
sg6
(I195
I10
I130
I1
tp2125
sg8
(lp2126
(I145
I198
tp2127
a(I161
I200
tp2128
a(I200
I190
tp2129
a(I173
I200
tp2130
a(I127
I200
tp2131
a(I170
I142
tp2132
a(I165
I165
tp2133
a(I158
I178
tp2134
a(I189
I200
tp2135
a(I161
I197
tp2136
a(I200
I124
tp2137
a(I200
I191
tp2138
a(I141
I126
tp2139
a(I113
I200
tp2140
asg16
I200
sba(imain2
Polygon
p2141
(dp2142
g3
(I184
I20
tp2143
sg5
I200
sg6
(I213
I91
I227
I75
tp2144
sg8
(lp2145
(I200
I60
tp2146
a(I200
I0
tp2147
a(I200
I69
tp2148
a(I160
I57
tp2149
a(I140
I0
tp2150
a(I144
I0
tp2151
a(I200
I0
tp2152
a(I200
I0
tp2153
asg16
I200
sba(imain2
Polygon
p2154
(dp2155
g3
(I145
I135
tp2156
sg5
I200
sg6
(I31
I41
I58
I39
tp2157
sg8
(lp2158
(I160
I178
tp2159
a(I183
I129
tp2160
a(I135
I88
tp2161
a(I110
I168
tp2162
a(I166
I183
tp2163
asg16
I200
sba(imain2
Polygon
p2164
(dp2165
g3
(I64
I74
tp2166
sg5
I200
sg6
(I134
I208
I148
I1
tp2167
sg8
(lp2168
(I111
I67
tp2169
a(I74
I124
tp2170
a(I19
I47
tp2171
a(I94
I61
tp2172
asg16
I200
sba(imain2
Polygon
p2173
(dp2174
g3
(I82
I104
tp2175
sg5
I200
sg6
(I48
I155
I197
I1
tp2176
sg8
(lp2177
(I129
I123
tp2178
a(I98
I78
tp2179
a(I60
I150
tp2180
a(I61
I58
tp2181
a(I87
I71
tp2182
a(I37
I116
tp2183
a(I105
I79
tp2184
a(I131
I77
tp2185
a(I54
I154
tp2186
a(I76
I62
tp2187
a(I119
I154
tp2188
asg16
I200
sba(imain2
Polygon
p2189
(dp2190
g3
(I176
I51
tp2191
sg5
I200
sg6
(I114
I211
I85
I0
tp2192
sg8
(lp2193
(I200
I6
tp2194
a(I143
I9
tp2195
a(I200
I62
tp2196
a(I174
I33
tp2197
a(I171
I13
tp2198
a(I185
I27
tp2199
asg16
I200
sba(imain2
Polygon
p2200
(dp2201
g3
(I18
I179
tp2202
sg5
I200
sg6
(I7
I98
I95
I29
tp2203
sg8
(lp2204
(I0
I146
tp2205
a(I0
I200
tp2206
a(I0
I198
tp2207
a(I21
I200
tp2208
a(I22
I196
tp2209
a(I36
I190
tp2210
a(I19
I154
tp2211
a(I23
I153
tp2212
a(I31
I198
tp2213
asg16
I200
sba(imain2
Polygon
p2214
(dp2215
g3
(I112
I97
tp2216
sg5
I200
sg6
(I96
I198
I66
I50
tp2217
sg8
(lp2218
(I117
I118
tp2219
a(I70
I139
tp2220
a(I97
I92
tp2221
a(I122
I146
tp2222
a(I76
I136
tp2223
a(I79
I54
tp2224
a(I98
I68
tp2225
a(I123
I104
tp2226
a(I130
I88
tp2227
a(I96
I146
tp2228
asg16
I200
sba(imain2
Polygon
p2229
(dp2230
g3
(I3
I120
tp2231
sg5
I200
sg6
(I61
I87
I145
I89
tp2232
sg8
(lp2233
(I0
I86
tp2234
a(I0
I82
tp2235
a(I1
I72
tp2236
a(I0
I109
tp2237
a(I43
I80
tp2238
asg16
I200
sba(imain2
Polygon
p2239
(dp2240
g3
(I7
I32
tp2241
sg5
I200
sg6
(I148
I29
I185
I0
tp2242
sg8
(lp2243
(I0
I45
tp2244
a(I0
I27
tp2245
a(I52
I39
tp2246
a(I8
I32
tp2247
a(I0
I51
tp2248
a(I27
I38
tp2249
a(I0
I62
tp2250
a(I0
I30
tp2251
a(I5
I14
tp2252
a(I14
I23
tp2253
a(I56
I76
tp2254
a(I0
I7
tp2255
a(I0
I0
tp2256
asg16
I200
sba(imain2
Polygon
p2257
(dp2258
g3
(I166
I95
tp2259
sg5
I200
sg6
(I185
I1
I140
I140
tp2260
sg8
(lp2261
(I192
I50
tp2262
a(I200
I127
tp2263
a(I200
I60
tp2264
asg16
I200
sba(imain2
Polygon
p2265
(dp2266
g3
(I197
I92
tp2267
sg5
I200
sg6
(I115
I6
I30
I0
tp2268
sg8
(lp2269
(I154
I60
tp2270
a(I200
I65
tp2271
a(I200
I70
tp2272
a(I155
I138
tp2273
a(I158
I100
tp2274
a(I147
I82
tp2275
a(I200
I78
tp2276
a(I200
I131
tp2277
a(I192
I87
tp2278
a(I154
I82
tp2279
a(I155
I44
tp2280
a(I197
I58
tp2281
a(I147
I62
tp2282
a(I176
I122
tp2283
asg16
I200
sba(imain2
Polygon
p2284
(dp2285
g3
(I167
I132
tp2286
sg5
I200
sg6
(I220
I55
I84
I0
tp2287
sg8
(lp2288
(I166
I121
tp2289
a(I157
I116
tp2290
a(I169
I113
tp2291
a(I134
I127
tp2292
a(I199
I86
tp2293
a(I197
I112
tp2294
a(I198
I133
tp2295
a(I175
I142
tp2296
a(I117
I113
tp2297
a(I178
I149
tp2298
a(I136
I156
tp2299
a(I132
I168
tp2300
a(I138
I92
tp2301
a(I132
I148
tp2302
asg16
I200
sba(imain2
Polygon
p2303
(dp2304
g3
(I2
I175
tp2305
sg5
I200
sg6
(I101
I198
I106
I0
tp2306
sg8
(lp2307
(I34
I200
tp2308
a(I0
I200
tp2309
a(I28
I126
tp2310
asg16
I200
sba(imain2
Polygon
p2311
(dp2312
g3
(I148
I121
tp2313
sg5
I200
sg6
(I127
I195
I132
I14
tp2314
sg8
(lp2315
(I120
I135
tp2316
a(I118
I71
tp2317
a(I101
I103
tp2318
asg16
I200
sba(imain2
Polygon
p2319
(dp2320
g3
(I26
I154
tp2321
sg5
I200
sg6
(I140
I61
I224
I25
tp2322
sg8
(lp2323
(I52
I148
tp2324
a(I0
I196
tp2325
a(I20
I155
tp2326
asg16
I200
sba(imain2
Polygon
p2327
(dp2328
g3
(I188
I60
tp2329
sg5
I200
sg6
(I21
I75
I8
I46
tp2330
sg8
(lp2331
(I148
I100
tp2332
a(I139
I27
tp2333
a(I200
I98
tp2334
a(I200
I21
tp2335
a(I200
I63
tp2336
a(I200
I22
tp2337
a(I200
I105
tp2338
asg16
I200
sba(imain2
Polygon
p2339
(dp2340
g3
(I29
I0
tp2341
sg5
I200
sg6
(I200
I201
I8
I85
tp2342
sg8
(lp2343
(I29
I0
tp2344
a(I0
I0
tp2345
a(I50
I36
tp2346
a(I45
I18
tp2347
a(I61
I0
tp2348
a(I0
I0
tp2349
a(I0
I50
tp2350
a(I70
I50
tp2351
a(I0
I0
tp2352
a(I0
I0
tp2353
a(I77
I0
tp2354
a(I74
I14
tp2355
a(I36
I44
tp2356
a(I58
I0
tp2357
a(I8
I1
tp2358
a(I5
I0
tp2359
asg16
I200
sba(imain2
Polygon
p2360
(dp2361
g3
(I92
I198
tp2362
sg5
I200
sg6
(I138
I2
I12
I57
tp2363
sg8
(lp2364
(I140
I200
tp2365
a(I67
I151
tp2366
a(I90
I200
tp2367
a(I122
I155
tp2368
a(I99
I200
tp2369
a(I73
I181
tp2370
a(I108
I179
tp2371
asg16
I200
sba(imain2
Polygon
p2372
(dp2373
g3
(I149
I42
tp2374
sg5
I200
sg6
(I90
I11
I52
I51
tp2375
sg8
(lp2376
(I99
I9
tp2377
a(I127
I88
tp2378
a(I167
I91
tp2379
a(I167
I66
tp2380
a(I135
I17
tp2381
a(I152
I62
tp2382
a(I122
I42
tp2383
a(I150
I53
tp2384
asg16
I200
sba(imain2
Polygon
p2385
(dp2386
g3
(I18
I189
tp2387
sg5
I200
sg6
(I70
I6
I170
I1
tp2388
sg8
(lp2389
(I0
I200
tp2390
a(I36
I189
tp2391
a(I61
I197
tp2392
a(I12
I200
tp2393
a(I0
I200
tp2394
a(I5
I167
tp2395
a(I59
I181
tp2396
a(I13
I200
tp2397
a(I0
I179
tp2398
a(I0
I167
tp2399
a(I68
I200
tp2400
a(I56
I183
tp2401
a(I0
I162
tp2402
a(I19
I163
tp2403
a(I0
I178
tp2404
asg16
I200
sba(imain2
Polygon
p2405
(dp2406
g3
(I88
I199
tp2407
sg5
I200
sg6
(I15
I198
I77
I70
tp2408
sg8
(lp2409
(I40
I200
tp2410
a(I133
I200
tp2411
a(I89
I200
tp2412
a(I46
I200
tp2413
a(I126
I200
tp2414
a(I62
I200
tp2415
a(I70
I200
tp2416
a(I84
I200
tp2417
asg16
I200
sba(imain2
Polygon
p2418
(dp2419
g3
(I57
I178
tp2420
sg5
I200
sg6
(I19
I117
I162
I0
tp2421
sg8
(lp2422
(I54
I200
tp2423
a(I21
I164
tp2424
a(I14
I171
tp2425
a(I47
I135
tp2426
a(I105
I163
tp2427
asg16
I200
sba(imain2
Polygon
p2428
(dp2429
g3
(I192
I63
tp2430
sg5
I200
sg6
(I115
I239
I123
I104
tp2431
sg8
(lp2432
(I200
I102
tp2433
a(I200
I19
tp2434
a(I200
I19
tp2435
a(I169
I43
tp2436
a(I142
I25
tp2437
a(I200
I102
tp2438
a(I161
I50
tp2439
a(I175
I96
tp2440
a(I200
I41
tp2441
a(I181
I96
tp2442
asg16
I200
sba(imain2
Polygon
p2443
(dp2444
g3
(I115
I149
tp2445
sg5
I200
sg6
(I104
I195
I238
I0
tp2446
sg8
(lp2447
(I89
I152
tp2448
a(I102
I100
tp2449
a(I125
I181
tp2450
a(I129
I132
tp2451
a(I84
I110
tp2452
a(I68
I102
tp2453
a(I85
I145
tp2454
a(I77
I169
tp2455
a(I130
I139
tp2456
asg16
I200
sba(imain2
Polygon
p2457
(dp2458
g3
(I89
I107
tp2459
sg5
I200
sg6
(I30
I9
I109
I94
tp2460
sg8
(lp2461
(I137
I85
tp2462
a(I127
I58
tp2463
a(I139
I80
tp2464
asg16
I200
sba(imain2
Polygon
p2465
(dp2466
g3
(I87
I130
tp2467
sg5
I200
sg6
(I167
I109
I147
I0
tp2468
sg8
(lp2469
(I42
I113
tp2470
a(I49
I92
tp2471
a(I69
I137
tp2472
a(I111
I140
tp2473
a(I96
I151
tp2474
a(I121
I130
tp2475
a(I132
I175
tp2476
a(I53
I89
tp2477
a(I87
I102
tp2478
asg16
I200
sba(imain2
Polygon
p2479
(dp2480
g3
(I62
I187
tp2481
sg5
I200
sg6
(I112
I14
I175
I49
tp2482
sg8
(lp2483
(I22
I200
tp2484
a(I110
I200
tp2485
a(I38
I200
tp2486
a(I77
I200
tp2487
a(I98
I200
tp2488
a(I71
I196
tp2489
a(I71
I200
tp2490
a(I13
I197
tp2491
a(I69
I200
tp2492
a(I45
I197
tp2493
a(I72
I200
tp2494
asg16
I200
sba(imain2
Polygon
p2495
(dp2496
g3
(I59
I26
tp2497
sg5
I200
sg6
(I57
I3
I237
I1
tp2498
sg8
(lp2499
(I109
I0
tp2500
a(I70
I14
tp2501
a(I81
I0
tp2502
a(I76
I0
tp2503
a(I104
I10
tp2504
a(I79
I61
tp2505
a(I80
I5
tp2506
a(I41
I24
tp2507
a(I79
I33
tp2508
asg16
I200
sba(imain2
Polygon
p2509
(dp2510
g3
(I74
I59
tp2511
sg5
I200
sg6
(I1
I47
I103
I0
tp2512
sg8
(lp2513
(I84
I47
tp2514
a(I36
I36
tp2515
a(I99
I13
tp2516
a(I105
I104
tp2517
a(I79
I79
tp2518
a(I93
I23
tp2519
a(I39
I17
tp2520
a(I27
I50
tp2521
a(I114
I66
tp2522
a(I44
I35
tp2523
asg16
I200
sba(imain2
Polygon
p2524
(dp2525
g3
(I141
I175
tp2526
sg5
I200
sg6
(I85
I37
I8
I1
tp2527
sg8
(lp2528
(I121
I200
tp2529
a(I134
I138
tp2530
a(I119
I183
tp2531
a(I149
I186
tp2532
a(I115
I184
tp2533
a(I149
I162
tp2534
a(I140
I164
tp2535
a(I169
I161
tp2536
a(I160
I187
tp2537
a(I128
I200
tp2538
a(I160
I169
tp2539
a(I136
I145
tp2540
a(I137
I186
tp2541
a(I136
I165
tp2542
a(I143
I165
tp2543
a(I94
I176
tp2544
a(I103
I156
tp2545
a(I146
I197
tp2546
a(I167
I133
tp2547
asg16
I200
sba(imain2
Polygon
p2548
(dp2549
g3
(I114
I81
tp2550
sg5
I200
sg6
(I234
I16
I199
I70
tp2551
sg8
(lp2552
(I121
I101
tp2553
a(I81
I76
tp2554
a(I125
I101
tp2555
a(I121
I83
tp2556
asg16
I200
sba(imain2
Polygon
p2557
(dp2558
g3
(I191
I128
tp2559
sg5
I200
sg6
(I243
I3
I243
I6
tp2560
sg8
(lp2561
(I200
I162
tp2562
a(I144
I170
tp2563
a(I200
I89
tp2564
a(I200
I148
tp2565
a(I153
I103
tp2566
a(I147
I78
tp2567
a(I167
I95
tp2568
asg16
I200
sba(imain2
Polygon
p2569
(dp2570
g3
(I40
I13
tp2571
sg5
I200
sg6
(I68
I180
I117
I1
tp2572
sg8
(lp2573
(I68
I50
tp2574
a(I55
I33
tp2575
a(I62
I16
tp2576
a(I0
I0
tp2577
a(I84
I0
tp2578
a(I0
I0
tp2579
a(I29
I47
tp2580
a(I0
I0
tp2581
a(I67
I7
tp2582
a(I68
I27
tp2583
a(I75
I36
tp2584
a(I7
I27
tp2585
a(I0
I43
tp2586
a(I65
I44
tp2587
a(I76
I0
tp2588
a(I0
I0
tp2589
a(I40
I25
tp2590
a(I0
I0
tp2591
a(I59
I0
tp2592
a(I53
I0
tp2593
a(I12
I0
tp2594
asg16
I200
sba(imain2
Polygon
p2595
(dp2596
g3
(I50
I145
tp2597
sg5
I200
sg6
(I54
I210
I123
I8
tp2598
sg8
(lp2599
(I3
I96
tp2600
a(I87
I159
tp2601
a(I82
I95
tp2602
asg16
I200
sba(imain2
Polygon
p2603
(dp2604
g3
(I184
I69
tp2605
sg5
I200
sg6
(I121
I136
I35
I141
tp2606
sg8
(lp2607
(I200
I63
tp2608
a(I200
I31
tp2609
a(I200
I33
tp2610
a(I200
I67
tp2611
a(I164
I71
tp2612
a(I174
I114
tp2613
a(I200
I115
tp2614
a(I200
I62
tp2615
a(I195
I79
tp2616
asg16
I200
sba(imain2
Polygon
p2617
(dp2618
g3
(I6
I29
tp2619
sg5
I200
sg6
(I137
I34
I214
I1
tp2620
sg8
(lp2621
(I56
I14
tp2622
a(I22
I17
tp2623
a(I0
I41
tp2624
a(I0
I11
tp2625
a(I48
I0
tp2626
a(I28
I0
tp2627
asg16
I200
sba(imain2
Polygon
p2628
(dp2629
g3
(I100
I197
tp2630
sg5
I200
sg6
(I27
I135
I60
I68
tp2631
sg8
(lp2632
(I123
I200
tp2633
a(I79
I200
tp2634
a(I130
I200
tp2635
a(I68
I200
tp2636
a(I147
I200
tp2637
asg16
I200
sba(imain2
Polygon
p2638
(dp2639
g3
(I102
I67
tp2640
sg5
I200
sg6
(I107
I63
I86
I0
tp2641
sg8
(lp2642
(I136
I109
tp2643
a(I146
I64
tp2644
a(I144
I70
tp2645
a(I83
I63
tp2646
a(I116
I116
tp2647
a(I84
I99
tp2648
a(I85
I70
tp2649
a(I138
I88
tp2650
asg16
I200
sba(imain2
Polygon
p2651
(dp2652
g3
(I91
I124
tp2653
sg5
I200
sg6
(I165
I66
I8
I107
tp2654
sg8
(lp2655
(I41
I114
tp2656
a(I80
I127
tp2657
a(I83
I75
tp2658
a(I119
I114
tp2659
a(I115
I160
tp2660
a(I45
I142
tp2661
a(I66
I81
tp2662
a(I119
I80
tp2663
a(I129
I117
tp2664
a(I81
I119
tp2665
a(I76
I76
tp2666
a(I54
I89
tp2667
a(I76
I94
tp2668
a(I51
I90
tp2669
asg16
I200
sba(imain2
Polygon
p2670
(dp2671
g3
(I133
I74
tp2672
sg5
I200
sg6
(I15
I173
I90
I1
tp2673
sg8
(lp2674
(I93
I104
tp2675
a(I116
I102
tp2676
a(I97
I91
tp2677
a(I157
I40
tp2678
a(I132
I33
tp2679
a(I106
I93
tp2680
a(I153
I122
tp2681
a(I137
I81
tp2682
a(I153
I42
tp2683
a(I90
I44
tp2684
a(I181
I26
tp2685
a(I134
I86
tp2686
a(I154
I71
tp2687
a(I166
I88
tp2688
a(I129
I45
tp2689
asg16
I200
sba(imain2
Polygon
p2690
(dp2691
g3
(I181
I185
tp2692
sg5
I200
sg6
(I0
I135
I60
I0
tp2693
sg8
(lp2694
(I192
I200
tp2695
a(I197
I153
tp2696
a(I200
I157
tp2697
asg16
I200
sba(imain2
Polygon
p2698
(dp2699
g3
(I3
I9
tp2700
sg5
I200
sg6
(I111
I13
I41
I108
tp2701
sg8
(lp2702
(I0
I0
tp2703
a(I49
I0
tp2704
a(I0
I0
tp2705
asg16
I200
sba(imain2
Polygon
p2706
(dp2707
g3
(I154
I22
tp2708
sg5
I200
sg6
(I80
I179
I129
I0
tp2709
sg8
(lp2710
(I198
I49
tp2711
a(I180
I27
tp2712
a(I193
I61
tp2713
a(I124
I56
tp2714
a(I149
I0
tp2715
asg16
I200
sba(imain2
Polygon
p2716
(dp2717
g3
(I3
I51
tp2718
sg5
I200
sg6
(I8
I164
I11
I24
tp2719
sg8
(lp2720
(I0
I63
tp2721
a(I0
I78
tp2722
a(I0
I93
tp2723
asg16
I200
sba(imain2
Polygon
p2724
(dp2725
g3
(I183
I123
tp2726
sg5
I200
sg6
(I43
I171
I187
I86
tp2727
sg8
(lp2728
(I200
I171
tp2729
a(I200
I140
tp2730
a(I200
I152
tp2731
asg16
I200
sba.