(lp0
(imain2
Polygon
p1
(dp2
S'origin'
p3
(I100
I102
tp4
sS'h'
p5
I200
sS'color'
p6
(I132
I173
I188
I0
tp7
sS'corner_list'
p8
(lp9
(I77
I128
tp10
a(I98
I143
tp11
a(I128
I109
tp12
a(I126
I102
tp13
a(I83
I86
tp14
a(I62
I111
tp15
asS'w'
p16
I200
sba(imain2
Polygon
p17
(dp18
g3
(I142
I122
tp19
sg5
I200
sg6
(I20
I220
I130
I30
tp20
sg8
(lp21
(I101
I108
tp22
a(I95
I104
tp23
a(I106
I160
tp24
a(I147
I155
tp25
a(I109
I157
tp26
a(I93
I95
tp27
a(I119
I85
tp28
a(I188
I130
tp29
a(I164
I94
tp30
a(I192
I113
tp31
a(I136
I104
tp32
a(I134
I86
tp33
a(I102
I138
tp34
asg16
I200
sba(imain2
Polygon
p35
(dp36
g3
(I39
I24
tp37
sg5
I200
sg6
(I240
I162
I199
I0
tp38
sg8
(lp39
(I58
I0
tp40
a(I42
I0
tp41
a(I43
I65
tp42
a(I50
I25
tp43
asg16
I200
sba(imain2
Polygon
p44
(dp45
g3
(I87
I73
tp46
sg5
I200
sg6
(I160
I18
I197
I89
tp47
sg8
(lp48
(I103
I121
tp49
a(I74
I69
tp50
a(I82
I102
tp51
a(I62
I79
tp52
a(I68
I47
tp53
a(I56
I110
tp54
a(I92
I70
tp55
a(I63
I114
tp56
a(I47
I56
tp57
a(I77
I37
tp58
a(I131
I68
tp59
a(I58
I120
tp60
a(I85
I120
tp61
a(I80
I99
tp62
asg16
I200
sba(imain2
Polygon
p63
(dp64
g3
(I75
I185
tp65
sg5
I200
sg6
(I70
I0
I89
I78
tp66
sg8
(lp67
(I84
I199
tp68
a(I125
I163
tp69
a(I123
I140
tp70
a(I120
I200
tp71
a(I83
I200
tp72
a(I68
I195
tp73
a(I98
I174
tp74
a(I100
I200
tp75
asg16
I200
sba(imain2
Polygon
p76
(dp77
g3
(I51
I161
tp78
sg5
I200
sg6
(I130
I131
I14
I91
tp79
sg8
(lp80
(I86
I200
tp81
a(I55
I200
tp82
a(I96
I190
tp83
a(I67
I140
tp84
a(I76
I152
tp85
asg16
I200
sba(imain2
Polygon
p86
(dp87
g3
(I76
I107
tp88
sg5
I200
sg6
(I159
I37
I202
I109
tp89
sg8
(lp90
(I113
I136
tp91
a(I40
I71
tp92
a(I56
I71
tp93
a(I55
I67
tp94
a(I115
I57
tp95
a(I107
I154
tp96
a(I53
I141
tp97
a(I48
I92
tp98
a(I101
I62
tp99
a(I75
I123
tp100
a(I85
I132
tp101
a(I87
I117
tp102
asg16
I200
sba(imain2
Polygon
p103
(dp104
g3
(I79
I45
tp105
sg5
I200
sg6
(I221
I1
I240
I0
tp106
sg8
(lp107
(I84
I11
tp108
a(I121
I88
tp109
a(I37
I47
tp110
a(I70
I64
tp111
a(I88
I9
tp112
asg16
I200
sba(imain2
Polygon
p113
(dp114
g3
(I123
I186
tp115
sg5
I200
sg6
(I47
I14
I42
I0
tp116
sg8
(lp117
(I93
I159
tp118
a(I119
I194
tp119
a(I93
I190
tp120
asg16
I200
sba(imain2
Polygon
p121
(dp122
g3
(I74
I162
tp123
sg5
I200
sg6
(I155
I93
I212
I1
tp124
sg8
(lp125
(I111
I187
tp126
a(I28
I142
tp127
a(I74
I188
tp128
a(I60
I138
tp129
a(I124
I140
tp130
a(I44
I200
tp131
a(I54
I193
tp132
a(I62
I188
tp133
a(I124
I196
tp134
a(I110
I141
tp135
a(I120
I166
tp136
asg16
I200
sba(imain2
Polygon
p137
(dp138
g3
(I64
I120
tp139
sg5
I200
sg6
(I232
I40
I170
I1
tp140
sg8
(lp141
(I113
I141
tp142
a(I100
I116
tp143
a(I105
I141
tp144
a(I104
I125
tp145
asg16
I200
sba(imain2
Polygon
p146
(dp147
g3
(I2
I37
tp148
sg5
I200
sg6
(I134
I133
I101
I109
tp149
sg8
(lp150
(I0
I0
tp151
a(I45
I3
tp152
a(I4
I47
tp153
a(I20
I35
tp154
a(I0
I66
tp155
a(I41
I3
tp156
a(I36
I68
tp157
a(I21
I15
tp158
a(I39
I86
tp159
a(I0
I85
tp160
a(I0
I9
tp161
asg16
I200
sba(imain2
Polygon
p162
(dp163
g3
(I161
I116
tp164
sg5
I200
sg6
(I151
I91
I113
I52
tp165
sg8
(lp166
(I191
I88
tp167
a(I200
I162
tp168
a(I168
I90
tp169
a(I170
I71
tp170
a(I163
I108
tp171
a(I174
I126
tp172
a(I198
I163
tp173
a(I182
I147
tp174
a(I200
I152
tp175
asg16
I200
sba(imain2
Polygon
p176
(dp177
g3
(I171
I44
tp178
sg5
I200
sg6
(I131
I236
I105
I109
tp179
sg8
(lp180
(I151
I30
tp181
a(I157
I22
tp182
a(I200
I89
tp183
a(I200
I0
tp184
a(I132
I0
tp185
a(I134
I21
tp186
a(I132
I4
tp187
a(I161
I77
tp188
a(I200
I93
tp189
a(I143
I0
tp190
a(I170
I71
tp191
a(I157
I81
tp192
a(I146
I0
tp193
asg16
I200
sba(imain2
Polygon
p194
(dp195
g3
(I196
I163
tp196
sg5
I200
sg6
(I37
I166
I6
I21
tp197
sg8
(lp198
(I195
I117
tp199
a(I200
I197
tp200
a(I200
I191
tp201
a(I200
I134
tp202
a(I193
I170
tp203
a(I200
I141
tp204
a(I155
I170
tp205
a(I200
I182
tp206
a(I200
I148
tp207
a(I200
I114
tp208
a(I170
I173
tp209
a(I179
I115
tp210
a(I171
I129
tp211
asg16
I200
sba(imain2
Polygon
p212
(dp213
g3
(I123
I35
tp214
sg5
I200
sg6
(I142
I61
I71
I1
tp215
sg8
(lp216
(I117
I1
tp217
a(I134
I57
tp218
a(I79
I65
tp219
a(I158
I15
tp220
a(I90
I72
tp221
a(I126
I0
tp222
a(I94
I0
tp223
a(I100
I0
tp224
a(I130
I0
tp225
asg16
I200
sba(imain2
Polygon
p226
(dp227
g3
(I38
I152
tp228
sg5
I200
sg6
(I92
I165
I32
I129
tp229
sg8
(lp230
(I87
I136
tp231
a(I53
I103
tp232
a(I49
I126
tp233
a(I73
I158
tp234
asg16
I200
sba(imain2
Polygon
p235
(dp236
g3
(I118
I157
tp237
sg5
I200
sg6
(I85
I63
I43
I0
tp238
sg8
(lp239
(I79
I185
tp240
a(I115
I173
tp241
a(I168
I133
tp242
a(I160
I116
tp243
asg16
I200
sba(imain2
Polygon
p244
(dp245
g3
(I10
I175
tp246
sg5
I200
sg6
(I174
I52
I60
I13
tp247
sg8
(lp248
(I0
I141
tp249
a(I0
I183
tp250
a(I0
I200
tp251
a(I29
I188
tp252
asg16
I200
sba(imain2
Polygon
p253
(dp254
g3
(I4
I131
tp255
sg5
I200
sg6
(I122
I51
I61
I1
tp256
sg8
(lp257
(I25
I135
tp258
a(I2
I88
tp259
a(I0
I173
tp260
a(I45
I150
tp261
a(I0
I145
tp262
a(I18
I159
tp263
a(I41
I133
tp264
a(I31
I145
tp265
a(I19
I89
tp266
a(I0
I108
tp267
a(I12
I86
tp268
a(I0
I178
tp269
asg16
I200
sba(imain2
Polygon
p270
(dp271
g3
(I75
I51
tp272
sg5
I200
sg6
(I101
I197
I0
I10
tp273
sg8
(lp274
(I73
I93
tp275
a(I60
I74
tp276
a(I34
I7
tp277
a(I105
I56
tp278
a(I112
I100
tp279
asg16
I200
sba(imain2
Polygon
p280
(dp281
g3
(I18
I101
tp282
sg5
I200
sg6
(I0
I11
I66
I42
tp283
sg8
(lp284
(I0
I99
tp285
a(I15
I116
tp286
a(I0
I56
tp287
a(I5
I78
tp288
a(I20
I101
tp289
a(I0
I130
tp290
a(I45
I64
tp291
asg16
I200
sba(imain2
Polygon
p292
(dp293
g3
(I97
I199
tp294
sg5
I200
sg6
(I0
I107
I44
I107
tp295
sg8
(lp296
(I91
I200
tp297
a(I134
I200
tp298
a(I135
I171
tp299
a(I78
I156
tp300
a(I97
I158
tp301
a(I127
I200
tp302
a(I118
I173
tp303
a(I87
I171
tp304
a(I99
I160
tp305
a(I95
I152
tp306
a(I97
I200
tp307
asg16
I200
sba(imain2
Polygon
p308
(dp309
g3
(I102
I104
tp310
sg5
I200
sg6
(I219
I121
I126
I64
tp311
sg8
(lp312
(I105
I151
tp313
a(I105
I63
tp314
a(I59
I58
tp315
a(I57
I131
tp316
a(I74
I153
tp317
asg16
I200
sba(imain2
Polygon
p318
(dp319
g3
(I177
I176
tp320
sg5
I200
sg6
(I112
I207
I214
I41
tp321
sg8
(lp322
(I200
I138
tp323
a(I167
I145
tp324
a(I200
I200
tp325
asg16
I200
sba(imain2
Polygon
p326
(dp327
g3
(I99
I27
tp328
sg5
I200
sg6
(I71
I83
I1
I104
tp329
sg8
(lp330
(I143
I0
tp331
a(I53
I0
tp332
a(I97
I73
tp333
a(I139
I50
tp334
a(I73
I29
tp335
asg16
I200
sba(imain2
Polygon
p336
(dp337
g3
(I138
I156
tp338
sg5
I200
sg6
(I16
I57
I186
I1
tp339
sg8
(lp340
(I134
I187
tp341
a(I91
I144
tp342
a(I111
I148
tp343
a(I101
I146
tp344
asg16
I200
sba(imain2
Polygon
p345
(dp346
g3
(I100
I129
tp347
sg5
I200
sg6
(I113
I215
I219
I1
tp348
sg8
(lp349
(I93
I100
tp350
a(I85
I161
tp351
a(I66
I171
tp352
a(I97
I125
tp353
a(I107
I176
tp354
asg16
I200
sba(imain2
Polygon
p355
(dp356
g3
(I90
I2
tp357
sg5
I200
sg6
(I194
I194
I1
I1
tp358
sg8
(lp359
(I132
I0
tp360
a(I109
I0
tp361
a(I88
I0
tp362
a(I82
I20
tp363
a(I90
I51
tp364
a(I89
I45
tp365
a(I79
I40
tp366
a(I66
I0
tp367
a(I55
I0
tp368
a(I52
I0
tp369
asg16
I200
sba(imain2
Polygon
p370
(dp371
g3
(I76
I49
tp372
sg5
I200
sg6
(I245
I163
I175
I97
tp373
sg8
(lp374
(I52
I54
tp375
a(I62
I34
tp376
a(I99
I36
tp377
a(I124
I78
tp378
a(I91
I88
tp379
a(I47
I82
tp380
asg16
I200
sba(imain2
Polygon
p381
(dp382
g3
(I135
I193
tp383
sg5
I200
sg6
(I201
I198
I62
I1
tp384
sg8
(lp385
(I131
I160
tp386
a(I146
I200
tp387
a(I87
I200
tp388
a(I91
I200
tp389
a(I178
I191
tp390
a(I146
I200
tp391
a(I129
I171
tp392
a(I124
I144
tp393
a(I149
I200
tp394
a(I150
I200
tp395
asg16
I200
sba(imain2
Polygon
p396
(dp397
g3
(I156
I197
tp398
sg5
I200
sg6
(I78
I232
I78
I2
tp399
sg8
(lp400
(I183
I162
tp401
a(I198
I200
tp402
a(I112
I200
tp403
a(I108
I171
tp404
a(I196
I200
tp405
asg16
I200
sba(imain2
Polygon
p406
(dp407
g3
(I159
I95
tp408
sg5
I200
sg6
(I161
I19
I15
I1
tp409
sg8
(lp410
(I196
I80
tp411
a(I177
I72
tp412
a(I114
I45
tp413
a(I184
I46
tp414
a(I184
I145
tp415
a(I154
I110
tp416
a(I130
I98
tp417
a(I163
I133
tp418
a(I136
I123
tp419
asg16
I200
sba(imain2
Polygon
p420
(dp421
g3
(I130
I187
tp422
sg5
I200
sg6
(I177
I73
I86
I67
tp423
sg8
(lp424
(I138
I200
tp425
a(I161
I187
tp426
a(I161
I161
tp427
a(I168
I192
tp428
a(I164
I200
tp429
a(I97
I159
tp430
a(I90
I200
tp431
asg16
I200
sba(imain2
Polygon
p432
(dp433
g3
(I56
I194
tp434
sg5
I200
sg6
(I191
I172
I1
I32
tp435
sg8
(lp436
(I99
I158
tp437
a(I59
I200
tp438
a(I15
I171
tp439
a(I36
I176
tp440
a(I24
I145
tp441
a(I7
I195
tp442
a(I6
I200
tp443
a(I75
I169
tp444
a(I20
I200
tp445
a(I102
I200
tp446
a(I101
I170
tp447
asg16
I200
sba(imain2
Polygon
p448
(dp449
g3
(I180
I160
tp450
sg5
I200
sg6
(I28
I39
I107
I50
tp451
sg8
(lp452
(I160
I132
tp453
a(I163
I195
tp454
a(I200
I200
tp455
a(I159
I131
tp456
a(I200
I132
tp457
a(I200
I161
tp458
a(I200
I118
tp459
a(I161
I136
tp460
a(I200
I128
tp461
a(I200
I139
tp462
asg16
I200
sba(imain2
Polygon
p463
(dp464
g3
(I12
I87
tp465
sg5
I200
sg6
(I48
I129
I182
I3
tp466
sg8
(lp467
(I0
I133
tp468
a(I0
I54
tp469
a(I20
I73
tp470
a(I0
I107
tp471
a(I0
I121
tp472
asg16
I200
sba(imain2
Polygon
p473
(dp474
g3
(I123
I91
tp475
sg5
I200
sg6
(I229
I0
I184
I52
tp476
sg8
(lp477
(I93
I69
tp478
a(I99
I140
tp479
a(I73
I67
tp480
a(I77
I123
tp481
asg16
I200
sba(imain2
Polygon
p482
(dp483
g3
(I80
I122
tp484
sg5
I200
sg6
(I220
I175
I139
I72
tp485
sg8
(lp486
(I116
I143
tp487
a(I129
I85
tp488
a(I44
I101
tp489
a(I75
I158
tp490
a(I123
I146
tp491
asg16
I200
sba(imain2
Polygon
p492
(dp493
g3
(I119
I156
tp494
sg5
I200
sg6
(I125
I213
I195
I44
tp495
sg8
(lp496
(I96
I178
tp497
a(I141
I200
tp498
a(I103
I123
tp499
a(I90
I178
tp500
a(I70
I199
tp501
a(I133
I200
tp502
a(I69
I119
tp503
a(I102
I114
tp504
a(I114
I170
tp505
a(I88
I157
tp506
asg16
I200
sba(imain2
Polygon
p507
(dp508
g3
(I66
I96
tp509
sg5
I200
sg6
(I106
I72
I64
I91
tp510
sg8
(lp511
(I24
I133
tp512
a(I20
I88
tp513
a(I59
I80
tp514
a(I72
I129
tp515
a(I100
I145
tp516
a(I30
I82
tp517
a(I36
I114
tp518
asg16
I200
sba(imain2
Polygon
p519
(dp520
g3
(I17
I178
tp521
sg5
I200
sg6
(I81
I64
I11
I0
tp522
sg8
(lp523
(I0
I175
tp524
a(I1
I200
tp525
a(I0
I174
tp526
a(I17
I200
tp527
a(I20
I150
tp528
a(I0
I128
tp529
a(I11
I166
tp530
a(I45
I141
tp531
a(I63
I188
tp532
asg16
I200
sba(imain2
Polygon
p533
(dp534
g3
(I196
I157
tp535
sg5
I200
sg6
(I26
I207
I67
I1
tp536
sg8
(lp537
(I147
I199
tp538
a(I200
I112
tp539
a(I200
I161
tp540
a(I200
I187
tp541
a(I200
I158
tp542
a(I200
I123
tp543
a(I147
I107
tp544
a(I165
I144
tp545
a(I200
I113
tp546
a(I200
I173
tp547
a(I200
I152
tp548
a(I189
I174
tp549
a(I200
I151
tp550
a(I154
I109
tp551
a(I161
I119
tp552
a(I200
I151
tp553
a(I163
I139
tp554
a(I158
I128
tp555
asg16
I200
sba(imain2
Polygon
p556
(dp557
g3
(I7
I138
tp558
sg5
I200
sg6
(I208
I109
I8
I1
tp559
sg8
(lp560
(I0
I174
tp561
a(I0
I131
tp562
a(I0
I109
tp563
a(I0
I120
tp564
a(I11
I151
tp565
a(I0
I88
tp566
a(I0
I180
tp567
a(I25
I106
tp568
a(I0
I157
tp569
a(I0
I147
tp570
a(I21
I180
tp571
a(I0
I158
tp572
a(I24
I89
tp573
a(I41
I89
tp574
asg16
I200
sba(imain2
Polygon
p575
(dp576
g3
(I49
I75
tp577
sg5
I200
sg6
(I117
I227
I9
I19
tp578
sg8
(lp579
(I97
I31
tp580
a(I96
I95
tp581
a(I60
I123
tp582
a(I28
I81
tp583
a(I35
I74
tp584
a(I91
I46
tp585
a(I35
I64
tp586
a(I75
I88
tp587
a(I0
I118
tp588
a(I3
I64
tp589
a(I8
I49
tp590
a(I41
I49
tp591
a(I53
I73
tp592
a(I77
I48
tp593
a(I41
I61
tp594
a(I63
I36
tp595
asg16
I200
sba(imain2
Polygon
p596
(dp597
g3
(I75
I73
tp598
sg5
I200
sg6
(I161
I134
I134
I133
tp599
sg8
(lp600
(I108
I39
tp601
a(I123
I118
tp602
a(I47
I117
tp603
a(I62
I34
tp604
asg16
I200
sba(imain2
Polygon
p605
(dp606
g3
(I82
I103
tp607
sg5
I200
sg6
(I94
I95
I59
I0
tp608
sg8
(lp609
(I49
I116
tp610
a(I83
I145
tp611
a(I53
I131
tp612
a(I124
I68
tp613
a(I36
I91
tp614
a(I67
I133
tp615
a(I98
I99
tp616
a(I95
I67
tp617
a(I97
I112
tp618
a(I78
I128
tp619
a(I39
I61
tp620
a(I43
I63
tp621
a(I41
I99
tp622
a(I132
I75
tp623
a(I128
I131
tp624
a(I102
I131
tp625
a(I91
I128
tp626
a(I55
I149
tp627
asg16
I200
sba(imain2
Polygon
p628
(dp629
g3
(I126
I26
tp630
sg5
I200
sg6
(I237
I182
I126
I107
tp631
sg8
(lp632
(I138
I12
tp633
a(I148
I21
tp634
a(I124
I16
tp635
a(I83
I10
tp636
a(I77
I0
tp637
a(I162
I0
tp638
a(I176
I38
tp639
a(I168
I75
tp640
asg16
I200
sba(imain2
Polygon
p641
(dp642
g3
(I128
I23
tp643
sg5
I200
sg6
(I105
I0
I84
I0
tp644
sg8
(lp645
(I125
I0
tp646
a(I97
I3
tp647
a(I137
I0
tp648
a(I147
I0
tp649
a(I167
I24
tp650
a(I139
I0
tp651
a(I100
I9
tp652
a(I116
I0
tp653
a(I112
I0
tp654
a(I157
I34
tp655
a(I144
I0
tp656
a(I92
I33
tp657
a(I172
I71
tp658
a(I107
I22
tp659
asg16
I200
sba(imain2
Polygon
p660
(dp661
g3
(I147
I59
tp662
sg5
I200
sg6
(I1
I240
I188
I60
tp663
sg8
(lp664
(I191
I38
tp665
a(I155
I19
tp666
a(I190
I84
tp667
asg16
I200
sba(imain2
Polygon
p668
(dp669
g3
(I105
I192
tp670
sg5
I200
sg6
(I177
I19
I173
I0
tp671
sg8
(lp672
(I150
I178
tp673
a(I68
I169
tp674
a(I97
I200
tp675
a(I118
I200
tp676
a(I87
I152
tp677
asg16
I200
sba(imain2
Polygon
p678
(dp679
g3
(I144
I60
tp680
sg5
I200
sg6
(I59
I233
I7
I1
tp681
sg8
(lp682
(I100
I77
tp683
a(I157
I97
tp684
a(I151
I46
tp685
a(I108
I75
tp686
a(I122
I34
tp687
a(I180
I75
tp688
a(I143
I104
tp689
a(I114
I17
tp690
asg16
I200
sba(imain2
Polygon
p691
(dp692
g3
(I177
I86
tp693
sg5
I200
sg6
(I168
I32
I16
I1
tp694
sg8
(lp695
(I179
I46
tp696
a(I165
I74
tp697
a(I200
I62
tp698
a(I167
I118
tp699
a(I200
I65
tp700
a(I141
I67
tp701
a(I174
I90
tp702
asg16
I200
sba(imain2
Polygon
p703
(dp704
g3
(I157
I117
tp705
sg5
I200
sg6
(I43
I28
I0
I54
tp706
sg8
(lp707
(I187
I153
tp708
a(I200
I147
tp709
a(I128
I75
tp710
a(I191
I152
tp711
a(I198
I74
tp712
a(I183
I145
tp713
a(I133
I77
tp714
a(I200
I166
tp715
a(I132
I108
tp716
asg16
I200
sba(imain2
Polygon
p717
(dp718
g3
(I155
I192
tp719
sg5
I200
sg6
(I1
I33
I195
I0
tp720
sg8
(lp721
(I200
I165
tp722
a(I190
I150
tp723
a(I128
I195
tp724
a(I144
I154
tp725
a(I175
I200
tp726
a(I178
I193
tp727
a(I110
I173
tp728
a(I153
I200
tp729
a(I155
I187
tp730
a(I194
I181
tp731
a(I158
I185
tp732
a(I195
I184
tp733
asg16
I200
sba(imain2
Polygon
p734
(dp735
g3
(I103
I158
tp736
sg5
I200
sg6
(I13
I44
I119
I58
tp737
sg8
(lp738
(I107
I154
tp739
a(I87
I181
tp740
a(I127
I113
tp741
a(I121
I144
tp742
a(I82
I153
tp743
a(I131
I117
tp744
a(I66
I200
tp745
a(I96
I148
tp746
asg16
I200
sba(imain2
Polygon
p747
(dp748
g3
(I9
I151
tp749
sg5
I200
sg6
(I120
I83
I56
I34
tp750
sg8
(lp751
(I0
I194
tp752
a(I0
I173
tp753
a(I0
I126
tp754
a(I21
I130
tp755
a(I0
I157
tp756
a(I6
I192
tp757
a(I44
I122
tp758
a(I0
I159
tp759
asg16
I200
sba(imain2
Polygon
p760
(dp761
g3
(I114
I115
tp762
sg5
I200
sg6
(I165
I158
I137
I1
tp763
sg8
(lp764
(I136
I133
tp765
a(I156
I103
tp766
a(I64
I113
tp767
a(I76
I151
tp768
a(I75
I83
tp769
a(I144
I106
tp770
a(I99
I110
tp771
asg16
I200
sba(imain2
Polygon
p772
(dp773
g3
(I114
I99
tp774
sg5
I200
sg6
(I61
I240
I7
I48
tp775
sg8
(lp776
(I128
I108
tp777
a(I104
I71
tp778
a(I95
I126
tp779
a(I85
I70
tp780
a(I72
I108
tp781
a(I117
I58
tp782
a(I70
I56
tp783
a(I109
I134
tp784
a(I103
I135
tp785
a(I69
I62
tp786
a(I139
I67
tp787
a(I84
I133
tp788
asg16
I200
sba(imain2
Polygon
p789
(dp790
g3
(I173
I62
tp791
sg5
I200
sg6
(I1
I41
I167
I97
tp792
sg8
(lp793
(I200
I82
tp794
a(I200
I84
tp795
a(I168
I49
tp796
a(I200
I89
tp797
asg16
I200
sba(imain2
Polygon
p798
(dp799
g3
(I199
I171
tp800
sg5
I200
sg6
(I0
I233
I13
I21
tp801
sg8
(lp802
(I200
I164
tp803
a(I200
I174
tp804
a(I162
I194
tp805
asg16
I200
sba(imain2
Polygon
p806
(dp807
g3
(I195
I126
tp808
sg5
I200
sg6
(I211
I215
I27
I1
tp809
sg8
(lp810
(I182
I167
tp811
a(I176
I160
tp812
a(I172
I118
tp813
a(I200
I164
tp814
a(I200
I93
tp815
a(I200
I114
tp816
a(I175
I79
tp817
a(I200
I91
tp818
a(I188
I145
tp819
a(I170
I107
tp820
a(I183
I169
tp821
a(I199
I106
tp822
a(I170
I145
tp823
a(I187
I122
tp824
a(I186
I158
tp825
a(I200
I156
tp826
a(I200
I136
tp827
asg16
I200
sba(imain2
Polygon
p828
(dp829
g3
(I51
I190
tp830
sg5
I200
sg6
(I124
I172
I99
I57
tp831
sg8
(lp832
(I53
I200
tp833
a(I11
I200
tp834
a(I86
I200
tp835
a(I60
I200
tp836
a(I96
I168
tp837
a(I97
I200
tp838
a(I14
I192
tp839
a(I88
I200
tp840
asg16
I200
sba(imain2
Polygon
p841
(dp842
g3
(I200
I5
tp843
sg5
I200
sg6
(I187
I107
I44
I1
tp844
sg8
(lp845
(I200
I50
tp846
a(I200
I17
tp847
a(I200
I0
tp848
a(I200
I17
tp849
a(I185
I0
tp850
a(I200
I0
tp851
a(I200
I0
tp852
a(I200
I0
tp853
a(I200
I0
tp854
a(I186
I38
tp855
asg16
I200
sba(imain2
Polygon
p856
(dp857
g3
(I147
I166
tp858
sg5
I200
sg6
(I114
I241
I223
I9
tp859
sg8
(lp860
(I108
I131
tp861
a(I109
I190
tp862
a(I179
I180
tp863
a(I123
I166
tp864
a(I132
I125
tp865
a(I110
I196
tp866
a(I108
I150
tp867
asg16
I200
sba(imain2
Polygon
p868
(dp869
g3
(I16
I191
tp870
sg5
I200
sg6
(I128
I46
I221
I1
tp871
sg8
(lp872
(I0
I154
tp873
a(I59
I200
tp874
a(I55
I168
tp875
asg16
I200
sba(imain2
Polygon
p876
(dp877
g3
(I94
I9
tp878
sg5
I200
sg6
(I199
I50
I20
I1
tp879
sg8
(lp880
(I59
I24
tp881
a(I131
I0
tp882
a(I130
I0
tp883
a(I83
I0
tp884
a(I123
I3
tp885
a(I62
I0
tp886
a(I67
I26
tp887
a(I87
I56
tp888
a(I99
I22
tp889
a(I109
I25
tp890
a(I137
I19
tp891
a(I50
I53
tp892
asg16
I200
sba(imain2
Polygon
p893
(dp894
g3
(I111
I113
tp895
sg5
I200
sg6
(I89
I30
I145
I0
tp896
sg8
(lp897
(I83
I120
tp898
a(I95
I159
tp899
a(I120
I136
tp900
a(I150
I136
tp901
asg16
I200
sba(imain2
Polygon
p902
(dp903
g3
(I10
I81
tp904
sg5
I200
sg6
(I220
I162
I193
I1
tp905
sg8
(lp906
(I60
I131
tp907
a(I0
I33
tp908
a(I0
I129
tp909
a(I12
I107
tp910
a(I11
I125
tp911
a(I59
I45
tp912
a(I0
I116
tp913
a(I0
I77
tp914
a(I22
I107
tp915
a(I46
I129
tp916
a(I2
I80
tp917
asg16
I200
sba(imain2
Polygon
p918
(dp919
g3
(I10
I22
tp920
sg5
I200
sg6
(I217
I204
I104
I68
tp921
sg8
(lp922
(I0
I19
tp923
a(I41
I0
tp924
a(I47
I58
tp925
a(I19
I72
tp926
a(I0
I70
tp927
a(I12
I0
tp928
a(I0
I0
tp929
a(I0
I66
tp930
a(I13
I7
tp931
a(I0
I14
tp932
a(I26
I4
tp933
a(I0
I13
tp934
a(I15
I70
tp935
asg16
I200
sba(imain2
Polygon
p936
(dp937
g3
(I19
I169
tp938
sg5
I200
sg6
(I89
I215
I79
I1
tp939
sg8
(lp940
(I41
I147
tp941
a(I68
I169
tp942
a(I20
I192
tp943
a(I66
I163
tp944
a(I7
I200
tp945
a(I0
I166
tp946
asg16
I200
sba(imain2
Polygon
p947
(dp948
g3
(I194
I7
tp949
sg5
I200
sg6
(I162
I89
I133
I2
tp950
sg8
(lp951
(I200
I44
tp952
a(I200
I0
tp953
a(I200
I35
tp954
a(I160
I25
tp955
a(I170
I0
tp956
a(I184
I0
tp957
a(I200
I0
tp958
a(I200
I29
tp959
a(I200
I51
tp960
a(I200
I45
tp961
asg16
I200
sba(imain2
Polygon
p962
(dp963
g3
(I42
I15
tp964
sg5
I200
sg6
(I147
I136
I163
I1
tp965
sg8
(lp966
(I55
I36
tp967
a(I61
I9
tp968
a(I73
I63
tp969
a(I0
I65
tp970
a(I11
I0
tp971
a(I12
I32
tp972
a(I91
I0
tp973
a(I20
I58
tp974
asg16
I200
sba(imain2
Polygon
p975
(dp976
g3
(I183
I77
tp977
sg5
I200
sg6
(I25
I141
I27
I30
tp978
sg8
(lp979
(I146
I55
tp980
a(I200
I86
tp981
a(I156
I32
tp982
a(I189
I40
tp983
a(I200
I100
tp984
a(I200
I90
tp985
a(I178
I51
tp986
asg16
I200
sba(imain2
Polygon
p987
(dp988
g3
(I190
I45
tp989
sg5
I200
sg6
(I177
I45
I183
I0
tp990
sg8
(lp991
(I200
I8
tp992
a(I200
I26
tp993
a(I200
I14
tp994
a(I200
I46
tp995
a(I179
I86
tp996
a(I179
I6
tp997
a(I183
I37
tp998
a(I200
I7
tp999
a(I153
I38
tp1000
asg16
I200
sba(imain2
Polygon
p1001
(dp1002
g3
(I115
I69
tp1003
sg5
I200
sg6
(I0
I121
I192
I0
tp1004
sg8
(lp1005
(I121
I86
tp1006
a(I84
I62
tp1007
a(I136
I59
tp1008
a(I118
I32
tp1009
asg16
I200
sba(imain2
Polygon
p1010
(dp1011
g3
(I173
I121
tp1012
sg5
I200
sg6
(I242
I53
I20
I1
tp1013
sg8
(lp1014
(I155
I105
tp1015
a(I137
I112
tp1016
a(I164
I125
tp1017
a(I169
I95
tp1018
a(I184
I89
tp1019
a(I180
I71
tp1020
a(I192
I122
tp1021
a(I144
I170
tp1022
asg16
I200
sba(imain2
Polygon
p1023
(dp1024
g3
(I45
I135
tp1025
sg5
I200
sg6
(I148
I126
I175
I39
tp1026
sg8
(lp1027
(I7
I177
tp1028
a(I21
I178
tp1029
a(I23
I86
tp1030
a(I14
I133
tp1031
a(I35
I86
tp1032
a(I9
I89
tp1033
asg16
I200
sba(imain2
Polygon
p1034
(dp1035
g3
(I61
I48
tp1036
sg5
I200
sg6
(I76
I33
I123
I112
tp1037
sg8
(lp1038
(I71
I86
tp1039
a(I81
I91
tp1040
a(I73
I78
tp1041
a(I47
I85
tp1042
a(I68
I93
tp1043
a(I86
I72
tp1044
a(I85
I73
tp1045
a(I45
I93
tp1046
a(I66
I90
tp1047
a(I106
I80
tp1048
asg16
I200
sba(imain2
Polygon
p1049
(dp1050
g3
(I96
I154
tp1051
sg5
I200
sg6
(I149
I182
I184
I61
tp1052
sg8
(lp1053
(I53
I107
tp1054
a(I75
I149
tp1055
a(I90
I200
tp1056
a(I142
I200
tp1057
a(I53
I114
tp1058
a(I107
I120
tp1059
asg16
I200
sba(imain2
Polygon
p1060
(dp1061
g3
(I32
I146
tp1062
sg5
I200
sg6
(I62
I240
I70
I96
tp1063
sg8
(lp1064
(I0
I157
tp1065
a(I0
I178
tp1066
a(I0
I132
tp1067
asg16
I200
sba(imain2
Polygon
p1068
(dp1069
g3
(I3
I120
tp1070
sg5
I200
sg6
(I186
I176
I16
I55
tp1071
sg8
(lp1072
(I38
I71
tp1073
a(I0
I72
tp1074
a(I0
I121
tp1075
a(I0
I132
tp1076
a(I20
I116
tp1077
asg16
I200
sba(imain2
Polygon
p1078
(dp1079
g3
(I74
I152
tp1080
sg5
I200
sg6
(I59
I80
I126
I0
tp1081
sg8
(lp1082
(I107
I180
tp1083
a(I80
I138
tp1084
a(I39
I140
tp1085
a(I99
I121
tp1086
a(I81
I127
tp1087
a(I35
I167
tp1088
a(I118
I127
tp1089
a(I38
I131
tp1090
a(I33
I191
tp1091
a(I87
I200
tp1092
a(I56
I110
tp1093
a(I60
I153
tp1094
a(I76
I188
tp1095
asg16
I200
sba(imain2
Polygon
p1096
(dp1097
g3
(I31
I192
tp1098
sg5
I200
sg6
(I154
I33
I134
I0
tp1099
sg8
(lp1100
(I0
I181
tp1101
a(I7
I200
tp1102
a(I0
I200
tp1103
a(I0
I175
tp1104
a(I80
I200
tp1105
a(I53
I200
tp1106
a(I0
I142
tp1107
a(I41
I172
tp1108
a(I54
I171
tp1109
a(I0
I145
tp1110
a(I55
I200
tp1111
a(I0
I187
tp1112
a(I34
I200
tp1113
a(I54
I200
tp1114
a(I21
I181
tp1115
a(I75
I200
tp1116
a(I0
I195
tp1117
asg16
I200
sba(imain2
Polygon
p1118
(dp1119
g3
(I99
I149
tp1120
sg5
I200
sg6
(I189
I32
I203
I1
tp1121
sg8
(lp1122
(I110
I116
tp1123
a(I136
I173
tp1124
a(I101
I127
tp1125
a(I82
I109
tp1126
a(I114
I142
tp1127
a(I79
I154
tp1128
a(I51
I112
tp1129
a(I116
I164
tp1130
a(I92
I139
tp1131
a(I124
I194
tp1132
a(I109
I193
tp1133
a(I103
I151
tp1134
a(I123
I124
tp1135
a(I78
I148
tp1136
a(I52
I171
tp1137
a(I131
I198
tp1138
asg16
I200
sba(imain2
Polygon
p1139
(dp1140
g3
(I183
I115
tp1141
sg5
I200
sg6
(I18
I108
I177
I139
tp1142
sg8
(lp1143
(I200
I102
tp1144
a(I200
I102
tp1145
a(I193
I132
tp1146
a(I181
I84
tp1147
a(I200
I87
tp1148
a(I200
I142
tp1149
asg16
I200
sba(imain2
Polygon
p1150
(dp1151
g3
(I141
I107
tp1152
sg5
I200
sg6
(I78
I145
I85
I140
tp1153
sg8
(lp1154
(I119
I86
tp1155
a(I112
I86
tp1156
a(I111
I152
tp1157
asg16
I200
sba(imain2
Polygon
p1158
(dp1159
g3
(I149
I72
tp1160
sg5
I200
sg6
(I62
I107
I163
I25
tp1161
sg8
(lp1162
(I160
I35
tp1163
a(I195
I56
tp1164
a(I155
I38
tp1165
a(I99
I25
tp1166
a(I173
I40
tp1167
a(I176
I38
tp1168
a(I148
I79
tp1169
a(I186
I73
tp1170
a(I150
I68
tp1171
a(I194
I104
tp1172
a(I176
I61
tp1173
asg16
I200
sba(imain2
Polygon
p1174
(dp1175
g3
(I67
I128
tp1176
sg5
I200
sg6
(I211
I148
I52
I27
tp1177
sg8
(lp1178
(I106
I157
tp1179
a(I73
I95
tp1180
a(I108
I113
tp1181
a(I115
I152
tp1182
a(I62
I84
tp1183
a(I62
I102
tp1184
a(I63
I145
tp1185
a(I82
I157
tp1186
asg16
I200
sba(imain2
Polygon
p1187
(dp1188
g3
(I183
I44
tp1189
sg5
I200
sg6
(I81
I9
I171
I0
tp1190
sg8
(lp1191
(I200
I43
tp1192
a(I138
I92
tp1193
a(I184
I85
tp1194
a(I175
I30
tp1195
a(I136
I16
tp1196
a(I179
I0
tp1197
asg16
I200
sba(imain2
Polygon
p1198
(dp1199
g3
(I100
I61
tp1200
sg5
I200
sg6
(I199
I97
I41
I37
tp1201
sg8
(lp1202
(I56
I38
tp1203
a(I99
I64
tp1204
a(I91
I106
tp1205
a(I131
I96
tp1206
a(I95
I52
tp1207
a(I67
I63
tp1208
a(I74
I24
tp1209
a(I146
I15
tp1210
a(I96
I45
tp1211
a(I109
I45
tp1212
a(I143
I70
tp1213
a(I84
I63
tp1214
a(I126
I79
tp1215
asg16
I200
sba(imain2
Polygon
p1216
(dp1217
g3
(I52
I190
tp1218
sg5
I200
sg6
(I175
I147
I50
I77
tp1219
sg8
(lp1220
(I71
I200
tp1221
a(I89
I171
tp1222
a(I102
I200
tp1223
a(I94
I200
tp1224
a(I95
I200
tp1225
a(I34
I200
tp1226
asg16
I200
sba(imain2
Polygon
p1227
(dp1228
g3
(I151
I65
tp1229
sg5
I200
sg6
(I62
I179
I0
I100
tp1230
sg8
(lp1231
(I176
I54
tp1232
a(I179
I51
tp1233
a(I192
I90
tp1234
a(I186
I39
tp1235
a(I139
I65
tp1236
a(I111
I63
tp1237
a(I119
I77
tp1238
a(I169
I47
tp1239
a(I182
I28
tp1240
a(I162
I60
tp1241
asg16
I200
sba(imain2
Polygon
p1242
(dp1243
g3
(I67
I20
tp1244
sg5
I200
sg6
(I165
I92
I187
I101
tp1245
sg8
(lp1246
(I17
I0
tp1247
a(I29
I39
tp1248
a(I114
I0
tp1249
a(I110
I0
tp1250
a(I95
I23
tp1251
a(I113
I0
tp1252
a(I74
I0
tp1253
asg16
I200
sba(imain2
Polygon
p1254
(dp1255
g3
(I199
I56
tp1256
sg5
I200
sg6
(I159
I1
I107
I1
tp1257
sg8
(lp1258
(I200
I8
tp1259
a(I165
I70
tp1260
a(I200
I46
tp1261
a(I200
I83
tp1262
a(I181
I100
tp1263
a(I186
I53
tp1264
a(I198
I104
tp1265
a(I200
I46
tp1266
a(I200
I23
tp1267
a(I200
I16
tp1268
a(I168
I34
tp1269
asg16
I200
sba(imain2
Polygon
p1270
(dp1271
g3
(I185
I38
tp1272
sg5
I200
sg6
(I128
I218
I67
I157
tp1273
sg8
(lp1274
(I200
I69
tp1275
a(I200
I0
tp1276
a(I196
I0
tp1277
a(I154
I0
tp1278
a(I146
I42
tp1279
a(I200
I5
tp1280
a(I168
I28
tp1281
a(I142
I46
tp1282
a(I155
I22
tp1283
a(I181
I67
tp1284
a(I187
I70
tp1285
a(I138
I0
tp1286
a(I200
I50
tp1287
a(I141
I1
tp1288
a(I171
I85
tp1289
a(I189
I82
tp1290
asg16
I200
sba(imain2
Polygon
p1291
(dp1292
g3
(I67
I149
tp1293
sg5
I200
sg6
(I90
I206
I212
I38
tp1294
sg8
(lp1295
(I20
I169
tp1296
a(I92
I149
tp1297
a(I45
I104
tp1298
a(I47
I101
tp1299
a(I64
I107
tp1300
a(I75
I131
tp1301
a(I69
I155
tp1302
asg16
I200
sba(imain2
Polygon
p1303
(dp1304
g3
(I21
I182
tp1305
sg5
I200
sg6
(I110
I115
I1
I78
tp1306
sg8
(lp1307
(I67
I200
tp1308
a(I0
I166
tp1309
a(I30
I184
tp1310
a(I20
I169
tp1311
a(I19
I200
tp1312
a(I0
I181
tp1313
a(I19
I200
tp1314
a(I0
I143
tp1315
a(I13
I200
tp1316
a(I0
I144
tp1317
a(I0
I194
tp1318
a(I27
I167
tp1319
a(I8
I162
tp1320
a(I28
I152
tp1321
a(I0
I133
tp1322
a(I47
I191
tp1323
asg16
I200
sba(imain2
Polygon
p1324
(dp1325
g3
(I145
I176
tp1326
sg5
I200
sg6
(I183
I171
I1
I36
tp1327
sg8
(lp1328
(I116
I200
tp1329
a(I101
I200
tp1330
a(I138
I200
tp1331
a(I120
I137
tp1332
a(I95
I200
tp1333
asg16
I200
sba(imain2
Polygon
p1334
(dp1335
g3
(I102
I21
tp1336
sg5
I200
sg6
(I180
I177
I184
I55
tp1337
sg8
(lp1338
(I129
I69
tp1339
a(I61
I26
tp1340
a(I88
I12
tp1341
a(I104
I12
tp1342
a(I146
I25
tp1343
a(I143
I7
tp1344
a(I142
I0
tp1345
a(I59
I0
tp1346
a(I54
I68
tp1347
asg16
I200
sba(imain2
Polygon
p1348
(dp1349
g3
(I154
I30
tp1350
sg5
I200
sg6
(I49
I95
I59
I0
tp1351
sg8
(lp1352
(I135
I63
tp1353
a(I126
I17
tp1354
a(I107
I66
tp1355
a(I173
I45
tp1356
a(I162
I48
tp1357
a(I140
I39
tp1358
a(I195
I27
tp1359
a(I135
I57
tp1360
a(I156
I27
tp1361
a(I141
I16
tp1362
asg16
I200
sba(imain2
Polygon
p1363
(dp1364
g3
(I171
I178
tp1365
sg5
I200
sg6
(I94
I229
I32
I1
tp1366
sg8
(lp1367
(I200
I200
tp1368
a(I200
I200
tp1369
a(I200
I195
tp1370
a(I200
I135
tp1371
a(I179
I151
tp1372
a(I137
I200
tp1373
asg16
I200
sba(imain2
Polygon
p1374
(dp1375
g3
(I189
I152
tp1376
sg5
I200
sg6
(I246
I70
I179
I1
tp1377
sg8
(lp1378
(I184
I192
tp1379
a(I173
I117
tp1380
a(I200
I166
tp1381
a(I200
I155
tp1382
a(I176
I108
tp1383
a(I182
I182
tp1384
a(I200
I166
tp1385
a(I162
I141
tp1386
a(I149
I177
tp1387
asg16
I200
sba(imain2
Polygon
p1388
(dp1389
g3
(I158
I122
tp1390
sg5
I200
sg6
(I42
I0
I155
I37
tp1391
sg8
(lp1392
(I182
I80
tp1393
a(I174
I137
tp1394
a(I200
I145
tp1395
a(I166
I100
tp1396
a(I126
I109
tp1397
a(I124
I81
tp1398
a(I140
I142
tp1399
a(I131
I110
tp1400
a(I189
I78
tp1401
a(I200
I74
tp1402
a(I124
I95
tp1403
asg16
I200
sba(imain2
Polygon
p1404
(dp1405
g3
(I89
I194
tp1406
sg5
I200
sg6
(I226
I75
I38
I1
tp1407
sg8
(lp1408
(I120
I150
tp1409
a(I69
I166
tp1410
a(I81
I189
tp1411
a(I76
I177
tp1412
a(I107
I177
tp1413
a(I122
I200
tp1414
a(I104
I200
tp1415
a(I39
I200
tp1416
a(I64
I164
tp1417
a(I126
I166
tp1418
a(I68
I191
tp1419
a(I84
I198
tp1420
asg16
I200
sba(imain2
Polygon
p1421
(dp1422
g3
(I185
I89
tp1423
sg5
I200
sg6
(I163
I1
I218
I1
tp1424
sg8
(lp1425
(I146
I55
tp1426
a(I200
I98
tp1427
a(I190
I122
tp1428
a(I200
I70
tp1429
a(I152
I101
tp1430
a(I155
I131
tp1431
a(I200
I94
tp1432
a(I197
I79
tp1433
a(I200
I121
tp1434
a(I200
I97
tp1435
a(I175
I68
tp1436
a(I200
I47
tp1437
a(I174
I136
tp1438
asg16
I200
sba(imain2
Polygon
p1439
(dp1440
g3
(I67
I129
tp1441
sg5
I200
sg6
(I72
I192
I57
I117
tp1442
sg8
(lp1443
(I96
I97
tp1444
a(I112
I141
tp1445
a(I78
I170
tp1446
a(I81
I160
tp1447
a(I112
I100
tp1448
a(I49
I126
tp1449
a(I93
I98
tp1450
a(I110
I107
tp1451
a(I96
I122
tp1452
a(I109
I141
tp1453
a(I87
I119
tp1454
a(I87
I107
tp1455
a(I75
I92
tp1456
a(I84
I146
tp1457
a(I52
I135
tp1458
a(I91
I173
tp1459
asg16
I200
sba(imain2
Polygon
p1460
(dp1461
g3
(I95
I80
tp1462
sg5
I200
sg6
(I219
I88
I19
I129
tp1463
sg8
(lp1464
(I121
I57
tp1465
a(I47
I53
tp1466
a(I58
I130
tp1467
a(I123
I114
tp1468
a(I126
I95
tp1469
a(I129
I87
tp1470
asg16
I200
sba(imain2
Polygon
p1471
(dp1472
g3
(I14
I45
tp1473
sg5
I200
sg6
(I224
I0
I43
I106
tp1474
sg8
(lp1475
(I2
I89
tp1476
a(I58
I24
tp1477
a(I8
I15
tp1478
a(I38
I90
tp1479
a(I10
I95
tp1480
asg16
I200
sba(imain2
Polygon
p1481
(dp1482
g3
(I34
I35
tp1483
sg5
I200
sg6
(I107
I9
I201
I20
tp1484
sg8
(lp1485
(I0
I0
tp1486
a(I0
I84
tp1487
a(I51
I56
tp1488
a(I37
I58
tp1489
a(I53
I81
tp1490
a(I45
I11
tp1491
a(I56
I7
tp1492
a(I63
I21
tp1493
asg16
I200
sba(imain2
Polygon
p1494
(dp1495
g3
(I127
I147
tp1496
sg5
I200
sg6
(I116
I171
I188
I73
tp1497
sg8
(lp1498
(I112
I151
tp1499
a(I112
I167
tp1500
a(I161
I125
tp1501
a(I99
I100
tp1502
a(I112
I159
tp1503
a(I126
I158
tp1504
a(I164
I118
tp1505
a(I80
I133
tp1506
a(I125
I141
tp1507
a(I92
I99
tp1508
a(I85
I144
tp1509
a(I105
I137
tp1510
a(I148
I117
tp1511
a(I108
I109
tp1512
a(I100
I118
tp1513
a(I120
I132
tp1514
a(I112
I128
tp1515
asg16
I200
sba(imain2
Polygon
p1516
(dp1517
g3
(I88
I106
tp1518
sg5
I200
sg6
(I189
I11
I59
I109
tp1519
sg8
(lp1520
(I127
I64
tp1521
a(I119
I93
tp1522
a(I117
I112
tp1523
asg16
I200
sba(imain2
Polygon
p1524
(dp1525
g3
(I11
I134
tp1526
sg5
I200
sg6
(I74
I179
I94
I92
tp1527
sg8
(lp1528
(I0
I183
tp1529
a(I0
I95
tp1530
a(I0
I108
tp1531
a(I0
I162
tp1532
a(I12
I180
tp1533
a(I41
I142
tp1534
asg16
I200
sba(imain2
Polygon
p1535
(dp1536
g3
(I174
I141
tp1537
sg5
I200
sg6
(I113
I235
I92
I77
tp1538
sg8
(lp1539
(I200
I120
tp1540
a(I187
I97
tp1541
a(I175
I139
tp1542
a(I200
I190
tp1543
asg16
I200
sba(imain2
Polygon
p1544
(dp1545
g3
(I68
I44
tp1546
sg5
I200
sg6
(I2
I228
I127
I34
tp1547
sg8
(lp1548
(I26
I22
tp1549
a(I19
I82
tp1550
a(I62
I45
tp1551
a(I75
I72
tp1552
a(I22
I45
tp1553
a(I83
I85
tp1554
asg16
I200
sba(imain2
Polygon
p1555
(dp1556
g3
(I80
I68
tp1557
sg5
I200
sg6
(I75
I15
I15
I31
tp1558
sg8
(lp1559
(I52
I50
tp1560
a(I34
I66
tp1561
a(I53
I18
tp1562
a(I117
I21
tp1563
a(I40
I26
tp1564
a(I52
I99
tp1565
a(I37
I27
tp1566
a(I47
I36
tp1567
a(I97
I30
tp1568
a(I37
I35
tp1569
a(I66
I42
tp1570
a(I83
I18
tp1571
asg16
I200
sba(imain2
Polygon
p1572
(dp1573
g3
(I120
I143
tp1574
sg5
I200
sg6
(I151
I157
I82
I0
tp1575
sg8
(lp1576
(I167
I184
tp1577
a(I157
I180
tp1578
a(I104
I174
tp1579
a(I92
I178
tp1580
a(I129
I155
tp1581
a(I119
I179
tp1582
a(I110
I134
tp1583
a(I111
I169
tp1584
a(I120
I158
tp1585
a(I86
I100
tp1586
a(I157
I112
tp1587
a(I170
I95
tp1588
a(I147
I127
tp1589
asg16
I200
sba(imain2
Polygon
p1590
(dp1591
g3
(I47
I43
tp1592
sg5
I200
sg6
(I224
I145
I62
I44
tp1593
sg8
(lp1594
(I85
I78
tp1595
a(I7
I93
tp1596
a(I0
I83
tp1597
a(I5
I0
tp1598
a(I26
I10
tp1599
a(I86
I12
tp1600
a(I13
I2
tp1601
a(I74
I3
tp1602
a(I52
I53
tp1603
a(I45
I0
tp1604
a(I49
I4
tp1605
a(I96
I0
tp1606
asg16
I200
sba(imain2
Polygon
p1607
(dp1608
g3
(I6
I165
tp1609
sg5
I200
sg6
(I192
I50
I158
I50
tp1610
sg8
(lp1611
(I0
I191
tp1612
a(I34
I177
tp1613
a(I7
I145
tp1614
asg16
I200
sba(imain2
Polygon
p1615
(dp1616
g3
(I125
I173
tp1617
sg5
I200
sg6
(I91
I28
I31
I118
tp1618
sg8
(lp1619
(I145
I181
tp1620
a(I132
I145
tp1621
a(I105
I138
tp1622
a(I135
I166
tp1623
a(I143
I200
tp1624
a(I165
I200
tp1625
a(I85
I166
tp1626
a(I93
I145
tp1627
a(I79
I141
tp1628
a(I145
I159
tp1629
a(I157
I200
tp1630
a(I130
I140
tp1631
asg16
I200
sba(imain2
Polygon
p1632
(dp1633
g3
(I63
I154
tp1634
sg5
I200
sg6
(I122
I159
I2
I1
tp1635
sg8
(lp1636
(I90
I156
tp1637
a(I61
I175
tp1638
a(I112
I105
tp1639
a(I100
I174
tp1640
a(I110
I126
tp1641
a(I27
I140
tp1642
a(I66
I149
tp1643
a(I45
I194
tp1644
a(I85
I125
tp1645
a(I27
I122
tp1646
asg16
I200
sba(imain2
Polygon
p1647
(dp1648
g3
(I152
I171
tp1649
sg5
I200
sg6
(I192
I3
I226
I0
tp1650
sg8
(lp1651
(I106
I145
tp1652
a(I119
I163
tp1653
a(I200
I191
tp1654
a(I105
I165
tp1655
a(I114
I145
tp1656
a(I193
I126
tp1657
a(I180
I200
tp1658
a(I171
I163
tp1659
a(I107
I200
tp1660
asg16
I200
sba(imain2
Polygon
p1661
(dp1662
g3
(I67
I143
tp1663
sg5
I200
sg6
(I71
I72
I132
I112
tp1664
sg8
(lp1665
(I100
I175
tp1666
a(I113
I120
tp1667
a(I113
I130
tp1668
a(I111
I131
tp1669
asg16
I200
sba(imain2
Polygon
p1670
(dp1671
g3
(I153
I79
tp1672
sg5
I200
sg6
(I134
I30
I161
I0
tp1673
sg8
(lp1674
(I178
I118
tp1675
a(I198
I89
tp1676
a(I140
I45
tp1677
a(I175
I77
tp1678
a(I112
I71
tp1679
a(I142
I107
tp1680
a(I148
I111
tp1681
a(I175
I118
tp1682
a(I189
I100
tp1683
a(I154
I32
tp1684
a(I130
I94
tp1685
asg16
I200
sba(imain2
Polygon
p1686
(dp1687
g3
(I142
I192
tp1688
sg5
I200
sg6
(I50
I236
I0
I0
tp1689
sg8
(lp1690
(I130
I200
tp1691
a(I94
I200
tp1692
a(I151
I200
tp1693
a(I170
I191
tp1694
a(I122
I151
tp1695
a(I140
I162
tp1696
a(I115
I176
tp1697
a(I94
I200
tp1698
a(I104
I188
tp1699
asg16
I200
sba(imain2
Polygon
p1700
(dp1701
g3
(I144
I12
tp1702
sg5
I200
sg6
(I185
I74
I98
I0
tp1703
sg8
(lp1704
(I115
I0
tp1705
a(I131
I0
tp1706
a(I171
I26
tp1707
a(I135
I0
tp1708
a(I166
I26
tp1709
a(I140
I27
tp1710
a(I166
I23
tp1711
a(I184
I13
tp1712
a(I190
I2
tp1713
a(I138
I0
tp1714
a(I133
I0
tp1715
a(I167
I46
tp1716
a(I122
I5
tp1717
asg16
I200
sba(imain2
Polygon
p1718
(dp1719
g3
(I144
I92
tp1720
sg5
I200
sg6
(I223
I44
I149
I142
tp1721
sg8
(lp1722
(I175
I55
tp1723
a(I181
I55
tp1724
a(I190
I118
tp1725
a(I178
I108
tp1726
a(I159
I52
tp1727
asg16
I200
sba(imain2
Polygon
p1728
(dp1729
g3
(I167
I23
tp1730
sg5
I200
sg6
(I169
I30
I240
I1
tp1731
sg8
(lp1732
(I174
I4
tp1733
a(I156
I11
tp1734
a(I200
I70
tp1735
a(I200
I14
tp1736
a(I197
I0
tp1737
a(I139
I19
tp1738
a(I166
I58
tp1739
a(I200
I0
tp1740
a(I164
I43
tp1741
a(I200
I32
tp1742
a(I194
I34
tp1743
a(I156
I3
tp1744
a(I168
I30
tp1745
asg16
I200
sba(imain2
Polygon
p1746
(dp1747
g3
(I200
I102
tp1748
sg5
I200
sg6
(I50
I231
I149
I38
tp1749
sg8
(lp1750
(I161
I70
tp1751
a(I171
I83
tp1752
a(I193
I55
tp1753
a(I200
I120
tp1754
a(I200
I145
tp1755
a(I181
I124
tp1756
a(I167
I86
tp1757
a(I200
I76
tp1758
a(I200
I100
tp1759
a(I199
I68
tp1760
a(I155
I69
tp1761
a(I159
I62
tp1762
a(I170
I125
tp1763
a(I177
I108
tp1764
a(I200
I127
tp1765
asg16
I200
sba(imain2
Polygon
p1766
(dp1767
g3
(I20
I176
tp1768
sg5
I200
sg6
(I11
I201
I1
I0
tp1769
sg8
(lp1770
(I0
I200
tp1771
a(I4
I200
tp1772
a(I0
I164
tp1773
a(I65
I153
tp1774
a(I0
I196
tp1775
a(I30
I200
tp1776
a(I43
I145
tp1777
a(I17
I200
tp1778
a(I18
I130
tp1779
a(I0
I200
tp1780
a(I67
I130
tp1781
a(I15
I152
tp1782
a(I45
I161
tp1783
a(I44
I189
tp1784
a(I1
I173
tp1785
a(I4
I200
tp1786
asg16
I200
sba(imain2
Polygon
p1787
(dp1788
g3
(I51
I87
tp1789
sg5
I200
sg6
(I98
I176
I45
I75
tp1790
sg8
(lp1791
(I14
I70
tp1792
a(I30
I71
tp1793
a(I35
I93
tp1794
a(I60
I82
tp1795
a(I3
I114
tp1796
a(I4
I50
tp1797
a(I33
I62
tp1798
a(I40
I55
tp1799
a(I63
I97
tp1800
a(I59
I88
tp1801
a(I73
I95
tp1802
a(I30
I52
tp1803
a(I37
I81
tp1804
asg16
I200
sba(imain2
Polygon
p1805
(dp1806
g3
(I124
I18
tp1807
sg5
I200
sg6
(I57
I202
I229
I0
tp1808
sg8
(lp1809
(I104
I18
tp1810
a(I112
I30
tp1811
a(I94
I26
tp1812
a(I160
I36
tp1813
a(I80
I11
tp1814
asg16
I200
sba(imain2
Polygon
p1815
(dp1816
g3
(I170
I179
tp1817
sg5
I200
sg6
(I139
I190
I56
I8
tp1818
sg8
(lp1819
(I186
I184
tp1820
a(I146
I200
tp1821
a(I200
I129
tp1822
a(I200
I200
tp1823
a(I125
I200
tp1824
a(I129
I168
tp1825
a(I156
I140
tp1826
a(I155
I179
tp1827
a(I200
I200
tp1828
asg16
I200
sba(imain2
Polygon
p1829
(dp1830
g3
(I93
I4
tp1831
sg5
I200
sg6
(I125
I127
I1
I126
tp1832
sg8
(lp1833
(I46
I0
tp1834
a(I51
I53
tp1835
a(I57
I28
tp1836
a(I47
I35
tp1837
a(I62
I48
tp1838
a(I51
I52
tp1839
asg16
I200
sba(imain2
Polygon
p1840
(dp1841
g3
(I33
I157
tp1842
sg5
I200
sg6
(I38
I117
I125
I0
tp1843
sg8
(lp1844
(I43
I167
tp1845
a(I50
I130
tp1846
a(I67
I128
tp1847
a(I42
I136
tp1848
a(I66
I120
tp1849
a(I9
I140
tp1850
a(I8
I125
tp1851
a(I69
I135
tp1852
a(I50
I162
tp1853
a(I26
I121
tp1854
asg16
I200
sba(imain2
Polygon
p1855
(dp1856
g3
(I91
I9
tp1857
sg5
I200
sg6
(I67
I183
I12
I0
tp1858
sg8
(lp1859
(I124
I35
tp1860
a(I135
I0
tp1861
a(I115
I0
tp1862
a(I54
I0
tp1863
a(I134
I0
tp1864
a(I132
I0
tp1865
a(I72
I0
tp1866
a(I42
I0
tp1867
a(I88
I27
tp1868
a(I55
I45
tp1869
asg16
I200
sba(imain2
Polygon
p1870
(dp1871
g3
(I50
I13
tp1872
sg5
I200
sg6
(I92
I178
I161
I116
tp1873
sg8
(lp1874
(I31
I61
tp1875
a(I3
I50
tp1876
a(I0
I0
tp1877
a(I11
I0
tp1878
a(I7
I0
tp1879
a(I82
I0
tp1880
asg16
I200
sba(imain2
Polygon
p1881
(dp1882
g3
(I157
I108
tp1883
sg5
I200
sg6
(I128
I116
I1
I80
tp1884
sg8
(lp1885
(I168
I137
tp1886
a(I108
I127
tp1887
a(I123
I82
tp1888
a(I135
I90
tp1889
a(I108
I149
tp1890
a(I172
I125
tp1891
a(I193
I83
tp1892
a(I200
I120
tp1893
a(I184
I155
tp1894
a(I168
I127
tp1895
a(I188
I141
tp1896
a(I158
I120
tp1897
asg16
I200
sba(imain2
Polygon
p1898
(dp1899
g3
(I7
I150
tp1900
sg5
I200
sg6
(I177
I10
I55
I15
tp1901
sg8
(lp1902
(I0
I184
tp1903
a(I0
I107
tp1904
a(I57
I154
tp1905
a(I22
I183
tp1906
a(I0
I123
tp1907
a(I0
I149
tp1908
a(I4
I171
tp1909
a(I55
I115
tp1910
a(I32
I102
tp1911
a(I0
I183
tp1912
a(I24
I105
tp1913
a(I23
I114
tp1914
a(I26
I151
tp1915
asg16
I200
sba(imain2
Polygon
p1916
(dp1917
g3
(I89
I125
tp1918
sg5
I200
sg6
(I42
I1
I214
I13
tp1919
sg8
(lp1920
(I59
I165
tp1921
a(I101
I135
tp1922
a(I56
I165
tp1923
a(I76
I125
tp1924
a(I45
I157
tp1925
a(I89
I111
tp1926
asg16
I200
sba(imain2
Polygon
p1927
(dp1928
g3
(I18
I178
tp1929
sg5
I200
sg6
(I86
I163
I41
I93
tp1930
sg8
(lp1931
(I0
I148
tp1932
a(I0
I148
tp1933
a(I10
I175
tp1934
a(I0
I137
tp1935
a(I46
I200
tp1936
a(I23
I175
tp1937
a(I24
I189
tp1938
asg16
I200
sba(imain2
Polygon
p1939
(dp1940
g3
(I81
I53
tp1941
sg5
I200
sg6
(I217
I83
I79
I1
tp1942
sg8
(lp1943
(I89
I81
tp1944
a(I89
I58
tp1945
a(I66
I39
tp1946
a(I42
I77
tp1947
a(I37
I46
tp1948
a(I119
I4
tp1949
a(I97
I100
tp1950
a(I73
I54
tp1951
a(I96
I16
tp1952
a(I71
I87
tp1953
a(I89
I26
tp1954
asg16
I200
sba(imain2
Polygon
p1955
(dp1956
g3
(I117
I32
tp1957
sg5
I200
sg6
(I165
I186
I81
I1
tp1958
sg8
(lp1959
(I89
I46
tp1960
a(I147
I0
tp1961
a(I134
I30
tp1962
asg16
I200
sba(imain2
Polygon
p1963
(dp1964
g3
(I79
I140
tp1965
sg5
I200
sg6
(I225
I1
I161
I26
tp1966
sg8
(lp1967
(I108
I95
tp1968
a(I107
I173
tp1969
a(I52
I148
tp1970
a(I123
I97
tp1971
a(I103
I173
tp1972
a(I75
I159
tp1973
a(I80
I158
tp1974
a(I127
I127
tp1975
asg16
I200
sba(imain2
Polygon
p1976
(dp1977
g3
(I26
I4
tp1978
sg5
I200
sg6
(I196
I73
I69
I1
tp1979
sg8
(lp1980
(I23
I0
tp1981
a(I7
I0
tp1982
a(I69
I0
tp1983
a(I0
I0
tp1984
a(I0
I11
tp1985
a(I0
I0
tp1986
a(I4
I0
tp1987
a(I38
I0
tp1988
asg16
I200
sba(imain2
Polygon
p1989
(dp1990
g3
(I15
I121
tp1991
sg5
I200
sg6
(I1
I223
I149
I1
tp1992
sg8
(lp1993
(I58
I148
tp1994
a(I16
I84
tp1995
a(I51
I75
tp1996
a(I60
I87
tp1997
a(I0
I74
tp1998
a(I1
I112
tp1999
a(I46
I142
tp2000
a(I46
I91
tp2001
a(I59
I105
tp2002
a(I61
I107
tp2003
a(I0
I154
tp2004
a(I16
I86
tp2005
a(I35
I105
tp2006
a(I53
I137
tp2007
a(I5
I124
tp2008
asg16
I200
sba(imain2
Polygon
p2009
(dp2010
g3
(I163
I195
tp2011
sg5
I200
sg6
(I8
I148
I193
I7
tp2012
sg8
(lp2013
(I187
I200
tp2014
a(I191
I191
tp2015
a(I169
I200
tp2016
a(I200
I185
tp2017
a(I180
I200
tp2018
a(I198
I192
tp2019
a(I172
I200
tp2020
a(I193
I191
tp2021
a(I200
I160
tp2022
asg16
I200
sba(imain2
Polygon
p2023
(dp2024
g3
(I118
I106
tp2025
sg5
I200
sg6
(I6
I134
I123
I117
tp2026
sg8
(lp2027
(I132
I104
tp2028
a(I145
I78
tp2029
a(I102
I87
tp2030
a(I125
I104
tp2031
a(I121
I98
tp2032
a(I123
I91
tp2033
a(I151
I66
tp2034
a(I130
I116
tp2035
a(I127
I105
tp2036
a(I140
I99
tp2037
asg16
I200
sba(imain2
Polygon
p2038
(dp2039
g3
(I56
I6
tp2040
sg5
I200
sg6
(I197
I1
I175
I0
tp2041
sg8
(lp2042
(I88
I24
tp2043
a(I79
I0
tp2044
a(I71
I0
tp2045
a(I21
I0
tp2046
a(I75
I2
tp2047
a(I102
I27
tp2048
asg16
I200
sba(imain2
Polygon
p2049
(dp2050
g3
(I174
I69
tp2051
sg5
I200
sg6
(I118
I36
I47
I102
tp2052
sg8
(lp2053
(I200
I23
tp2054
a(I200
I29
tp2055
a(I160
I53
tp2056
a(I199
I86
tp2057
a(I196
I88
tp2058
a(I200
I90
tp2059
a(I151
I40
tp2060
a(I126
I41
tp2061
a(I189
I42
tp2062
a(I171
I43
tp2063
a(I130
I47
tp2064
a(I191
I41
tp2065
a(I183
I53
tp2066
a(I173
I86
tp2067
asg16
I200
sba(imain2
Polygon
p2068
(dp2069
g3
(I0
I30
tp2070
sg5
I200
sg6
(I171
I40
I99
I1
tp2071
sg8
(lp2072
(I6
I31
tp2073
a(I0
I48
tp2074
a(I39
I78
tp2075
a(I29
I6
tp2076
a(I0
I44
tp2077
a(I0
I35
tp2078
asg16
I200
sba(imain2
Polygon
p2079
(dp2080
g3
(I134
I58
tp2081
sg5
I200
sg6
(I241
I178
I117
I112
tp2082
sg8
(lp2083
(I179
I58
tp2084
a(I110
I8
tp2085
a(I156
I8
tp2086
a(I179
I9
tp2087
asg16
I200
sba(imain2
Polygon
p2088
(dp2089
g3
(I142
I75
tp2090
sg5
I200
sg6
(I201
I60
I194
I78
tp2091
sg8
(lp2092
(I191
I83
tp2093
a(I154
I36
tp2094
a(I185
I48
tp2095
a(I192
I28
tp2096
asg16
I200
sba(imain2
Polygon
p2097
(dp2098
g3
(I129
I65
tp2099
sg5
I200
sg6
(I89
I0
I164
I129
tp2100
sg8
(lp2101
(I155
I65
tp2102
a(I158
I67
tp2103
a(I151
I68
tp2104
asg16
I200
sba(imain2
Polygon
p2105
(dp2106
g3
(I163
I171
tp2107
sg5
I200
sg6
(I197
I11
I130
I1
tp2108
sg8
(lp2109
(I129
I200
tp2110
a(I161
I200
tp2111
a(I131
I200
tp2112
a(I125
I138
tp2113
a(I193
I148
tp2114
a(I141
I196
tp2115
a(I170
I142
tp2116
a(I165
I165
tp2117
a(I158
I178
tp2118
a(I189
I200
tp2119
a(I161
I197
tp2120
a(I200
I124
tp2121
a(I188
I187
tp2122
a(I141
I126
tp2123
a(I113
I200
tp2124
asg16
I200
sba(imain2
Polygon
p2125
(dp2126
g3
(I184
I20
tp2127
sg5
I200
sg6
(I213
I92
I227
I77
tp2128
sg8
(lp2129
(I200
I60
tp2130
a(I200
I0
tp2131
a(I200
I69
tp2132
a(I160
I57
tp2133
a(I140
I0
tp2134
a(I144
I0
tp2135
a(I200
I0
tp2136
a(I200
I0
tp2137
asg16
I200
sba(imain2
Polygon
p2138
(dp2139
g3
(I145
I135
tp2140
sg5
I200
sg6
(I31
I41
I59
I40
tp2141
sg8
(lp2142
(I160
I178
tp2143
a(I183
I129
tp2144
a(I135
I88
tp2145
a(I110
I168
tp2146
a(I166
I183
tp2147
asg16
I200
sba(imain2
Polygon
p2148
(dp2149
g3
(I64
I74
tp2150
sg5
I200
sg6
(I134
I208
I148
I1
tp2151
sg8
(lp2152
(I111
I67
tp2153
a(I74
I124
tp2154
a(I19
I47
tp2155
a(I94
I61
tp2156
asg16
I200
sba(imain2
Polygon
p2157
(dp2158
g3
(I82
I104
tp2159
sg5
I200
sg6
(I48
I155
I198
I1
tp2160
sg8
(lp2161
(I97
I106
tp2162
a(I98
I78
tp2163
a(I54
I142
tp2164
a(I42
I81
tp2165
a(I87
I71
tp2166
a(I92
I82
tp2167
a(I105
I79
tp2168
a(I131
I77
tp2169
a(I51
I70
tp2170
a(I76
I62
tp2171
asg16
I200
sba(imain2
Polygon
p2172
(dp2173
g3
(I176
I51
tp2174
sg5
I200
sg6
(I114
I211
I85
I0
tp2175
sg8
(lp2176
(I200
I6
tp2177
a(I143
I9
tp2178
a(I148
I79
tp2179
a(I174
I33
tp2180
a(I171
I13
tp2181
a(I200
I28
tp2182
asg16
I200
sba(imain2
Polygon
p2183
(dp2184
g3
(I18
I179
tp2185
sg5
I200
sg6
(I9
I98
I96
I35
tp2186
sg8
(lp2187
(I0
I146
tp2188
a(I0
I135
tp2189
a(I0
I198
tp2190
a(I21
I200
tp2191
a(I22
I196
tp2192
a(I36
I190
tp2193
a(I19
I154
tp2194
a(I23
I153
tp2195
asg16
I200
sba(imain2
Polygon
p2196
(dp2197
g3
(I112
I97
tp2198
sg5
I200
sg6
(I96
I198
I68
I53
tp2199
sg8
(lp2200
(I117
I118
tp2201
a(I70
I139
tp2202
a(I97
I92
tp2203
a(I75
I68
tp2204
a(I76
I136
tp2205
a(I93
I140
tp2206
a(I98
I68
tp2207
a(I124
I101
tp2208
a(I130
I88
tp2209
asg16
I200
sba(imain2
Polygon
p2210
(dp2211
g3
(I3
I120
tp2212
sg5
I200
sg6
(I62
I87
I145
I93
tp2213
sg8
(lp2214
(I0
I86
tp2215
a(I0
I74
tp2216
a(I0
I159
tp2217
a(I0
I109
tp2218
a(I43
I80
tp2219
asg16
I200
sba(imain2
Polygon
p2220
(dp2221
g3
(I7
I32
tp2222
sg5
I200
sg6
(I148
I30
I185
I0
tp2223
sg8
(lp2224
(I0
I45
tp2225
a(I0
I27
tp2226
a(I0
I0
tp2227
a(I8
I32
tp2228
a(I0
I57
tp2229
a(I27
I38
tp2230
a(I0
I62
tp2231
a(I0
I49
tp2232
a(I0
I15
tp2233
a(I0
I75
tp2234
a(I48
I82
tp2235
a(I15
I15
tp2236
a(I0
I0
tp2237
asg16
I200
sba(imain2
Polygon
p2238
(dp2239
g3
(I166
I95
tp2240
sg5
I200
sg6
(I185
I2
I141
I147
tp2241
sg8
(lp2242
(I192
I50
tp2243
a(I200
I127
tp2244
a(I200
I60
tp2245
asg16
I200
sba(imain2
Polygon
p2246
(dp2247
g3
(I197
I92
tp2248
sg5
I200
sg6
(I116
I6
I30
I0
tp2249
sg8
(lp2250
(I154
I60
tp2251
a(I200
I65
tp2252
a(I200
I70
tp2253
a(I161
I97
tp2254
a(I158
I100
tp2255
a(I147
I82
tp2256
a(I200
I78
tp2257
a(I200
I131
tp2258
a(I191
I88
tp2259
a(I154
I82
tp2260
a(I155
I44
tp2261
a(I197
I58
tp2262
a(I147
I62
tp2263
a(I176
I122
tp2264
asg16
I200
sba(imain2
Polygon
p2265
(dp2266
g3
(I167
I132
tp2267
sg5
I200
sg6
(I220
I55
I85
I1
tp2268
sg8
(lp2269
(I166
I121
tp2270
a(I157
I116
tp2271
a(I169
I137
tp2272
a(I134
I127
tp2273
a(I174
I140
tp2274
a(I197
I112
tp2275
a(I155
I152
tp2276
a(I175
I142
tp2277
a(I117
I113
tp2278
a(I178
I149
tp2279
a(I177
I84
tp2280
a(I132
I168
tp2281
a(I128
I111
tp2282
a(I200
I101
tp2283
asg16
I200
sba(imain2
Polygon
p2284
(dp2285
g3
(I2
I175
tp2286
sg5
I200
sg6
(I101
I198
I107
I1
tp2287
sg8
(lp2288
(I34
I200
tp2289
a(I4
I200
tp2290
a(I28
I126
tp2291
asg16
I200
sba(imain2
Polygon
p2292
(dp2293
g3
(I148
I121
tp2294
sg5
I200
sg6
(I128
I197
I133
I21
tp2295
sg8
(lp2296
(I120
I135
tp2297
a(I118
I71
tp2298
a(I101
I103
tp2299
asg16
I200
sba(imain2
Polygon
p2300
(dp2301
g3
(I26
I154
tp2302
sg5
I200
sg6
(I142
I63
I224
I30
tp2303
sg8
(lp2304
(I52
I148
tp2305
a(I0
I196
tp2306
a(I20
I155
tp2307
asg16
I200
sba(imain2
Polygon
p2308
(dp2309
g3
(I188
I60
tp2310
sg5
I200
sg6
(I21
I75
I8
I48
tp2311
sg8
(lp2312
(I200
I100
tp2313
a(I148
I100
tp2314
a(I139
I27
tp2315
a(I200
I98
tp2316
a(I200
I21
tp2317
a(I200
I63
tp2318
a(I200
I22
tp2319
a(I200
I88
tp2320
asg16
I200
sba(imain2
Polygon
p2321
(dp2322
g3
(I29
I0
tp2323
sg5
I200
sg6
(I200
I201
I8
I89
tp2324
sg8
(lp2325
(I29
I0
tp2326
a(I0
I0
tp2327
a(I50
I36
tp2328
a(I45
I18
tp2329
a(I61
I0
tp2330
a(I0
I0
tp2331
a(I0
I50
tp2332
a(I70
I50
tp2333
a(I0
I0
tp2334
a(I0
I0
tp2335
a(I77
I0
tp2336
a(I74
I14
tp2337
a(I36
I44
tp2338
a(I58
I0
tp2339
a(I74
I0
tp2340
a(I5
I0
tp2341
a(I20
I0
tp2342
asg16
I200
sba(imain2
Polygon
p2343
(dp2344
g3
(I92
I198
tp2345
sg5
I200
sg6
(I138
I2
I12
I59
tp2346
sg8
(lp2347
(I96
I170
tp2348
a(I67
I151
tp2349
a(I90
I200
tp2350
a(I122
I155
tp2351
a(I99
I200
tp2352
a(I73
I181
tp2353
a(I108
I179
tp2354
asg16
I200
sba(imain2
Polygon
p2355
(dp2356
g3
(I149
I42
tp2357
sg5
I200
sg6
(I90
I14
I53
I52
tp2358
sg8
(lp2359
(I99
I9
tp2360
a(I127
I88
tp2361
a(I167
I91
tp2362
a(I167
I66
tp2363
a(I135
I17
tp2364
a(I145
I8
tp2365
a(I113
I48
tp2366
a(I119
I35
tp2367
asg16
I200
sba(imain2
Polygon
p2368
(dp2369
g3
(I18
I189
tp2370
sg5
I200
sg6
(I70
I6
I170
I1
tp2371
sg8
(lp2372
(I0
I200
tp2373
a(I36
I189
tp2374
a(I9
I200
tp2375
a(I11
I160
tp2376
a(I0
I200
tp2377
a(I5
I167
tp2378
a(I62
I200
tp2379
a(I8
I175
tp2380
a(I8
I170
tp2381
a(I40
I174
tp2382
a(I68
I200
tp2383
a(I56
I183
tp2384
a(I51
I175
tp2385
a(I19
I163
tp2386
a(I0
I178
tp2387
asg16
I200
sba(imain2
Polygon
p2388
(dp2389
g3
(I88
I199
tp2390
sg5
I200
sg6
(I15
I199
I77
I76
tp2391
sg8
(lp2392
(I40
I200
tp2393
a(I39
I200
tp2394
a(I108
I200
tp2395
a(I46
I200
tp2396
a(I126
I200
tp2397
a(I62
I200
tp2398
a(I70
I200
tp2399
a(I39
I200
tp2400
a(I84
I200
tp2401
asg16
I200
sba(imain2
Polygon
p2402
(dp2403
g3
(I57
I178
tp2404
sg5
I200
sg6
(I19
I117
I163
I0
tp2405
sg8
(lp2406
(I70
I128
tp2407
a(I21
I164
tp2408
a(I14
I171
tp2409
a(I47
I135
tp2410
a(I39
I141
tp2411
asg16
I200
sba(imain2
Polygon
p2412
(dp2413
g3
(I192
I63
tp2414
sg5
I200
sg6
(I115
I239
I124
I106
tp2415
sg8
(lp2416
(I200
I102
tp2417
a(I200
I19
tp2418
a(I200
I28
tp2419
a(I169
I43
tp2420
a(I142
I25
tp2421
a(I200
I102
tp2422
a(I161
I50
tp2423
a(I175
I96
tp2424
a(I200
I41
tp2425
a(I181
I96
tp2426
asg16
I200
sba(imain2
Polygon
p2427
(dp2428
g3
(I115
I149
tp2429
sg5
I200
sg6
(I104
I195
I239
I0
tp2430
sg8
(lp2431
(I118
I155
tp2432
a(I138
I198
tp2433
a(I102
I100
tp2434
a(I125
I181
tp2435
a(I110
I178
tp2436
a(I84
I110
tp2437
a(I68
I102
tp2438
a(I85
I145
tp2439
a(I67
I194
tp2440
a(I130
I139
tp2441
asg16
I200
sba(imain2
Polygon
p2442
(dp2443
g3
(I89
I107
tp2444
sg5
I200
sg6
(I31
I10
I110
I97
tp2445
sg8
(lp2446
(I137
I85
tp2447
a(I129
I120
tp2448
a(I138
I81
tp2449
asg16
I200
sba(imain2
Polygon
p2450
(dp2451
g3
(I87
I130
tp2452
sg5
I200
sg6
(I167
I110
I147
I1
tp2453
sg8
(lp2454
(I48
I159
tp2455
a(I49
I92
tp2456
a(I70
I91
tp2457
a(I111
I140
tp2458
a(I96
I151
tp2459
a(I87
I159
tp2460
a(I132
I175
tp2461
a(I91
I179
tp2462
a(I91
I175
tp2463
asg16
I200
sba(imain2
Polygon
p2464
(dp2465
g3
(I62
I187
tp2466
sg5
I200
sg6
(I112
I14
I175
I53
tp2467
sg8
(lp2468
(I22
I200
tp2469
a(I20
I200
tp2470
a(I38
I200
tp2471
a(I35
I200
tp2472
a(I77
I200
tp2473
a(I98
I200
tp2474
a(I71
I196
tp2475
a(I71
I200
tp2476
a(I71
I200
tp2477
a(I69
I200
tp2478
a(I45
I197
tp2479
asg16
I200
sba(imain2
Polygon
p2480
(dp2481
g3
(I59
I26
tp2482
sg5
I200
sg6
(I59
I4
I237
I0
tp2483
sg8
(lp2484
(I26
I72
tp2485
a(I21
I56
tp2486
a(I81
I0
tp2487
a(I33
I0
tp2488
a(I104
I10
tp2489
a(I79
I61
tp2490
a(I80
I5
tp2491
a(I41
I24
tp2492
asg16
I200
sba(imain2
Polygon
p2493
(dp2494
g3
(I74
I59
tp2495
sg5
I200
sg6
(I1
I47
I103
I0
tp2496
sg8
(lp2497
(I84
I47
tp2498
a(I46
I42
tp2499
a(I99
I13
tp2500
a(I67
I44
tp2501
a(I79
I79
tp2502
a(I86
I46
tp2503
a(I39
I17
tp2504
a(I57
I45
tp2505
a(I58
I60
tp2506
a(I44
I35
tp2507
asg16
I200
sba(imain2
Polygon
p2508
(dp2509
g3
(I141
I175
tp2510
sg5
I200
sg6
(I87
I37
I8
I1
tp2511
sg8
(lp2512
(I169
I200
tp2513
a(I159
I193
tp2514
a(I119
I183
tp2515
a(I149
I186
tp2516
a(I112
I195
tp2517
a(I149
I162
tp2518
a(I141
I132
tp2519
a(I169
I161
tp2520
a(I160
I187
tp2521
a(I128
I200
tp2522
a(I160
I169
tp2523
a(I136
I145
tp2524
a(I137
I186
tp2525
a(I136
I165
tp2526
a(I175
I200
tp2527
a(I94
I176
tp2528
a(I155
I191
tp2529
a(I146
I197
tp2530
asg16
I200
sba(imain2
Polygon
p2531
(dp2532
g3
(I114
I81
tp2533
sg5
I200
sg6
(I234
I16
I199
I71
tp2534
sg8
(lp2535
(I121
I101
tp2536
a(I81
I76
tp2537
a(I125
I101
tp2538
a(I121
I83
tp2539
asg16
I200
sba(imain2
Polygon
p2540
(dp2541
g3
(I191
I128
tp2542
sg5
I200
sg6
(I244
I3
I244
I8
tp2543
sg8
(lp2544
(I200
I162
tp2545
a(I144
I170
tp2546
a(I200
I89
tp2547
a(I200
I148
tp2548
a(I182
I162
tp2549
a(I147
I78
tp2550
a(I173
I163
tp2551
asg16
I200
sba(imain2
Polygon
p2552
(dp2553
g3
(I40
I13
tp2554
sg5
I200
sg6
(I70
I180
I119
I1
tp2555
sg8
(lp2556
(I87
I0
tp2557
a(I55
I33
tp2558
a(I62
I16
tp2559
a(I0
I0
tp2560
a(I84
I0
tp2561
a(I0
I0
tp2562
a(I29
I47
tp2563
a(I0
I0
tp2564
a(I67
I7
tp2565
a(I68
I27
tp2566
a(I75
I36
tp2567
a(I7
I27
tp2568
a(I0
I43
tp2569
a(I44
I9
tp2570
a(I76
I0
tp2571
a(I0
I0
tp2572
a(I40
I25
tp2573
a(I0
I0
tp2574
a(I27
I8
tp2575
a(I88
I47
tp2576
asg16
I200
sba(imain2
Polygon
p2577
(dp2578
g3
(I50
I145
tp2579
sg5
I200
sg6
(I56
I210
I123
I12
tp2580
sg8
(lp2581
(I3
I96
tp2582
a(I87
I159
tp2583
a(I82
I95
tp2584
asg16
I200
sba(imain2
Polygon
p2585
(dp2586
g3
(I184
I69
tp2587
sg5
I200
sg6
(I122
I136
I35
I142
tp2588
sg8
(lp2589
(I200
I63
tp2590
a(I200
I31
tp2591
a(I200
I33
tp2592
a(I200
I67
tp2593
a(I164
I71
tp2594
a(I174
I114
tp2595
a(I200
I115
tp2596
a(I200
I101
tp2597
a(I195
I79
tp2598
asg16
I200
sba(imain2
Polygon
p2599
(dp2600
g3
(I6
I29
tp2601
sg5
I200
sg6
(I137
I34
I214
I1
tp2602
sg8
(lp2603
(I56
I14
tp2604
a(I42
I0
tp2605
a(I0
I41
tp2606
a(I22
I65
tp2607
a(I48
I0
tp2608
a(I28
I0
tp2609
a(I4
I38
tp2610
asg16
I200
sba(imain2
Polygon
p2611
(dp2612
g3
(I100
I197
tp2613
sg5
I200
sg6
(I28
I135
I60
I69
tp2614
sg8
(lp2615
(I123
I200
tp2616
a(I79
I200
tp2617
a(I85
I200
tp2618
a(I74
I200
tp2619
a(I130
I200
tp2620
a(I68
I200
tp2621
a(I62
I200
tp2622
a(I148
I200
tp2623
asg16
I200
sba(imain2
Polygon
p2624
(dp2625
g3
(I102
I67
tp2626
sg5
I200
sg6
(I107
I63
I86
I1
tp2627
sg8
(lp2628
(I136
I109
tp2629
a(I78
I100
tp2630
a(I144
I70
tp2631
a(I83
I63
tp2632
a(I116
I116
tp2633
a(I84
I99
tp2634
a(I85
I70
tp2635
asg16
I200
sba(imain2
Polygon
p2636
(dp2637
g3
(I91
I124
tp2638
sg5
I200
sg6
(I166
I67
I8
I115
tp2639
sg8
(lp2640
(I41
I114
tp2641
a(I80
I127
tp2642
a(I83
I75
tp2643
a(I119
I114
tp2644
a(I115
I160
tp2645
a(I45
I142
tp2646
a(I66
I81
tp2647
a(I119
I80
tp2648
a(I129
I117
tp2649
a(I81
I119
tp2650
a(I76
I76
tp2651
a(I54
I89
tp2652
a(I76
I94
tp2653
a(I51
I90
tp2654
asg16
I200
sba(imain2
Polygon
p2655
(dp2656
g3
(I133
I74
tp2657
sg5
I200
sg6
(I15
I173
I91
I0
tp2658
sg8
(lp2659
(I93
I104
tp2660
a(I129
I31
tp2661
a(I176
I108
tp2662
a(I157
I40
tp2663
a(I132
I33
tp2664
a(I106
I93
tp2665
a(I178
I48
tp2666
a(I117
I90
tp2667
a(I152
I119
tp2668
a(I95
I100
tp2669
a(I181
I26
tp2670
a(I134
I86
tp2671
a(I154
I71
tp2672
a(I166
I88
tp2673
a(I171
I56
tp2674
asg16
I200
sba(imain2
Polygon
p2675
(dp2676
g3
(I181
I185
tp2677
sg5
I200
sg6
(I0
I135
I60
I4
tp2678
sg8
(lp2679
(I192
I200
tp2680
a(I197
I153
tp2681
a(I200
I157
tp2682
asg16
I200
sba(imain2
Polygon
p2683
(dp2684
g3
(I3
I9
tp2685
sg5
I200
sg6
(I112
I13
I41
I111
tp2686
sg8
(lp2687
(I0
I0
tp2688
a(I49
I0
tp2689
a(I0
I0
tp2690
asg16
I200
sba(imain2
Polygon
p2691
(dp2692
g3
(I154
I22
tp2693
sg5
I200
sg6
(I80
I179
I129
I0
tp2694
sg8
(lp2695
(I198
I49
tp2696
a(I180
I27
tp2697
a(I193
I61
tp2698
a(I124
I56
tp2699
asg16
I200
sba(imain2
Polygon
p2700
(dp2701
g3
(I3
I51
tp2702
sg5
I200
sg6
(I8
I164
I11
I31
tp2703
sg8
(lp2704
(I0
I63
tp2705
a(I0
I78
tp2706
a(I0
I34
tp2707
a(I0
I45
tp2708
asg16
I200
sba(imain2
Polygon
p2709
(dp2710
g3
(I183
I123
tp2711
sg5
I200
sg6
(I43
I171
I187
I91
tp2712
sg8
(lp2713
(I200
I171
tp2714
a(I200
I140
tp2715
a(I200
I152
tp2716
a(I200
I132
tp2717
asg16
I200
sba.