(lp0
(imain2
Polygon
p1
(dp2
S'origin'
p3
(I100
I102
tp4
sS'h'
p5
I200
sS'color'
p6
(I132
I172
I188
I0
tp7
sS'corner_list'
p8
(lp9
(I77
I128
tp10
a(I98
I143
tp11
a(I128
I109
tp12
a(I148
I118
tp13
a(I83
I86
tp14
a(I62
I111
tp15
a(I106
I72
tp16
asS'w'
p17
I200
sba(imain2
Polygon
p18
(dp19
g3
(I142
I122
tp20
sg5
I200
sg6
(I20
I220
I130
I27
tp21
sg8
(lp22
(I101
I108
tp23
a(I95
I104
tp24
a(I106
I160
tp25
a(I147
I155
tp26
a(I109
I157
tp27
a(I93
I95
tp28
a(I119
I85
tp29
a(I188
I130
tp30
a(I164
I94
tp31
a(I192
I113
tp32
a(I136
I104
tp33
a(I134
I86
tp34
a(I102
I138
tp35
asg17
I200
sba(imain2
Polygon
p36
(dp37
g3
(I39
I24
tp38
sg5
I200
sg6
(I239
I162
I199
I0
tp39
sg8
(lp40
(I58
I0
tp41
a(I42
I0
tp42
a(I43
I65
tp43
a(I50
I25
tp44
asg17
I200
sba(imain2
Polygon
p45
(dp46
g3
(I87
I73
tp47
sg5
I200
sg6
(I160
I18
I197
I88
tp48
sg8
(lp49
(I103
I121
tp50
a(I74
I69
tp51
a(I82
I102
tp52
a(I62
I79
tp53
a(I68
I47
tp54
a(I56
I110
tp55
a(I92
I70
tp56
a(I63
I114
tp57
a(I47
I56
tp58
a(I77
I37
tp59
a(I131
I68
tp60
a(I58
I120
tp61
a(I85
I120
tp62
a(I80
I99
tp63
a(I53
I119
tp64
asg17
I200
sba(imain2
Polygon
p65
(dp66
g3
(I75
I185
tp67
sg5
I200
sg6
(I70
I0
I88
I78
tp68
sg8
(lp69
(I84
I199
tp70
a(I125
I163
tp71
a(I123
I140
tp72
a(I120
I200
tp73
a(I83
I200
tp74
a(I68
I195
tp75
a(I98
I174
tp76
a(I100
I200
tp77
asg17
I200
sba(imain2
Polygon
p78
(dp79
g3
(I51
I161
tp80
sg5
I200
sg6
(I130
I131
I14
I90
tp81
sg8
(lp82
(I86
I200
tp83
a(I55
I200
tp84
a(I96
I190
tp85
a(I67
I140
tp86
a(I76
I152
tp87
asg17
I200
sba(imain2
Polygon
p88
(dp89
g3
(I76
I107
tp90
sg5
I200
sg6
(I159
I37
I202
I109
tp91
sg8
(lp92
(I113
I136
tp93
a(I40
I71
tp94
a(I56
I71
tp95
a(I55
I67
tp96
a(I115
I57
tp97
a(I107
I154
tp98
a(I53
I141
tp99
a(I48
I92
tp100
a(I101
I62
tp101
a(I75
I123
tp102
a(I85
I132
tp103
a(I87
I117
tp104
asg17
I200
sba(imain2
Polygon
p105
(dp106
g3
(I79
I45
tp107
sg5
I200
sg6
(I221
I1
I240
I0
tp108
sg8
(lp109
(I84
I11
tp110
a(I121
I88
tp111
a(I37
I47
tp112
a(I70
I64
tp113
a(I88
I9
tp114
asg17
I200
sba(imain2
Polygon
p115
(dp116
g3
(I123
I186
tp117
sg5
I200
sg6
(I47
I14
I42
I1
tp118
sg8
(lp119
(I93
I159
tp120
a(I119
I194
tp121
a(I86
I200
tp122
asg17
I200
sba(imain2
Polygon
p123
(dp124
g3
(I74
I162
tp125
sg5
I200
sg6
(I155
I93
I211
I0
tp126
sg8
(lp127
(I111
I187
tp128
a(I28
I142
tp129
a(I74
I188
tp130
a(I60
I138
tp131
a(I124
I140
tp132
a(I43
I200
tp133
a(I54
I193
tp134
a(I62
I188
tp135
a(I124
I196
tp136
a(I110
I141
tp137
a(I120
I166
tp138
asg17
I200
sba(imain2
Polygon
p139
(dp140
g3
(I64
I120
tp141
sg5
I200
sg6
(I232
I40
I170
I0
tp142
sg8
(lp143
(I113
I141
tp144
a(I100
I116
tp145
a(I104
I125
tp146
asg17
I200
sba(imain2
Polygon
p147
(dp148
g3
(I2
I37
tp149
sg5
I200
sg6
(I134
I133
I101
I109
tp150
sg8
(lp151
(I0
I0
tp152
a(I45
I3
tp153
a(I4
I47
tp154
a(I20
I35
tp155
a(I0
I66
tp156
a(I41
I3
tp157
a(I36
I68
tp158
a(I21
I15
tp159
a(I39
I86
tp160
a(I0
I85
tp161
a(I0
I9
tp162
asg17
I200
sba(imain2
Polygon
p163
(dp164
g3
(I161
I116
tp165
sg5
I200
sg6
(I151
I91
I113
I52
tp166
sg8
(lp167
(I191
I88
tp168
a(I200
I162
tp169
a(I168
I90
tp170
a(I170
I71
tp171
a(I163
I108
tp172
a(I174
I126
tp173
a(I198
I163
tp174
a(I182
I147
tp175
a(I200
I152
tp176
asg17
I200
sba(imain2
Polygon
p177
(dp178
g3
(I171
I44
tp179
sg5
I200
sg6
(I130
I235
I105
I109
tp180
sg8
(lp181
(I151
I30
tp182
a(I157
I22
tp183
a(I200
I89
tp184
a(I200
I0
tp185
a(I132
I0
tp186
a(I134
I21
tp187
a(I132
I4
tp188
a(I161
I77
tp189
a(I200
I93
tp190
a(I143
I0
tp191
a(I170
I71
tp192
a(I157
I81
tp193
a(I146
I0
tp194
asg17
I200
sba(imain2
Polygon
p195
(dp196
g3
(I196
I163
tp197
sg5
I200
sg6
(I37
I166
I6
I21
tp198
sg8
(lp199
(I195
I117
tp200
a(I200
I197
tp201
a(I200
I191
tp202
a(I200
I134
tp203
a(I193
I170
tp204
a(I200
I141
tp205
a(I155
I170
tp206
a(I200
I182
tp207
a(I200
I148
tp208
a(I200
I114
tp209
a(I170
I173
tp210
a(I179
I115
tp211
a(I171
I129
tp212
asg17
I200
sba(imain2
Polygon
p213
(dp214
g3
(I123
I35
tp215
sg5
I200
sg6
(I142
I61
I71
I1
tp216
sg8
(lp217
(I73
I77
tp218
a(I134
I57
tp219
a(I79
I65
tp220
a(I158
I15
tp221
a(I90
I72
tp222
a(I126
I0
tp223
a(I94
I0
tp224
a(I100
I0
tp225
a(I130
I0
tp226
asg17
I200
sba(imain2
Polygon
p227
(dp228
g3
(I38
I152
tp229
sg5
I200
sg6
(I92
I165
I32
I129
tp230
sg8
(lp231
(I87
I136
tp232
a(I53
I103
tp233
a(I49
I126
tp234
a(I73
I158
tp235
asg17
I200
sba(imain2
Polygon
p236
(dp237
g3
(I118
I157
tp238
sg5
I200
sg6
(I85
I63
I43
I0
tp239
sg8
(lp240
(I79
I185
tp241
a(I115
I173
tp242
a(I168
I133
tp243
a(I160
I116
tp244
asg17
I200
sba(imain2
Polygon
p245
(dp246
g3
(I10
I175
tp247
sg5
I200
sg6
(I174
I52
I60
I13
tp248
sg8
(lp249
(I0
I141
tp250
a(I0
I193
tp251
a(I0
I200
tp252
a(I29
I188
tp253
asg17
I200
sba(imain2
Polygon
p254
(dp255
g3
(I4
I131
tp256
sg5
I200
sg6
(I122
I51
I61
I0
tp257
sg8
(lp258
(I25
I135
tp259
a(I2
I88
tp260
a(I0
I173
tp261
a(I45
I150
tp262
a(I0
I145
tp263
a(I18
I159
tp264
a(I41
I133
tp265
a(I0
I159
tp266
a(I19
I89
tp267
a(I0
I108
tp268
a(I12
I86
tp269
a(I0
I178
tp270
asg17
I200
sba(imain2
Polygon
p271
(dp272
g3
(I75
I51
tp273
sg5
I200
sg6
(I101
I195
I0
I9
tp274
sg8
(lp275
(I73
I93
tp276
a(I28
I87
tp277
a(I34
I7
tp278
a(I105
I56
tp279
a(I112
I100
tp280
asg17
I200
sba(imain2
Polygon
p281
(dp282
g3
(I18
I101
tp283
sg5
I200
sg6
(I0
I11
I65
I41
tp284
sg8
(lp285
(I56
I62
tp286
a(I15
I116
tp287
a(I0
I56
tp288
a(I5
I78
tp289
a(I20
I101
tp290
a(I0
I111
tp291
a(I45
I64
tp292
asg17
I200
sba(imain2
Polygon
p293
(dp294
g3
(I97
I199
tp295
sg5
I200
sg6
(I0
I107
I44
I105
tp296
sg8
(lp297
(I91
I200
tp298
a(I134
I200
tp299
a(I135
I171
tp300
a(I78
I156
tp301
a(I97
I158
tp302
a(I127
I200
tp303
a(I118
I173
tp304
a(I87
I171
tp305
a(I99
I160
tp306
a(I95
I152
tp307
a(I97
I200
tp308
asg17
I200
sba(imain2
Polygon
p309
(dp310
g3
(I102
I104
tp311
sg5
I200
sg6
(I219
I121
I126
I64
tp312
sg8
(lp313
(I105
I151
tp314
a(I126
I71
tp315
a(I59
I58
tp316
a(I57
I131
tp317
a(I74
I153
tp318
asg17
I200
sba(imain2
Polygon
p319
(dp320
g3
(I177
I176
tp321
sg5
I200
sg6
(I112
I206
I214
I41
tp322
sg8
(lp323
(I200
I138
tp324
a(I167
I145
tp325
a(I200
I200
tp326
asg17
I200
sba(imain2
Polygon
p327
(dp328
g3
(I99
I27
tp329
sg5
I200
sg6
(I71
I83
I1
I103
tp330
sg8
(lp331
(I143
I0
tp332
a(I53
I0
tp333
a(I97
I73
tp334
a(I139
I50
tp335
a(I73
I29
tp336
asg17
I200
sba(imain2
Polygon
p337
(dp338
g3
(I138
I156
tp339
sg5
I200
sg6
(I16
I57
I186
I1
tp340
sg8
(lp341
(I134
I187
tp342
a(I91
I144
tp343
a(I111
I148
tp344
a(I101
I146
tp345
asg17
I200
sba(imain2
Polygon
p346
(dp347
g3
(I100
I129
tp348
sg5
I200
sg6
(I113
I215
I219
I1
tp349
sg8
(lp350
(I93
I100
tp351
a(I85
I161
tp352
a(I66
I171
tp353
a(I97
I125
tp354
a(I107
I176
tp355
asg17
I200
sba(imain2
Polygon
p356
(dp357
g3
(I90
I2
tp358
sg5
I200
sg6
(I194
I194
I1
I1
tp359
sg8
(lp360
(I132
I0
tp361
a(I109
I0
tp362
a(I88
I0
tp363
a(I82
I20
tp364
a(I90
I51
tp365
a(I89
I45
tp366
a(I79
I40
tp367
a(I66
I0
tp368
a(I55
I0
tp369
a(I52
I0
tp370
asg17
I200
sba(imain2
Polygon
p371
(dp372
g3
(I76
I49
tp373
sg5
I200
sg6
(I245
I163
I175
I97
tp374
sg8
(lp375
(I52
I54
tp376
a(I62
I34
tp377
a(I99
I36
tp378
a(I124
I78
tp379
a(I91
I88
tp380
a(I47
I82
tp381
asg17
I200
sba(imain2
Polygon
p382
(dp383
g3
(I135
I193
tp384
sg5
I200
sg6
(I201
I198
I62
I1
tp385
sg8
(lp386
(I131
I160
tp387
a(I146
I200
tp388
a(I87
I200
tp389
a(I91
I200
tp390
a(I178
I191
tp391
a(I146
I200
tp392
a(I129
I171
tp393
a(I149
I200
tp394
a(I150
I200
tp395
asg17
I200
sba(imain2
Polygon
p396
(dp397
g3
(I156
I197
tp398
sg5
I200
sg6
(I78
I232
I78
I2
tp399
sg8
(lp400
(I183
I162
tp401
a(I198
I200
tp402
a(I112
I200
tp403
a(I108
I171
tp404
a(I196
I200
tp405
asg17
I200
sba(imain2
Polygon
p406
(dp407
g3
(I159
I95
tp408
sg5
I200
sg6
(I160
I19
I15
I1
tp409
sg8
(lp410
(I196
I80
tp411
a(I177
I72
tp412
a(I114
I45
tp413
a(I184
I46
tp414
a(I184
I145
tp415
a(I154
I110
tp416
a(I130
I98
tp417
a(I163
I133
tp418
a(I136
I123
tp419
asg17
I200
sba(imain2
Polygon
p420
(dp421
g3
(I130
I187
tp422
sg5
I200
sg6
(I177
I73
I86
I66
tp423
sg8
(lp424
(I138
I200
tp425
a(I161
I187
tp426
a(I161
I161
tp427
a(I168
I192
tp428
a(I164
I200
tp429
a(I97
I159
tp430
a(I90
I200
tp431
asg17
I200
sba(imain2
Polygon
p432
(dp433
g3
(I56
I194
tp434
sg5
I200
sg6
(I191
I172
I1
I30
tp435
sg8
(lp436
(I99
I158
tp437
a(I59
I200
tp438
a(I15
I171
tp439
a(I36
I176
tp440
a(I24
I145
tp441
a(I7
I195
tp442
a(I6
I200
tp443
a(I75
I169
tp444
a(I20
I200
tp445
a(I102
I200
tp446
a(I101
I170
tp447
a(I70
I200
tp448
asg17
I200
sba(imain2
Polygon
p449
(dp450
g3
(I180
I160
tp451
sg5
I200
sg6
(I28
I39
I107
I49
tp452
sg8
(lp453
(I160
I132
tp454
a(I163
I195
tp455
a(I200
I200
tp456
a(I159
I131
tp457
a(I200
I132
tp458
a(I200
I161
tp459
a(I200
I118
tp460
a(I161
I136
tp461
a(I200
I128
tp462
a(I200
I139
tp463
asg17
I200
sba(imain2
Polygon
p464
(dp465
g3
(I12
I87
tp466
sg5
I200
sg6
(I48
I129
I182
I2
tp467
sg8
(lp468
(I0
I133
tp469
a(I0
I54
tp470
a(I20
I73
tp471
a(I0
I107
tp472
a(I0
I121
tp473
asg17
I200
sba(imain2
Polygon
p474
(dp475
g3
(I123
I91
tp476
sg5
I200
sg6
(I229
I0
I184
I52
tp477
sg8
(lp478
(I93
I69
tp479
a(I99
I140
tp480
a(I88
I106
tp481
a(I77
I123
tp482
asg17
I200
sba(imain2
Polygon
p483
(dp484
g3
(I80
I122
tp485
sg5
I200
sg6
(I220
I175
I139
I72
tp486
sg8
(lp487
(I116
I143
tp488
a(I129
I85
tp489
a(I44
I101
tp490
a(I75
I158
tp491
a(I123
I146
tp492
asg17
I200
sba(imain2
Polygon
p493
(dp494
g3
(I119
I156
tp495
sg5
I200
sg6
(I125
I213
I195
I44
tp496
sg8
(lp497
(I96
I178
tp498
a(I141
I200
tp499
a(I103
I123
tp500
a(I90
I178
tp501
a(I70
I199
tp502
a(I133
I200
tp503
a(I69
I119
tp504
a(I102
I114
tp505
a(I114
I170
tp506
a(I88
I157
tp507
asg17
I200
sba(imain2
Polygon
p508
(dp509
g3
(I66
I96
tp510
sg5
I200
sg6
(I106
I72
I64
I91
tp511
sg8
(lp512
(I24
I133
tp513
a(I20
I88
tp514
a(I59
I80
tp515
a(I72
I129
tp516
a(I100
I145
tp517
a(I30
I82
tp518
a(I36
I114
tp519
asg17
I200
sba(imain2
Polygon
p520
(dp521
g3
(I17
I178
tp522
sg5
I200
sg6
(I81
I63
I11
I0
tp523
sg8
(lp524
(I0
I175
tp525
a(I1
I200
tp526
a(I0
I174
tp527
a(I21
I149
tp528
a(I20
I150
tp529
a(I0
I128
tp530
a(I11
I166
tp531
a(I45
I141
tp532
a(I63
I188
tp533
asg17
I200
sba(imain2
Polygon
p534
(dp535
g3
(I196
I157
tp536
sg5
I200
sg6
(I26
I207
I67
I1
tp537
sg8
(lp538
(I147
I199
tp539
a(I200
I112
tp540
a(I200
I182
tp541
a(I200
I187
tp542
a(I200
I158
tp543
a(I200
I123
tp544
a(I147
I107
tp545
a(I165
I144
tp546
a(I200
I113
tp547
a(I200
I173
tp548
a(I200
I143
tp549
a(I189
I174
tp550
a(I200
I151
tp551
a(I154
I109
tp552
a(I161
I119
tp553
a(I200
I151
tp554
a(I200
I135
tp555
a(I158
I128
tp556
asg17
I200
sba(imain2
Polygon
p557
(dp558
g3
(I7
I138
tp559
sg5
I200
sg6
(I208
I109
I8
I1
tp560
sg8
(lp561
(I0
I174
tp562
a(I0
I103
tp563
a(I0
I109
tp564
a(I43
I88
tp565
a(I11
I151
tp566
a(I0
I88
tp567
a(I0
I180
tp568
a(I25
I106
tp569
a(I0
I157
tp570
a(I0
I147
tp571
a(I21
I180
tp572
a(I0
I158
tp573
a(I24
I89
tp574
a(I41
I89
tp575
asg17
I200
sba(imain2
Polygon
p576
(dp577
g3
(I49
I75
tp578
sg5
I200
sg6
(I117
I227
I9
I19
tp579
sg8
(lp580
(I97
I31
tp581
a(I96
I95
tp582
a(I60
I123
tp583
a(I28
I81
tp584
a(I35
I74
tp585
a(I91
I46
tp586
a(I35
I64
tp587
a(I75
I88
tp588
a(I0
I118
tp589
a(I3
I64
tp590
a(I8
I49
tp591
a(I41
I49
tp592
a(I53
I73
tp593
a(I77
I48
tp594
a(I41
I61
tp595
a(I63
I36
tp596
a(I7
I38
tp597
asg17
I200
sba(imain2
Polygon
p598
(dp599
g3
(I75
I73
tp600
sg5
I200
sg6
(I161
I134
I134
I133
tp601
sg8
(lp602
(I108
I39
tp603
a(I123
I118
tp604
a(I47
I117
tp605
a(I62
I34
tp606
asg17
I200
sba(imain2
Polygon
p607
(dp608
g3
(I82
I103
tp609
sg5
I200
sg6
(I94
I95
I58
I1
tp610
sg8
(lp611
(I49
I116
tp612
a(I83
I145
tp613
a(I53
I131
tp614
a(I124
I68
tp615
a(I36
I91
tp616
a(I67
I133
tp617
a(I98
I99
tp618
a(I95
I67
tp619
a(I97
I112
tp620
a(I78
I128
tp621
a(I39
I61
tp622
a(I43
I63
tp623
a(I41
I99
tp624
a(I132
I75
tp625
a(I128
I131
tp626
a(I102
I131
tp627
a(I91
I128
tp628
a(I55
I149
tp629
asg17
I200
sba(imain2
Polygon
p630
(dp631
g3
(I126
I26
tp632
sg5
I200
sg6
(I237
I182
I126
I106
tp633
sg8
(lp634
(I138
I12
tp635
a(I148
I21
tp636
a(I124
I16
tp637
a(I83
I10
tp638
a(I77
I0
tp639
a(I162
I0
tp640
a(I176
I38
tp641
a(I168
I75
tp642
asg17
I200
sba(imain2
Polygon
p643
(dp644
g3
(I128
I23
tp645
sg5
I200
sg6
(I105
I1
I84
I0
tp646
sg8
(lp647
(I125
I0
tp648
a(I97
I3
tp649
a(I101
I52
tp650
a(I154
I0
tp651
a(I124
I60
tp652
a(I139
I0
tp653
a(I100
I9
tp654
a(I116
I0
tp655
a(I112
I0
tp656
a(I157
I34
tp657
a(I144
I0
tp658
a(I92
I33
tp659
a(I172
I71
tp660
a(I107
I22
tp661
asg17
I200
sba(imain2
Polygon
p662
(dp663
g3
(I147
I59
tp664
sg5
I200
sg6
(I1
I240
I188
I60
tp665
sg8
(lp666
(I191
I38
tp667
a(I155
I19
tp668
a(I190
I84
tp669
asg17
I200
sba(imain2
Polygon
p670
(dp671
g3
(I105
I192
tp672
sg5
I200
sg6
(I177
I19
I173
I0
tp673
sg8
(lp674
(I150
I178
tp675
a(I68
I169
tp676
a(I146
I145
tp677
a(I118
I200
tp678
a(I87
I152
tp679
asg17
I200
sba(imain2
Polygon
p680
(dp681
g3
(I144
I60
tp682
sg5
I200
sg6
(I59
I233
I7
I1
tp683
sg8
(lp684
(I100
I77
tp685
a(I157
I97
tp686
a(I151
I46
tp687
a(I135
I106
tp688
a(I122
I34
tp689
a(I180
I75
tp690
a(I143
I104
tp691
a(I114
I17
tp692
asg17
I200
sba(imain2
Polygon
p693
(dp694
g3
(I177
I86
tp695
sg5
I200
sg6
(I168
I32
I16
I1
tp696
sg8
(lp697
(I179
I46
tp698
a(I165
I74
tp699
a(I200
I62
tp700
a(I167
I118
tp701
a(I200
I65
tp702
a(I141
I67
tp703
a(I174
I90
tp704
asg17
I200
sba(imain2
Polygon
p705
(dp706
g3
(I157
I117
tp707
sg5
I200
sg6
(I43
I28
I0
I54
tp708
sg8
(lp709
(I187
I153
tp710
a(I200
I147
tp711
a(I128
I75
tp712
a(I191
I152
tp713
a(I142
I67
tp714
a(I183
I145
tp715
a(I133
I77
tp716
a(I200
I166
tp717
a(I132
I108
tp718
a(I126
I91
tp719
asg17
I200
sba(imain2
Polygon
p720
(dp721
g3
(I155
I192
tp722
sg5
I200
sg6
(I1
I33
I195
I0
tp723
sg8
(lp724
(I200
I165
tp725
a(I190
I150
tp726
a(I128
I195
tp727
a(I144
I154
tp728
a(I175
I200
tp729
a(I178
I193
tp730
a(I110
I173
tp731
a(I153
I200
tp732
a(I155
I187
tp733
a(I194
I181
tp734
a(I158
I185
tp735
a(I195
I184
tp736
asg17
I200
sba(imain2
Polygon
p737
(dp738
g3
(I103
I158
tp739
sg5
I200
sg6
(I13
I44
I118
I57
tp740
sg8
(lp741
(I107
I154
tp742
a(I87
I136
tp743
a(I127
I113
tp744
a(I121
I144
tp745
a(I82
I153
tp746
a(I131
I117
tp747
a(I66
I200
tp748
a(I96
I148
tp749
asg17
I200
sba(imain2
Polygon
p750
(dp751
g3
(I9
I151
tp752
sg5
I200
sg6
(I120
I83
I56
I33
tp753
sg8
(lp754
(I0
I194
tp755
a(I0
I173
tp756
a(I0
I126
tp757
a(I21
I130
tp758
a(I0
I157
tp759
a(I0
I200
tp760
a(I44
I122
tp761
a(I0
I159
tp762
asg17
I200
sba(imain2
Polygon
p763
(dp764
g3
(I114
I115
tp765
sg5
I200
sg6
(I165
I158
I137
I1
tp766
sg8
(lp767
(I136
I133
tp768
a(I156
I103
tp769
a(I64
I113
tp770
a(I76
I151
tp771
a(I75
I83
tp772
a(I144
I106
tp773
a(I99
I110
tp774
asg17
I200
sba(imain2
Polygon
p775
(dp776
g3
(I114
I99
tp777
sg5
I200
sg6
(I60
I240
I7
I48
tp778
sg8
(lp779
(I128
I108
tp780
a(I104
I71
tp781
a(I95
I126
tp782
a(I85
I70
tp783
a(I72
I108
tp784
a(I117
I58
tp785
a(I70
I56
tp786
a(I109
I134
tp787
a(I103
I135
tp788
a(I69
I62
tp789
a(I139
I67
tp790
a(I84
I133
tp791
asg17
I200
sba(imain2
Polygon
p792
(dp793
g3
(I173
I62
tp794
sg5
I200
sg6
(I1
I40
I167
I96
tp795
sg8
(lp796
(I200
I82
tp797
a(I200
I84
tp798
a(I168
I49
tp799
a(I200
I89
tp800
a(I187
I42
tp801
asg17
I200
sba(imain2
Polygon
p802
(dp803
g3
(I199
I171
tp804
sg5
I200
sg6
(I0
I233
I13
I21
tp805
sg8
(lp806
(I200
I164
tp807
a(I200
I174
tp808
a(I162
I194
tp809
asg17
I200
sba(imain2
Polygon
p810
(dp811
g3
(I195
I126
tp812
sg5
I200
sg6
(I211
I215
I27
I1
tp813
sg8
(lp814
(I182
I167
tp815
a(I176
I160
tp816
a(I172
I118
tp817
a(I200
I164
tp818
a(I200
I93
tp819
a(I200
I82
tp820
a(I175
I79
tp821
a(I200
I91
tp822
a(I188
I145
tp823
a(I170
I107
tp824
a(I183
I169
tp825
a(I199
I106
tp826
a(I170
I145
tp827
a(I187
I122
tp828
a(I200
I143
tp829
a(I200
I156
tp830
a(I200
I136
tp831
asg17
I200
sba(imain2
Polygon
p832
(dp833
g3
(I51
I190
tp834
sg5
I200
sg6
(I124
I172
I99
I56
tp835
sg8
(lp836
(I63
I200
tp837
a(I11
I200
tp838
a(I86
I200
tp839
a(I60
I200
tp840
a(I96
I168
tp841
a(I97
I200
tp842
a(I14
I192
tp843
a(I88
I200
tp844
asg17
I200
sba(imain2
Polygon
p845
(dp846
g3
(I200
I5
tp847
sg5
I200
sg6
(I187
I107
I44
I1
tp848
sg8
(lp849
(I200
I50
tp850
a(I200
I17
tp851
a(I200
I0
tp852
a(I200
I17
tp853
a(I185
I0
tp854
a(I200
I0
tp855
a(I200
I0
tp856
a(I200
I0
tp857
a(I200
I0
tp858
a(I186
I38
tp859
asg17
I200
sba(imain2
Polygon
p860
(dp861
g3
(I147
I166
tp862
sg5
I200
sg6
(I114
I241
I223
I9
tp863
sg8
(lp864
(I108
I131
tp865
a(I109
I190
tp866
a(I179
I180
tp867
a(I123
I166
tp868
a(I132
I125
tp869
a(I110
I196
tp870
a(I108
I150
tp871
asg17
I200
sba(imain2
Polygon
p872
(dp873
g3
(I16
I191
tp874
sg5
I200
sg6
(I128
I46
I221
I1
tp875
sg8
(lp876
(I0
I154
tp877
a(I59
I200
tp878
a(I55
I168
tp879
asg17
I200
sba(imain2
Polygon
p880
(dp881
g3
(I94
I9
tp882
sg5
I200
sg6
(I199
I50
I20
I1
tp883
sg8
(lp884
(I59
I24
tp885
a(I131
I0
tp886
a(I130
I0
tp887
a(I83
I0
tp888
a(I123
I3
tp889
a(I62
I0
tp890
a(I67
I26
tp891
a(I87
I56
tp892
a(I99
I22
tp893
a(I109
I25
tp894
a(I137
I19
tp895
a(I50
I53
tp896
asg17
I200
sba(imain2
Polygon
p897
(dp898
g3
(I111
I113
tp899
sg5
I200
sg6
(I89
I30
I145
I0
tp900
sg8
(lp901
(I83
I120
tp902
a(I95
I159
tp903
a(I120
I136
tp904
a(I150
I136
tp905
asg17
I200
sba(imain2
Polygon
p906
(dp907
g3
(I10
I81
tp908
sg5
I200
sg6
(I220
I162
I193
I1
tp909
sg8
(lp910
(I60
I131
tp911
a(I0
I33
tp912
a(I0
I129
tp913
a(I12
I107
tp914
a(I11
I125
tp915
a(I59
I45
tp916
a(I0
I116
tp917
a(I0
I77
tp918
a(I22
I107
tp919
a(I46
I129
tp920
a(I2
I80
tp921
a(I24
I55
tp922
asg17
I200
sba(imain2
Polygon
p923
(dp924
g3
(I10
I22
tp925
sg5
I200
sg6
(I217
I204
I104
I67
tp926
sg8
(lp927
(I0
I19
tp928
a(I41
I0
tp929
a(I47
I58
tp930
a(I19
I72
tp931
a(I0
I70
tp932
a(I12
I0
tp933
a(I0
I0
tp934
a(I0
I66
tp935
a(I13
I7
tp936
a(I0
I14
tp937
a(I26
I4
tp938
a(I0
I13
tp939
a(I15
I70
tp940
asg17
I200
sba(imain2
Polygon
p941
(dp942
g3
(I19
I169
tp943
sg5
I200
sg6
(I89
I215
I79
I1
tp944
sg8
(lp945
(I41
I147
tp946
a(I68
I169
tp947
a(I20
I192
tp948
a(I66
I163
tp949
a(I7
I200
tp950
a(I0
I166
tp951
asg17
I200
sba(imain2
Polygon
p952
(dp953
g3
(I194
I7
tp954
sg5
I200
sg6
(I162
I88
I133
I0
tp955
sg8
(lp956
(I200
I44
tp957
a(I200
I0
tp958
a(I200
I35
tp959
a(I160
I25
tp960
a(I170
I0
tp961
a(I184
I0
tp962
a(I200
I0
tp963
a(I174
I0
tp964
a(I200
I0
tp965
a(I200
I45
tp966
asg17
I200
sba(imain2
Polygon
p967
(dp968
g3
(I42
I15
tp969
sg5
I200
sg6
(I147
I135
I162
I1
tp970
sg8
(lp971
(I55
I36
tp972
a(I61
I9
tp973
a(I73
I63
tp974
a(I0
I65
tp975
a(I11
I0
tp976
a(I12
I32
tp977
a(I91
I0
tp978
a(I20
I58
tp979
asg17
I200
sba(imain2
Polygon
p980
(dp981
g3
(I183
I77
tp982
sg5
I200
sg6
(I25
I141
I27
I29
tp983
sg8
(lp984
(I146
I55
tp985
a(I200
I86
tp986
a(I156
I32
tp987
a(I189
I40
tp988
a(I200
I100
tp989
a(I200
I90
tp990
a(I200
I43
tp991
asg17
I200
sba(imain2
Polygon
p992
(dp993
g3
(I190
I45
tp994
sg5
I200
sg6
(I177
I45
I183
I0
tp995
sg8
(lp996
(I200
I8
tp997
a(I200
I26
tp998
a(I153
I42
tp999
a(I200
I46
tp1000
a(I179
I86
tp1001
a(I179
I6
tp1002
a(I183
I37
tp1003
a(I200
I7
tp1004
a(I153
I38
tp1005
asg17
I200
sba(imain2
Polygon
p1006
(dp1007
g3
(I115
I69
tp1008
sg5
I200
sg6
(I0
I121
I192
I0
tp1009
sg8
(lp1010
(I121
I86
tp1011
a(I84
I62
tp1012
a(I136
I59
tp1013
a(I118
I32
tp1014
asg17
I200
sba(imain2
Polygon
p1015
(dp1016
g3
(I173
I121
tp1017
sg5
I200
sg6
(I242
I53
I20
I1
tp1018
sg8
(lp1019
(I155
I105
tp1020
a(I137
I112
tp1021
a(I164
I125
tp1022
a(I169
I95
tp1023
a(I184
I89
tp1024
a(I200
I116
tp1025
a(I192
I122
tp1026
a(I144
I170
tp1027
asg17
I200
sba(imain2
Polygon
p1028
(dp1029
g3
(I45
I135
tp1030
sg5
I200
sg6
(I148
I126
I175
I39
tp1031
sg8
(lp1032
(I7
I177
tp1033
a(I21
I178
tp1034
a(I23
I86
tp1035
a(I14
I133
tp1036
a(I35
I86
tp1037
a(I9
I89
tp1038
asg17
I200
sba(imain2
Polygon
p1039
(dp1040
g3
(I61
I48
tp1041
sg5
I200
sg6
(I76
I33
I123
I112
tp1042
sg8
(lp1043
(I71
I86
tp1044
a(I81
I91
tp1045
a(I73
I78
tp1046
a(I47
I85
tp1047
a(I68
I93
tp1048
a(I86
I72
tp1049
a(I85
I73
tp1050
a(I45
I93
tp1051
a(I66
I90
tp1052
a(I106
I80
tp1053
asg17
I200
sba(imain2
Polygon
p1054
(dp1055
g3
(I96
I154
tp1056
sg5
I200
sg6
(I149
I182
I184
I61
tp1057
sg8
(lp1058
(I53
I107
tp1059
a(I75
I149
tp1060
a(I90
I200
tp1061
a(I142
I200
tp1062
a(I53
I114
tp1063
a(I107
I120
tp1064
asg17
I200
sba(imain2
Polygon
p1065
(dp1066
g3
(I32
I146
tp1067
sg5
I200
sg6
(I62
I240
I70
I96
tp1068
sg8
(lp1069
(I0
I157
tp1070
a(I0
I178
tp1071
a(I0
I132
tp1072
asg17
I200
sba(imain2
Polygon
p1073
(dp1074
g3
(I3
I120
tp1075
sg5
I200
sg6
(I186
I176
I16
I55
tp1076
sg8
(lp1077
(I38
I71
tp1078
a(I0
I72
tp1079
a(I0
I121
tp1080
a(I0
I132
tp1081
a(I20
I116
tp1082
asg17
I200
sba(imain2
Polygon
p1083
(dp1084
g3
(I74
I152
tp1085
sg5
I200
sg6
(I59
I80
I126
I1
tp1086
sg8
(lp1087
(I107
I180
tp1088
a(I80
I138
tp1089
a(I39
I140
tp1090
a(I99
I121
tp1091
a(I81
I127
tp1092
a(I35
I167
tp1093
a(I118
I127
tp1094
a(I32
I179
tp1095
a(I33
I191
tp1096
a(I87
I200
tp1097
a(I56
I110
tp1098
a(I60
I153
tp1099
a(I76
I188
tp1100
asg17
I200
sba(imain2
Polygon
p1101
(dp1102
g3
(I31
I192
tp1103
sg5
I200
sg6
(I153
I33
I134
I1
tp1104
sg8
(lp1105
(I0
I181
tp1106
a(I7
I200
tp1107
a(I0
I200
tp1108
a(I0
I175
tp1109
a(I80
I200
tp1110
a(I17
I200
tp1111
a(I0
I142
tp1112
a(I41
I172
tp1113
a(I54
I171
tp1114
a(I0
I145
tp1115
a(I55
I200
tp1116
a(I0
I187
tp1117
a(I34
I200
tp1118
a(I54
I200
tp1119
a(I21
I181
tp1120
a(I75
I200
tp1121
a(I0
I195
tp1122
asg17
I200
sba(imain2
Polygon
p1123
(dp1124
g3
(I99
I149
tp1125
sg5
I200
sg6
(I189
I32
I203
I1
tp1126
sg8
(lp1127
(I110
I116
tp1128
a(I136
I173
tp1129
a(I101
I127
tp1130
a(I82
I109
tp1131
a(I114
I142
tp1132
a(I79
I154
tp1133
a(I51
I112
tp1134
a(I77
I130
tp1135
a(I92
I139
tp1136
a(I124
I194
tp1137
a(I109
I193
tp1138
a(I103
I151
tp1139
a(I123
I124
tp1140
a(I78
I148
tp1141
a(I52
I171
tp1142
a(I131
I198
tp1143
a(I76
I153
tp1144
asg17
I200
sba(imain2
Polygon
p1145
(dp1146
g3
(I183
I115
tp1147
sg5
I200
sg6
(I18
I108
I176
I138
tp1148
sg8
(lp1149
(I200
I102
tp1150
a(I200
I102
tp1151
a(I193
I132
tp1152
a(I181
I84
tp1153
a(I200
I87
tp1154
a(I200
I142
tp1155
asg17
I200
sba(imain2
Polygon
p1156
(dp1157
g3
(I141
I107
tp1158
sg5
I200
sg6
(I78
I145
I85
I139
tp1159
sg8
(lp1160
(I119
I86
tp1161
a(I112
I86
tp1162
a(I111
I152
tp1163
asg17
I200
sba(imain2
Polygon
p1164
(dp1165
g3
(I149
I72
tp1166
sg5
I200
sg6
(I62
I107
I163
I25
tp1167
sg8
(lp1168
(I160
I35
tp1169
a(I195
I56
tp1170
a(I155
I38
tp1171
a(I99
I25
tp1172
a(I173
I40
tp1173
a(I176
I38
tp1174
a(I195
I35
tp1175
a(I186
I73
tp1176
a(I150
I68
tp1177
a(I194
I104
tp1178
a(I176
I61
tp1179
asg17
I200
sba(imain2
Polygon
p1180
(dp1181
g3
(I67
I128
tp1182
sg5
I200
sg6
(I211
I148
I52
I25
tp1183
sg8
(lp1184
(I106
I157
tp1185
a(I73
I95
tp1186
a(I108
I113
tp1187
a(I115
I152
tp1188
a(I62
I84
tp1189
a(I62
I102
tp1190
a(I63
I145
tp1191
a(I82
I157
tp1192
asg17
I200
sba(imain2
Polygon
p1193
(dp1194
g3
(I183
I44
tp1195
sg5
I200
sg6
(I81
I9
I171
I1
tp1196
sg8
(lp1197
(I200
I43
tp1198
a(I138
I92
tp1199
a(I184
I85
tp1200
a(I175
I30
tp1201
a(I136
I16
tp1202
a(I179
I0
tp1203
asg17
I200
sba(imain2
Polygon
p1204
(dp1205
g3
(I100
I61
tp1206
sg5
I200
sg6
(I199
I97
I41
I37
tp1207
sg8
(lp1208
(I56
I38
tp1209
a(I99
I64
tp1210
a(I91
I106
tp1211
a(I131
I96
tp1212
a(I95
I52
tp1213
a(I80
I38
tp1214
a(I74
I24
tp1215
a(I146
I15
tp1216
a(I96
I45
tp1217
a(I109
I45
tp1218
a(I143
I70
tp1219
a(I84
I63
tp1220
a(I126
I79
tp1221
asg17
I200
sba(imain2
Polygon
p1222
(dp1223
g3
(I52
I190
tp1224
sg5
I200
sg6
(I175
I147
I49
I77
tp1225
sg8
(lp1226
(I71
I200
tp1227
a(I89
I171
tp1228
a(I102
I200
tp1229
a(I94
I200
tp1230
a(I95
I200
tp1231
a(I34
I200
tp1232
asg17
I200
sba(imain2
Polygon
p1233
(dp1234
g3
(I151
I65
tp1235
sg5
I200
sg6
(I62
I179
I0
I100
tp1236
sg8
(lp1237
(I176
I54
tp1238
a(I179
I51
tp1239
a(I192
I90
tp1240
a(I186
I39
tp1241
a(I139
I65
tp1242
a(I111
I63
tp1243
a(I119
I77
tp1244
a(I169
I47
tp1245
a(I182
I28
tp1246
a(I162
I60
tp1247
asg17
I200
sba(imain2
Polygon
p1248
(dp1249
g3
(I67
I20
tp1250
sg5
I200
sg6
(I165
I92
I187
I101
tp1251
sg8
(lp1252
(I17
I0
tp1253
a(I29
I39
tp1254
a(I114
I0
tp1255
a(I110
I0
tp1256
a(I95
I23
tp1257
a(I113
I0
tp1258
a(I74
I0
tp1259
asg17
I200
sba(imain2
Polygon
p1260
(dp1261
g3
(I199
I56
tp1262
sg5
I200
sg6
(I159
I1
I107
I1
tp1263
sg8
(lp1264
(I200
I8
tp1265
a(I165
I70
tp1266
a(I200
I46
tp1267
a(I200
I83
tp1268
a(I181
I100
tp1269
a(I186
I53
tp1270
a(I198
I104
tp1271
a(I200
I46
tp1272
a(I200
I23
tp1273
a(I200
I16
tp1274
a(I168
I34
tp1275
asg17
I200
sba(imain2
Polygon
p1276
(dp1277
g3
(I185
I38
tp1278
sg5
I200
sg6
(I128
I218
I67
I157
tp1279
sg8
(lp1280
(I200
I69
tp1281
a(I200
I0
tp1282
a(I196
I0
tp1283
a(I154
I0
tp1284
a(I146
I42
tp1285
a(I200
I5
tp1286
a(I168
I28
tp1287
a(I142
I46
tp1288
a(I155
I22
tp1289
a(I181
I67
tp1290
a(I187
I70
tp1291
a(I138
I0
tp1292
a(I200
I50
tp1293
a(I141
I1
tp1294
a(I171
I85
tp1295
a(I189
I82
tp1296
asg17
I200
sba(imain2
Polygon
p1297
(dp1298
g3
(I67
I149
tp1299
sg5
I200
sg6
(I90
I206
I212
I38
tp1300
sg8
(lp1301
(I20
I169
tp1302
a(I92
I149
tp1303
a(I45
I104
tp1304
a(I47
I101
tp1305
a(I64
I107
tp1306
a(I75
I131
tp1307
a(I69
I155
tp1308
asg17
I200
sba(imain2
Polygon
p1309
(dp1310
g3
(I21
I182
tp1311
sg5
I200
sg6
(I110
I115
I1
I78
tp1312
sg8
(lp1313
(I67
I200
tp1314
a(I0
I166
tp1315
a(I30
I184
tp1316
a(I20
I169
tp1317
a(I19
I200
tp1318
a(I0
I181
tp1319
a(I19
I200
tp1320
a(I31
I141
tp1321
a(I13
I200
tp1322
a(I0
I144
tp1323
a(I0
I194
tp1324
a(I27
I167
tp1325
a(I8
I162
tp1326
a(I28
I152
tp1327
a(I0
I133
tp1328
a(I47
I191
tp1329
asg17
I200
sba(imain2
Polygon
p1330
(dp1331
g3
(I145
I176
tp1332
sg5
I200
sg6
(I183
I171
I1
I36
tp1333
sg8
(lp1334
(I116
I200
tp1335
a(I101
I200
tp1336
a(I177
I200
tp1337
a(I120
I137
tp1338
a(I95
I200
tp1339
asg17
I200
sba(imain2
Polygon
p1340
(dp1341
g3
(I102
I21
tp1342
sg5
I200
sg6
(I180
I177
I184
I55
tp1343
sg8
(lp1344
(I129
I69
tp1345
a(I61
I26
tp1346
a(I88
I12
tp1347
a(I104
I12
tp1348
a(I146
I25
tp1349
a(I143
I7
tp1350
a(I142
I0
tp1351
a(I59
I0
tp1352
a(I54
I68
tp1353
asg17
I200
sba(imain2
Polygon
p1354
(dp1355
g3
(I154
I30
tp1356
sg5
I200
sg6
(I49
I95
I59
I1
tp1357
sg8
(lp1358
(I135
I63
tp1359
a(I126
I17
tp1360
a(I107
I66
tp1361
a(I173
I45
tp1362
a(I162
I48
tp1363
a(I140
I39
tp1364
a(I195
I27
tp1365
a(I135
I57
tp1366
a(I156
I27
tp1367
a(I141
I16
tp1368
asg17
I200
sba(imain2
Polygon
p1369
(dp1370
g3
(I171
I178
tp1371
sg5
I200
sg6
(I94
I229
I32
I0
tp1372
sg8
(lp1373
(I200
I200
tp1374
a(I200
I200
tp1375
a(I200
I195
tp1376
a(I200
I135
tp1377
a(I179
I151
tp1378
a(I176
I162
tp1379
asg17
I200
sba(imain2
Polygon
p1380
(dp1381
g3
(I189
I152
tp1382
sg5
I200
sg6
(I246
I70
I178
I1
tp1383
sg8
(lp1384
(I184
I192
tp1385
a(I200
I134
tp1386
a(I200
I166
tp1387
a(I200
I155
tp1388
a(I176
I108
tp1389
a(I182
I182
tp1390
a(I200
I166
tp1391
a(I162
I141
tp1392
a(I149
I177
tp1393
asg17
I200
sba(imain2
Polygon
p1394
(dp1395
g3
(I158
I122
tp1396
sg5
I200
sg6
(I42
I0
I155
I36
tp1397
sg8
(lp1398
(I182
I80
tp1399
a(I174
I137
tp1400
a(I200
I145
tp1401
a(I166
I100
tp1402
a(I126
I109
tp1403
a(I124
I81
tp1404
a(I140
I142
tp1405
a(I131
I110
tp1406
a(I189
I78
tp1407
a(I200
I74
tp1408
a(I124
I95
tp1409
asg17
I200
sba(imain2
Polygon
p1410
(dp1411
g3
(I89
I194
tp1412
sg5
I200
sg6
(I226
I75
I38
I1
tp1413
sg8
(lp1414
(I120
I150
tp1415
a(I69
I166
tp1416
a(I81
I189
tp1417
a(I76
I177
tp1418
a(I107
I177
tp1419
a(I122
I200
tp1420
a(I104
I200
tp1421
a(I39
I200
tp1422
a(I64
I164
tp1423
a(I126
I166
tp1424
a(I68
I191
tp1425
a(I84
I198
tp1426
asg17
I200
sba(imain2
Polygon
p1427
(dp1428
g3
(I185
I89
tp1429
sg5
I200
sg6
(I163
I1
I218
I1
tp1430
sg8
(lp1431
(I146
I55
tp1432
a(I200
I98
tp1433
a(I190
I122
tp1434
a(I200
I70
tp1435
a(I152
I101
tp1436
a(I155
I131
tp1437
a(I187
I137
tp1438
a(I197
I79
tp1439
a(I200
I121
tp1440
a(I200
I97
tp1441
a(I175
I68
tp1442
a(I200
I47
tp1443
a(I174
I136
tp1444
asg17
I200
sba(imain2
Polygon
p1445
(dp1446
g3
(I67
I129
tp1447
sg5
I200
sg6
(I72
I191
I56
I117
tp1448
sg8
(lp1449
(I96
I97
tp1450
a(I112
I141
tp1451
a(I78
I170
tp1452
a(I81
I160
tp1453
a(I112
I100
tp1454
a(I49
I126
tp1455
a(I93
I98
tp1456
a(I110
I107
tp1457
a(I96
I122
tp1458
a(I109
I141
tp1459
a(I87
I119
tp1460
a(I87
I107
tp1461
a(I75
I92
tp1462
a(I84
I146
tp1463
a(I52
I135
tp1464
a(I91
I173
tp1465
asg17
I200
sba(imain2
Polygon
p1466
(dp1467
g3
(I95
I80
tp1468
sg5
I200
sg6
(I219
I88
I19
I129
tp1469
sg8
(lp1470
(I121
I57
tp1471
a(I47
I53
tp1472
a(I58
I130
tp1473
a(I123
I114
tp1474
a(I126
I95
tp1475
a(I129
I87
tp1476
asg17
I200
sba(imain2
Polygon
p1477
(dp1478
g3
(I14
I45
tp1479
sg5
I200
sg6
(I223
I0
I43
I106
tp1480
sg8
(lp1481
(I2
I89
tp1482
a(I58
I24
tp1483
a(I8
I15
tp1484
a(I38
I90
tp1485
a(I10
I95
tp1486
asg17
I200
sba(imain2
Polygon
p1487
(dp1488
g3
(I34
I35
tp1489
sg5
I200
sg6
(I107
I9
I201
I19
tp1490
sg8
(lp1491
(I0
I0
tp1492
a(I0
I84
tp1493
a(I51
I56
tp1494
a(I37
I58
tp1495
a(I53
I81
tp1496
a(I24
I1
tp1497
a(I56
I7
tp1498
a(I63
I21
tp1499
asg17
I200
sba(imain2
Polygon
p1500
(dp1501
g3
(I127
I147
tp1502
sg5
I200
sg6
(I115
I171
I188
I72
tp1503
sg8
(lp1504
(I112
I151
tp1505
a(I112
I167
tp1506
a(I161
I125
tp1507
a(I99
I100
tp1508
a(I112
I159
tp1509
a(I126
I158
tp1510
a(I164
I118
tp1511
a(I80
I133
tp1512
a(I125
I141
tp1513
a(I92
I99
tp1514
a(I85
I144
tp1515
a(I105
I137
tp1516
a(I148
I117
tp1517
a(I108
I109
tp1518
a(I100
I118
tp1519
a(I120
I132
tp1520
a(I93
I123
tp1521
asg17
I200
sba(imain2
Polygon
p1522
(dp1523
g3
(I88
I106
tp1524
sg5
I200
sg6
(I189
I11
I59
I109
tp1525
sg8
(lp1526
(I127
I64
tp1527
a(I119
I93
tp1528
a(I117
I112
tp1529
asg17
I200
sba(imain2
Polygon
p1530
(dp1531
g3
(I11
I134
tp1532
sg5
I200
sg6
(I74
I179
I94
I92
tp1533
sg8
(lp1534
(I0
I183
tp1535
a(I0
I169
tp1536
a(I0
I108
tp1537
a(I0
I162
tp1538
a(I12
I180
tp1539
a(I41
I142
tp1540
asg17
I200
sba(imain2
Polygon
p1541
(dp1542
g3
(I174
I141
tp1543
sg5
I200
sg6
(I113
I235
I92
I77
tp1544
sg8
(lp1545
(I200
I120
tp1546
a(I187
I97
tp1547
a(I170
I160
tp1548
a(I200
I190
tp1549
asg17
I200
sba(imain2
Polygon
p1550
(dp1551
g3
(I68
I44
tp1552
sg5
I200
sg6
(I2
I228
I127
I32
tp1553
sg8
(lp1554
(I26
I22
tp1555
a(I19
I82
tp1556
a(I62
I45
tp1557
a(I75
I72
tp1558
a(I22
I45
tp1559
a(I83
I85
tp1560
asg17
I200
sba(imain2
Polygon
p1561
(dp1562
g3
(I80
I68
tp1563
sg5
I200
sg6
(I75
I15
I15
I31
tp1564
sg8
(lp1565
(I52
I50
tp1566
a(I34
I66
tp1567
a(I53
I18
tp1568
a(I117
I21
tp1569
a(I40
I26
tp1570
a(I52
I99
tp1571
a(I37
I27
tp1572
a(I47
I36
tp1573
a(I97
I30
tp1574
a(I37
I35
tp1575
a(I66
I42
tp1576
a(I83
I18
tp1577
asg17
I200
sba(imain2
Polygon
p1578
(dp1579
g3
(I120
I143
tp1580
sg5
I200
sg6
(I151
I157
I82
I1
tp1581
sg8
(lp1582
(I167
I184
tp1583
a(I157
I180
tp1584
a(I104
I174
tp1585
a(I92
I178
tp1586
a(I129
I155
tp1587
a(I119
I179
tp1588
a(I123
I178
tp1589
a(I111
I169
tp1590
a(I120
I158
tp1591
a(I86
I100
tp1592
a(I157
I112
tp1593
a(I170
I95
tp1594
a(I147
I127
tp1595
asg17
I200
sba(imain2
Polygon
p1596
(dp1597
g3
(I47
I43
tp1598
sg5
I200
sg6
(I224
I145
I62
I44
tp1599
sg8
(lp1600
(I85
I78
tp1601
a(I7
I93
tp1602
a(I0
I83
tp1603
a(I5
I0
tp1604
a(I26
I10
tp1605
a(I86
I12
tp1606
a(I13
I2
tp1607
a(I74
I3
tp1608
a(I52
I53
tp1609
a(I45
I0
tp1610
a(I96
I0
tp1611
asg17
I200
sba(imain2
Polygon
p1612
(dp1613
g3
(I6
I165
tp1614
sg5
I200
sg6
(I192
I50
I158
I49
tp1615
sg8
(lp1616
(I0
I191
tp1617
a(I34
I177
tp1618
a(I7
I145
tp1619
asg17
I200
sba(imain2
Polygon
p1620
(dp1621
g3
(I125
I173
tp1622
sg5
I200
sg6
(I90
I28
I31
I117
tp1623
sg8
(lp1624
(I145
I181
tp1625
a(I132
I145
tp1626
a(I128
I157
tp1627
a(I135
I166
tp1628
a(I143
I200
tp1629
a(I165
I200
tp1630
a(I85
I166
tp1631
a(I93
I145
tp1632
a(I79
I141
tp1633
a(I145
I159
tp1634
a(I157
I200
tp1635
a(I130
I140
tp1636
asg17
I200
sba(imain2
Polygon
p1637
(dp1638
g3
(I63
I154
tp1639
sg5
I200
sg6
(I122
I159
I2
I1
tp1640
sg8
(lp1641
(I90
I156
tp1642
a(I61
I175
tp1643
a(I112
I105
tp1644
a(I100
I174
tp1645
a(I110
I126
tp1646
a(I27
I140
tp1647
a(I66
I149
tp1648
a(I45
I194
tp1649
a(I85
I125
tp1650
a(I27
I122
tp1651
asg17
I200
sba(imain2
Polygon
p1652
(dp1653
g3
(I152
I171
tp1654
sg5
I200
sg6
(I192
I3
I226
I0
tp1655
sg8
(lp1656
(I106
I145
tp1657
a(I119
I163
tp1658
a(I200
I191
tp1659
a(I105
I165
tp1660
a(I114
I145
tp1661
a(I193
I126
tp1662
a(I180
I200
tp1663
a(I171
I163
tp1664
a(I107
I200
tp1665
a(I118
I180
tp1666
asg17
I200
sba(imain2
Polygon
p1667
(dp1668
g3
(I67
I143
tp1669
sg5
I200
sg6
(I71
I72
I132
I112
tp1670
sg8
(lp1671
(I100
I175
tp1672
a(I113
I120
tp1673
a(I113
I130
tp1674
a(I111
I131
tp1675
asg17
I200
sba(imain2
Polygon
p1676
(dp1677
g3
(I153
I79
tp1678
sg5
I200
sg6
(I134
I30
I161
I1
tp1679
sg8
(lp1680
(I178
I118
tp1681
a(I198
I89
tp1682
a(I140
I45
tp1683
a(I133
I77
tp1684
a(I112
I71
tp1685
a(I142
I107
tp1686
a(I148
I111
tp1687
a(I175
I118
tp1688
a(I189
I100
tp1689
a(I154
I32
tp1690
a(I130
I94
tp1691
asg17
I200
sba(imain2
Polygon
p1692
(dp1693
g3
(I142
I192
tp1694
sg5
I200
sg6
(I49
I236
I1
I0
tp1695
sg8
(lp1696
(I130
I200
tp1697
a(I94
I200
tp1698
a(I151
I200
tp1699
a(I170
I191
tp1700
a(I122
I151
tp1701
a(I140
I162
tp1702
a(I115
I176
tp1703
a(I94
I200
tp1704
a(I104
I188
tp1705
asg17
I200
sba(imain2
Polygon
p1706
(dp1707
g3
(I144
I12
tp1708
sg5
I200
sg6
(I185
I74
I98
I1
tp1709
sg8
(lp1710
(I115
I0
tp1711
a(I131
I0
tp1712
a(I171
I26
tp1713
a(I135
I0
tp1714
a(I166
I26
tp1715
a(I140
I27
tp1716
a(I166
I23
tp1717
a(I184
I13
tp1718
a(I190
I2
tp1719
a(I138
I0
tp1720
a(I133
I0
tp1721
a(I167
I46
tp1722
a(I122
I5
tp1723
asg17
I200
sba(imain2
Polygon
p1724
(dp1725
g3
(I144
I92
tp1726
sg5
I200
sg6
(I223
I44
I149
I141
tp1727
sg8
(lp1728
(I175
I55
tp1729
a(I181
I55
tp1730
a(I190
I118
tp1731
a(I178
I108
tp1732
a(I159
I52
tp1733
asg17
I200
sba(imain2
Polygon
p1734
(dp1735
g3
(I167
I23
tp1736
sg5
I200
sg6
(I169
I30
I240
I0
tp1737
sg8
(lp1738
(I174
I4
tp1739
a(I156
I11
tp1740
a(I200
I70
tp1741
a(I200
I14
tp1742
a(I197
I0
tp1743
a(I139
I19
tp1744
a(I166
I58
tp1745
a(I200
I0
tp1746
a(I164
I43
tp1747
a(I200
I32
tp1748
a(I194
I34
tp1749
a(I156
I3
tp1750
a(I168
I30
tp1751
asg17
I200
sba(imain2
Polygon
p1752
(dp1753
g3
(I200
I102
tp1754
sg5
I200
sg6
(I50
I231
I149
I37
tp1755
sg8
(lp1756
(I161
I70
tp1757
a(I171
I83
tp1758
a(I193
I55
tp1759
a(I200
I120
tp1760
a(I200
I145
tp1761
a(I181
I124
tp1762
a(I167
I86
tp1763
a(I200
I76
tp1764
a(I200
I100
tp1765
a(I199
I68
tp1766
a(I155
I69
tp1767
a(I159
I62
tp1768
a(I170
I125
tp1769
a(I177
I108
tp1770
a(I200
I127
tp1771
asg17
I200
sba(imain2
Polygon
p1772
(dp1773
g3
(I20
I176
tp1774
sg5
I200
sg6
(I11
I201
I1
I0
tp1775
sg8
(lp1776
(I0
I200
tp1777
a(I4
I200
tp1778
a(I0
I164
tp1779
a(I65
I153
tp1780
a(I0
I196
tp1781
a(I30
I200
tp1782
a(I43
I145
tp1783
a(I17
I200
tp1784
a(I18
I130
tp1785
a(I0
I200
tp1786
a(I67
I130
tp1787
a(I15
I152
tp1788
a(I45
I161
tp1789
a(I44
I189
tp1790
a(I1
I173
tp1791
a(I4
I200
tp1792
asg17
I200
sba(imain2
Polygon
p1793
(dp1794
g3
(I51
I87
tp1795
sg5
I200
sg6
(I98
I176
I45
I75
tp1796
sg8
(lp1797
(I14
I70
tp1798
a(I30
I71
tp1799
a(I35
I93
tp1800
a(I60
I82
tp1801
a(I3
I114
tp1802
a(I4
I50
tp1803
a(I40
I55
tp1804
a(I63
I97
tp1805
a(I59
I88
tp1806
a(I73
I95
tp1807
a(I30
I52
tp1808
a(I37
I81
tp1809
asg17
I200
sba(imain2
Polygon
p1810
(dp1811
g3
(I124
I18
tp1812
sg5
I200
sg6
(I57
I202
I229
I0
tp1813
sg8
(lp1814
(I104
I18
tp1815
a(I112
I30
tp1816
a(I94
I26
tp1817
a(I160
I36
tp1818
asg17
I200
sba(imain2
Polygon
p1819
(dp1820
g3
(I170
I179
tp1821
sg5
I200
sg6
(I139
I190
I55
I7
tp1822
sg8
(lp1823
(I186
I184
tp1824
a(I146
I200
tp1825
a(I200
I129
tp1826
a(I200
I200
tp1827
a(I125
I200
tp1828
a(I129
I168
tp1829
a(I177
I200
tp1830
a(I155
I179
tp1831
a(I200
I200
tp1832
asg17
I200
sba(imain2
Polygon
p1833
(dp1834
g3
(I93
I4
tp1835
sg5
I200
sg6
(I124
I127
I1
I125
tp1836
sg8
(lp1837
(I46
I0
tp1838
a(I51
I53
tp1839
a(I57
I28
tp1840
a(I47
I35
tp1841
a(I62
I48
tp1842
a(I51
I52
tp1843
asg17
I200
sba(imain2
Polygon
p1844
(dp1845
g3
(I33
I157
tp1846
sg5
I200
sg6
(I38
I117
I125
I0
tp1847
sg8
(lp1848
(I43
I167
tp1849
a(I50
I130
tp1850
a(I67
I128
tp1851
a(I42
I136
tp1852
a(I66
I120
tp1853
a(I9
I140
tp1854
a(I8
I125
tp1855
a(I69
I135
tp1856
a(I50
I162
tp1857
a(I26
I121
tp1858
asg17
I200
sba(imain2
Polygon
p1859
(dp1860
g3
(I91
I9
tp1861
sg5
I200
sg6
(I67
I183
I12
I0
tp1862
sg8
(lp1863
(I124
I35
tp1864
a(I135
I0
tp1865
a(I115
I0
tp1866
a(I54
I0
tp1867
a(I134
I0
tp1868
a(I132
I0
tp1869
a(I72
I0
tp1870
a(I42
I0
tp1871
a(I88
I27
tp1872
a(I55
I45
tp1873
asg17
I200
sba(imain2
Polygon
p1874
(dp1875
g3
(I50
I13
tp1876
sg5
I200
sg6
(I92
I178
I161
I115
tp1877
sg8
(lp1878
(I31
I61
tp1879
a(I3
I50
tp1880
a(I0
I0
tp1881
a(I11
I0
tp1882
a(I7
I0
tp1883
a(I82
I0
tp1884
asg17
I200
sba(imain2
Polygon
p1885
(dp1886
g3
(I157
I108
tp1887
sg5
I200
sg6
(I128
I116
I1
I76
tp1888
sg8
(lp1889
(I168
I137
tp1890
a(I108
I127
tp1891
a(I123
I82
tp1892
a(I135
I90
tp1893
a(I108
I149
tp1894
a(I172
I125
tp1895
a(I166
I61
tp1896
a(I200
I120
tp1897
a(I184
I155
tp1898
a(I168
I127
tp1899
a(I188
I141
tp1900
a(I158
I120
tp1901
asg17
I200
sba(imain2
Polygon
p1902
(dp1903
g3
(I7
I150
tp1904
sg5
I200
sg6
(I177
I10
I55
I14
tp1905
sg8
(lp1906
(I0
I184
tp1907
a(I0
I107
tp1908
a(I57
I154
tp1909
a(I22
I183
tp1910
a(I0
I123
tp1911
a(I0
I149
tp1912
a(I4
I171
tp1913
a(I55
I115
tp1914
a(I32
I102
tp1915
a(I49
I122
tp1916
a(I24
I105
tp1917
a(I23
I114
tp1918
a(I26
I151
tp1919
asg17
I200
sba(imain2
Polygon
p1920
(dp1921
g3
(I89
I125
tp1922
sg5
I200
sg6
(I42
I1
I214
I13
tp1923
sg8
(lp1924
(I59
I165
tp1925
a(I101
I135
tp1926
a(I56
I165
tp1927
a(I76
I125
tp1928
a(I45
I157
tp1929
a(I89
I111
tp1930
asg17
I200
sba(imain2
Polygon
p1931
(dp1932
g3
(I18
I178
tp1933
sg5
I200
sg6
(I86
I163
I41
I92
tp1934
sg8
(lp1935
(I0
I148
tp1936
a(I6
I154
tp1937
a(I10
I175
tp1938
a(I0
I137
tp1939
a(I30
I144
tp1940
a(I23
I175
tp1941
a(I24
I189
tp1942
asg17
I200
sba(imain2
Polygon
p1943
(dp1944
g3
(I81
I53
tp1945
sg5
I200
sg6
(I217
I83
I79
I1
tp1946
sg8
(lp1947
(I80
I31
tp1948
a(I89
I58
tp1949
a(I66
I39
tp1950
a(I42
I77
tp1951
a(I37
I46
tp1952
a(I119
I4
tp1953
a(I97
I100
tp1954
a(I73
I54
tp1955
a(I96
I16
tp1956
a(I71
I87
tp1957
a(I89
I26
tp1958
asg17
I200
sba(imain2
Polygon
p1959
(dp1960
g3
(I117
I32
tp1961
sg5
I200
sg6
(I165
I186
I81
I1
tp1962
sg8
(lp1963
(I89
I46
tp1964
a(I147
I0
tp1965
a(I134
I30
tp1966
asg17
I200
sba(imain2
Polygon
p1967
(dp1968
g3
(I79
I140
tp1969
sg5
I200
sg6
(I224
I1
I161
I26
tp1970
sg8
(lp1971
(I108
I95
tp1972
a(I107
I173
tp1973
a(I52
I148
tp1974
a(I123
I97
tp1975
a(I103
I173
tp1976
a(I75
I159
tp1977
a(I80
I158
tp1978
a(I127
I127
tp1979
asg17
I200
sba(imain2
Polygon
p1980
(dp1981
g3
(I26
I4
tp1982
sg5
I200
sg6
(I196
I73
I69
I1
tp1983
sg8
(lp1984
(I64
I27
tp1985
a(I7
I0
tp1986
a(I69
I0
tp1987
a(I0
I0
tp1988
a(I69
I0
tp1989
a(I0
I0
tp1990
a(I4
I0
tp1991
a(I38
I0
tp1992
asg17
I200
sba(imain2
Polygon
p1993
(dp1994
g3
(I15
I121
tp1995
sg5
I200
sg6
(I1
I223
I148
I0
tp1996
sg8
(lp1997
(I36
I104
tp1998
a(I16
I84
tp1999
a(I51
I75
tp2000
a(I60
I87
tp2001
a(I0
I74
tp2002
a(I1
I112
tp2003
a(I46
I142
tp2004
a(I46
I91
tp2005
a(I59
I105
tp2006
a(I61
I107
tp2007
a(I0
I154
tp2008
a(I16
I86
tp2009
a(I35
I105
tp2010
a(I43
I154
tp2011
a(I5
I124
tp2012
asg17
I200
sba(imain2
Polygon
p2013
(dp2014
g3
(I163
I195
tp2015
sg5
I200
sg6
(I8
I147
I193
I7
tp2016
sg8
(lp2017
(I187
I200
tp2018
a(I191
I191
tp2019
a(I169
I200
tp2020
a(I200
I185
tp2021
a(I150
I165
tp2022
a(I198
I192
tp2023
a(I172
I200
tp2024
a(I193
I191
tp2025
a(I200
I160
tp2026
asg17
I200
sba(imain2
Polygon
p2027
(dp2028
g3
(I118
I106
tp2029
sg5
I200
sg6
(I6
I134
I123
I116
tp2030
sg8
(lp2031
(I132
I104
tp2032
a(I145
I78
tp2033
a(I102
I87
tp2034
a(I125
I104
tp2035
a(I121
I98
tp2036
a(I123
I91
tp2037
a(I151
I66
tp2038
a(I132
I101
tp2039
a(I127
I105
tp2040
a(I140
I99
tp2041
asg17
I200
sba(imain2
Polygon
p2042
(dp2043
g3
(I56
I6
tp2044
sg5
I200
sg6
(I197
I1
I174
I0
tp2045
sg8
(lp2046
(I88
I24
tp2047
a(I79
I0
tp2048
a(I71
I0
tp2049
a(I21
I0
tp2050
a(I75
I2
tp2051
a(I102
I27
tp2052
asg17
I200
sba(imain2
Polygon
p2053
(dp2054
g3
(I174
I69
tp2055
sg5
I200
sg6
(I118
I35
I47
I102
tp2056
sg8
(lp2057
(I200
I23
tp2058
a(I200
I29
tp2059
a(I160
I53
tp2060
a(I199
I86
tp2061
a(I196
I88
tp2062
a(I200
I90
tp2063
a(I151
I40
tp2064
a(I126
I41
tp2065
a(I189
I42
tp2066
a(I171
I43
tp2067
a(I130
I47
tp2068
a(I191
I41
tp2069
a(I183
I53
tp2070
a(I173
I86
tp2071
asg17
I200
sba(imain2
Polygon
p2072
(dp2073
g3
(I0
I30
tp2074
sg5
I200
sg6
(I170
I40
I99
I1
tp2075
sg8
(lp2076
(I6
I31
tp2077
a(I0
I48
tp2078
a(I39
I78
tp2079
a(I29
I6
tp2080
a(I0
I35
tp2081
asg17
I200
sba(imain2
Polygon
p2082
(dp2083
g3
(I134
I58
tp2084
sg5
I200
sg6
(I241
I178
I117
I112
tp2085
sg8
(lp2086
(I179
I58
tp2087
a(I110
I8
tp2088
a(I156
I8
tp2089
a(I179
I9
tp2090
asg17
I200
sba(imain2
Polygon
p2091
(dp2092
g3
(I142
I75
tp2093
sg5
I200
sg6
(I201
I60
I194
I78
tp2094
sg8
(lp2095
(I191
I83
tp2096
a(I154
I36
tp2097
a(I185
I48
tp2098
a(I192
I28
tp2099
asg17
I200
sba(imain2
Polygon
p2100
(dp2101
g3
(I129
I65
tp2102
sg5
I200
sg6
(I88
I0
I164
I129
tp2103
sg8
(lp2104
(I155
I65
tp2105
a(I158
I67
tp2106
a(I151
I68
tp2107
asg17
I200
sba(imain2
Polygon
p2108
(dp2109
g3
(I163
I171
tp2110
sg5
I200
sg6
(I197
I10
I130
I1
tp2111
sg8
(lp2112
(I129
I200
tp2113
a(I161
I200
tp2114
a(I200
I190
tp2115
a(I178
I200
tp2116
a(I193
I148
tp2117
a(I141
I196
tp2118
a(I170
I142
tp2119
a(I165
I165
tp2120
a(I158
I178
tp2121
a(I189
I200
tp2122
a(I161
I197
tp2123
a(I200
I124
tp2124
a(I200
I191
tp2125
a(I141
I126
tp2126
a(I113
I200
tp2127
asg17
I200
sba(imain2
Polygon
p2128
(dp2129
g3
(I184
I20
tp2130
sg5
I200
sg6
(I213
I92
I227
I77
tp2131
sg8
(lp2132
(I200
I60
tp2133
a(I200
I0
tp2134
a(I200
I69
tp2135
a(I160
I57
tp2136
a(I140
I0
tp2137
a(I144
I0
tp2138
a(I200
I0
tp2139
a(I200
I0
tp2140
asg17
I200
sba(imain2
Polygon
p2141
(dp2142
g3
(I145
I135
tp2143
sg5
I200
sg6
(I31
I41
I59
I39
tp2144
sg8
(lp2145
(I160
I178
tp2146
a(I183
I129
tp2147
a(I135
I88
tp2148
a(I110
I168
tp2149
a(I166
I183
tp2150
asg17
I200
sba(imain2
Polygon
p2151
(dp2152
g3
(I64
I74
tp2153
sg5
I200
sg6
(I134
I208
I148
I1
tp2154
sg8
(lp2155
(I111
I67
tp2156
a(I74
I124
tp2157
a(I19
I47
tp2158
a(I94
I61
tp2159
asg17
I200
sba(imain2
Polygon
p2160
(dp2161
g3
(I82
I104
tp2162
sg5
I200
sg6
(I48
I155
I198
I1
tp2163
sg8
(lp2164
(I129
I123
tp2165
a(I98
I78
tp2166
a(I36
I99
tp2167
a(I42
I81
tp2168
a(I87
I71
tp2169
a(I37
I116
tp2170
a(I105
I79
tp2171
a(I131
I77
tp2172
a(I51
I70
tp2173
a(I76
I62
tp2174
asg17
I200
sba(imain2
Polygon
p2175
(dp2176
g3
(I176
I51
tp2177
sg5
I200
sg6
(I114
I211
I85
I0
tp2178
sg8
(lp2179
(I200
I6
tp2180
a(I143
I9
tp2181
a(I148
I79
tp2182
a(I174
I33
tp2183
a(I171
I13
tp2184
a(I200
I28
tp2185
asg17
I200
sba(imain2
Polygon
p2186
(dp2187
g3
(I18
I179
tp2188
sg5
I200
sg6
(I9
I98
I96
I34
tp2189
sg8
(lp2190
(I0
I146
tp2191
a(I0
I135
tp2192
a(I0
I198
tp2193
a(I21
I200
tp2194
a(I22
I196
tp2195
a(I36
I190
tp2196
a(I19
I154
tp2197
a(I23
I153
tp2198
asg17
I200
sba(imain2
Polygon
p2199
(dp2200
g3
(I112
I97
tp2201
sg5
I200
sg6
(I96
I198
I68
I52
tp2202
sg8
(lp2203
(I117
I118
tp2204
a(I70
I139
tp2205
a(I97
I92
tp2206
a(I122
I146
tp2207
a(I76
I136
tp2208
a(I79
I54
tp2209
a(I98
I68
tp2210
a(I124
I101
tp2211
a(I130
I88
tp2212
asg17
I200
sba(imain2
Polygon
p2213
(dp2214
g3
(I3
I120
tp2215
sg5
I200
sg6
(I62
I87
I145
I93
tp2216
sg8
(lp2217
(I0
I86
tp2218
a(I0
I74
tp2219
a(I0
I159
tp2220
a(I0
I109
tp2221
a(I43
I80
tp2222
asg17
I200
sba(imain2
Polygon
p2223
(dp2224
g3
(I7
I32
tp2225
sg5
I200
sg6
(I148
I30
I185
I1
tp2226
sg8
(lp2227
(I0
I45
tp2228
a(I0
I27
tp2229
a(I0
I0
tp2230
a(I8
I32
tp2231
a(I0
I57
tp2232
a(I27
I38
tp2233
a(I0
I62
tp2234
a(I0
I49
tp2235
a(I0
I15
tp2236
a(I0
I75
tp2237
a(I48
I82
tp2238
a(I15
I15
tp2239
a(I0
I0
tp2240
asg17
I200
sba(imain2
Polygon
p2241
(dp2242
g3
(I166
I95
tp2243
sg5
I200
sg6
(I185
I2
I141
I145
tp2244
sg8
(lp2245
(I192
I50
tp2246
a(I200
I127
tp2247
a(I200
I60
tp2248
asg17
I200
sba(imain2
Polygon
p2249
(dp2250
g3
(I197
I92
tp2251
sg5
I200
sg6
(I116
I6
I30
I0
tp2252
sg8
(lp2253
(I154
I60
tp2254
a(I200
I65
tp2255
a(I200
I70
tp2256
a(I161
I97
tp2257
a(I158
I100
tp2258
a(I147
I82
tp2259
a(I200
I78
tp2260
a(I200
I131
tp2261
a(I191
I88
tp2262
a(I154
I82
tp2263
a(I155
I44
tp2264
a(I197
I58
tp2265
a(I147
I62
tp2266
a(I176
I122
tp2267
asg17
I200
sba(imain2
Polygon
p2268
(dp2269
g3
(I167
I132
tp2270
sg5
I200
sg6
(I220
I55
I85
I1
tp2271
sg8
(lp2272
(I166
I121
tp2273
a(I157
I116
tp2274
a(I169
I137
tp2275
a(I134
I127
tp2276
a(I174
I140
tp2277
a(I197
I112
tp2278
a(I155
I152
tp2279
a(I175
I142
tp2280
a(I117
I113
tp2281
a(I178
I149
tp2282
a(I177
I84
tp2283
a(I132
I168
tp2284
a(I128
I111
tp2285
a(I200
I101
tp2286
asg17
I200
sba(imain2
Polygon
p2287
(dp2288
g3
(I2
I175
tp2289
sg5
I200
sg6
(I101
I198
I107
I1
tp2290
sg8
(lp2291
(I34
I200
tp2292
a(I4
I200
tp2293
a(I28
I126
tp2294
asg17
I200
sba(imain2
Polygon
p2295
(dp2296
g3
(I148
I121
tp2297
sg5
I200
sg6
(I127
I197
I133
I21
tp2298
sg8
(lp2299
(I120
I135
tp2300
a(I118
I71
tp2301
a(I101
I103
tp2302
asg17
I200
sba(imain2
Polygon
p2303
(dp2304
g3
(I26
I154
tp2305
sg5
I200
sg6
(I140
I62
I224
I28
tp2306
sg8
(lp2307
(I52
I148
tp2308
a(I0
I196
tp2309
a(I20
I155
tp2310
asg17
I200
sba(imain2
Polygon
p2311
(dp2312
g3
(I188
I60
tp2313
sg5
I200
sg6
(I21
I75
I8
I48
tp2314
sg8
(lp2315
(I200
I100
tp2316
a(I148
I100
tp2317
a(I139
I27
tp2318
a(I200
I98
tp2319
a(I200
I21
tp2320
a(I200
I63
tp2321
a(I200
I22
tp2322
a(I200
I88
tp2323
asg17
I200
sba(imain2
Polygon
p2324
(dp2325
g3
(I29
I0
tp2326
sg5
I200
sg6
(I200
I201
I8
I88
tp2327
sg8
(lp2328
(I29
I0
tp2329
a(I0
I0
tp2330
a(I50
I36
tp2331
a(I45
I18
tp2332
a(I61
I0
tp2333
a(I0
I0
tp2334
a(I0
I50
tp2335
a(I70
I50
tp2336
a(I0
I0
tp2337
a(I0
I0
tp2338
a(I77
I0
tp2339
a(I74
I14
tp2340
a(I36
I44
tp2341
a(I58
I0
tp2342
a(I74
I0
tp2343
a(I5
I0
tp2344
asg17
I200
sba(imain2
Polygon
p2345
(dp2346
g3
(I92
I198
tp2347
sg5
I200
sg6
(I138
I2
I12
I59
tp2348
sg8
(lp2349
(I96
I170
tp2350
a(I67
I151
tp2351
a(I90
I200
tp2352
a(I122
I155
tp2353
a(I99
I200
tp2354
a(I73
I181
tp2355
a(I108
I179
tp2356
asg17
I200
sba(imain2
Polygon
p2357
(dp2358
g3
(I149
I42
tp2359
sg5
I200
sg6
(I90
I13
I53
I52
tp2360
sg8
(lp2361
(I99
I9
tp2362
a(I127
I88
tp2363
a(I167
I91
tp2364
a(I167
I66
tp2365
a(I135
I17
tp2366
a(I145
I8
tp2367
a(I113
I48
tp2368
a(I119
I35
tp2369
asg17
I200
sba(imain2
Polygon
p2370
(dp2371
g3
(I18
I189
tp2372
sg5
I200
sg6
(I70
I6
I170
I1
tp2373
sg8
(lp2374
(I0
I200
tp2375
a(I36
I189
tp2376
a(I61
I197
tp2377
a(I11
I160
tp2378
a(I0
I200
tp2379
a(I5
I167
tp2380
a(I62
I200
tp2381
a(I8
I175
tp2382
a(I8
I170
tp2383
a(I40
I174
tp2384
a(I68
I200
tp2385
a(I56
I183
tp2386
a(I0
I162
tp2387
a(I19
I163
tp2388
a(I0
I178
tp2389
asg17
I200
sba(imain2
Polygon
p2390
(dp2391
g3
(I88
I199
tp2392
sg5
I200
sg6
(I15
I199
I77
I74
tp2393
sg8
(lp2394
(I40
I200
tp2395
a(I39
I200
tp2396
a(I108
I200
tp2397
a(I46
I200
tp2398
a(I126
I200
tp2399
a(I62
I200
tp2400
a(I70
I200
tp2401
a(I39
I200
tp2402
a(I84
I200
tp2403
asg17
I200
sba(imain2
Polygon
p2404
(dp2405
g3
(I57
I178
tp2406
sg5
I200
sg6
(I19
I117
I163
I0
tp2407
sg8
(lp2408
(I54
I200
tp2409
a(I21
I164
tp2410
a(I14
I171
tp2411
a(I47
I135
tp2412
a(I39
I141
tp2413
asg17
I200
sba(imain2
Polygon
p2414
(dp2415
g3
(I192
I63
tp2416
sg5
I200
sg6
(I115
I239
I124
I106
tp2417
sg8
(lp2418
(I200
I102
tp2419
a(I200
I19
tp2420
a(I200
I28
tp2421
a(I169
I43
tp2422
a(I142
I25
tp2423
a(I200
I102
tp2424
a(I161
I50
tp2425
a(I175
I96
tp2426
a(I200
I41
tp2427
a(I181
I96
tp2428
asg17
I200
sba(imain2
Polygon
p2429
(dp2430
g3
(I115
I149
tp2431
sg5
I200
sg6
(I104
I195
I239
I1
tp2432
sg8
(lp2433
(I118
I155
tp2434
a(I138
I198
tp2435
a(I102
I100
tp2436
a(I125
I181
tp2437
a(I110
I178
tp2438
a(I84
I110
tp2439
a(I68
I102
tp2440
a(I85
I145
tp2441
a(I77
I169
tp2442
a(I130
I139
tp2443
asg17
I200
sba(imain2
Polygon
p2444
(dp2445
g3
(I89
I107
tp2446
sg5
I200
sg6
(I31
I9
I110
I96
tp2447
sg8
(lp2448
(I137
I85
tp2449
a(I129
I120
tp2450
a(I138
I81
tp2451
asg17
I200
sba(imain2
Polygon
p2452
(dp2453
g3
(I87
I130
tp2454
sg5
I200
sg6
(I167
I110
I147
I0
tp2455
sg8
(lp2456
(I48
I159
tp2457
a(I49
I92
tp2458
a(I70
I91
tp2459
a(I111
I140
tp2460
a(I96
I151
tp2461
a(I87
I159
tp2462
a(I132
I175
tp2463
a(I91
I179
tp2464
a(I53
I89
tp2465
asg17
I200
sba(imain2
Polygon
p2466
(dp2467
g3
(I62
I187
tp2468
sg5
I200
sg6
(I112
I14
I175
I53
tp2469
sg8
(lp2470
(I22
I200
tp2471
a(I110
I200
tp2472
a(I38
I200
tp2473
a(I35
I200
tp2474
a(I77
I200
tp2475
a(I98
I200
tp2476
a(I71
I196
tp2477
a(I71
I200
tp2478
a(I13
I197
tp2479
a(I69
I200
tp2480
a(I45
I197
tp2481
asg17
I200
sba(imain2
Polygon
p2482
(dp2483
g3
(I59
I26
tp2484
sg5
I200
sg6
(I59
I4
I237
I1
tp2485
sg8
(lp2486
(I26
I72
tp2487
a(I103
I17
tp2488
a(I81
I0
tp2489
a(I33
I0
tp2490
a(I104
I10
tp2491
a(I79
I61
tp2492
a(I80
I5
tp2493
a(I41
I24
tp2494
asg17
I200
sba(imain2
Polygon
p2495
(dp2496
g3
(I74
I59
tp2497
sg5
I200
sg6
(I1
I47
I103
I0
tp2498
sg8
(lp2499
(I84
I47
tp2500
a(I46
I42
tp2501
a(I99
I13
tp2502
a(I67
I44
tp2503
a(I79
I79
tp2504
a(I86
I46
tp2505
a(I39
I17
tp2506
a(I57
I45
tp2507
a(I58
I60
tp2508
a(I44
I35
tp2509
asg17
I200
sba(imain2
Polygon
p2510
(dp2511
g3
(I141
I175
tp2512
sg5
I200
sg6
(I87
I37
I8
I1
tp2513
sg8
(lp2514
(I169
I200
tp2515
a(I159
I193
tp2516
a(I119
I183
tp2517
a(I149
I186
tp2518
a(I112
I195
tp2519
a(I149
I162
tp2520
a(I131
I125
tp2521
a(I169
I161
tp2522
a(I160
I187
tp2523
a(I128
I200
tp2524
a(I160
I169
tp2525
a(I136
I145
tp2526
a(I137
I186
tp2527
a(I136
I165
tp2528
a(I175
I200
tp2529
a(I94
I176
tp2530
a(I155
I191
tp2531
a(I146
I197
tp2532
a(I167
I133
tp2533
asg17
I200
sba(imain2
Polygon
p2534
(dp2535
g3
(I114
I81
tp2536
sg5
I200
sg6
(I234
I16
I199
I70
tp2537
sg8
(lp2538
(I121
I101
tp2539
a(I81
I76
tp2540
a(I125
I101
tp2541
a(I121
I83
tp2542
asg17
I200
sba(imain2
Polygon
p2543
(dp2544
g3
(I191
I128
tp2545
sg5
I200
sg6
(I244
I3
I244
I7
tp2546
sg8
(lp2547
(I200
I162
tp2548
a(I144
I170
tp2549
a(I200
I89
tp2550
a(I200
I148
tp2551
a(I182
I162
tp2552
a(I147
I78
tp2553
a(I173
I163
tp2554
asg17
I200
sba(imain2
Polygon
p2555
(dp2556
g3
(I40
I13
tp2557
sg5
I200
sg6
(I69
I180
I117
I0
tp2558
sg8
(lp2559
(I87
I0
tp2560
a(I55
I33
tp2561
a(I62
I16
tp2562
a(I0
I0
tp2563
a(I84
I0
tp2564
a(I0
I0
tp2565
a(I29
I47
tp2566
a(I0
I0
tp2567
a(I67
I7
tp2568
a(I68
I27
tp2569
a(I75
I36
tp2570
a(I7
I27
tp2571
a(I0
I43
tp2572
a(I44
I9
tp2573
a(I76
I0
tp2574
a(I0
I0
tp2575
a(I40
I25
tp2576
a(I0
I0
tp2577
a(I27
I8
tp2578
a(I88
I47
tp2579
asg17
I200
sba(imain2
Polygon
p2580
(dp2581
g3
(I50
I145
tp2582
sg5
I200
sg6
(I56
I210
I123
I12
tp2583
sg8
(lp2584
(I3
I96
tp2585
a(I87
I159
tp2586
a(I82
I95
tp2587
asg17
I200
sba(imain2
Polygon
p2588
(dp2589
g3
(I184
I69
tp2590
sg5
I200
sg6
(I122
I136
I35
I142
tp2591
sg8
(lp2592
(I200
I63
tp2593
a(I200
I31
tp2594
a(I200
I33
tp2595
a(I200
I67
tp2596
a(I164
I71
tp2597
a(I174
I114
tp2598
a(I200
I115
tp2599
a(I200
I101
tp2600
a(I195
I79
tp2601
asg17
I200
sba(imain2
Polygon
p2602
(dp2603
g3
(I6
I29
tp2604
sg5
I200
sg6
(I137
I34
I214
I0
tp2605
sg8
(lp2606
(I56
I14
tp2607
a(I42
I0
tp2608
a(I0
I41
tp2609
a(I22
I65
tp2610
a(I48
I0
tp2611
a(I28
I0
tp2612
asg17
I200
sba(imain2
Polygon
p2613
(dp2614
g3
(I100
I197
tp2615
sg5
I200
sg6
(I28
I135
I60
I69
tp2616
sg8
(lp2617
(I123
I200
tp2618
a(I79
I200
tp2619
a(I74
I200
tp2620
a(I130
I200
tp2621
a(I68
I200
tp2622
a(I62
I200
tp2623
a(I148
I200
tp2624
asg17
I200
sba(imain2
Polygon
p2625
(dp2626
g3
(I102
I67
tp2627
sg5
I200
sg6
(I107
I63
I86
I1
tp2628
sg8
(lp2629
(I136
I109
tp2630
a(I78
I100
tp2631
a(I144
I70
tp2632
a(I83
I63
tp2633
a(I116
I116
tp2634
a(I84
I99
tp2635
a(I85
I70
tp2636
asg17
I200
sba(imain2
Polygon
p2637
(dp2638
g3
(I91
I124
tp2639
sg5
I200
sg6
(I165
I67
I8
I112
tp2640
sg8
(lp2641
(I41
I114
tp2642
a(I80
I127
tp2643
a(I83
I75
tp2644
a(I119
I114
tp2645
a(I115
I160
tp2646
a(I45
I142
tp2647
a(I66
I81
tp2648
a(I119
I80
tp2649
a(I129
I117
tp2650
a(I81
I119
tp2651
a(I76
I76
tp2652
a(I54
I89
tp2653
a(I76
I94
tp2654
a(I51
I90
tp2655
asg17
I200
sba(imain2
Polygon
p2656
(dp2657
g3
(I133
I74
tp2658
sg5
I200
sg6
(I15
I173
I91
I0
tp2659
sg8
(lp2660
(I93
I104
tp2661
a(I129
I31
tp2662
a(I176
I108
tp2663
a(I157
I40
tp2664
a(I132
I33
tp2665
a(I106
I93
tp2666
a(I153
I122
tp2667
a(I137
I81
tp2668
a(I152
I119
tp2669
a(I90
I44
tp2670
a(I181
I26
tp2671
a(I134
I86
tp2672
a(I154
I71
tp2673
a(I166
I88
tp2674
a(I171
I56
tp2675
asg17
I200
sba(imain2
Polygon
p2676
(dp2677
g3
(I181
I185
tp2678
sg5
I200
sg6
(I0
I135
I60
I3
tp2679
sg8
(lp2680
(I192
I200
tp2681
a(I197
I153
tp2682
a(I200
I157
tp2683
asg17
I200
sba(imain2
Polygon
p2684
(dp2685
g3
(I3
I9
tp2686
sg5
I200
sg6
(I112
I13
I41
I111
tp2687
sg8
(lp2688
(I0
I0
tp2689
a(I49
I0
tp2690
a(I0
I0
tp2691
asg17
I200
sba(imain2
Polygon
p2692
(dp2693
g3
(I154
I22
tp2694
sg5
I200
sg6
(I80
I179
I129
I0
tp2695
sg8
(lp2696
(I198
I49
tp2697
a(I180
I27
tp2698
a(I193
I61
tp2699
a(I124
I56
tp2700
asg17
I200
sba(imain2
Polygon
p2701
(dp2702
g3
(I3
I51
tp2703
sg5
I200
sg6
(I8
I164
I11
I30
tp2704
sg8
(lp2705
(I0
I63
tp2706
a(I0
I78
tp2707
a(I0
I34
tp2708
a(I0
I93
tp2709
asg17
I200
sba(imain2
Polygon
p2710
(dp2711
g3
(I183
I123
tp2712
sg5
I200
sg6
(I43
I171
I187
I90
tp2713
sg8
(lp2714
(I200
I171
tp2715
a(I200
I140
tp2716
a(I200
I152
tp2717
a(I200
I132
tp2718
asg17
I200
sba.