(lp0
(imain2
Polygon
p1
(dp2
S'origin'
p3
(I100
I102
tp4
sS'h'
p5
I200
sS'color'
p6
(I132
I172
I187
I1
tp7
sS'corner_list'
p8
(lp9
(I77
I128
tp10
a(I139
I81
tp11
a(I128
I109
tp12
a(I148
I118
tp13
a(I83
I86
tp14
a(I122
I57
tp15
asS'w'
p16
I200
sba(imain2
Polygon
p17
(dp18
g3
(I142
I122
tp19
sg5
I200
sg6
(I20
I220
I130
I24
tp20
sg8
(lp21
(I101
I108
tp22
a(I95
I104
tp23
a(I106
I160
tp24
a(I149
I145
tp25
a(I109
I157
tp26
a(I109
I92
tp27
a(I119
I85
tp28
a(I188
I130
tp29
a(I164
I94
tp30
a(I192
I113
tp31
a(I136
I104
tp32
a(I134
I86
tp33
a(I102
I138
tp34
asg16
I200
sba(imain2
Polygon
p35
(dp36
g3
(I39
I24
tp37
sg5
I200
sg6
(I239
I162
I198
I1
tp38
sg8
(lp39
(I58
I0
tp40
a(I0
I71
tp41
a(I43
I65
tp42
a(I50
I25
tp43
asg16
I200
sba(imain2
Polygon
p44
(dp45
g3
(I87
I73
tp46
sg5
I200
sg6
(I159
I16
I197
I84
tp47
sg8
(lp48
(I108
I101
tp49
a(I74
I69
tp50
a(I82
I102
tp51
a(I62
I79
tp52
a(I68
I47
tp53
a(I56
I110
tp54
a(I92
I70
tp55
a(I63
I114
tp56
a(I47
I56
tp57
a(I77
I37
tp58
a(I131
I68
tp59
a(I58
I120
tp60
a(I69
I107
tp61
a(I80
I99
tp62
a(I53
I119
tp63
asg16
I200
sba(imain2
Polygon
p64
(dp65
g3
(I75
I185
tp66
sg5
I200
sg6
(I70
I0
I88
I76
tp67
sg8
(lp68
(I84
I199
tp69
a(I125
I163
tp70
a(I123
I140
tp71
a(I120
I200
tp72
a(I117
I200
tp73
a(I68
I195
tp74
a(I98
I174
tp75
a(I100
I200
tp76
asg16
I200
sba(imain2
Polygon
p77
(dp78
g3
(I51
I161
tp79
sg5
I200
sg6
(I130
I131
I12
I88
tp80
sg8
(lp81
(I86
I200
tp82
a(I55
I200
tp83
a(I96
I190
tp84
a(I67
I140
tp85
a(I76
I152
tp86
asg16
I200
sba(imain2
Polygon
p87
(dp88
g3
(I76
I107
tp89
sg5
I200
sg6
(I159
I37
I202
I107
tp90
sg8
(lp91
(I113
I136
tp92
a(I40
I71
tp93
a(I56
I71
tp94
a(I55
I67
tp95
a(I115
I57
tp96
a(I107
I154
tp97
a(I53
I141
tp98
a(I48
I92
tp99
a(I101
I62
tp100
a(I75
I123
tp101
a(I89
I148
tp102
a(I87
I117
tp103
asg16
I200
sba(imain2
Polygon
p104
(dp105
g3
(I79
I45
tp106
sg5
I200
sg6
(I221
I1
I239
I0
tp107
sg8
(lp108
(I93
I67
tp109
a(I121
I88
tp110
a(I37
I47
tp111
a(I70
I64
tp112
a(I88
I9
tp113
asg16
I200
sba(imain2
Polygon
p114
(dp115
g3
(I123
I186
tp116
sg5
I200
sg6
(I45
I14
I42
I1
tp117
sg8
(lp118
(I155
I200
tp119
a(I119
I194
tp120
a(I86
I200
tp121
asg16
I200
sba(imain2
Polygon
p122
(dp123
g3
(I74
I162
tp124
sg5
I200
sg6
(I152
I93
I211
I1
tp125
sg8
(lp126
(I111
I187
tp127
a(I28
I142
tp128
a(I74
I188
tp129
a(I60
I138
tp130
a(I124
I140
tp131
a(I43
I200
tp132
a(I54
I193
tp133
a(I62
I188
tp134
a(I124
I196
tp135
a(I110
I141
tp136
a(I120
I166
tp137
asg16
I200
sba(imain2
Polygon
p138
(dp139
g3
(I64
I120
tp140
sg5
I200
sg6
(I232
I39
I170
I1
tp141
sg8
(lp142
(I71
I131
tp143
a(I100
I116
tp144
a(I104
I125
tp145
asg16
I200
sba(imain2
Polygon
p146
(dp147
g3
(I2
I37
tp148
sg5
I200
sg6
(I134
I133
I101
I107
tp149
sg8
(lp150
(I0
I0
tp151
a(I45
I3
tp152
a(I4
I47
tp153
a(I20
I35
tp154
a(I0
I66
tp155
a(I41
I3
tp156
a(I36
I68
tp157
a(I21
I15
tp158
a(I39
I86
tp159
a(I0
I85
tp160
a(I0
I9
tp161
a(I0
I87
tp162
asg16
I200
sba(imain2
Polygon
p163
(dp164
g3
(I161
I116
tp165
sg5
I200
sg6
(I150
I91
I113
I47
tp166
sg8
(lp167
(I191
I88
tp168
a(I181
I70
tp169
a(I168
I90
tp170
a(I170
I71
tp171
a(I163
I108
tp172
a(I198
I163
tp173
a(I182
I147
tp174
a(I200
I152
tp175
asg16
I200
sba(imain2
Polygon
p176
(dp177
g3
(I171
I44
tp178
sg5
I200
sg6
(I130
I233
I105
I107
tp179
sg8
(lp180
(I151
I30
tp181
a(I157
I22
tp182
a(I200
I89
tp183
a(I200
I0
tp184
a(I132
I0
tp185
a(I134
I21
tp186
a(I199
I85
tp187
a(I161
I77
tp188
a(I200
I93
tp189
a(I143
I0
tp190
a(I170
I71
tp191
a(I176
I33
tp192
a(I159
I42
tp193
asg16
I200
sba(imain2
Polygon
p194
(dp195
g3
(I196
I163
tp196
sg5
I200
sg6
(I37
I166
I6
I16
tp197
sg8
(lp198
(I195
I117
tp199
a(I200
I197
tp200
a(I200
I191
tp201
a(I200
I134
tp202
a(I193
I170
tp203
a(I200
I141
tp204
a(I155
I170
tp205
a(I200
I182
tp206
a(I200
I148
tp207
a(I152
I136
tp208
a(I170
I173
tp209
a(I166
I156
tp210
a(I191
I200
tp211
asg16
I200
sba(imain2
Polygon
p212
(dp213
g3
(I123
I35
tp214
sg5
I200
sg6
(I142
I60
I71
I1
tp215
sg8
(lp216
(I73
I77
tp217
a(I139
I1
tp218
a(I102
I82
tp219
a(I158
I15
tp220
a(I90
I72
tp221
a(I140
I0
tp222
a(I121
I80
tp223
a(I99
I62
tp224
asg16
I200
sba(imain2
Polygon
p225
(dp226
g3
(I38
I152
tp227
sg5
I200
sg6
(I92
I164
I32
I126
tp228
sg8
(lp229
(I87
I136
tp230
a(I53
I103
tp231
a(I49
I126
tp232
a(I73
I158
tp233
asg16
I200
sba(imain2
Polygon
p234
(dp235
g3
(I118
I157
tp236
sg5
I200
sg6
(I85
I62
I42
I0
tp237
sg8
(lp238
(I133
I198
tp239
a(I115
I173
tp240
a(I168
I133
tp241
a(I160
I116
tp242
a(I154
I175
tp243
asg16
I200
sba(imain2
Polygon
p244
(dp245
g3
(I10
I175
tp246
sg5
I200
sg6
(I174
I52
I58
I10
tp247
sg8
(lp248
(I0
I141
tp249
a(I0
I148
tp250
a(I0
I200
tp251
a(I45
I192
tp252
a(I54
I200
tp253
asg16
I200
sba(imain2
Polygon
p254
(dp255
g3
(I4
I131
tp256
sg5
I200
sg6
(I121
I51
I61
I0
tp257
sg8
(lp258
(I35
I93
tp259
a(I2
I88
tp260
a(I0
I173
tp261
a(I45
I150
tp262
a(I0
I145
tp263
a(I18
I159
tp264
a(I0
I176
tp265
a(I0
I159
tp266
a(I19
I89
tp267
a(I0
I108
tp268
a(I32
I131
tp269
a(I0
I92
tp270
a(I0
I87
tp271
asg16
I200
sba(imain2
Polygon
p272
(dp273
g3
(I75
I51
tp274
sg5
I200
sg6
(I101
I195
I0
I5
tp275
sg8
(lp276
(I73
I93
tp277
a(I28
I87
tp278
a(I34
I7
tp279
a(I105
I56
tp280
a(I123
I15
tp281
asg16
I200
sba(imain2
Polygon
p282
(dp283
g3
(I18
I101
tp284
sg5
I200
sg6
(I0
I11
I65
I39
tp285
sg8
(lp286
(I56
I62
tp287
a(I15
I116
tp288
a(I6
I66
tp289
a(I5
I78
tp290
a(I50
I149
tp291
a(I0
I111
tp292
a(I45
I64
tp293
asg16
I200
sba(imain2
Polygon
p294
(dp295
g3
(I97
I199
tp296
sg5
I200
sg6
(I0
I105
I44
I103
tp297
sg8
(lp298
(I91
I200
tp299
a(I134
I200
tp300
a(I135
I171
tp301
a(I78
I156
tp302
a(I97
I158
tp303
a(I127
I200
tp304
a(I118
I173
tp305
a(I87
I171
tp306
a(I99
I160
tp307
a(I95
I152
tp308
a(I75
I200
tp309
a(I82
I188
tp310
asg16
I200
sba(imain2
Polygon
p311
(dp312
g3
(I102
I104
tp313
sg5
I200
sg6
(I219
I121
I126
I61
tp314
sg8
(lp315
(I105
I151
tp316
a(I126
I71
tp317
a(I59
I58
tp318
a(I57
I131
tp319
a(I74
I153
tp320
asg16
I200
sba(imain2
Polygon
p321
(dp322
g3
(I177
I176
tp323
sg5
I200
sg6
(I111
I206
I213
I39
tp324
sg8
(lp325
(I200
I138
tp326
a(I167
I145
tp327
a(I200
I200
tp328
asg16
I200
sba(imain2
Polygon
p329
(dp330
g3
(I99
I27
tp331
sg5
I200
sg6
(I71
I83
I0
I101
tp332
sg8
(lp333
(I143
I0
tp334
a(I53
I0
tp335
a(I97
I73
tp336
a(I139
I50
tp337
a(I73
I29
tp338
a(I149
I10
tp339
asg16
I200
sba(imain2
Polygon
p340
(dp341
g3
(I138
I156
tp342
sg5
I200
sg6
(I16
I57
I186
I1
tp343
sg8
(lp344
(I150
I181
tp345
a(I91
I144
tp346
a(I111
I148
tp347
a(I101
I146
tp348
asg16
I200
sba(imain2
Polygon
p349
(dp350
g3
(I100
I129
tp351
sg5
I200
sg6
(I113
I214
I219
I0
tp352
sg8
(lp353
(I93
I100
tp354
a(I141
I162
tp355
a(I66
I171
tp356
a(I97
I125
tp357
a(I67
I109
tp358
asg16
I200
sba(imain2
Polygon
p359
(dp360
g3
(I90
I2
tp361
sg5
I200
sg6
(I193
I194
I1
I1
tp362
sg8
(lp363
(I91
I29
tp364
a(I109
I0
tp365
a(I88
I0
tp366
a(I82
I20
tp367
a(I90
I51
tp368
a(I65
I45
tp369
a(I106
I0
tp370
a(I120
I36
tp371
a(I56
I1
tp372
a(I52
I0
tp373
a(I119
I0
tp374
asg16
I200
sba(imain2
Polygon
p375
(dp376
g3
(I76
I49
tp377
sg5
I200
sg6
(I245
I163
I175
I94
tp378
sg8
(lp379
(I52
I54
tp380
a(I62
I34
tp381
a(I99
I36
tp382
a(I124
I78
tp383
a(I91
I88
tp384
a(I47
I82
tp385
asg16
I200
sba(imain2
Polygon
p386
(dp387
g3
(I135
I193
tp388
sg5
I200
sg6
(I199
I198
I62
I1
tp389
sg8
(lp390
(I131
I160
tp391
a(I146
I200
tp392
a(I87
I200
tp393
a(I91
I200
tp394
a(I178
I191
tp395
a(I174
I190
tp396
a(I129
I171
tp397
a(I149
I200
tp398
a(I181
I168
tp399
asg16
I200
sba(imain2
Polygon
p400
(dp401
g3
(I156
I197
tp402
sg5
I200
sg6
(I78
I232
I78
I0
tp403
sg8
(lp404
(I182
I200
tp405
a(I198
I200
tp406
a(I152
I200
tp407
a(I108
I171
tp408
a(I189
I188
tp409
asg16
I200
sba(imain2
Polygon
p410
(dp411
g3
(I159
I95
tp412
sg5
I200
sg6
(I159
I19
I13
I1
tp413
sg8
(lp414
(I196
I80
tp415
a(I135
I57
tp416
a(I114
I45
tp417
a(I184
I46
tp418
a(I184
I145
tp419
a(I154
I110
tp420
a(I130
I98
tp421
a(I171
I87
tp422
a(I136
I123
tp423
asg16
I200
sba(imain2
Polygon
p424
(dp425
g3
(I130
I187
tp426
sg5
I200
sg6
(I177
I73
I86
I65
tp427
sg8
(lp428
(I138
I200
tp429
a(I161
I187
tp430
a(I161
I161
tp431
a(I168
I192
tp432
a(I164
I200
tp433
a(I97
I159
tp434
a(I90
I200
tp435
asg16
I200
sba(imain2
Polygon
p436
(dp437
g3
(I56
I194
tp438
sg5
I200
sg6
(I191
I171
I1
I29
tp439
sg8
(lp440
(I99
I158
tp441
a(I59
I200
tp442
a(I15
I171
tp443
a(I36
I176
tp444
a(I24
I145
tp445
a(I7
I195
tp446
a(I6
I200
tp447
a(I13
I151
tp448
a(I20
I200
tp449
a(I102
I200
tp450
a(I101
I170
tp451
a(I70
I200
tp452
asg16
I200
sba(imain2
Polygon
p453
(dp454
g3
(I180
I160
tp455
sg5
I200
sg6
(I28
I39
I107
I44
tp456
sg8
(lp457
(I160
I132
tp458
a(I175
I200
tp459
a(I200
I200
tp460
a(I159
I131
tp461
a(I200
I133
tp462
a(I200
I161
tp463
a(I200
I118
tp464
a(I161
I136
tp465
a(I200
I128
tp466
a(I200
I139
tp467
asg16
I200
sba(imain2
Polygon
p468
(dp469
g3
(I12
I87
tp470
sg5
I200
sg6
(I47
I129
I180
I0
tp471
sg8
(lp472
(I0
I54
tp473
a(I20
I73
tp474
a(I0
I107
tp475
a(I0
I136
tp476
asg16
I200
sba(imain2
Polygon
p477
(dp478
g3
(I123
I91
tp479
sg5
I200
sg6
(I229
I0
I184
I51
tp480
sg8
(lp481
(I93
I69
tp482
a(I99
I140
tp483
a(I88
I106
tp484
a(I77
I123
tp485
a(I134
I104
tp486
a(I92
I73
tp487
asg16
I200
sba(imain2
Polygon
p488
(dp489
g3
(I80
I122
tp490
sg5
I200
sg6
(I220
I175
I138
I71
tp491
sg8
(lp492
(I116
I143
tp493
a(I129
I85
tp494
a(I44
I101
tp495
a(I65
I159
tp496
a(I123
I146
tp497
asg16
I200
sba(imain2
Polygon
p498
(dp499
g3
(I119
I156
tp500
sg5
I200
sg6
(I125
I213
I195
I44
tp501
sg8
(lp502
(I96
I178
tp503
a(I141
I200
tp504
a(I103
I123
tp505
a(I90
I178
tp506
a(I70
I199
tp507
a(I133
I200
tp508
a(I69
I119
tp509
a(I102
I114
tp510
a(I114
I170
tp511
a(I88
I157
tp512
asg16
I200
sba(imain2
Polygon
p513
(dp514
g3
(I66
I96
tp515
sg5
I200
sg6
(I106
I72
I64
I89
tp516
sg8
(lp517
(I24
I133
tp518
a(I20
I88
tp519
a(I59
I80
tp520
a(I72
I129
tp521
a(I100
I145
tp522
a(I30
I82
tp523
a(I36
I114
tp524
asg16
I200
sba(imain2
Polygon
p525
(dp526
g3
(I17
I178
tp527
sg5
I200
sg6
(I81
I63
I10
I0
tp528
sg8
(lp529
(I0
I130
tp530
a(I0
I174
tp531
a(I21
I149
tp532
a(I20
I150
tp533
a(I0
I128
tp534
a(I63
I200
tp535
a(I45
I141
tp536
a(I63
I188
tp537
a(I0
I180
tp538
asg16
I200
sba(imain2
Polygon
p539
(dp540
g3
(I196
I157
tp541
sg5
I200
sg6
(I26
I207
I67
I0
tp542
sg8
(lp543
(I147
I199
tp544
a(I200
I112
tp545
a(I200
I131
tp546
a(I195
I135
tp547
a(I200
I158
tp548
a(I200
I123
tp549
a(I147
I107
tp550
a(I165
I144
tp551
a(I200
I113
tp552
a(I200
I173
tp553
a(I200
I143
tp554
a(I186
I200
tp555
a(I200
I151
tp556
a(I200
I195
tp557
a(I161
I119
tp558
a(I200
I151
tp559
a(I200
I135
tp560
a(I158
I128
tp561
asg16
I200
sba(imain2
Polygon
p562
(dp563
g3
(I7
I138
tp564
sg5
I200
sg6
(I208
I109
I8
I1
tp565
sg8
(lp566
(I0
I174
tp567
a(I0
I103
tp568
a(I0
I109
tp569
a(I43
I88
tp570
a(I0
I158
tp571
a(I0
I88
tp572
a(I48
I161
tp573
a(I0
I109
tp574
a(I0
I157
tp575
a(I0
I147
tp576
a(I21
I180
tp577
a(I0
I171
tp578
a(I24
I89
tp579
a(I41
I89
tp580
asg16
I200
sba(imain2
Polygon
p581
(dp582
g3
(I49
I75
tp583
sg5
I200
sg6
(I117
I227
I9
I19
tp584
sg8
(lp585
(I97
I31
tp586
a(I96
I95
tp587
a(I60
I123
tp588
a(I28
I81
tp589
a(I35
I74
tp590
a(I91
I46
tp591
a(I35
I64
tp592
a(I75
I88
tp593
a(I0
I118
tp594
a(I3
I64
tp595
a(I8
I49
tp596
a(I41
I49
tp597
a(I53
I73
tp598
a(I77
I48
tp599
a(I41
I61
tp600
a(I63
I36
tp601
a(I7
I38
tp602
a(I35
I36
tp603
asg16
I200
sba(imain2
Polygon
p604
(dp605
g3
(I75
I73
tp606
sg5
I200
sg6
(I161
I134
I134
I133
tp607
sg8
(lp608
(I108
I39
tp609
a(I123
I118
tp610
a(I47
I117
tp611
a(I62
I34
tp612
asg16
I200
sba(imain2
Polygon
p613
(dp614
g3
(I82
I103
tp615
sg5
I200
sg6
(I94
I95
I57
I0
tp616
sg8
(lp617
(I123
I116
tp618
a(I83
I145
tp619
a(I53
I131
tp620
a(I124
I68
tp621
a(I71
I103
tp622
a(I67
I133
tp623
a(I98
I99
tp624
a(I124
I151
tp625
a(I97
I112
tp626
a(I79
I66
tp627
a(I39
I61
tp628
a(I43
I63
tp629
a(I41
I99
tp630
a(I132
I75
tp631
a(I128
I131
tp632
a(I98
I78
tp633
a(I91
I128
tp634
a(I55
I149
tp635
asg16
I200
sba(imain2
Polygon
p636
(dp637
g3
(I126
I26
tp638
sg5
I200
sg6
(I237
I182
I126
I104
tp639
sg8
(lp640
(I138
I12
tp641
a(I148
I21
tp642
a(I124
I16
tp643
a(I83
I10
tp644
a(I77
I0
tp645
a(I162
I0
tp646
a(I176
I38
tp647
a(I168
I75
tp648
asg16
I200
sba(imain2
Polygon
p649
(dp650
g3
(I128
I23
tp651
sg5
I200
sg6
(I105
I0
I83
I0
tp652
sg8
(lp653
(I125
I0
tp654
a(I97
I3
tp655
a(I166
I29
tp656
a(I154
I0
tp657
a(I124
I60
tp658
a(I170
I34
tp659
a(I100
I9
tp660
a(I116
I0
tp661
a(I84
I17
tp662
a(I157
I34
tp663
a(I144
I0
tp664
a(I92
I33
tp665
a(I162
I57
tp666
a(I107
I22
tp667
asg16
I200
sba(imain2
Polygon
p668
(dp669
g3
(I147
I59
tp670
sg5
I200
sg6
(I1
I240
I188
I59
tp671
sg8
(lp672
(I191
I38
tp673
a(I155
I19
tp674
a(I190
I84
tp675
asg16
I200
sba(imain2
Polygon
p676
(dp677
g3
(I105
I192
tp678
sg5
I200
sg6
(I176
I19
I173
I1
tp679
sg8
(lp680
(I150
I178
tp681
a(I68
I169
tp682
a(I146
I145
tp683
a(I109
I200
tp684
asg16
I200
sba(imain2
Polygon
p685
(dp686
g3
(I144
I60
tp687
sg5
I200
sg6
(I58
I232
I7
I0
tp688
sg8
(lp689
(I100
I77
tp690
a(I157
I97
tp691
a(I135
I99
tp692
a(I135
I106
tp693
a(I122
I34
tp694
a(I180
I75
tp695
a(I143
I104
tp696
a(I114
I17
tp697
asg16
I200
sba(imain2
Polygon
p698
(dp699
g3
(I177
I86
tp700
sg5
I200
sg6
(I168
I32
I16
I1
tp701
sg8
(lp702
(I179
I46
tp703
a(I137
I49
tp704
a(I199
I65
tp705
a(I167
I118
tp706
a(I200
I65
tp707
a(I141
I67
tp708
a(I139
I126
tp709
a(I143
I108
tp710
a(I158
I58
tp711
asg16
I200
sba(imain2
Polygon
p712
(dp713
g3
(I157
I117
tp714
sg5
I200
sg6
(I42
I28
I0
I51
tp715
sg8
(lp716
(I187
I153
tp717
a(I200
I147
tp718
a(I128
I75
tp719
a(I191
I152
tp720
a(I142
I67
tp721
a(I183
I145
tp722
a(I198
I87
tp723
a(I200
I166
tp724
a(I132
I108
tp725
a(I107
I95
tp726
asg16
I200
sba(imain2
Polygon
p727
(dp728
g3
(I155
I192
tp729
sg5
I200
sg6
(I1
I33
I194
I1
tp730
sg8
(lp731
(I200
I165
tp732
a(I192
I163
tp733
a(I128
I195
tp734
a(I132
I200
tp735
a(I175
I200
tp736
a(I178
I193
tp737
a(I110
I173
tp738
a(I153
I200
tp739
a(I155
I187
tp740
a(I194
I181
tp741
a(I158
I185
tp742
a(I167
I175
tp743
asg16
I200
sba(imain2
Polygon
p744
(dp745
g3
(I103
I158
tp746
sg5
I200
sg6
(I12
I44
I118
I55
tp747
sg8
(lp748
(I107
I154
tp749
a(I72
I200
tp750
a(I127
I113
tp751
a(I98
I169
tp752
a(I111
I126
tp753
a(I131
I117
tp754
a(I66
I200
tp755
a(I96
I148
tp756
a(I71
I172
tp757
asg16
I200
sba(imain2
Polygon
p758
(dp759
g3
(I9
I151
tp760
sg5
I200
sg6
(I120
I83
I56
I31
tp761
sg8
(lp762
(I0
I194
tp763
a(I0
I173
tp764
a(I0
I126
tp765
a(I14
I129
tp766
a(I0
I157
tp767
a(I12
I200
tp768
a(I44
I122
tp769
a(I0
I159
tp770
a(I28
I192
tp771
asg16
I200
sba(imain2
Polygon
p772
(dp773
g3
(I114
I115
tp774
sg5
I200
sg6
(I165
I156
I137
I0
tp775
sg8
(lp776
(I136
I133
tp777
a(I156
I103
tp778
a(I64
I113
tp779
a(I76
I151
tp780
a(I75
I83
tp781
a(I144
I106
tp782
a(I99
I110
tp783
asg16
I200
sba(imain2
Polygon
p784
(dp785
g3
(I114
I99
tp786
sg5
I200
sg6
(I60
I240
I7
I42
tp787
sg8
(lp788
(I128
I108
tp789
a(I104
I71
tp790
a(I68
I97
tp791
a(I85
I70
tp792
a(I72
I108
tp793
a(I117
I58
tp794
a(I70
I56
tp795
a(I109
I134
tp796
a(I103
I135
tp797
a(I69
I62
tp798
a(I139
I67
tp799
a(I84
I133
tp800
asg16
I200
sba(imain2
Polygon
p801
(dp802
g3
(I173
I62
tp803
sg5
I200
sg6
(I1
I40
I167
I93
tp804
sg8
(lp805
(I200
I82
tp806
a(I200
I84
tp807
a(I168
I49
tp808
a(I179
I16
tp809
a(I167
I67
tp810
asg16
I200
sba(imain2
Polygon
p811
(dp812
g3
(I199
I171
tp813
sg5
I200
sg6
(I1
I233
I13
I19
tp814
sg8
(lp815
(I200
I164
tp816
a(I200
I174
tp817
a(I162
I194
tp818
asg16
I200
sba(imain2
Polygon
p819
(dp820
g3
(I195
I126
tp821
sg5
I200
sg6
(I210
I215
I27
I0
tp822
sg8
(lp823
(I200
I155
tp824
a(I200
I175
tp825
a(I172
I118
tp826
a(I200
I164
tp827
a(I200
I93
tp828
a(I200
I82
tp829
a(I175
I79
tp830
a(I200
I91
tp831
a(I154
I148
tp832
a(I170
I107
tp833
a(I183
I169
tp834
a(I199
I106
tp835
a(I200
I123
tp836
a(I200
I117
tp837
a(I200
I143
tp838
a(I200
I156
tp839
a(I200
I156
tp840
asg16
I200
sba(imain2
Polygon
p841
(dp842
g3
(I51
I190
tp843
sg5
I200
sg6
(I124
I172
I99
I55
tp844
sg8
(lp845
(I63
I200
tp846
a(I11
I200
tp847
a(I86
I200
tp848
a(I60
I200
tp849
a(I96
I168
tp850
a(I97
I200
tp851
a(I14
I192
tp852
a(I88
I200
tp853
asg16
I200
sba(imain2
Polygon
p854
(dp855
g3
(I200
I5
tp856
sg5
I200
sg6
(I187
I107
I44
I1
tp857
sg8
(lp858
(I200
I50
tp859
a(I200
I17
tp860
a(I200
I0
tp861
a(I196
I26
tp862
a(I171
I11
tp863
a(I163
I0
tp864
a(I150
I43
tp865
a(I186
I29
tp866
a(I200
I0
tp867
a(I186
I38
tp868
asg16
I200
sba(imain2
Polygon
p869
(dp870
g3
(I147
I166
tp871
sg5
I200
sg6
(I114
I241
I223
I6
tp872
sg8
(lp873
(I108
I131
tp874
a(I109
I190
tp875
a(I179
I180
tp876
a(I123
I166
tp877
a(I132
I125
tp878
a(I110
I196
tp879
a(I108
I150
tp880
a(I150
I117
tp881
a(I142
I153
tp882
asg16
I200
sba(imain2
Polygon
p883
(dp884
g3
(I16
I191
tp885
sg5
I200
sg6
(I128
I46
I221
I0
tp886
sg8
(lp887
(I9
I161
tp888
a(I59
I200
tp889
a(I55
I168
tp890
a(I50
I200
tp891
asg16
I200
sba(imain2
Polygon
p892
(dp893
g3
(I94
I9
tp894
sg5
I200
sg6
(I199
I50
I20
I1
tp895
sg8
(lp896
(I82
I0
tp897
a(I131
I0
tp898
a(I130
I0
tp899
a(I83
I0
tp900
a(I114
I19
tp901
a(I89
I0
tp902
a(I79
I0
tp903
a(I109
I24
tp904
a(I99
I22
tp905
a(I136
I56
tp906
a(I137
I19
tp907
a(I50
I53
tp908
a(I103
I57
tp909
asg16
I200
sba(imain2
Polygon
p910
(dp911
g3
(I111
I113
tp912
sg5
I200
sg6
(I89
I30
I145
I0
tp913
sg8
(lp914
(I95
I159
tp915
a(I120
I136
tp916
a(I150
I136
tp917
asg16
I200
sba(imain2
Polygon
p918
(dp919
g3
(I10
I81
tp920
sg5
I200
sg6
(I218
I162
I192
I1
tp921
sg8
(lp922
(I60
I131
tp923
a(I0
I102
tp924
a(I0
I129
tp925
a(I12
I107
tp926
a(I11
I125
tp927
a(I59
I45
tp928
a(I0
I116
tp929
a(I21
I59
tp930
a(I22
I107
tp931
a(I46
I129
tp932
a(I24
I55
tp933
a(I9
I81
tp934
asg16
I200
sba(imain2
Polygon
p935
(dp936
g3
(I10
I22
tp937
sg5
I200
sg6
(I217
I204
I103
I66
tp938
sg8
(lp939
(I0
I19
tp940
a(I41
I0
tp941
a(I47
I58
tp942
a(I19
I72
tp943
a(I0
I72
tp944
a(I12
I0
tp945
a(I0
I0
tp946
a(I0
I66
tp947
a(I13
I7
tp948
a(I0
I14
tp949
a(I26
I4
tp950
a(I0
I13
tp951
asg16
I200
sba(imain2
Polygon
p952
(dp953
g3
(I19
I169
tp954
sg5
I200
sg6
(I88
I215
I78
I1
tp955
sg8
(lp956
(I41
I147
tp957
a(I68
I169
tp958
a(I20
I192
tp959
a(I7
I200
tp960
a(I28
I122
tp961
asg16
I200
sba(imain2
Polygon
p962
(dp963
g3
(I194
I7
tp964
sg5
I200
sg6
(I160
I88
I133
I0
tp965
sg8
(lp966
(I200
I44
tp967
a(I200
I0
tp968
a(I200
I35
tp969
a(I170
I0
tp970
a(I184
I0
tp971
a(I200
I0
tp972
a(I174
I0
tp973
a(I200
I0
tp974
a(I175
I18
tp975
asg16
I200
sba(imain2
Polygon
p976
(dp977
g3
(I42
I15
tp978
sg5
I200
sg6
(I147
I135
I162
I1
tp979
sg8
(lp980
(I55
I36
tp981
a(I61
I9
tp982
a(I73
I63
tp983
a(I0
I65
tp984
a(I11
I0
tp985
a(I12
I32
tp986
a(I91
I0
tp987
a(I20
I58
tp988
a(I16
I37
tp989
asg16
I200
sba(imain2
Polygon
p990
(dp991
g3
(I183
I77
tp992
sg5
I200
sg6
(I25
I140
I27
I26
tp993
sg8
(lp994
(I170
I55
tp995
a(I200
I86
tp996
a(I200
I70
tp997
a(I189
I40
tp998
a(I161
I65
tp999
a(I196
I42
tp1000
a(I200
I43
tp1001
a(I200
I102
tp1002
asg16
I200
sba(imain2
Polygon
p1003
(dp1004
g3
(I190
I45
tp1005
sg5
I200
sg6
(I176
I45
I183
I1
tp1006
sg8
(lp1007
(I200
I8
tp1008
a(I200
I26
tp1009
a(I153
I42
tp1010
a(I200
I46
tp1011
a(I179
I86
tp1012
a(I199
I57
tp1013
a(I183
I37
tp1014
a(I200
I7
tp1015
a(I200
I75
tp1016
asg16
I200
sba(imain2
Polygon
p1017
(dp1018
g3
(I115
I69
tp1019
sg5
I200
sg6
(I0
I121
I192
I1
tp1020
sg8
(lp1021
(I121
I86
tp1022
a(I84
I62
tp1023
a(I118
I32
tp1024
asg16
I200
sba(imain2
Polygon
p1025
(dp1026
g3
(I173
I121
tp1027
sg5
I200
sg6
(I242
I53
I20
I0
tp1028
sg8
(lp1029
(I155
I105
tp1030
a(I137
I112
tp1031
a(I175
I87
tp1032
a(I169
I95
tp1033
a(I184
I89
tp1034
a(I200
I116
tp1035
a(I192
I122
tp1036
a(I144
I170
tp1037
asg16
I200
sba(imain2
Polygon
p1038
(dp1039
g3
(I45
I135
tp1040
sg5
I200
sg6
(I147
I126
I175
I34
tp1041
sg8
(lp1042
(I7
I177
tp1043
a(I21
I178
tp1044
a(I23
I86
tp1045
a(I14
I133
tp1046
a(I35
I86
tp1047
a(I9
I89
tp1048
a(I2
I91
tp1049
a(I0
I127
tp1050
asg16
I200
sba(imain2
Polygon
p1051
(dp1052
g3
(I61
I48
tp1053
sg5
I200
sg6
(I76
I33
I122
I109
tp1054
sg8
(lp1055
(I81
I91
tp1056
a(I73
I78
tp1057
a(I47
I85
tp1058
a(I68
I93
tp1059
a(I86
I72
tp1060
a(I85
I73
tp1061
a(I45
I93
tp1062
a(I66
I90
tp1063
a(I106
I80
tp1064
asg16
I200
sba(imain2
Polygon
p1065
(dp1066
g3
(I96
I154
tp1067
sg5
I200
sg6
(I149
I181
I184
I61
tp1068
sg8
(lp1069
(I53
I107
tp1070
a(I75
I149
tp1071
a(I90
I200
tp1072
a(I142
I200
tp1073
a(I53
I114
tp1074
a(I107
I120
tp1075
asg16
I200
sba(imain2
Polygon
p1076
(dp1077
g3
(I32
I146
tp1078
sg5
I200
sg6
(I62
I240
I69
I92
tp1079
sg8
(lp1080
(I0
I157
tp1081
a(I0
I178
tp1082
a(I0
I132
tp1083
asg16
I200
sba(imain2
Polygon
p1084
(dp1085
g3
(I3
I120
tp1086
sg5
I200
sg6
(I186
I176
I16
I53
tp1087
sg8
(lp1088
(I38
I71
tp1089
a(I0
I72
tp1090
a(I0
I121
tp1091
a(I0
I132
tp1092
a(I20
I116
tp1093
asg16
I200
sba(imain2
Polygon
p1094
(dp1095
g3
(I74
I152
tp1096
sg5
I200
sg6
(I59
I79
I125
I1
tp1097
sg8
(lp1098
(I107
I180
tp1099
a(I80
I138
tp1100
a(I39
I140
tp1101
a(I117
I121
tp1102
a(I75
I165
tp1103
a(I118
I127
tp1104
a(I32
I179
tp1105
a(I33
I191
tp1106
a(I87
I200
tp1107
a(I56
I110
tp1108
a(I42
I135
tp1109
a(I76
I188
tp1110
asg16
I200
sba(imain2
Polygon
p1111
(dp1112
g3
(I31
I192
tp1113
sg5
I200
sg6
(I153
I32
I134
I0
tp1114
sg8
(lp1115
(I0
I181
tp1116
a(I7
I200
tp1117
a(I0
I200
tp1118
a(I0
I175
tp1119
a(I80
I200
tp1120
a(I17
I200
tp1121
a(I0
I142
tp1122
a(I41
I172
tp1123
a(I57
I200
tp1124
a(I28
I166
tp1125
a(I50
I144
tp1126
a(I0
I187
tp1127
a(I39
I200
tp1128
a(I0
I165
tp1129
a(I21
I181
tp1130
a(I56
I200
tp1131
a(I0
I195
tp1132
asg16
I200
sba(imain2
Polygon
p1133
(dp1134
g3
(I99
I149
tp1135
sg5
I200
sg6
(I188
I31
I203
I1
tp1136
sg8
(lp1137
(I110
I116
tp1138
a(I136
I173
tp1139
a(I101
I127
tp1140
a(I82
I109
tp1141
a(I114
I142
tp1142
a(I79
I154
tp1143
a(I51
I112
tp1144
a(I55
I173
tp1145
a(I92
I139
tp1146
a(I101
I140
tp1147
a(I109
I193
tp1148
a(I103
I151
tp1149
a(I123
I124
tp1150
a(I105
I153
tp1151
a(I52
I171
tp1152
a(I131
I198
tp1153
a(I76
I153
tp1154
asg16
I200
sba(imain2
Polygon
p1155
(dp1156
g3
(I183
I115
tp1157
sg5
I200
sg6
(I17
I108
I176
I133
tp1158
sg8
(lp1159
(I200
I102
tp1160
a(I193
I132
tp1161
a(I181
I84
tp1162
a(I200
I87
tp1163
a(I200
I142
tp1164
asg16
I200
sba(imain2
Polygon
p1165
(dp1166
g3
(I141
I107
tp1167
sg5
I200
sg6
(I78
I144
I85
I138
tp1168
sg8
(lp1169
(I119
I86
tp1170
a(I112
I86
tp1171
a(I111
I152
tp1172
asg16
I200
sba(imain2
Polygon
p1173
(dp1174
g3
(I149
I72
tp1175
sg5
I200
sg6
(I62
I107
I163
I24
tp1176
sg8
(lp1177
(I160
I35
tp1178
a(I195
I56
tp1179
a(I155
I38
tp1180
a(I99
I25
tp1181
a(I173
I40
tp1182
a(I176
I38
tp1183
a(I195
I35
tp1184
a(I127
I88
tp1185
a(I150
I68
tp1186
a(I168
I73
tp1187
a(I169
I57
tp1188
asg16
I200
sba(imain2
Polygon
p1189
(dp1190
g3
(I67
I128
tp1191
sg5
I200
sg6
(I210
I146
I52
I24
tp1192
sg8
(lp1193
(I106
I157
tp1194
a(I73
I95
tp1195
a(I108
I113
tp1196
a(I115
I152
tp1197
a(I62
I84
tp1198
a(I62
I102
tp1199
a(I63
I145
tp1200
a(I75
I164
tp1201
asg16
I200
sba(imain2
Polygon
p1202
(dp1203
g3
(I183
I44
tp1204
sg5
I200
sg6
(I80
I9
I170
I1
tp1205
sg8
(lp1206
(I200
I28
tp1207
a(I138
I92
tp1208
a(I163
I30
tp1209
a(I175
I30
tp1210
a(I136
I16
tp1211
a(I191
I71
tp1212
asg16
I200
sba(imain2
Polygon
p1213
(dp1214
g3
(I100
I61
tp1215
sg5
I200
sg6
(I199
I96
I41
I36
tp1216
sg8
(lp1217
(I56
I38
tp1218
a(I99
I64
tp1219
a(I91
I106
tp1220
a(I131
I96
tp1221
a(I95
I52
tp1222
a(I80
I38
tp1223
a(I74
I24
tp1224
a(I146
I15
tp1225
a(I96
I45
tp1226
a(I109
I45
tp1227
a(I143
I70
tp1228
a(I84
I63
tp1229
a(I126
I79
tp1230
a(I104
I97
tp1231
asg16
I200
sba(imain2
Polygon
p1232
(dp1233
g3
(I52
I190
tp1234
sg5
I200
sg6
(I174
I147
I49
I75
tp1235
sg8
(lp1236
(I71
I200
tp1237
a(I89
I171
tp1238
a(I102
I200
tp1239
a(I94
I200
tp1240
a(I95
I200
tp1241
a(I34
I200
tp1242
asg16
I200
sba(imain2
Polygon
p1243
(dp1244
g3
(I151
I65
tp1245
sg5
I200
sg6
(I62
I179
I1
I97
tp1246
sg8
(lp1247
(I176
I54
tp1248
a(I179
I51
tp1249
a(I164
I54
tp1250
a(I186
I39
tp1251
a(I139
I65
tp1252
a(I111
I63
tp1253
a(I119
I77
tp1254
a(I169
I47
tp1255
a(I182
I28
tp1256
a(I158
I17
tp1257
asg16
I200
sba(imain2
Polygon
p1258
(dp1259
g3
(I67
I20
tp1260
sg5
I200
sg6
(I165
I92
I187
I95
tp1261
sg8
(lp1262
(I17
I0
tp1263
a(I29
I39
tp1264
a(I114
I0
tp1265
a(I110
I0
tp1266
a(I112
I0
tp1267
a(I113
I0
tp1268
a(I74
I0
tp1269
asg16
I200
sba(imain2
Polygon
p1270
(dp1271
g3
(I199
I56
tp1272
sg5
I200
sg6
(I159
I0
I107
I1
tp1273
sg8
(lp1274
(I200
I8
tp1275
a(I165
I70
tp1276
a(I200
I46
tp1277
a(I200
I83
tp1278
a(I181
I100
tp1279
a(I186
I53
tp1280
a(I198
I104
tp1281
a(I155
I97
tp1282
a(I200
I28
tp1283
a(I149
I58
tp1284
a(I168
I34
tp1285
asg16
I200
sba(imain2
Polygon
p1286
(dp1287
g3
(I185
I38
tp1288
sg5
I200
sg6
(I128
I217
I66
I157
tp1289
sg8
(lp1290
(I200
I69
tp1291
a(I200
I0
tp1292
a(I177
I0
tp1293
a(I154
I0
tp1294
a(I146
I42
tp1295
a(I200
I5
tp1296
a(I168
I28
tp1297
a(I142
I46
tp1298
a(I155
I22
tp1299
a(I181
I67
tp1300
a(I187
I70
tp1301
a(I138
I0
tp1302
a(I200
I50
tp1303
a(I141
I1
tp1304
a(I171
I85
tp1305
a(I189
I82
tp1306
asg16
I200
sba(imain2
Polygon
p1307
(dp1308
g3
(I67
I149
tp1309
sg5
I200
sg6
(I90
I205
I211
I34
tp1310
sg8
(lp1311
(I20
I169
tp1312
a(I92
I149
tp1313
a(I45
I104
tp1314
a(I47
I101
tp1315
a(I64
I107
tp1316
a(I75
I131
tp1317
a(I69
I155
tp1318
asg16
I200
sba(imain2
Polygon
p1319
(dp1320
g3
(I21
I182
tp1321
sg5
I200
sg6
(I110
I114
I1
I74
tp1322
sg8
(lp1323
(I67
I200
tp1324
a(I0
I166
tp1325
a(I30
I184
tp1326
a(I20
I169
tp1327
a(I19
I200
tp1328
a(I41
I195
tp1329
a(I19
I200
tp1330
a(I32
I200
tp1331
a(I13
I200
tp1332
a(I0
I144
tp1333
a(I0
I194
tp1334
a(I27
I167
tp1335
a(I8
I162
tp1336
a(I28
I152
tp1337
a(I0
I133
tp1338
a(I47
I191
tp1339
asg16
I200
sba(imain2
Polygon
p1340
(dp1341
g3
(I145
I176
tp1342
sg5
I200
sg6
(I183
I171
I1
I35
tp1343
sg8
(lp1344
(I116
I200
tp1345
a(I101
I200
tp1346
a(I177
I200
tp1347
a(I120
I137
tp1348
a(I95
I200
tp1349
asg16
I200
sba(imain2
Polygon
p1350
(dp1351
g3
(I102
I21
tp1352
sg5
I200
sg6
(I180
I177
I184
I55
tp1353
sg8
(lp1354
(I129
I69
tp1355
a(I61
I26
tp1356
a(I88
I12
tp1357
a(I104
I12
tp1358
a(I146
I25
tp1359
a(I143
I7
tp1360
a(I142
I0
tp1361
a(I59
I0
tp1362
a(I54
I68
tp1363
asg16
I200
sba(imain2
Polygon
p1364
(dp1365
g3
(I154
I30
tp1366
sg5
I200
sg6
(I49
I94
I58
I0
tp1367
sg8
(lp1368
(I135
I63
tp1369
a(I107
I66
tp1370
a(I173
I45
tp1371
a(I162
I48
tp1372
a(I150
I48
tp1373
a(I144
I73
tp1374
a(I135
I57
tp1375
a(I156
I27
tp1376
a(I132
I0
tp1377
asg16
I200
sba(imain2
Polygon
p1378
(dp1379
g3
(I171
I178
tp1380
sg5
I200
sg6
(I92
I228
I32
I0
tp1381
sg8
(lp1382
(I200
I200
tp1383
a(I200
I200
tp1384
a(I200
I195
tp1385
a(I200
I135
tp1386
a(I179
I151
tp1387
a(I151
I200
tp1388
a(I172
I153
tp1389
asg16
I200
sba(imain2
Polygon
p1390
(dp1391
g3
(I189
I152
tp1392
sg5
I200
sg6
(I245
I70
I178
I1
tp1393
sg8
(lp1394
(I184
I192
tp1395
a(I200
I134
tp1396
a(I200
I166
tp1397
a(I200
I155
tp1398
a(I176
I108
tp1399
a(I182
I182
tp1400
a(I200
I166
tp1401
a(I156
I189
tp1402
a(I149
I177
tp1403
asg16
I200
sba(imain2
Polygon
p1404
(dp1405
g3
(I158
I122
tp1406
sg5
I200
sg6
(I42
I0
I155
I32
tp1407
sg8
(lp1408
(I182
I80
tp1409
a(I174
I137
tp1410
a(I200
I145
tp1411
a(I166
I100
tp1412
a(I141
I111
tp1413
a(I124
I81
tp1414
a(I140
I142
tp1415
a(I131
I110
tp1416
a(I189
I78
tp1417
a(I200
I74
tp1418
a(I124
I95
tp1419
asg16
I200
sba(imain2
Polygon
p1420
(dp1421
g3
(I89
I194
tp1422
sg5
I200
sg6
(I226
I74
I37
I1
tp1423
sg8
(lp1424
(I91
I187
tp1425
a(I69
I166
tp1426
a(I49
I167
tp1427
a(I76
I177
tp1428
a(I107
I177
tp1429
a(I115
I200
tp1430
a(I104
I200
tp1431
a(I39
I200
tp1432
a(I64
I164
tp1433
a(I126
I166
tp1434
a(I67
I147
tp1435
a(I84
I198
tp1436
asg16
I200
sba(imain2
Polygon
p1437
(dp1438
g3
(I185
I89
tp1439
sg5
I200
sg6
(I163
I0
I218
I1
tp1440
sg8
(lp1441
(I136
I51
tp1442
a(I200
I98
tp1443
a(I190
I122
tp1444
a(I200
I70
tp1445
a(I152
I101
tp1446
a(I196
I139
tp1447
a(I187
I137
tp1448
a(I197
I79
tp1449
a(I166
I46
tp1450
a(I200
I68
tp1451
a(I175
I68
tp1452
a(I200
I47
tp1453
a(I174
I136
tp1454
a(I181
I50
tp1455
asg16
I200
sba(imain2
Polygon
p1456
(dp1457
g3
(I67
I129
tp1458
sg5
I200
sg6
(I72
I191
I56
I109
tp1459
sg8
(lp1460
(I96
I97
tp1461
a(I112
I141
tp1462
a(I78
I170
tp1463
a(I81
I160
tp1464
a(I112
I100
tp1465
a(I67
I121
tp1466
a(I93
I98
tp1467
a(I99
I143
tp1468
a(I96
I122
tp1469
a(I109
I141
tp1470
a(I87
I119
tp1471
a(I87
I107
tp1472
a(I75
I92
tp1473
a(I84
I146
tp1474
a(I52
I135
tp1475
a(I91
I173
tp1476
asg16
I200
sba(imain2
Polygon
p1477
(dp1478
g3
(I95
I80
tp1479
sg5
I200
sg6
(I219
I88
I19
I129
tp1480
sg8
(lp1481
(I121
I57
tp1482
a(I47
I53
tp1483
a(I58
I130
tp1484
a(I123
I114
tp1485
a(I129
I87
tp1486
asg16
I200
sba(imain2
Polygon
p1487
(dp1488
g3
(I14
I45
tp1489
sg5
I200
sg6
(I223
I0
I43
I104
tp1490
sg8
(lp1491
(I0
I94
tp1492
a(I58
I24
tp1493
a(I0
I13
tp1494
a(I38
I90
tp1495
a(I10
I95
tp1496
asg16
I200
sba(imain2
Polygon
p1497
(dp1498
g3
(I34
I35
tp1499
sg5
I200
sg6
(I106
I9
I200
I16
tp1500
sg8
(lp1501
(I0
I0
tp1502
a(I0
I84
tp1503
a(I51
I56
tp1504
a(I37
I58
tp1505
a(I53
I81
tp1506
a(I24
I1
tp1507
a(I56
I7
tp1508
a(I63
I21
tp1509
asg16
I200
sba(imain2
Polygon
p1510
(dp1511
g3
(I127
I147
tp1512
sg5
I200
sg6
(I114
I171
I188
I71
tp1513
sg8
(lp1514
(I112
I151
tp1515
a(I112
I167
tp1516
a(I161
I125
tp1517
a(I99
I100
tp1518
a(I112
I159
tp1519
a(I126
I158
tp1520
a(I164
I118
tp1521
a(I80
I133
tp1522
a(I125
I141
tp1523
a(I92
I99
tp1524
a(I85
I144
tp1525
a(I105
I137
tp1526
a(I148
I117
tp1527
a(I108
I109
tp1528
a(I100
I118
tp1529
a(I120
I132
tp1530
a(I93
I123
tp1531
a(I80
I136
tp1532
asg16
I200
sba(imain2
Polygon
p1533
(dp1534
g3
(I88
I106
tp1535
sg5
I200
sg6
(I189
I11
I58
I106
tp1536
sg8
(lp1537
(I127
I64
tp1538
a(I119
I93
tp1539
a(I117
I112
tp1540
asg16
I200
sba(imain2
Polygon
p1541
(dp1542
g3
(I11
I134
tp1543
sg5
I200
sg6
(I74
I178
I93
I88
tp1544
sg8
(lp1545
(I0
I183
tp1546
a(I0
I108
tp1547
a(I0
I162
tp1548
a(I12
I180
tp1549
asg16
I200
sba(imain2
Polygon
p1550
(dp1551
g3
(I174
I141
tp1552
sg5
I200
sg6
(I113
I234
I92
I69
tp1553
sg8
(lp1554
(I200
I120
tp1555
a(I187
I97
tp1556
a(I170
I160
tp1557
a(I200
I190
tp1558
asg16
I200
sba(imain2
Polygon
p1559
(dp1560
g3
(I68
I44
tp1561
sg5
I200
sg6
(I2
I228
I127
I31
tp1562
sg8
(lp1563
(I26
I22
tp1564
a(I19
I82
tp1565
a(I62
I45
tp1566
a(I75
I72
tp1567
a(I22
I45
tp1568
a(I83
I85
tp1569
a(I73
I76
tp1570
asg16
I200
sba(imain2
Polygon
p1571
(dp1572
g3
(I80
I68
tp1573
sg5
I200
sg6
(I74
I15
I15
I30
tp1574
sg8
(lp1575
(I52
I50
tp1576
a(I34
I66
tp1577
a(I53
I18
tp1578
a(I117
I21
tp1579
a(I40
I26
tp1580
a(I104
I60
tp1581
a(I37
I27
tp1582
a(I47
I36
tp1583
a(I37
I35
tp1584
a(I66
I42
tp1585
a(I83
I18
tp1586
asg16
I200
sba(imain2
Polygon
p1587
(dp1588
g3
(I120
I143
tp1589
sg5
I200
sg6
(I151
I157
I82
I1
tp1590
sg8
(lp1591
(I87
I180
tp1592
a(I157
I180
tp1593
a(I104
I174
tp1594
a(I92
I178
tp1595
a(I129
I155
tp1596
a(I119
I179
tp1597
a(I123
I178
tp1598
a(I145
I127
tp1599
a(I120
I158
tp1600
a(I86
I100
tp1601
a(I157
I112
tp1602
a(I170
I95
tp1603
a(I147
I127
tp1604
a(I80
I125
tp1605
asg16
I200
sba(imain2
Polygon
p1606
(dp1607
g3
(I47
I43
tp1608
sg5
I200
sg6
(I224
I145
I62
I44
tp1609
sg8
(lp1610
(I85
I78
tp1611
a(I7
I93
tp1612
a(I0
I83
tp1613
a(I5
I0
tp1614
a(I26
I10
tp1615
a(I37
I33
tp1616
a(I91
I13
tp1617
a(I52
I53
tp1618
a(I45
I0
tp1619
a(I96
I0
tp1620
a(I96
I74
tp1621
a(I37
I83
tp1622
asg16
I200
sba(imain2
Polygon
p1623
(dp1624
g3
(I6
I165
tp1625
sg5
I200
sg6
(I192
I49
I158
I45
tp1626
sg8
(lp1627
(I0
I191
tp1628
a(I34
I177
tp1629
a(I7
I145
tp1630
asg16
I200
sba(imain2
Polygon
p1631
(dp1632
g3
(I125
I173
tp1633
sg5
I200
sg6
(I90
I28
I31
I116
tp1634
sg8
(lp1635
(I145
I181
tp1636
a(I132
I145
tp1637
a(I128
I157
tp1638
a(I135
I166
tp1639
a(I143
I200
tp1640
a(I165
I200
tp1641
a(I85
I166
tp1642
a(I93
I145
tp1643
a(I79
I141
tp1644
a(I145
I159
tp1645
a(I157
I200
tp1646
a(I130
I140
tp1647
asg16
I200
sba(imain2
Polygon
p1648
(dp1649
g3
(I63
I154
tp1650
sg5
I200
sg6
(I121
I158
I2
I1
tp1651
sg8
(lp1652
(I90
I156
tp1653
a(I61
I175
tp1654
a(I112
I105
tp1655
a(I100
I174
tp1656
a(I66
I105
tp1657
a(I66
I149
tp1658
a(I45
I194
tp1659
a(I85
I125
tp1660
a(I27
I122
tp1661
a(I101
I117
tp1662
asg16
I200
sba(imain2
Polygon
p1663
(dp1664
g3
(I152
I171
tp1665
sg5
I200
sg6
(I192
I3
I226
I0
tp1666
sg8
(lp1667
(I197
I151
tp1668
a(I128
I188
tp1669
a(I200
I191
tp1670
a(I105
I165
tp1671
a(I114
I145
tp1672
a(I193
I126
tp1673
a(I180
I200
tp1674
a(I171
I163
tp1675
a(I107
I200
tp1676
a(I118
I180
tp1677
a(I154
I143
tp1678
asg16
I200
sba(imain2
Polygon
p1679
(dp1680
g3
(I67
I143
tp1681
sg5
I200
sg6
(I71
I71
I132
I108
tp1682
sg8
(lp1683
(I100
I175
tp1684
a(I113
I120
tp1685
a(I113
I130
tp1686
asg16
I200
sba(imain2
Polygon
p1687
(dp1688
g3
(I153
I79
tp1689
sg5
I200
sg6
(I134
I28
I160
I0
tp1690
sg8
(lp1691
(I178
I118
tp1692
a(I198
I89
tp1693
a(I140
I45
tp1694
a(I133
I77
tp1695
a(I112
I71
tp1696
a(I142
I107
tp1697
a(I148
I111
tp1698
a(I175
I118
tp1699
a(I159
I100
tp1700
a(I177
I105
tp1701
a(I130
I94
tp1702
asg16
I200
sba(imain2
Polygon
p1703
(dp1704
g3
(I142
I192
tp1705
sg5
I200
sg6
(I48
I235
I1
I1
tp1706
sg8
(lp1707
(I126
I156
tp1708
a(I94
I200
tp1709
a(I151
I200
tp1710
a(I131
I200
tp1711
a(I122
I151
tp1712
a(I140
I162
tp1713
a(I115
I176
tp1714
a(I94
I200
tp1715
a(I104
I188
tp1716
asg16
I200
sba(imain2
Polygon
p1717
(dp1718
g3
(I144
I12
tp1719
sg5
I200
sg6
(I185
I74
I98
I0
tp1720
sg8
(lp1721
(I115
I0
tp1722
a(I131
I0
tp1723
a(I184
I0
tp1724
a(I135
I0
tp1725
a(I166
I26
tp1726
a(I140
I27
tp1727
a(I166
I23
tp1728
a(I184
I13
tp1729
a(I190
I2
tp1730
a(I138
I0
tp1731
a(I133
I0
tp1732
a(I167
I46
tp1733
a(I122
I5
tp1734
asg16
I200
sba(imain2
Polygon
p1735
(dp1736
g3
(I144
I92
tp1737
sg5
I200
sg6
(I223
I43
I149
I138
tp1738
sg8
(lp1739
(I175
I55
tp1740
a(I181
I55
tp1741
a(I190
I118
tp1742
a(I178
I108
tp1743
a(I159
I52
tp1744
asg16
I200
sba(imain2
Polygon
p1745
(dp1746
g3
(I167
I23
tp1747
sg5
I200
sg6
(I169
I30
I240
I0
tp1748
sg8
(lp1749
(I174
I4
tp1750
a(I156
I11
tp1751
a(I200
I70
tp1752
a(I200
I14
tp1753
a(I188
I60
tp1754
a(I139
I19
tp1755
a(I166
I58
tp1756
a(I200
I0
tp1757
a(I164
I43
tp1758
a(I200
I32
tp1759
a(I129
I13
tp1760
a(I156
I3
tp1761
a(I168
I30
tp1762
asg16
I200
sba(imain2
Polygon
p1763
(dp1764
g3
(I200
I102
tp1765
sg5
I200
sg6
(I50
I231
I149
I30
tp1766
sg8
(lp1767
(I161
I70
tp1768
a(I171
I83
tp1769
a(I193
I55
tp1770
a(I200
I120
tp1771
a(I200
I56
tp1772
a(I200
I118
tp1773
a(I167
I86
tp1774
a(I200
I76
tp1775
a(I200
I100
tp1776
a(I199
I68
tp1777
a(I155
I69
tp1778
a(I159
I62
tp1779
a(I170
I125
tp1780
a(I177
I108
tp1781
a(I200
I127
tp1782
asg16
I200
sba(imain2
Polygon
p1783
(dp1784
g3
(I20
I176
tp1785
sg5
I200
sg6
(I11
I201
I0
I1
tp1786
sg8
(lp1787
(I0
I200
tp1788
a(I4
I200
tp1789
a(I0
I164
tp1790
a(I65
I153
tp1791
a(I0
I166
tp1792
a(I30
I200
tp1793
a(I43
I145
tp1794
a(I17
I200
tp1795
a(I54
I157
tp1796
a(I0
I200
tp1797
a(I56
I200
tp1798
a(I15
I152
tp1799
a(I45
I161
tp1800
a(I44
I189
tp1801
a(I1
I173
tp1802
a(I4
I200
tp1803
asg16
I200
sba(imain2
Polygon
p1804
(dp1805
g3
(I51
I87
tp1806
sg5
I200
sg6
(I97
I176
I45
I75
tp1807
sg8
(lp1808
(I27
I64
tp1809
a(I30
I71
tp1810
a(I35
I93
tp1811
a(I19
I105
tp1812
a(I3
I114
tp1813
a(I4
I50
tp1814
a(I40
I55
tp1815
a(I63
I97
tp1816
a(I59
I88
tp1817
a(I73
I95
tp1818
a(I30
I52
tp1819
a(I37
I81
tp1820
asg16
I200
sba(imain2
Polygon
p1821
(dp1822
g3
(I124
I18
tp1823
sg5
I200
sg6
(I57
I202
I228
I1
tp1824
sg8
(lp1825
(I104
I18
tp1826
a(I89
I0
tp1827
a(I94
I26
tp1828
a(I160
I36
tp1829
asg16
I200
sba(imain2
Polygon
p1830
(dp1831
g3
(I170
I179
tp1832
sg5
I200
sg6
(I139
I190
I55
I7
tp1833
sg8
(lp1834
(I186
I184
tp1835
a(I146
I200
tp1836
a(I200
I129
tp1837
a(I200
I200
tp1838
a(I125
I200
tp1839
a(I129
I168
tp1840
a(I177
I200
tp1841
a(I155
I179
tp1842
a(I184
I200
tp1843
a(I200
I160
tp1844
asg16
I200
sba(imain2
Polygon
p1845
(dp1846
g3
(I93
I4
tp1847
sg5
I200
sg6
(I122
I127
I1
I123
tp1848
sg8
(lp1849
(I46
I0
tp1850
a(I51
I53
tp1851
a(I57
I28
tp1852
a(I47
I35
tp1853
a(I62
I48
tp1854
a(I51
I52
tp1855
asg16
I200
sba(imain2
Polygon
p1856
(dp1857
g3
(I33
I157
tp1858
sg5
I200
sg6
(I38
I117
I125
I0
tp1859
sg8
(lp1860
(I8
I115
tp1861
a(I50
I130
tp1862
a(I67
I128
tp1863
a(I42
I136
tp1864
a(I66
I120
tp1865
a(I9
I140
tp1866
a(I79
I175
tp1867
a(I69
I135
tp1868
a(I50
I162
tp1869
a(I44
I112
tp1870
asg16
I200
sba(imain2
Polygon
p1871
(dp1872
g3
(I91
I9
tp1873
sg5
I200
sg6
(I66
I182
I12
I1
tp1874
sg8
(lp1875
(I124
I35
tp1876
a(I135
I0
tp1877
a(I115
I0
tp1878
a(I54
I0
tp1879
a(I134
I0
tp1880
a(I94
I28
tp1881
a(I72
I0
tp1882
a(I42
I0
tp1883
a(I122
I0
tp1884
a(I55
I45
tp1885
asg16
I200
sba(imain2
Polygon
p1886
(dp1887
g3
(I50
I13
tp1888
sg5
I200
sg6
(I91
I178
I161
I114
tp1889
sg8
(lp1890
(I31
I61
tp1891
a(I3
I50
tp1892
a(I0
I0
tp1893
a(I11
I0
tp1894
a(I7
I0
tp1895
a(I82
I0
tp1896
asg16
I200
sba(imain2
Polygon
p1897
(dp1898
g3
(I157
I108
tp1899
sg5
I200
sg6
(I127
I116
I1
I75
tp1900
sg8
(lp1901
(I168
I137
tp1902
a(I108
I127
tp1903
a(I123
I82
tp1904
a(I145
I61
tp1905
a(I108
I149
tp1906
a(I172
I125
tp1907
a(I166
I61
tp1908
a(I200
I120
tp1909
a(I184
I155
tp1910
a(I168
I127
tp1911
a(I188
I141
tp1912
a(I158
I120
tp1913
asg16
I200
sba(imain2
Polygon
p1914
(dp1915
g3
(I7
I150
tp1916
sg5
I200
sg6
(I177
I10
I55
I10
tp1917
sg8
(lp1918
(I0
I184
tp1919
a(I0
I112
tp1920
a(I57
I154
tp1921
a(I22
I183
tp1922
a(I7
I147
tp1923
a(I0
I149
tp1924
a(I4
I171
tp1925
a(I55
I115
tp1926
a(I32
I102
tp1927
a(I49
I122
tp1928
a(I24
I105
tp1929
a(I23
I114
tp1930
a(I26
I151
tp1931
asg16
I200
sba(imain2
Polygon
p1932
(dp1933
g3
(I89
I125
tp1934
sg5
I200
sg6
(I42
I0
I214
I11
tp1935
sg8
(lp1936
(I59
I165
tp1937
a(I101
I135
tp1938
a(I56
I165
tp1939
a(I76
I125
tp1940
asg16
I200
sba(imain2
Polygon
p1941
(dp1942
g3
(I18
I178
tp1943
sg5
I200
sg6
(I85
I163
I41
I88
tp1944
sg8
(lp1945
(I0
I148
tp1946
a(I6
I154
tp1947
a(I10
I175
tp1948
a(I0
I137
tp1949
a(I30
I144
tp1950
a(I23
I175
tp1951
a(I24
I189
tp1952
a(I0
I167
tp1953
asg16
I200
sba(imain2
Polygon
p1954
(dp1955
g3
(I81
I53
tp1956
sg5
I200
sg6
(I216
I83
I79
I0
tp1957
sg8
(lp1958
(I80
I31
tp1959
a(I89
I58
tp1960
a(I66
I39
tp1961
a(I42
I77
tp1962
a(I37
I46
tp1963
a(I80
I82
tp1964
a(I97
I100
tp1965
a(I73
I54
tp1966
a(I96
I16
tp1967
a(I92
I99
tp1968
a(I89
I26
tp1969
asg16
I200
sba(imain2
Polygon
p1970
(dp1971
g3
(I117
I32
tp1972
sg5
I200
sg6
(I165
I186
I81
I1
tp1973
sg8
(lp1974
(I89
I46
tp1975
a(I99
I56
tp1976
a(I134
I30
tp1977
asg16
I200
sba(imain2
Polygon
p1978
(dp1979
g3
(I79
I140
tp1980
sg5
I200
sg6
(I224
I0
I161
I24
tp1981
sg8
(lp1982
(I108
I95
tp1983
a(I107
I173
tp1984
a(I52
I148
tp1985
a(I123
I97
tp1986
a(I103
I173
tp1987
a(I75
I159
tp1988
a(I80
I158
tp1989
a(I127
I127
tp1990
asg16
I200
sba(imain2
Polygon
p1991
(dp1992
g3
(I26
I4
tp1993
sg5
I200
sg6
(I196
I73
I69
I1
tp1994
sg8
(lp1995
(I64
I27
tp1996
a(I7
I0
tp1997
a(I69
I0
tp1998
a(I0
I0
tp1999
a(I69
I0
tp2000
a(I0
I0
tp2001
a(I4
I0
tp2002
a(I38
I0
tp2003
asg16
I200
sba(imain2
Polygon
p2004
(dp2005
g3
(I15
I121
tp2006
sg5
I200
sg6
(I1
I223
I148
I0
tp2007
sg8
(lp2008
(I36
I104
tp2009
a(I0
I109
tp2010
a(I51
I75
tp2011
a(I60
I87
tp2012
a(I0
I74
tp2013
a(I0
I86
tp2014
a(I46
I142
tp2015
a(I31
I72
tp2016
a(I43
I156
tp2017
a(I61
I107
tp2018
a(I0
I154
tp2019
a(I16
I86
tp2020
a(I59
I128
tp2021
a(I43
I154
tp2022
a(I5
I124
tp2023
asg16
I200
sba(imain2
Polygon
p2024
(dp2025
g3
(I163
I195
tp2026
sg5
I200
sg6
(I8
I147
I192
I1
tp2027
sg8
(lp2028
(I187
I200
tp2029
a(I170
I200
tp2030
a(I180
I194
tp2031
a(I127
I200
tp2032
a(I198
I192
tp2033
a(I172
I200
tp2034
a(I193
I191
tp2035
a(I129
I200
tp2036
asg16
I200
sba(imain2
Polygon
p2037
(dp2038
g3
(I118
I106
tp2039
sg5
I200
sg6
(I6
I133
I123
I114
tp2040
sg8
(lp2041
(I132
I104
tp2042
a(I145
I78
tp2043
a(I102
I87
tp2044
a(I125
I104
tp2045
a(I121
I98
tp2046
a(I123
I91
tp2047
a(I151
I66
tp2048
a(I132
I101
tp2049
a(I127
I105
tp2050
a(I140
I99
tp2051
asg16
I200
sba(imain2
Polygon
p2052
(dp2053
g3
(I56
I6
tp2054
sg5
I200
sg6
(I197
I1
I173
I0
tp2055
sg8
(lp2056
(I88
I24
tp2057
a(I79
I0
tp2058
a(I71
I0
tp2059
a(I21
I0
tp2060
a(I75
I2
tp2061
a(I10
I41
tp2062
asg16
I200
sba(imain2
Polygon
p2063
(dp2064
g3
(I174
I69
tp2065
sg5
I200
sg6
(I118
I35
I47
I99
tp2066
sg8
(lp2067
(I200
I23
tp2068
a(I200
I29
tp2069
a(I160
I53
tp2070
a(I199
I86
tp2071
a(I196
I88
tp2072
a(I200
I90
tp2073
a(I151
I40
tp2074
a(I126
I41
tp2075
a(I189
I42
tp2076
a(I171
I43
tp2077
a(I130
I47
tp2078
a(I191
I41
tp2079
a(I183
I53
tp2080
a(I173
I86
tp2081
a(I165
I92
tp2082
asg16
I200
sba(imain2
Polygon
p2083
(dp2084
g3
(I0
I30
tp2085
sg5
I200
sg6
(I169
I39
I99
I1
tp2086
sg8
(lp2087
(I0
I69
tp2088
a(I0
I48
tp2089
a(I39
I78
tp2090
a(I29
I6
tp2091
a(I0
I35
tp2092
asg16
I200
sba(imain2
Polygon
p2093
(dp2094
g3
(I134
I58
tp2095
sg5
I200
sg6
(I241
I178
I117
I110
tp2096
sg8
(lp2097
(I179
I58
tp2098
a(I110
I8
tp2099
a(I156
I8
tp2100
a(I179
I9
tp2101
asg16
I200
sba(imain2
Polygon
p2102
(dp2103
g3
(I142
I75
tp2104
sg5
I200
sg6
(I201
I59
I194
I75
tp2105
sg8
(lp2106
(I191
I83
tp2107
a(I154
I36
tp2108
a(I163
I54
tp2109
a(I192
I28
tp2110
asg16
I200
sba(imain2
Polygon
p2111
(dp2112
g3
(I129
I65
tp2113
sg5
I200
sg6
(I88
I0
I164
I129
tp2114
sg8
(lp2115
(I155
I65
tp2116
a(I158
I67
tp2117
a(I151
I68
tp2118
asg16
I200
sba(imain2
Polygon
p2119
(dp2120
g3
(I163
I171
tp2121
sg5
I200
sg6
(I195
I10
I130
I1
tp2122
sg8
(lp2123
(I145
I198
tp2124
a(I161
I200
tp2125
a(I200
I190
tp2126
a(I178
I200
tp2127
a(I127
I200
tp2128
a(I170
I142
tp2129
a(I165
I165
tp2130
a(I158
I178
tp2131
a(I189
I200
tp2132
a(I161
I197
tp2133
a(I200
I124
tp2134
a(I200
I191
tp2135
a(I141
I126
tp2136
a(I113
I200
tp2137
asg16
I200
sba(imain2
Polygon
p2138
(dp2139
g3
(I184
I20
tp2140
sg5
I200
sg6
(I213
I91
I227
I75
tp2141
sg8
(lp2142
(I200
I60
tp2143
a(I200
I0
tp2144
a(I200
I69
tp2145
a(I160
I57
tp2146
a(I140
I0
tp2147
a(I144
I0
tp2148
a(I200
I0
tp2149
a(I200
I0
tp2150
asg16
I200
sba(imain2
Polygon
p2151
(dp2152
g3
(I145
I135
tp2153
sg5
I200
sg6
(I31
I41
I59
I39
tp2154
sg8
(lp2155
(I160
I178
tp2156
a(I183
I129
tp2157
a(I135
I88
tp2158
a(I110
I168
tp2159
a(I166
I183
tp2160
asg16
I200
sba(imain2
Polygon
p2161
(dp2162
g3
(I64
I74
tp2163
sg5
I200
sg6
(I134
I208
I148
I1
tp2164
sg8
(lp2165
(I111
I67
tp2166
a(I74
I124
tp2167
a(I19
I47
tp2168
a(I94
I61
tp2169
asg16
I200
sba(imain2
Polygon
p2170
(dp2171
g3
(I82
I104
tp2172
sg5
I200
sg6
(I48
I155
I198
I1
tp2173
sg8
(lp2174
(I129
I123
tp2175
a(I98
I78
tp2176
a(I60
I150
tp2177
a(I61
I58
tp2178
a(I87
I71
tp2179
a(I37
I116
tp2180
a(I105
I79
tp2181
a(I131
I77
tp2182
a(I54
I154
tp2183
a(I76
I62
tp2184
asg16
I200
sba(imain2
Polygon
p2185
(dp2186
g3
(I176
I51
tp2187
sg5
I200
sg6
(I114
I211
I85
I0
tp2188
sg8
(lp2189
(I200
I6
tp2190
a(I143
I9
tp2191
a(I200
I62
tp2192
a(I174
I33
tp2193
a(I171
I13
tp2194
a(I185
I27
tp2195
asg16
I200
sba(imain2
Polygon
p2196
(dp2197
g3
(I18
I179
tp2198
sg5
I200
sg6
(I8
I98
I95
I29
tp2199
sg8
(lp2200
(I0
I146
tp2201
a(I0
I200
tp2202
a(I0
I198
tp2203
a(I21
I200
tp2204
a(I22
I196
tp2205
a(I36
I190
tp2206
a(I19
I154
tp2207
a(I23
I153
tp2208
asg16
I200
sba(imain2
Polygon
p2209
(dp2210
g3
(I112
I97
tp2211
sg5
I200
sg6
(I96
I198
I66
I50
tp2212
sg8
(lp2213
(I117
I118
tp2214
a(I70
I139
tp2215
a(I97
I92
tp2216
a(I122
I146
tp2217
a(I76
I136
tp2218
a(I79
I54
tp2219
a(I98
I68
tp2220
a(I123
I104
tp2221
a(I130
I88
tp2222
a(I96
I146
tp2223
asg16
I200
sba(imain2
Polygon
p2224
(dp2225
g3
(I3
I120
tp2226
sg5
I200
sg6
(I62
I87
I145
I89
tp2227
sg8
(lp2228
(I0
I86
tp2229
a(I0
I82
tp2230
a(I1
I72
tp2231
a(I0
I109
tp2232
a(I43
I80
tp2233
asg16
I200
sba(imain2
Polygon
p2234
(dp2235
g3
(I7
I32
tp2236
sg5
I200
sg6
(I148
I29
I185
I1
tp2237
sg8
(lp2238
(I0
I45
tp2239
a(I0
I27
tp2240
a(I52
I39
tp2241
a(I8
I32
tp2242
a(I0
I51
tp2243
a(I27
I38
tp2244
a(I0
I62
tp2245
a(I0
I49
tp2246
a(I5
I14
tp2247
a(I14
I23
tp2248
a(I56
I76
tp2249
a(I0
I7
tp2250
a(I0
I0
tp2251
asg16
I200
sba(imain2
Polygon
p2252
(dp2253
g3
(I166
I95
tp2254
sg5
I200
sg6
(I185
I1
I140
I141
tp2255
sg8
(lp2256
(I192
I50
tp2257
a(I200
I127
tp2258
a(I200
I60
tp2259
asg16
I200
sba(imain2
Polygon
p2260
(dp2261
g3
(I197
I92
tp2262
sg5
I200
sg6
(I116
I6
I30
I0
tp2263
sg8
(lp2264
(I154
I60
tp2265
a(I200
I65
tp2266
a(I200
I70
tp2267
a(I155
I138
tp2268
a(I158
I100
tp2269
a(I147
I82
tp2270
a(I200
I78
tp2271
a(I200
I131
tp2272
a(I187
I130
tp2273
a(I154
I82
tp2274
a(I155
I44
tp2275
a(I197
I58
tp2276
a(I147
I62
tp2277
a(I176
I122
tp2278
asg16
I200
sba(imain2
Polygon
p2279
(dp2280
g3
(I167
I132
tp2281
sg5
I200
sg6
(I220
I55
I84
I1
tp2282
sg8
(lp2283
(I166
I121
tp2284
a(I157
I116
tp2285
a(I169
I113
tp2286
a(I134
I127
tp2287
a(I199
I86
tp2288
a(I197
I112
tp2289
a(I198
I133
tp2290
a(I175
I142
tp2291
a(I117
I113
tp2292
a(I178
I149
tp2293
a(I136
I156
tp2294
a(I132
I168
tp2295
a(I138
I92
tp2296
a(I132
I148
tp2297
asg16
I200
sba(imain2
Polygon
p2298
(dp2299
g3
(I2
I175
tp2300
sg5
I200
sg6
(I101
I198
I106
I0
tp2301
sg8
(lp2302
(I34
I200
tp2303
a(I0
I200
tp2304
a(I28
I126
tp2305
asg16
I200
sba(imain2
Polygon
p2306
(dp2307
g3
(I148
I121
tp2308
sg5
I200
sg6
(I127
I195
I132
I16
tp2309
sg8
(lp2310
(I120
I135
tp2311
a(I118
I71
tp2312
a(I101
I103
tp2313
asg16
I200
sba(imain2
Polygon
p2314
(dp2315
g3
(I26
I154
tp2316
sg5
I200
sg6
(I140
I61
I224
I26
tp2317
sg8
(lp2318
(I52
I148
tp2319
a(I0
I196
tp2320
a(I20
I155
tp2321
asg16
I200
sba(imain2
Polygon
p2322
(dp2323
g3
(I188
I60
tp2324
sg5
I200
sg6
(I21
I75
I8
I46
tp2325
sg8
(lp2326
(I148
I100
tp2327
a(I139
I27
tp2328
a(I200
I98
tp2329
a(I200
I21
tp2330
a(I200
I63
tp2331
a(I200
I22
tp2332
a(I200
I105
tp2333
asg16
I200
sba(imain2
Polygon
p2334
(dp2335
g3
(I29
I0
tp2336
sg5
I200
sg6
(I200
I201
I8
I85
tp2337
sg8
(lp2338
(I29
I0
tp2339
a(I0
I0
tp2340
a(I50
I36
tp2341
a(I45
I18
tp2342
a(I61
I0
tp2343
a(I0
I0
tp2344
a(I0
I50
tp2345
a(I70
I50
tp2346
a(I0
I0
tp2347
a(I0
I0
tp2348
a(I77
I0
tp2349
a(I74
I14
tp2350
a(I36
I44
tp2351
a(I58
I0
tp2352
a(I8
I1
tp2353
a(I5
I0
tp2354
asg16
I200
sba(imain2
Polygon
p2355
(dp2356
g3
(I92
I198
tp2357
sg5
I200
sg6
(I138
I2
I12
I57
tp2358
sg8
(lp2359
(I140
I200
tp2360
a(I67
I151
tp2361
a(I90
I200
tp2362
a(I122
I155
tp2363
a(I99
I200
tp2364
a(I73
I181
tp2365
a(I108
I179
tp2366
asg16
I200
sba(imain2
Polygon
p2367
(dp2368
g3
(I149
I42
tp2369
sg5
I200
sg6
(I90
I11
I52
I51
tp2370
sg8
(lp2371
(I99
I9
tp2372
a(I127
I88
tp2373
a(I167
I91
tp2374
a(I167
I66
tp2375
a(I135
I17
tp2376
a(I152
I62
tp2377
a(I122
I42
tp2378
a(I150
I53
tp2379
asg16
I200
sba(imain2
Polygon
p2380
(dp2381
g3
(I18
I189
tp2382
sg5
I200
sg6
(I70
I6
I170
I1
tp2383
sg8
(lp2384
(I0
I200
tp2385
a(I36
I189
tp2386
a(I61
I197
tp2387
a(I12
I200
tp2388
a(I0
I200
tp2389
a(I5
I167
tp2390
a(I59
I181
tp2391
a(I13
I200
tp2392
a(I0
I179
tp2393
a(I0
I167
tp2394
a(I68
I200
tp2395
a(I56
I183
tp2396
a(I0
I162
tp2397
a(I19
I163
tp2398
a(I0
I178
tp2399
asg16
I200
sba(imain2
Polygon
p2400
(dp2401
g3
(I88
I199
tp2402
sg5
I200
sg6
(I15
I198
I77
I71
tp2403
sg8
(lp2404
(I40
I200
tp2405
a(I133
I200
tp2406
a(I89
I200
tp2407
a(I46
I200
tp2408
a(I126
I200
tp2409
a(I62
I200
tp2410
a(I70
I200
tp2411
a(I84
I200
tp2412
asg16
I200
sba(imain2
Polygon
p2413
(dp2414
g3
(I57
I178
tp2415
sg5
I200
sg6
(I19
I117
I162
I1
tp2416
sg8
(lp2417
(I54
I200
tp2418
a(I21
I164
tp2419
a(I14
I171
tp2420
a(I47
I135
tp2421
a(I105
I163
tp2422
asg16
I200
sba(imain2
Polygon
p2423
(dp2424
g3
(I192
I63
tp2425
sg5
I200
sg6
(I115
I239
I123
I104
tp2426
sg8
(lp2427
(I200
I102
tp2428
a(I200
I19
tp2429
a(I200
I19
tp2430
a(I169
I43
tp2431
a(I142
I25
tp2432
a(I200
I102
tp2433
a(I161
I50
tp2434
a(I175
I96
tp2435
a(I200
I41
tp2436
a(I181
I96
tp2437
asg16
I200
sba(imain2
Polygon
p2438
(dp2439
g3
(I115
I149
tp2440
sg5
I200
sg6
(I104
I195
I238
I1
tp2441
sg8
(lp2442
(I118
I155
tp2443
a(I138
I198
tp2444
a(I102
I100
tp2445
a(I125
I181
tp2446
a(I129
I132
tp2447
a(I84
I110
tp2448
a(I68
I102
tp2449
a(I85
I145
tp2450
a(I77
I169
tp2451
a(I130
I139
tp2452
asg16
I200
sba(imain2
Polygon
p2453
(dp2454
g3
(I89
I107
tp2455
sg5
I200
sg6
(I30
I9
I109
I94
tp2456
sg8
(lp2457
(I137
I85
tp2458
a(I127
I58
tp2459
a(I139
I80
tp2460
asg16
I200
sba(imain2
Polygon
p2461
(dp2462
g3
(I87
I130
tp2463
sg5
I200
sg6
(I167
I109
I147
I0
tp2464
sg8
(lp2465
(I42
I113
tp2466
a(I49
I92
tp2467
a(I69
I137
tp2468
a(I111
I140
tp2469
a(I96
I151
tp2470
a(I132
I117
tp2471
a(I132
I175
tp2472
a(I53
I89
tp2473
a(I87
I102
tp2474
asg16
I200
sba(imain2
Polygon
p2475
(dp2476
g3
(I62
I187
tp2477
sg5
I200
sg6
(I112
I14
I175
I49
tp2478
sg8
(lp2479
(I22
I200
tp2480
a(I110
I200
tp2481
a(I38
I200
tp2482
a(I77
I200
tp2483
a(I98
I200
tp2484
a(I71
I196
tp2485
a(I71
I200
tp2486
a(I13
I197
tp2487
a(I69
I200
tp2488
a(I45
I197
tp2489
a(I72
I200
tp2490
asg16
I200
sba(imain2
Polygon
p2491
(dp2492
g3
(I59
I26
tp2493
sg5
I200
sg6
(I57
I3
I237
I0
tp2494
sg8
(lp2495
(I109
I0
tp2496
a(I70
I14
tp2497
a(I81
I0
tp2498
a(I76
I0
tp2499
a(I104
I10
tp2500
a(I79
I61
tp2501
a(I80
I5
tp2502
a(I41
I24
tp2503
a(I79
I33
tp2504
asg16
I200
sba(imain2
Polygon
p2505
(dp2506
g3
(I74
I59
tp2507
sg5
I200
sg6
(I1
I47
I103
I0
tp2508
sg8
(lp2509
(I84
I47
tp2510
a(I36
I36
tp2511
a(I99
I13
tp2512
a(I105
I104
tp2513
a(I79
I79
tp2514
a(I93
I23
tp2515
a(I39
I17
tp2516
a(I27
I50
tp2517
a(I114
I66
tp2518
a(I44
I35
tp2519
asg16
I200
sba(imain2
Polygon
p2520
(dp2521
g3
(I141
I175
tp2522
sg5
I200
sg6
(I85
I37
I8
I0
tp2523
sg8
(lp2524
(I169
I200
tp2525
a(I134
I138
tp2526
a(I119
I183
tp2527
a(I149
I186
tp2528
a(I115
I184
tp2529
a(I149
I162
tp2530
a(I140
I164
tp2531
a(I169
I161
tp2532
a(I160
I187
tp2533
a(I128
I200
tp2534
a(I160
I169
tp2535
a(I136
I145
tp2536
a(I137
I186
tp2537
a(I136
I165
tp2538
a(I143
I165
tp2539
a(I94
I176
tp2540
a(I103
I156
tp2541
a(I146
I197
tp2542
a(I167
I133
tp2543
asg16
I200
sba(imain2
Polygon
p2544
(dp2545
g3
(I114
I81
tp2546
sg5
I200
sg6
(I234
I16
I199
I70
tp2547
sg8
(lp2548
(I121
I101
tp2549
a(I81
I76
tp2550
a(I125
I101
tp2551
a(I121
I83
tp2552
asg16
I200
sba(imain2
Polygon
p2553
(dp2554
g3
(I191
I128
tp2555
sg5
I200
sg6
(I243
I3
I243
I6
tp2556
sg8
(lp2557
(I200
I162
tp2558
a(I144
I170
tp2559
a(I200
I89
tp2560
a(I200
I148
tp2561
a(I153
I103
tp2562
a(I147
I78
tp2563
a(I167
I95
tp2564
asg16
I200
sba(imain2
Polygon
p2565
(dp2566
g3
(I40
I13
tp2567
sg5
I200
sg6
(I68
I180
I117
I1
tp2568
sg8
(lp2569
(I68
I50
tp2570
a(I55
I33
tp2571
a(I62
I16
tp2572
a(I0
I0
tp2573
a(I84
I0
tp2574
a(I0
I0
tp2575
a(I29
I47
tp2576
a(I0
I0
tp2577
a(I67
I7
tp2578
a(I68
I27
tp2579
a(I75
I36
tp2580
a(I7
I27
tp2581
a(I0
I43
tp2582
a(I65
I44
tp2583
a(I76
I0
tp2584
a(I0
I0
tp2585
a(I40
I25
tp2586
a(I0
I0
tp2587
a(I27
I8
tp2588
a(I53
I0
tp2589
a(I12
I0
tp2590
asg16
I200
sba(imain2
Polygon
p2591
(dp2592
g3
(I50
I145
tp2593
sg5
I200
sg6
(I54
I210
I123
I8
tp2594
sg8
(lp2595
(I3
I96
tp2596
a(I87
I159
tp2597
a(I82
I95
tp2598
asg16
I200
sba(imain2
Polygon
p2599
(dp2600
g3
(I184
I69
tp2601
sg5
I200
sg6
(I121
I136
I35
I141
tp2602
sg8
(lp2603
(I200
I63
tp2604
a(I200
I31
tp2605
a(I200
I33
tp2606
a(I200
I67
tp2607
a(I164
I71
tp2608
a(I174
I114
tp2609
a(I200
I115
tp2610
a(I200
I62
tp2611
a(I195
I79
tp2612
asg16
I200
sba(imain2
Polygon
p2613
(dp2614
g3
(I6
I29
tp2615
sg5
I200
sg6
(I137
I34
I214
I1
tp2616
sg8
(lp2617
(I56
I14
tp2618
a(I22
I17
tp2619
a(I0
I41
tp2620
a(I0
I11
tp2621
a(I48
I0
tp2622
a(I28
I0
tp2623
asg16
I200
sba(imain2
Polygon
p2624
(dp2625
g3
(I100
I197
tp2626
sg5
I200
sg6
(I28
I135
I60
I69
tp2627
sg8
(lp2628
(I123
I200
tp2629
a(I79
I200
tp2630
a(I130
I200
tp2631
a(I68
I200
tp2632
a(I62
I200
tp2633
a(I147
I200
tp2634
asg16
I200
sba(imain2
Polygon
p2635
(dp2636
g3
(I102
I67
tp2637
sg5
I200
sg6
(I107
I63
I86
I0
tp2638
sg8
(lp2639
(I136
I109
tp2640
a(I146
I64
tp2641
a(I144
I70
tp2642
a(I83
I63
tp2643
a(I116
I116
tp2644
a(I84
I99
tp2645
a(I85
I70
tp2646
a(I138
I88
tp2647
asg16
I200
sba(imain2
Polygon
p2648
(dp2649
g3
(I91
I124
tp2650
sg5
I200
sg6
(I165
I66
I8
I107
tp2651
sg8
(lp2652
(I41
I114
tp2653
a(I80
I127
tp2654
a(I83
I75
tp2655
a(I119
I114
tp2656
a(I115
I160
tp2657
a(I45
I142
tp2658
a(I66
I81
tp2659
a(I119
I80
tp2660
a(I129
I117
tp2661
a(I81
I119
tp2662
a(I76
I76
tp2663
a(I54
I89
tp2664
a(I76
I94
tp2665
a(I51
I90
tp2666
asg16
I200
sba(imain2
Polygon
p2667
(dp2668
g3
(I133
I74
tp2669
sg5
I200
sg6
(I15
I173
I90
I0
tp2670
sg8
(lp2671
(I93
I104
tp2672
a(I116
I102
tp2673
a(I97
I91
tp2674
a(I157
I40
tp2675
a(I132
I33
tp2676
a(I106
I93
tp2677
a(I153
I122
tp2678
a(I137
I81
tp2679
a(I153
I42
tp2680
a(I90
I44
tp2681
a(I181
I26
tp2682
a(I134
I86
tp2683
a(I154
I71
tp2684
a(I166
I88
tp2685
a(I129
I45
tp2686
asg16
I200
sba(imain2
Polygon
p2687
(dp2688
g3
(I181
I185
tp2689
sg5
I200
sg6
(I0
I135
I60
I0
tp2690
sg8
(lp2691
(I192
I200
tp2692
a(I197
I153
tp2693
a(I200
I157
tp2694
asg16
I200
sba(imain2
Polygon
p2695
(dp2696
g3
(I3
I9
tp2697
sg5
I200
sg6
(I112
I13
I41
I108
tp2698
sg8
(lp2699
(I0
I0
tp2700
a(I49
I0
tp2701
a(I0
I0
tp2702
asg16
I200
sba(imain2
Polygon
p2703
(dp2704
g3
(I154
I22
tp2705
sg5
I200
sg6
(I80
I179
I129
I0
tp2706
sg8
(lp2707
(I198
I49
tp2708
a(I180
I27
tp2709
a(I193
I61
tp2710
a(I124
I56
tp2711
a(I149
I0
tp2712
asg16
I200
sba(imain2
Polygon
p2713
(dp2714
g3
(I3
I51
tp2715
sg5
I200
sg6
(I8
I164
I11
I24
tp2716
sg8
(lp2717
(I0
I63
tp2718
a(I0
I78
tp2719
a(I0
I34
tp2720
a(I0
I93
tp2721
asg16
I200
sba(imain2
Polygon
p2722
(dp2723
g3
(I183
I123
tp2724
sg5
I200
sg6
(I43
I171
I187
I87
tp2725
sg8
(lp2726
(I200
I171
tp2727
a(I200
I140
tp2728
a(I200
I152
tp2729
asg16
I200
sba.