(lp0
(imain2
Polygon
p1
(dp2
S'origin'
p3
(I0
I88
tp4
sS'h'
p5
I200
sS'color'
p6
(I56
I60
I251
I79
tp7
sS'corner_list'
p8
(lp9
(I5
I117
tp10
a(I0
I105
tp11
a(I0
I98
tp12
a(I47
I94
tp13
a(I39
I103
tp14
a(I0
I54
tp15
a(I0
I39
tp16
a(I5
I138
tp17
a(I0
I79
tp18
a(I0
I121
tp19
asS'w'
p20
I200
sba(imain2
Polygon
p21
(dp22
g3
(I80
I85
tp23
sg5
I200
sg6
(I196
I72
I122
I112
tp24
sg8
(lp25
(I114
I62
tp26
a(I80
I106
tp27
a(I115
I36
tp28
a(I123
I49
tp29
a(I94
I104
tp30
a(I96
I103
tp31
a(I106
I47
tp32
a(I111
I125
tp33
a(I52
I122
tp34
a(I77
I101
tp35
asg20
I200
sba(imain2
Polygon
p36
(dp37
g3
(I172
I130
tp38
sg5
I200
sg6
(I125
I137
I206
I197
tp39
sg8
(lp40
(I141
I139
tp41
a(I135
I104
tp42
a(I185
I93
tp43
a(I147
I125
tp44
a(I171
I147
tp45
a(I200
I119
tp46
a(I200
I138
tp47
a(I200
I172
tp48
a(I176
I156
tp49
a(I135
I171
tp50
asg20
I200
sba(imain2
Polygon
p51
(dp52
g3
(I109
I182
tp53
sg5
I200
sg6
(I52
I153
I74
I148
tp54
sg8
(lp55
(I127
I200
tp56
a(I72
I200
tp57
a(I159
I200
tp58
a(I68
I154
tp59
a(I125
I179
tp60
a(I113
I167
tp61
a(I144
I200
tp62
a(I100
I139
tp63
a(I86
I200
tp64
a(I137
I200
tp65
asg20
I200
sba(imain2
Polygon
p66
(dp67
g3
(I7
I57
tp68
sg5
I200
sg6
(I46
I79
I151
I125
tp69
sg8
(lp70
(I0
I42
tp71
a(I0
I18
tp72
a(I47
I38
tp73
a(I24
I104
tp74
a(I14
I31
tp75
a(I51
I46
tp76
a(I50
I9
tp77
a(I0
I33
tp78
a(I48
I41
tp79
a(I0
I104
tp80
asg20
I200
sba(imain2
Polygon
p81
(dp82
g3
(I51
I186
tp83
sg5
I200
sg6
(I66
I135
I75
I88
tp84
sg8
(lp85
(I58
I200
tp86
a(I54
I166
tp87
a(I83
I139
tp88
a(I4
I142
tp89
a(I79
I157
tp90
a(I58
I200
tp91
a(I23
I200
tp92
a(I51
I177
tp93
a(I74
I200
tp94
a(I3
I180
tp95
asg20
I200
sba(imain2
Polygon
p96
(dp97
g3
(I60
I141
tp98
sg5
I200
sg6
(I157
I175
I16
I151
tp99
sg8
(lp100
(I27
I173
tp101
a(I36
I129
tp102
a(I98
I186
tp103
a(I108
I178
tp104
a(I50
I179
tp105
a(I51
I144
tp106
a(I105
I92
tp107
a(I58
I92
tp108
a(I73
I114
tp109
a(I69
I93
tp110
asg20
I200
sba(imain2
Polygon
p111
(dp112
g3
(I109
I25
tp113
sg5
I200
sg6
(I42
I201
I224
I236
tp114
sg8
(lp115
(I159
I28
tp116
a(I111
I39
tp117
a(I133
I0
tp118
a(I93
I28
tp119
a(I87
I2
tp120
a(I144
I74
tp121
a(I107
I74
tp122
a(I110
I61
tp123
a(I114
I0
tp124
a(I64
I44
tp125
asg20
I200
sba(imain2
Polygon
p126
(dp127
g3
(I145
I19
tp128
sg5
I200
sg6
(I183
I126
I194
I191
tp129
sg8
(lp130
(I99
I0
tp131
a(I134
I32
tp132
a(I162
I6
tp133
a(I99
I0
tp134
a(I128
I69
tp135
a(I131
I6
tp136
a(I131
I67
tp137
a(I188
I66
tp138
a(I152
I0
tp139
a(I98
I24
tp140
asg20
I200
sba(imain2
Polygon
p141
(dp142
g3
(I196
I131
tp143
sg5
I200
sg6
(I112
I254
I94
I246
tp144
sg8
(lp145
(I200
I132
tp146
a(I171
I88
tp147
a(I174
I133
tp148
a(I188
I115
tp149
a(I200
I160
tp150
a(I200
I132
tp151
a(I184
I100
tp152
a(I200
I128
tp153
a(I200
I86
tp154
a(I147
I149
tp155
asg20
I200
sba(imain2
Polygon
p156
(dp157
g3
(I154
I4
tp158
sg5
I200
sg6
(I98
I123
I145
I210
tp159
sg8
(lp160
(I200
I0
tp161
a(I158
I0
tp162
a(I190
I35
tp163
a(I175
I39
tp164
a(I105
I0
tp165
a(I189
I37
tp166
a(I196
I0
tp167
a(I122
I34
tp168
a(I126
I0
tp169
a(I138
I50
tp170
asg20
I200
sba(imain2
Polygon
p171
(dp172
g3
(I18
I193
tp173
sg5
I200
sg6
(I192
I144
I236
I50
tp174
sg8
(lp175
(I0
I153
tp176
a(I15
I200
tp177
a(I56
I195
tp178
a(I64
I200
tp179
a(I4
I200
tp180
a(I40
I195
tp181
a(I0
I175
tp182
a(I35
I180
tp183
a(I0
I171
tp184
a(I18
I169
tp185
asg20
I200
sba(imain2
Polygon
p186
(dp187
g3
(I93
I159
tp188
sg5
I200
sg6
(I103
I184
I0
I149
tp189
sg8
(lp190
(I43
I198
tp191
a(I141
I149
tp192
a(I93
I177
tp193
a(I142
I200
tp194
a(I133
I167
tp195
a(I79
I130
tp196
a(I130
I200
tp197
a(I131
I194
tp198
a(I62
I115
tp199
a(I48
I160
tp200
asg20
I200
sba(imain2
Polygon
p201
(dp202
g3
(I61
I171
tp203
sg5
I200
sg6
(I253
I22
I1
I30
tp204
sg8
(lp205
(I105
I150
tp206
a(I44
I200
tp207
a(I61
I195
tp208
a(I42
I159
tp209
a(I82
I200
tp210
a(I96
I171
tp211
a(I41
I132
tp212
a(I85
I200
tp213
a(I14
I150
tp214
a(I66
I196
tp215
asg20
I200
sba(imain2
Polygon
p216
(dp217
g3
(I163
I136
tp218
sg5
I200
sg6
(I103
I144
I67
I16
tp219
sg8
(lp220
(I200
I139
tp221
a(I152
I92
tp222
a(I119
I135
tp223
a(I142
I144
tp224
a(I173
I164
tp225
a(I181
I158
tp226
a(I123
I146
tp227
a(I159
I91
tp228
a(I158
I186
tp229
a(I192
I143
tp230
asg20
I200
sba(imain2
Polygon
p231
(dp232
g3
(I66
I155
tp233
sg5
I200
sg6
(I24
I121
I116
I211
tp234
sg8
(lp235
(I51
I181
tp236
a(I69
I182
tp237
a(I30
I161
tp238
a(I76
I147
tp239
a(I56
I111
tp240
a(I40
I163
tp241
a(I25
I118
tp242
a(I38
I175
tp243
a(I80
I167
tp244
a(I33
I158
tp245
asg20
I200
sba(imain2
Polygon
p246
(dp247
g3
(I159
I43
tp248
sg5
I200
sg6
(I244
I207
I201
I216
tp249
sg8
(lp250
(I160
I16
tp251
a(I200
I93
tp252
a(I188
I0
tp253
a(I112
I29
tp254
a(I192
I38
tp255
a(I121
I67
tp256
a(I195
I57
tp257
a(I151
I3
tp258
a(I110
I14
tp259
a(I200
I91
tp260
asg20
I200
sba(imain2
Polygon
p261
(dp262
g3
(I51
I109
tp263
sg5
I200
sg6
(I95
I103
I41
I145
tp264
sg8
(lp265
(I92
I138
tp266
a(I60
I78
tp267
a(I62
I81
tp268
a(I45
I67
tp269
a(I65
I117
tp270
a(I55
I148
tp271
a(I24
I137
tp272
a(I28
I87
tp273
a(I28
I157
tp274
a(I44
I128
tp275
asg20
I200
sba(imain2
Polygon
p276
(dp277
g3
(I187
I199
tp278
sg5
I200
sg6
(I16
I233
I175
I215
tp279
sg8
(lp280
(I200
I200
tp281
a(I191
I190
tp282
a(I200
I200
tp283
a(I194
I154
tp284
a(I200
I200
tp285
a(I200
I159
tp286
a(I194
I198
tp287
a(I200
I163
tp288
a(I190
I189
tp289
a(I153
I200
tp290
asg20
I200
sba(imain2
Polygon
p291
(dp292
g3
(I151
I138
tp293
sg5
I200
sg6
(I70
I159
I221
I117
tp294
sg8
(lp295
(I156
I122
tp296
a(I101
I172
tp297
a(I178
I121
tp298
a(I137
I169
tp299
a(I122
I170
tp300
a(I135
I121
tp301
a(I171
I142
tp302
a(I139
I133
tp303
a(I153
I157
tp304
a(I187
I122
tp305
asg20
I200
sba(imain2
Polygon
p306
(dp307
g3
(I8
I25
tp308
sg5
I200
sg6
(I177
I190
I43
I66
tp309
sg8
(lp310
(I56
I48
tp311
a(I51
I0
tp312
a(I0
I46
tp313
a(I12
I59
tp314
a(I0
I61
tp315
a(I0
I0
tp316
a(I48
I42
tp317
a(I0
I3
tp318
a(I25
I28
tp319
a(I47
I21
tp320
asg20
I200
sba(imain2
Polygon
p321
(dp322
g3
(I84
I52
tp323
sg5
I200
sg6
(I92
I13
I50
I242
tp324
sg8
(lp325
(I83
I26
tp326
a(I87
I61
tp327
a(I92
I10
tp328
a(I131
I21
tp329
a(I79
I8
tp330
a(I57
I7
tp331
a(I75
I18
tp332
a(I61
I38
tp333
a(I115
I36
tp334
a(I45
I102
tp335
asg20
I200
sba(imain2
Polygon
p336
(dp337
g3
(I76
I58
tp338
sg5
I200
sg6
(I77
I100
I168
I56
tp339
sg8
(lp340
(I75
I40
tp341
a(I52
I71
tp342
a(I53
I78
tp343
a(I97
I85
tp344
a(I97
I103
tp345
a(I124
I79
tp346
a(I53
I104
tp347
a(I73
I40
tp348
a(I59
I11
tp349
a(I114
I84
tp350
asg20
I200
sba(imain2
Polygon
p351
(dp352
g3
(I165
I31
tp353
sg5
I200
sg6
(I192
I98
I198
I244
tp354
sg8
(lp355
(I200
I56
tp356
a(I143
I59
tp357
a(I142
I60
tp358
a(I127
I75
tp359
a(I164
I37
tp360
a(I125
I63
tp361
a(I196
I55
tp362
a(I123
I0
tp363
a(I179
I0
tp364
a(I153
I51
tp365
asg20
I200
sba(imain2
Polygon
p366
(dp367
g3
(I27
I162
tp368
sg5
I200
sg6
(I90
I146
I125
I207
tp369
sg8
(lp370
(I22
I164
tp371
a(I0
I119
tp372
a(I0
I177
tp373
a(I41
I166
tp374
a(I0
I167
tp375
a(I45
I153
tp376
a(I44
I185
tp377
a(I31
I127
tp378
a(I0
I200
tp379
a(I34
I119
tp380
asg20
I200
sba(imain2
Polygon
p381
(dp382
g3
(I134
I68
tp383
sg5
I200
sg6
(I65
I148
I223
I182
tp384
sg8
(lp385
(I100
I87
tp386
a(I103
I27
tp387
a(I121
I103
tp388
a(I92
I105
tp389
a(I157
I112
tp390
a(I107
I39
tp391
a(I139
I24
tp392
a(I156
I98
tp393
a(I107
I60
tp394
a(I113
I63
tp395
asg20
I200
sba(imain2
Polygon
p396
(dp397
g3
(I152
I45
tp398
sg5
I200
sg6
(I25
I204
I65
I187
tp399
sg8
(lp400
(I131
I17
tp401
a(I149
I76
tp402
a(I199
I30
tp403
a(I181
I55
tp404
a(I132
I25
tp405
a(I186
I37
tp406
a(I119
I70
tp407
a(I157
I64
tp408
a(I117
I0
tp409
a(I135
I94
tp410
asg20
I200
sba(imain2
Polygon
p411
(dp412
g3
(I32
I136
tp413
sg5
I200
sg6
(I161
I149
I141
I123
tp414
sg8
(lp415
(I0
I146
tp416
a(I29
I137
tp417
a(I72
I152
tp418
a(I2
I184
tp419
a(I57
I162
tp420
a(I47
I145
tp421
a(I0
I177
tp422
a(I51
I170
tp423
a(I56
I108
tp424
a(I63
I117
tp425
asg20
I200
sba(imain2
Polygon
p426
(dp427
g3
(I109
I133
tp428
sg5
I200
sg6
(I183
I164
I155
I168
tp429
sg8
(lp430
(I62
I91
tp431
a(I129
I89
tp432
a(I81
I142
tp433
a(I93
I103
tp434
a(I148
I134
tp435
a(I131
I117
tp436
a(I136
I155
tp437
a(I96
I120
tp438
a(I69
I146
tp439
a(I148
I85
tp440
asg20
I200
sba(imain2
Polygon
p441
(dp442
g3
(I70
I25
tp443
sg5
I200
sg6
(I58
I240
I67
I206
tp444
sg8
(lp445
(I27
I67
tp446
a(I36
I8
tp447
a(I60
I55
tp448
a(I55
I35
tp449
a(I69
I57
tp450
a(I95
I16
tp451
a(I89
I10
tp452
a(I28
I0
tp453
a(I101
I54
tp454
a(I58
I0
tp455
asg20
I200
sba(imain2
Polygon
p456
(dp457
g3
(I17
I124
tp458
sg5
I200
sg6
(I172
I99
I135
I15
tp459
sg8
(lp460
(I13
I153
tp461
a(I0
I74
tp462
a(I25
I147
tp463
a(I54
I95
tp464
a(I18
I171
tp465
a(I2
I160
tp466
a(I0
I146
tp467
a(I0
I150
tp468
a(I58
I75
tp469
a(I65
I147
tp470
asg20
I200
sba(imain2
Polygon
p471
(dp472
g3
(I85
I11
tp473
sg5
I200
sg6
(I4
I233
I128
I243
tp474
sg8
(lp475
(I38
I14
tp476
a(I116
I0
tp477
a(I117
I0
tp478
a(I120
I46
tp479
a(I126
I0
tp480
a(I112
I14
tp481
a(I36
I0
tp482
a(I125
I0
tp483
a(I111
I36
tp484
a(I65
I0
tp485
asg20
I200
sba(imain2
Polygon
p486
(dp487
g3
(I3
I39
tp488
sg5
I200
sg6
(I245
I232
I171
I191
tp489
sg8
(lp490
(I0
I7
tp491
a(I0
I42
tp492
a(I0
I61
tp493
a(I19
I66
tp494
a(I6
I47
tp495
a(I30
I31
tp496
a(I41
I5
tp497
a(I0
I33
tp498
a(I0
I24
tp499
a(I13
I41
tp500
asg20
I200
sba(imain2
Polygon
p501
(dp502
g3
(I104
I51
tp503
sg5
I200
sg6
(I194
I109
I231
I82
tp504
sg8
(lp505
(I106
I23
tp506
a(I70
I96
tp507
a(I80
I60
tp508
a(I132
I26
tp509
a(I65
I30
tp510
a(I114
I44
tp511
a(I128
I95
tp512
a(I95
I89
tp513
a(I121
I97
tp514
a(I146
I65
tp515
asg20
I200
sba(imain2
Polygon
p516
(dp517
g3
(I2
I107
tp518
sg5
I200
sg6
(I253
I136
I148
I74
tp519
sg8
(lp520
(I0
I140
tp521
a(I0
I104
tp522
a(I0
I68
tp523
a(I44
I57
tp524
a(I0
I92
tp525
a(I0
I125
tp526
a(I37
I62
tp527
a(I0
I94
tp528
a(I14
I135
tp529
a(I46
I57
tp530
asg20
I200
sba(imain2
Polygon
p531
(dp532
g3
(I103
I9
tp533
sg5
I200
sg6
(I35
I86
I202
I115
tp534
sg8
(lp535
(I76
I52
tp536
a(I102
I43
tp537
a(I103
I49
tp538
a(I98
I3
tp539
a(I132
I13
tp540
a(I90
I55
tp541
a(I62
I0
tp542
a(I146
I31
tp543
a(I79
I0
tp544
a(I142
I4
tp545
asg20
I200
sba(imain2
Polygon
p546
(dp547
g3
(I55
I193
tp548
sg5
I200
sg6
(I109
I8
I91
I29
tp549
sg8
(lp550
(I91
I152
tp551
a(I43
I200
tp552
a(I64
I154
tp553
a(I61
I182
tp554
a(I84
I200
tp555
a(I59
I187
tp556
a(I36
I163
tp557
a(I87
I200
tp558
a(I89
I187
tp559
a(I60
I197
tp560
asg20
I200
sba(imain2
Polygon
p561
(dp562
g3
(I133
I76
tp563
sg5
I200
sg6
(I138
I2
I240
I72
tp564
sg8
(lp565
(I135
I26
tp566
a(I95
I84
tp567
a(I95
I108
tp568
a(I91
I61
tp569
a(I167
I48
tp570
a(I101
I45
tp571
a(I168
I46
tp572
a(I146
I48
tp573
a(I84
I106
tp574
a(I178
I31
tp575
asg20
I200
sba(imain2
Polygon
p576
(dp577
g3
(I124
I27
tp578
sg5
I200
sg6
(I114
I121
I51
I87
tp579
sg8
(lp580
(I120
I44
tp581
a(I170
I0
tp582
a(I118
I71
tp583
a(I102
I27
tp584
a(I110
I4
tp585
a(I171
I43
tp586
a(I92
I0
tp587
a(I167
I28
tp588
a(I147
I7
tp589
a(I161
I11
tp590
asg20
I200
sba(imain2
Polygon
p591
(dp592
g3
(I171
I164
tp593
sg5
I200
sg6
(I229
I7
I35
I121
tp594
sg8
(lp595
(I200
I188
tp596
a(I144
I119
tp597
a(I160
I135
tp598
a(I185
I170
tp599
a(I167
I200
tp600
a(I200
I125
tp601
a(I174
I164
tp602
a(I179
I200
tp603
a(I197
I173
tp604
a(I200
I156
tp605
asg20
I200
sba(imain2
Polygon
p606
(dp607
g3
(I136
I162
tp608
sg5
I200
sg6
(I92
I70
I46
I16
tp609
sg8
(lp610
(I89
I155
tp611
a(I127
I142
tp612
a(I118
I158
tp613
a(I148
I157
tp614
a(I125
I154
tp615
a(I88
I168
tp616
a(I115
I194
tp617
a(I137
I128
tp618
a(I119
I129
tp619
a(I155
I175
tp620
asg20
I200
sba(imain2
Polygon
p621
(dp622
g3
(I13
I196
tp623
sg5
I200
sg6
(I63
I248
I176
I165
tp624
sg8
(lp625
(I30
I200
tp626
a(I48
I165
tp627
a(I48
I196
tp628
a(I0
I194
tp629
a(I0
I149
tp630
a(I0
I200
tp631
a(I7
I200
tp632
a(I0
I166
tp633
a(I0
I151
tp634
a(I45
I200
tp635
asg20
I200
sba(imain2
Polygon
p636
(dp637
g3
(I155
I55
tp638
sg5
I200
sg6
(I159
I138
I34
I74
tp639
sg8
(lp640
(I180
I55
tp641
a(I194
I40
tp642
a(I159
I10
tp643
a(I176
I24
tp644
a(I132
I101
tp645
a(I132
I36
tp646
a(I189
I86
tp647
a(I182
I81
tp648
a(I133
I27
tp649
a(I121
I30
tp650
asg20
I200
sba(imain2
Polygon
p651
(dp652
g3
(I105
I2
tp653
sg5
I200
sg6
(I46
I155
I73
I182
tp654
sg8
(lp655
(I101
I0
tp656
a(I134
I16
tp657
a(I71
I30
tp658
a(I71
I13
tp659
a(I82
I0
tp660
a(I119
I0
tp661
a(I77
I0
tp662
a(I152
I24
tp663
a(I98
I7
tp664
a(I98
I19
tp665
asg20
I200
sba(imain2
Polygon
p666
(dp667
g3
(I49
I96
tp668
sg5
I200
sg6
(I174
I137
I132
I164
tp669
sg8
(lp670
(I96
I138
tp671
a(I83
I110
tp672
a(I77
I66
tp673
a(I98
I139
tp674
a(I76
I110
tp675
a(I8
I77
tp676
a(I74
I96
tp677
a(I33
I58
tp678
a(I86
I48
tp679
a(I5
I121
tp680
asg20
I200
sba(imain2
Polygon
p681
(dp682
g3
(I191
I29
tp683
sg5
I200
sg6
(I1
I172
I229
I169
tp684
sg8
(lp685
(I158
I22
tp686
a(I200
I74
tp687
a(I200
I0
tp688
a(I192
I51
tp689
a(I165
I0
tp690
a(I171
I0
tp691
a(I200
I25
tp692
a(I193
I72
tp693
a(I200
I23
tp694
a(I200
I65
tp695
asg20
I200
sba(imain2
Polygon
p696
(dp697
g3
(I176
I114
tp698
sg5
I200
sg6
(I107
I145
I172
I169
tp699
sg8
(lp700
(I135
I82
tp701
a(I172
I145
tp702
a(I195
I64
tp703
a(I188
I110
tp704
a(I200
I94
tp705
a(I173
I155
tp706
a(I132
I116
tp707
a(I144
I134
tp708
a(I152
I90
tp709
a(I170
I89
tp710
asg20
I200
sba(imain2
Polygon
p711
(dp712
g3
(I155
I19
tp713
sg5
I200
sg6
(I194
I97
I129
I181
tp714
sg8
(lp715
(I112
I64
tp716
a(I133
I0
tp717
a(I191
I0
tp718
a(I114
I42
tp719
a(I116
I29
tp720
a(I156
I49
tp721
a(I190
I0
tp722
a(I171
I59
tp723
a(I115
I42
tp724
a(I175
I63
tp725
asg20
I200
sba(imain2
Polygon
p726
(dp727
g3
(I124
I183
tp728
sg5
I200
sg6
(I175
I200
I246
I24
tp729
sg8
(lp730
(I155
I188
tp731
a(I153
I186
tp732
a(I84
I135
tp733
a(I158
I158
tp734
a(I78
I200
tp735
a(I81
I172
tp736
a(I161
I200
tp737
a(I82
I159
tp738
a(I116
I193
tp739
a(I93
I196
tp740
asg20
I200
sba(imain2
Polygon
p741
(dp742
g3
(I25
I87
tp743
sg5
I200
sg6
(I8
I82
I170
I185
tp744
sg8
(lp745
(I55
I120
tp746
a(I0
I91
tp747
a(I0
I78
tp748
a(I62
I118
tp749
a(I56
I91
tp750
a(I0
I80
tp751
a(I22
I85
tp752
a(I6
I122
tp753
a(I8
I39
tp754
a(I30
I101
tp755
asg20
I200
sba(imain2
Polygon
p756
(dp757
g3
(I53
I32
tp758
sg5
I200
sg6
(I31
I56
I115
I189
tp759
sg8
(lp760
(I79
I0
tp761
a(I94
I74
tp762
a(I53
I44
tp763
a(I14
I0
tp764
a(I70
I11
tp765
a(I73
I67
tp766
a(I82
I49
tp767
a(I84
I38
tp768
a(I44
I51
tp769
a(I66
I0
tp770
asg20
I200
sba(imain2
Polygon
p771
(dp772
g3
(I19
I99
tp773
sg5
I200
sg6
(I155
I214
I210
I57
tp774
sg8
(lp775
(I61
I69
tp776
a(I24
I141
tp777
a(I59
I73
tp778
a(I32
I71
tp779
a(I10
I94
tp780
a(I16
I115
tp781
a(I0
I94
tp782
a(I7
I80
tp783
a(I57
I101
tp784
a(I34
I61
tp785
asg20
I200
sba(imain2
Polygon
p786
(dp787
g3
(I183
I35
tp788
sg5
I200
sg6
(I175
I36
I112
I37
tp789
sg8
(lp790
(I160
I4
tp791
a(I200
I73
tp792
a(I164
I37
tp793
a(I141
I65
tp794
a(I197
I26
tp795
a(I200
I0
tp796
a(I200
I45
tp797
a(I193
I36
tp798
a(I188
I23
tp799
a(I138
I85
tp800
asg20
I200
sba(imain2
Polygon
p801
(dp802
g3
(I144
I183
tp803
sg5
I200
sg6
(I81
I86
I21
I241
tp804
sg8
(lp805
(I146
I200
tp806
a(I173
I200
tp807
a(I162
I200
tp808
a(I150
I161
tp809
a(I182
I200
tp810
a(I133
I200
tp811
a(I112
I197
tp812
a(I123
I199
tp813
a(I162
I200
tp814
a(I147
I175
tp815
asg20
I200
sba(imain2
Polygon
p816
(dp817
g3
(I73
I174
tp818
sg5
I200
sg6
(I131
I68
I193
I72
tp819
sg8
(lp820
(I49
I151
tp821
a(I99
I158
tp822
a(I44
I180
tp823
a(I87
I155
tp824
a(I48
I177
tp825
a(I121
I200
tp826
a(I74
I173
tp827
a(I24
I130
tp828
a(I42
I143
tp829
a(I100
I185
tp830
asg20
I200
sba(imain2
Polygon
p831
(dp832
g3
(I152
I116
tp833
sg5
I200
sg6
(I191
I24
I147
I153
tp834
sg8
(lp835
(I104
I117
tp836
a(I108
I80
tp837
a(I111
I88
tp838
a(I138
I161
tp839
a(I114
I112
tp840
a(I158
I147
tp841
a(I134
I102
tp842
a(I145
I94
tp843
a(I136
I73
tp844
a(I115
I117
tp845
asg20
I200
sba(imain2
Polygon
p846
(dp847
g3
(I55
I35
tp848
sg5
I200
sg6
(I105
I6
I99
I204
tp849
sg8
(lp850
(I38
I8
tp851
a(I84
I22
tp852
a(I63
I19
tp853
a(I22
I0
tp854
a(I69
I0
tp855
a(I69
I12
tp856
a(I54
I75
tp857
a(I33
I0
tp858
a(I19
I20
tp859
a(I21
I0
tp860
asg20
I200
sba(imain2
Polygon
p861
(dp862
g3
(I156
I72
tp863
sg5
I200
sg6
(I173
I124
I94
I63
tp864
sg8
(lp865
(I148
I75
tp866
a(I182
I22
tp867
a(I137
I39
tp868
a(I159
I24
tp869
a(I163
I122
tp870
a(I121
I110
tp871
a(I106
I113
tp872
a(I169
I115
tp873
a(I194
I99
tp874
a(I162
I102
tp875
asg20
I200
sba(imain2
Polygon
p876
(dp877
g3
(I130
I186
tp878
sg5
I200
sg6
(I249
I228
I85
I65
tp879
sg8
(lp880
(I82
I200
tp881
a(I167
I148
tp882
a(I83
I164
tp883
a(I161
I200
tp884
a(I155
I200
tp885
a(I151
I190
tp886
a(I96
I174
tp887
a(I111
I188
tp888
a(I144
I159
tp889
a(I125
I136
tp890
asg20
I200
sba(imain2
Polygon
p891
(dp892
g3
(I24
I16
tp893
sg5
I200
sg6
(I11
I8
I160
I10
tp894
sg8
(lp895
(I0
I2
tp896
a(I27
I14
tp897
a(I51
I43
tp898
a(I10
I0
tp899
a(I38
I0
tp900
a(I45
I6
tp901
a(I0
I0
tp902
a(I0
I8
tp903
a(I0
I0
tp904
a(I31
I0
tp905
asg20
I200
sba(imain2
Polygon
p906
(dp907
g3
(I97
I15
tp908
sg5
I200
sg6
(I13
I249
I194
I88
tp909
sg8
(lp910
(I144
I52
tp911
a(I121
I60
tp912
a(I112
I18
tp913
a(I137
I62
tp914
a(I132
I39
tp915
a(I93
I12
tp916
a(I67
I60
tp917
a(I56
I42
tp918
a(I97
I0
tp919
a(I72
I41
tp920
asg20
I200
sba(imain2
Polygon
p921
(dp922
g3
(I30
I157
tp923
sg5
I200
sg6
(I133
I184
I234
I82
tp924
sg8
(lp925
(I9
I157
tp926
a(I31
I164
tp927
a(I0
I122
tp928
a(I69
I154
tp929
a(I0
I178
tp930
a(I60
I161
tp931
a(I32
I156
tp932
a(I3
I152
tp933
a(I57
I137
tp934
a(I13
I160
tp935
asg20
I200
sba(imain2
Polygon
p936
(dp937
g3
(I157
I110
tp938
sg5
I200
sg6
(I49
I188
I141
I137
tp939
sg8
(lp940
(I160
I69
tp941
a(I178
I87
tp942
a(I188
I67
tp943
a(I142
I73
tp944
a(I161
I101
tp945
a(I170
I106
tp946
a(I200
I132
tp947
a(I109
I94
tp948
a(I129
I80
tp949
a(I200
I142
tp950
asg20
I200
sba(imain2
Polygon
p951
(dp952
g3
(I139
I145
tp953
sg5
I200
sg6
(I86
I118
I240
I225
tp954
sg8
(lp955
(I89
I194
tp956
a(I102
I110
tp957
a(I163
I129
tp958
a(I139
I117
tp959
a(I133
I164
tp960
a(I176
I172
tp961
a(I108
I170
tp962
a(I100
I148
tp963
a(I175
I153
tp964
a(I113
I171
tp965
asg20
I200
sba(imain2
Polygon
p966
(dp967
g3
(I12
I195
tp968
sg5
I200
sg6
(I41
I3
I10
I7
tp969
sg8
(lp970
(I48
I174
tp971
a(I9
I178
tp972
a(I0
I178
tp973
a(I14
I180
tp974
a(I0
I200
tp975
a(I0
I200
tp976
a(I0
I200
tp977
a(I29
I197
tp978
a(I0
I200
tp979
a(I57
I163
tp980
asg20
I200
sba(imain2
Polygon
p981
(dp982
g3
(I165
I36
tp983
sg5
I200
sg6
(I54
I85
I193
I126
tp984
sg8
(lp985
(I115
I0
tp986
a(I158
I0
tp987
a(I149
I46
tp988
a(I200
I53
tp989
a(I200
I4
tp990
a(I152
I81
tp991
a(I189
I2
tp992
a(I190
I70
tp993
a(I143
I0
tp994
a(I161
I11
tp995
asg20
I200
sba(imain2
Polygon
p996
(dp997
g3
(I34
I108
tp998
sg5
I200
sg6
(I186
I34
I5
I248
tp999
sg8
(lp1000
(I0
I88
tp1001
a(I48
I102
tp1002
a(I0
I80
tp1003
a(I77
I103
tp1004
a(I43
I143
tp1005
a(I73
I126
tp1006
a(I5
I89
tp1007
a(I13
I97
tp1008
a(I58
I64
tp1009
a(I11
I66
tp1010
asg20
I200
sba(imain2
Polygon
p1011
(dp1012
g3
(I80
I184
tp1013
sg5
I200
sg6
(I63
I128
I123
I17
tp1014
sg8
(lp1015
(I95
I200
tp1016
a(I89
I200
tp1017
a(I100
I170
tp1018
a(I53
I134
tp1019
a(I75
I200
tp1020
a(I43
I200
tp1021
a(I111
I200
tp1022
a(I70
I135
tp1023
a(I91
I180
tp1024
a(I120
I200
tp1025
asg20
I200
sba(imain2
Polygon
p1026
(dp1027
g3
(I123
I53
tp1028
sg5
I200
sg6
(I7
I160
I243
I202
tp1029
sg8
(lp1030
(I126
I61
tp1031
a(I131
I9
tp1032
a(I100
I33
tp1033
a(I91
I42
tp1034
a(I130
I22
tp1035
a(I89
I53
tp1036
a(I152
I92
tp1037
a(I144
I75
tp1038
a(I92
I90
tp1039
a(I76
I71
tp1040
asg20
I200
sba(imain2
Polygon
p1041
(dp1042
g3
(I50
I87
tp1043
sg5
I200
sg6
(I230
I156
I101
I50
tp1044
sg8
(lp1045
(I17
I42
tp1046
a(I21
I107
tp1047
a(I100
I68
tp1048
a(I73
I42
tp1049
a(I64
I132
tp1050
a(I8
I132
tp1051
a(I70
I124
tp1052
a(I19
I64
tp1053
a(I99
I69
tp1054
a(I30
I103
tp1055
asg20
I200
sba(imain2
Polygon
p1056
(dp1057
g3
(I43
I151
tp1058
sg5
I200
sg6
(I44
I196
I40
I179
tp1059
sg8
(lp1060
(I13
I187
tp1061
a(I75
I155
tp1062
a(I32
I134
tp1063
a(I81
I104
tp1064
a(I51
I143
tp1065
a(I43
I124
tp1066
a(I61
I108
tp1067
a(I24
I147
tp1068
a(I26
I148
tp1069
a(I0
I179
tp1070
asg20
I200
sba(imain2
Polygon
p1071
(dp1072
g3
(I127
I100
tp1073
sg5
I200
sg6
(I185
I221
I195
I182
tp1074
sg8
(lp1075
(I162
I64
tp1076
a(I93
I92
tp1077
a(I152
I147
tp1078
a(I140
I96
tp1079
a(I160
I116
tp1080
a(I168
I57
tp1081
a(I151
I124
tp1082
a(I120
I116
tp1083
a(I82
I83
tp1084
a(I144
I117
tp1085
asg20
I200
sba(imain2
Polygon
p1086
(dp1087
g3
(I49
I167
tp1088
sg5
I200
sg6
(I205
I229
I35
I90
tp1089
sg8
(lp1090
(I36
I165
tp1091
a(I34
I166
tp1092
a(I47
I126
tp1093
a(I42
I192
tp1094
a(I43
I187
tp1095
a(I11
I152
tp1096
a(I31
I143
tp1097
a(I21
I141
tp1098
a(I38
I200
tp1099
a(I53
I154
tp1100
asg20
I200
sba(imain2
Polygon
p1101
(dp1102
g3
(I13
I128
tp1103
sg5
I200
sg6
(I9
I202
I158
I229
tp1104
sg8
(lp1105
(I0
I133
tp1106
a(I48
I120
tp1107
a(I19
I80
tp1108
a(I0
I101
tp1109
a(I49
I128
tp1110
a(I56
I150
tp1111
a(I0
I169
tp1112
a(I0
I130
tp1113
a(I19
I139
tp1114
a(I0
I84
tp1115
asg20
I200
sba(imain2
Polygon
p1116
(dp1117
g3
(I19
I56
tp1118
sg5
I200
sg6
(I163
I31
I107
I155
tp1119
sg8
(lp1120
(I58
I87
tp1121
a(I0
I19
tp1122
a(I22
I15
tp1123
a(I38
I28
tp1124
a(I14
I40
tp1125
a(I47
I8
tp1126
a(I0
I38
tp1127
a(I51
I69
tp1128
a(I7
I98
tp1129
a(I0
I38
tp1130
asg20
I200
sba(imain2
Polygon
p1131
(dp1132
g3
(I166
I138
tp1133
sg5
I200
sg6
(I128
I7
I246
I195
tp1134
sg8
(lp1135
(I124
I128
tp1136
a(I190
I149
tp1137
a(I127
I129
tp1138
a(I165
I121
tp1139
a(I164
I180
tp1140
a(I196
I172
tp1141
a(I131
I179
tp1142
a(I150
I91
tp1143
a(I120
I118
tp1144
a(I118
I168
tp1145
asg20
I200
sba(imain2
Polygon
p1146
(dp1147
g3
(I16
I28
tp1148
sg5
I200
sg6
(I145
I29
I140
I58
tp1149
sg8
(lp1150
(I0
I0
tp1151
a(I60
I2
tp1152
a(I18
I9
tp1153
a(I43
I40
tp1154
a(I0
I0
tp1155
a(I32
I0
tp1156
a(I0
I0
tp1157
a(I22
I26
tp1158
a(I35
I66
tp1159
a(I63
I0
tp1160
asg20
I200
sba(imain2
Polygon
p1161
(dp1162
g3
(I157
I192
tp1163
sg5
I200
sg6
(I44
I25
I128
I239
tp1164
sg8
(lp1165
(I171
I200
tp1166
a(I129
I200
tp1167
a(I142
I166
tp1168
a(I200
I198
tp1169
a(I140
I158
tp1170
a(I136
I181
tp1171
a(I195
I200
tp1172
a(I200
I200
tp1173
a(I108
I200
tp1174
a(I158
I200
tp1175
asg20
I200
sba(imain2
Polygon
p1176
(dp1177
g3
(I53
I128
tp1178
sg5
I200
sg6
(I167
I9
I113
I109
tp1179
sg8
(lp1180
(I101
I170
tp1181
a(I50
I83
tp1182
a(I47
I155
tp1183
a(I10
I120
tp1184
a(I32
I110
tp1185
a(I17
I142
tp1186
a(I8
I178
tp1187
a(I78
I102
tp1188
a(I31
I83
tp1189
a(I88
I128
tp1190
asg20
I200
sba(imain2
Polygon
p1191
(dp1192
g3
(I69
I125
tp1193
sg5
I200
sg6
(I79
I219
I126
I47
tp1194
sg8
(lp1195
(I24
I151
tp1196
a(I111
I145
tp1197
a(I20
I151
tp1198
a(I91
I169
tp1199
a(I73
I139
tp1200
a(I54
I107
tp1201
a(I62
I75
tp1202
a(I104
I89
tp1203
a(I115
I170
tp1204
a(I38
I108
tp1205
asg20
I200
sba(imain2
Polygon
p1206
(dp1207
g3
(I34
I25
tp1208
sg5
I200
sg6
(I141
I18
I252
I101
tp1209
sg8
(lp1210
(I15
I22
tp1211
a(I30
I70
tp1212
a(I0
I0
tp1213
a(I57
I54
tp1214
a(I0
I0
tp1215
a(I39
I0
tp1216
a(I38
I0
tp1217
a(I21
I0
tp1218
a(I20
I62
tp1219
a(I8
I2
tp1220
asg20
I200
sba(imain2
Polygon
p1221
(dp1222
g3
(I166
I157
tp1223
sg5
I200
sg6
(I206
I211
I152
I176
tp1224
sg8
(lp1225
(I135
I183
tp1226
a(I175
I180
tp1227
a(I121
I191
tp1228
a(I200
I198
tp1229
a(I193
I136
tp1230
a(I129
I174
tp1231
a(I193
I178
tp1232
a(I198
I174
tp1233
a(I119
I137
tp1234
a(I187
I153
tp1235
asg20
I200
sba(imain2
Polygon
p1236
(dp1237
g3
(I150
I167
tp1238
sg5
I200
sg6
(I144
I131
I104
I141
tp1239
sg8
(lp1240
(I116
I172
tp1241
a(I181
I175
tp1242
a(I152
I200
tp1243
a(I136
I184
tp1244
a(I153
I200
tp1245
a(I128
I168
tp1246
a(I178
I200
tp1247
a(I100
I138
tp1248
a(I150
I157
tp1249
a(I165
I200
tp1250
asg20
I200
sba(imain2
Polygon
p1251
(dp1252
g3
(I5
I183
tp1253
sg5
I200
sg6
(I176
I82
I197
I57
tp1254
sg8
(lp1255
(I48
I144
tp1256
a(I0
I200
tp1257
a(I0
I200
tp1258
a(I0
I196
tp1259
a(I4
I136
tp1260
a(I0
I158
tp1261
a(I28
I180
tp1262
a(I0
I200
tp1263
a(I0
I159
tp1264
a(I0
I169
tp1265
asg20
I200
sba(imain2
Polygon
p1266
(dp1267
g3
(I10
I30
tp1268
sg5
I200
sg6
(I99
I57
I236
I132
tp1269
sg8
(lp1270
(I54
I15
tp1271
a(I0
I16
tp1272
a(I38
I19
tp1273
a(I17
I66
tp1274
a(I0
I18
tp1275
a(I17
I39
tp1276
a(I39
I62
tp1277
a(I7
I58
tp1278
a(I8
I0
tp1279
a(I0
I0
tp1280
asg20
I200
sba(imain2
Polygon
p1281
(dp1282
g3
(I72
I174
tp1283
sg5
I200
sg6
(I129
I210
I199
I238
tp1284
sg8
(lp1285
(I92
I176
tp1286
a(I36
I191
tp1287
a(I86
I200
tp1288
a(I67
I150
tp1289
a(I122
I155
tp1290
a(I69
I188
tp1291
a(I106
I187
tp1292
a(I121
I189
tp1293
a(I98
I200
tp1294
a(I46
I193
tp1295
asg20
I200
sba(imain2
Polygon
p1296
(dp1297
g3
(I21
I3
tp1298
sg5
I200
sg6
(I41
I170
I7
I79
tp1299
sg8
(lp1300
(I35
I0
tp1301
a(I5
I21
tp1302
a(I27
I49
tp1303
a(I43
I20
tp1304
a(I2
I0
tp1305
a(I38
I0
tp1306
a(I53
I2
tp1307
a(I5
I17
tp1308
a(I0
I23
tp1309
a(I18
I0
tp1310
asg20
I200
sba(imain2
Polygon
p1311
(dp1312
g3
(I173
I199
tp1313
sg5
I200
sg6
(I11
I20
I30
I100
tp1314
sg8
(lp1315
(I178
I192
tp1316
a(I157
I153
tp1317
a(I176
I173
tp1318
a(I156
I200
tp1319
a(I200
I200
tp1320
a(I179
I200
tp1321
a(I157
I200
tp1322
a(I153
I200
tp1323
a(I166
I164
tp1324
a(I200
I200
tp1325
asg20
I200
sba(imain2
Polygon
p1326
(dp1327
g3
(I182
I159
tp1328
sg5
I200
sg6
(I20
I163
I39
I174
tp1329
sg8
(lp1330
(I186
I186
tp1331
a(I182
I151
tp1332
a(I200
I161
tp1333
a(I174
I158
tp1334
a(I200
I148
tp1335
a(I164
I153
tp1336
a(I200
I110
tp1337
a(I156
I181
tp1338
a(I200
I170
tp1339
a(I194
I181
tp1340
asg20
I200
sba(imain2
Polygon
p1341
(dp1342
g3
(I176
I98
tp1343
sg5
I200
sg6
(I133
I241
I216
I247
tp1344
sg8
(lp1345
(I200
I145
tp1346
a(I200
I133
tp1347
a(I200
I107
tp1348
a(I135
I135
tp1349
a(I200
I53
tp1350
a(I165
I139
tp1351
a(I200
I106
tp1352
a(I200
I118
tp1353
a(I145
I140
tp1354
a(I168
I123
tp1355
asg20
I200
sba(imain2
Polygon
p1356
(dp1357
g3
(I57
I178
tp1358
sg5
I200
sg6
(I232
I222
I41
I46
tp1359
sg8
(lp1360
(I104
I159
tp1361
a(I91
I195
tp1362
a(I91
I172
tp1363
a(I32
I158
tp1364
a(I94
I200
tp1365
a(I17
I200
tp1366
a(I60
I188
tp1367
a(I84
I157
tp1368
a(I17
I200
tp1369
a(I47
I172
tp1370
asg20
I200
sba(imain2
Polygon
p1371
(dp1372
g3
(I177
I131
tp1373
sg5
I200
sg6
(I36
I125
I169
I194
tp1374
sg8
(lp1375
(I196
I165
tp1376
a(I182
I133
tp1377
a(I190
I128
tp1378
a(I200
I141
tp1379
a(I142
I181
tp1380
a(I200
I176
tp1381
a(I200
I93
tp1382
a(I200
I109
tp1383
a(I200
I153
tp1384
a(I141
I83
tp1385
asg20
I200
sba(imain2
Polygon
p1386
(dp1387
g3
(I154
I107
tp1388
sg5
I200
sg6
(I174
I84
I167
I219
tp1389
sg8
(lp1390
(I174
I93
tp1391
a(I157
I98
tp1392
a(I189
I102
tp1393
a(I170
I80
tp1394
a(I177
I123
tp1395
a(I114
I87
tp1396
a(I154
I124
tp1397
a(I200
I73
tp1398
a(I170
I156
tp1399
a(I147
I149
tp1400
asg20
I200
sba(imain2
Polygon
p1401
(dp1402
g3
(I116
I83
tp1403
sg5
I200
sg6
(I94
I14
I237
I110
tp1404
sg8
(lp1405
(I99
I72
tp1406
a(I99
I87
tp1407
a(I96
I52
tp1408
a(I116
I68
tp1409
a(I67
I96
tp1410
a(I91
I102
tp1411
a(I109
I56
tp1412
a(I94
I132
tp1413
a(I72
I106
tp1414
a(I120
I36
tp1415
asg20
I200
sba(imain2
Polygon
p1416
(dp1417
g3
(I76
I136
tp1418
sg5
I200
sg6
(I110
I210
I250
I248
tp1419
sg8
(lp1420
(I47
I157
tp1421
a(I83
I158
tp1422
a(I27
I159
tp1423
a(I40
I93
tp1424
a(I124
I98
tp1425
a(I71
I154
tp1426
a(I55
I96
tp1427
a(I100
I153
tp1428
a(I92
I113
tp1429
a(I116
I119
tp1430
asg20
I200
sba(imain2
Polygon
p1431
(dp1432
g3
(I3
I120
tp1433
sg5
I200
sg6
(I1
I211
I200
I93
tp1434
sg8
(lp1435
(I33
I160
tp1436
a(I11
I146
tp1437
a(I0
I137
tp1438
a(I0
I154
tp1439
a(I0
I91
tp1440
a(I0
I148
tp1441
a(I19
I148
tp1442
a(I35
I89
tp1443
a(I0
I106
tp1444
a(I0
I157
tp1445
asg20
I200
sba(imain2
Polygon
p1446
(dp1447
g3
(I165
I103
tp1448
sg5
I200
sg6
(I181
I108
I160
I204
tp1449
sg8
(lp1450
(I148
I128
tp1451
a(I122
I140
tp1452
a(I160
I101
tp1453
a(I181
I126
tp1454
a(I118
I149
tp1455
a(I126
I153
tp1456
a(I123
I88
tp1457
a(I127
I139
tp1458
a(I149
I95
tp1459
a(I170
I64
tp1460
asg20
I200
sba(imain2
Polygon
p1461
(dp1462
g3
(I199
I34
tp1463
sg5
I200
sg6
(I126
I76
I205
I211
tp1464
sg8
(lp1465
(I183
I55
tp1466
a(I200
I66
tp1467
a(I200
I63
tp1468
a(I160
I17
tp1469
a(I150
I8
tp1470
a(I200
I9
tp1471
a(I200
I65
tp1472
a(I200
I6
tp1473
a(I160
I0
tp1474
a(I200
I15
tp1475
asg20
I200
sba(imain2
Polygon
p1476
(dp1477
g3
(I130
I24
tp1478
sg5
I200
sg6
(I49
I136
I132
I36
tp1479
sg8
(lp1480
(I160
I33
tp1481
a(I95
I0
tp1482
a(I93
I17
tp1483
a(I87
I73
tp1484
a(I105
I0
tp1485
a(I135
I29
tp1486
a(I136
I0
tp1487
a(I99
I20
tp1488
a(I123
I0
tp1489
a(I162
I45
tp1490
asg20
I200
sba(imain2
Polygon
p1491
(dp1492
g3
(I172
I17
tp1493
sg5
I200
sg6
(I205
I142
I7
I186
tp1494
sg8
(lp1495
(I163
I12
tp1496
a(I153
I8
tp1497
a(I193
I53
tp1498
a(I128
I0
tp1499
a(I181
I0
tp1500
a(I200
I0
tp1501
a(I182
I52
tp1502
a(I152
I0
tp1503
a(I134
I14
tp1504
a(I148
I24
tp1505
asg20
I200
sba(imain2
Polygon
p1506
(dp1507
g3
(I83
I112
tp1508
sg5
I200
sg6
(I128
I137
I206
I22
tp1509
sg8
(lp1510
(I59
I134
tp1511
a(I60
I132
tp1512
a(I130
I75
tp1513
a(I118
I114
tp1514
a(I113
I79
tp1515
a(I95
I138
tp1516
a(I55
I107
tp1517
a(I123
I134
tp1518
a(I99
I138
tp1519
a(I93
I112
tp1520
asg20
I200
sba(imain2
Polygon
p1521
(dp1522
g3
(I7
I7
tp1523
sg5
I200
sg6
(I22
I99
I92
I118
tp1524
sg8
(lp1525
(I16
I19
tp1526
a(I25
I10
tp1527
a(I8
I0
tp1528
a(I3
I12
tp1529
a(I44
I27
tp1530
a(I43
I34
tp1531
a(I0
I49
tp1532
a(I0
I0
tp1533
a(I46
I0
tp1534
a(I0
I0
tp1535
asg20
I200
sba(imain2
Polygon
p1536
(dp1537
g3
(I189
I135
tp1538
sg5
I200
sg6
(I221
I248
I191
I139
tp1539
sg8
(lp1540
(I184
I168
tp1541
a(I151
I139
tp1542
a(I200
I178
tp1543
a(I190
I133
tp1544
a(I179
I107
tp1545
a(I155
I176
tp1546
a(I200
I151
tp1547
a(I200
I88
tp1548
a(I173
I93
tp1549
a(I171
I165
tp1550
asg20
I200
sba(imain2
Polygon
p1551
(dp1552
g3
(I17
I148
tp1553
sg5
I200
sg6
(I20
I249
I107
I232
tp1554
sg8
(lp1555
(I44
I194
tp1556
a(I0
I120
tp1557
a(I44
I108
tp1558
a(I67
I163
tp1559
a(I18
I101
tp1560
a(I0
I160
tp1561
a(I55
I146
tp1562
a(I47
I182
tp1563
a(I0
I175
tp1564
a(I11
I123
tp1565
asg20
I200
sba(imain2
Polygon
p1566
(dp1567
g3
(I6
I26
tp1568
sg5
I200
sg6
(I106
I97
I7
I248
tp1569
sg8
(lp1570
(I13
I0
tp1571
a(I0
I43
tp1572
a(I0
I3
tp1573
a(I40
I24
tp1574
a(I0
I0
tp1575
a(I0
I57
tp1576
a(I0
I62
tp1577
a(I0
I0
tp1578
a(I15
I1
tp1579
a(I6
I48
tp1580
asg20
I200
sba(imain2
Polygon
p1581
(dp1582
g3
(I69
I104
tp1583
sg5
I200
sg6
(I184
I99
I21
I176
tp1584
sg8
(lp1585
(I83
I95
tp1586
a(I40
I65
tp1587
a(I115
I141
tp1588
a(I110
I83
tp1589
a(I63
I87
tp1590
a(I34
I115
tp1591
a(I64
I90
tp1592
a(I112
I135
tp1593
a(I102
I123
tp1594
a(I119
I110
tp1595
asg20
I200
sba(imain2
Polygon
p1596
(dp1597
g3
(I177
I37
tp1598
sg5
I200
sg6
(I5
I91
I12
I40
tp1599
sg8
(lp1600
(I200
I0
tp1601
a(I155
I29
tp1602
a(I184
I0
tp1603
a(I200
I32
tp1604
a(I172
I50
tp1605
a(I167
I37
tp1606
a(I200
I0
tp1607
a(I128
I22
tp1608
a(I189
I36
tp1609
a(I193
I38
tp1610
asg20
I200
sba(imain2
Polygon
p1611
(dp1612
g3
(I62
I94
tp1613
sg5
I200
sg6
(I199
I69
I166
I171
tp1614
sg8
(lp1615
(I42
I123
tp1616
a(I17
I55
tp1617
a(I59
I65
tp1618
a(I61
I45
tp1619
a(I73
I114
tp1620
a(I79
I93
tp1621
a(I75
I70
tp1622
a(I32
I45
tp1623
a(I36
I110
tp1624
a(I67
I81
tp1625
asg20
I200
sba(imain2
Polygon
p1626
(dp1627
g3
(I147
I20
tp1628
sg5
I200
sg6
(I253
I56
I236
I71
tp1629
sg8
(lp1630
(I187
I31
tp1631
a(I118
I20
tp1632
a(I122
I0
tp1633
a(I185
I16
tp1634
a(I161
I63
tp1635
a(I144
I23
tp1636
a(I107
I8
tp1637
a(I175
I10
tp1638
a(I157
I0
tp1639
a(I108
I0
tp1640
asg20
I200
sba(imain2
Polygon
p1641
(dp1642
g3
(I186
I137
tp1643
sg5
I200
sg6
(I99
I83
I143
I50
tp1644
sg8
(lp1645
(I200
I152
tp1646
a(I200
I109
tp1647
a(I158
I94
tp1648
a(I200
I126
tp1649
a(I200
I148
tp1650
a(I200
I112
tp1651
a(I200
I168
tp1652
a(I189
I109
tp1653
a(I183
I89
tp1654
a(I174
I88
tp1655
asg20
I200
sba(imain2
Polygon
p1656
(dp1657
g3
(I12
I120
tp1658
sg5
I200
sg6
(I158
I77
I206
I220
tp1659
sg8
(lp1660
(I0
I137
tp1661
a(I30
I141
tp1662
a(I0
I86
tp1663
a(I12
I89
tp1664
a(I40
I99
tp1665
a(I49
I167
tp1666
a(I2
I124
tp1667
a(I0
I168
tp1668
a(I45
I155
tp1669
a(I52
I151
tp1670
asg20
I200
sba(imain2
Polygon
p1671
(dp1672
g3
(I153
I47
tp1673
sg5
I200
sg6
(I39
I67
I5
I175
tp1674
sg8
(lp1675
(I200
I47
tp1676
a(I197
I83
tp1677
a(I181
I70
tp1678
a(I155
I57
tp1679
a(I155
I48
tp1680
a(I175
I82
tp1681
a(I149
I21
tp1682
a(I113
I57
tp1683
a(I143
I86
tp1684
a(I110
I60
tp1685
asg20
I200
sba(imain2
Polygon
p1686
(dp1687
g3
(I31
I5
tp1688
sg5
I200
sg6
(I196
I227
I205
I171
tp1689
sg8
(lp1690
(I51
I0
tp1691
a(I25
I55
tp1692
a(I32
I54
tp1693
a(I18
I0
tp1694
a(I24
I1
tp1695
a(I23
I46
tp1696
a(I50
I0
tp1697
a(I6
I33
tp1698
a(I55
I0
tp1699
a(I66
I25
tp1700
asg20
I200
sba(imain2
Polygon
p1701
(dp1702
g3
(I76
I193
tp1703
sg5
I200
sg6
(I242
I239
I116
I225
tp1704
sg8
(lp1705
(I66
I200
tp1706
a(I62
I176
tp1707
a(I105
I155
tp1708
a(I26
I200
tp1709
a(I49
I191
tp1710
a(I91
I200
tp1711
a(I88
I200
tp1712
a(I66
I164
tp1713
a(I104
I200
tp1714
a(I115
I149
tp1715
asg20
I200
sba(imain2
Polygon
p1716
(dp1717
g3
(I34
I37
tp1718
sg5
I200
sg6
(I35
I76
I78
I68
tp1719
sg8
(lp1720
(I49
I28
tp1721
a(I59
I0
tp1722
a(I1
I44
tp1723
a(I26
I35
tp1724
a(I29
I23
tp1725
a(I24
I0
tp1726
a(I30
I43
tp1727
a(I44
I11
tp1728
a(I50
I74
tp1729
a(I0
I1
tp1730
asg20
I200
sba(imain2
Polygon
p1731
(dp1732
g3
(I135
I87
tp1733
sg5
I200
sg6
(I200
I203
I210
I169
tp1734
sg8
(lp1735
(I103
I67
tp1736
a(I171
I91
tp1737
a(I102
I79
tp1738
a(I163
I53
tp1739
a(I167
I114
tp1740
a(I166
I136
tp1741
a(I95
I67
tp1742
a(I181
I129
tp1743
a(I137
I67
tp1744
a(I87
I92
tp1745
asg20
I200
sba(imain2
Polygon
p1746
(dp1747
g3
(I185
I93
tp1748
sg5
I200
sg6
(I124
I116
I61
I115
tp1749
sg8
(lp1750
(I200
I45
tp1751
a(I200
I137
tp1752
a(I200
I114
tp1753
a(I178
I47
tp1754
a(I190
I131
tp1755
a(I182
I125
tp1756
a(I156
I88
tp1757
a(I145
I109
tp1758
a(I190
I121
tp1759
a(I200
I128
tp1760
asg20
I200
sba(imain2
Polygon
p1761
(dp1762
g3
(I121
I200
tp1763
sg5
I200
sg6
(I147
I144
I134
I193
tp1764
sg8
(lp1765
(I81
I200
tp1766
a(I106
I200
tp1767
a(I152
I200
tp1768
a(I109
I200
tp1769
a(I167
I189
tp1770
a(I151
I200
tp1771
a(I91
I200
tp1772
a(I170
I194
tp1773
a(I160
I154
tp1774
a(I146
I200
tp1775
asg20
I200
sba(imain2
Polygon
p1776
(dp1777
g3
(I174
I44
tp1778
sg5
I200
sg6
(I168
I229
I199
I43
tp1779
sg8
(lp1780
(I147
I0
tp1781
a(I143
I64
tp1782
a(I126
I46
tp1783
a(I159
I2
tp1784
a(I200
I18
tp1785
a(I152
I50
tp1786
a(I136
I85
tp1787
a(I176
I55
tp1788
a(I200
I67
tp1789
a(I175
I43
tp1790
asg20
I200
sba(imain2
Polygon
p1791
(dp1792
g3
(I102
I42
tp1793
sg5
I200
sg6
(I248
I164
I202
I187
tp1794
sg8
(lp1795
(I120
I0
tp1796
a(I72
I82
tp1797
a(I70
I42
tp1798
a(I103
I55
tp1799
a(I147
I26
tp1800
a(I112
I35
tp1801
a(I96
I0
tp1802
a(I89
I3
tp1803
a(I129
I21
tp1804
a(I151
I74
tp1805
asg20
I200
sba(imain2
Polygon
p1806
(dp1807
g3
(I77
I37
tp1808
sg5
I200
sg6
(I83
I34
I124
I27
tp1809
sg8
(lp1810
(I52
I83
tp1811
a(I103
I80
tp1812
a(I117
I49
tp1813
a(I63
I0
tp1814
a(I56
I43
tp1815
a(I32
I0
tp1816
a(I82
I68
tp1817
a(I78
I52
tp1818
a(I80
I76
tp1819
a(I113
I0
tp1820
asg20
I200
sba(imain2
Polygon
p1821
(dp1822
g3
(I168
I53
tp1823
sg5
I200
sg6
(I25
I123
I30
I145
tp1824
sg8
(lp1825
(I120
I56
tp1826
a(I127
I65
tp1827
a(I137
I75
tp1828
a(I200
I67
tp1829
a(I124
I100
tp1830
a(I131
I6
tp1831
a(I165
I49
tp1832
a(I150
I91
tp1833
a(I187
I65
tp1834
a(I161
I40
tp1835
asg20
I200
sba(imain2
Polygon
p1836
(dp1837
g3
(I79
I112
tp1838
sg5
I200
sg6
(I119
I234
I243
I132
tp1839
sg8
(lp1840
(I90
I102
tp1841
a(I80
I133
tp1842
a(I71
I130
tp1843
a(I77
I109
tp1844
a(I89
I143
tp1845
a(I122
I90
tp1846
a(I116
I138
tp1847
a(I57
I143
tp1848
a(I89
I96
tp1849
a(I123
I124
tp1850
asg20
I200
sba(imain2
Polygon
p1851
(dp1852
g3
(I44
I197
tp1853
sg5
I200
sg6
(I165
I98
I19
I26
tp1854
sg8
(lp1855
(I57
I148
tp1856
a(I89
I168
tp1857
a(I38
I200
tp1858
a(I66
I200
tp1859
a(I91
I200
tp1860
a(I40
I200
tp1861
a(I73
I165
tp1862
a(I69
I200
tp1863
a(I26
I172
tp1864
a(I67
I200
tp1865
asg20
I200
sba(imain2
Polygon
p1866
(dp1867
g3
(I148
I28
tp1868
sg5
I200
sg6
(I141
I72
I143
I166
tp1869
sg8
(lp1870
(I101
I49
tp1871
a(I176
I0
tp1872
a(I157
I56
tp1873
a(I190
I53
tp1874
a(I152
I72
tp1875
a(I177
I49
tp1876
a(I145
I44
tp1877
a(I163
I61
tp1878
a(I183
I17
tp1879
a(I173
I74
tp1880
asg20
I200
sba(imain2
Polygon
p1881
(dp1882
g3
(I167
I138
tp1883
sg5
I200
sg6
(I178
I107
I192
I220
tp1884
sg8
(lp1885
(I175
I109
tp1886
a(I129
I139
tp1887
a(I187
I158
tp1888
a(I182
I170
tp1889
a(I132
I187
tp1890
a(I200
I120
tp1891
a(I140
I172
tp1892
a(I144
I154
tp1893
a(I174
I172
tp1894
a(I170
I174
tp1895
asg20
I200
sba(imain2
Polygon
p1896
(dp1897
g3
(I171
I14
tp1898
sg5
I200
sg6
(I250
I91
I170
I246
tp1899
sg8
(lp1900
(I160
I3
tp1901
a(I131
I44
tp1902
a(I193
I0
tp1903
a(I139
I9
tp1904
a(I128
I0
tp1905
a(I181
I6
tp1906
a(I171
I0
tp1907
a(I153
I55
tp1908
a(I193
I0
tp1909
a(I200
I0
tp1910
asg20
I200
sba(imain2
Polygon
p1911
(dp1912
g3
(I134
I172
tp1913
sg5
I200
sg6
(I88
I182
I82
I58
tp1914
sg8
(lp1915
(I123
I189
tp1916
a(I174
I200
tp1917
a(I146
I150
tp1918
a(I159
I159
tp1919
a(I89
I146
tp1920
a(I116
I200
tp1921
a(I155
I182
tp1922
a(I97
I129
tp1923
a(I102
I172
tp1924
a(I160
I200
tp1925
asg20
I200
sba(imain2
Polygon
p1926
(dp1927
g3
(I11
I129
tp1928
sg5
I200
sg6
(I181
I166
I199
I215
tp1929
sg8
(lp1930
(I58
I105
tp1931
a(I0
I172
tp1932
a(I28
I159
tp1933
a(I34
I112
tp1934
a(I0
I148
tp1935
a(I46
I105
tp1936
a(I0
I161
tp1937
a(I0
I153
tp1938
a(I21
I169
tp1939
a(I61
I157
tp1940
asg20
I200
sba(imain2
Polygon
p1941
(dp1942
g3
(I147
I171
tp1943
sg5
I200
sg6
(I74
I248
I202
I90
tp1944
sg8
(lp1945
(I177
I178
tp1946
a(I167
I200
tp1947
a(I189
I129
tp1948
a(I166
I200
tp1949
a(I180
I200
tp1950
a(I103
I174
tp1951
a(I151
I138
tp1952
a(I121
I200
tp1953
a(I175
I200
tp1954
a(I132
I172
tp1955
asg20
I200
sba(imain2
Polygon
p1956
(dp1957
g3
(I195
I137
tp1958
sg5
I200
sg6
(I66
I155
I38
I208
tp1959
sg8
(lp1960
(I200
I159
tp1961
a(I183
I112
tp1962
a(I200
I156
tp1963
a(I180
I149
tp1964
a(I200
I141
tp1965
a(I161
I115
tp1966
a(I173
I107
tp1967
a(I150
I164
tp1968
a(I198
I157
tp1969
a(I153
I138
tp1970
asg20
I200
sba(imain2
Polygon
p1971
(dp1972
g3
(I149
I98
tp1973
sg5
I200
sg6
(I147
I16
I255
I41
tp1974
sg8
(lp1975
(I117
I62
tp1976
a(I177
I48
tp1977
a(I150
I142
tp1978
a(I181
I121
tp1979
a(I176
I78
tp1980
a(I104
I84
tp1981
a(I168
I144
tp1982
a(I158
I125
tp1983
a(I196
I135
tp1984
a(I173
I128
tp1985
asg20
I200
sba(imain2
Polygon
p1986
(dp1987
g3
(I173
I1
tp1988
sg5
I200
sg6
(I35
I103
I254
I125
tp1989
sg8
(lp1990
(I200
I28
tp1991
a(I137
I0
tp1992
a(I162
I0
tp1993
a(I146
I0
tp1994
a(I176
I0
tp1995
a(I199
I2
tp1996
a(I180
I0
tp1997
a(I191
I13
tp1998
a(I200
I8
tp1999
a(I190
I0
tp2000
asg20
I200
sba(imain2
Polygon
p2001
(dp2002
g3
(I6
I17
tp2003
sg5
I200
sg6
(I84
I146
I227
I160
tp2004
sg8
(lp2005
(I0
I46
tp2006
a(I0
I4
tp2007
a(I0
I55
tp2008
a(I0
I7
tp2009
a(I2
I0
tp2010
a(I10
I0
tp2011
a(I41
I7
tp2012
a(I55
I0
tp2013
a(I8
I8
tp2014
a(I5
I16
tp2015
asg20
I200
sba(imain2
Polygon
p2016
(dp2017
g3
(I190
I171
tp2018
sg5
I200
sg6
(I240
I96
I186
I118
tp2019
sg8
(lp2020
(I142
I176
tp2021
a(I180
I200
tp2022
a(I147
I176
tp2023
a(I196
I138
tp2024
a(I171
I195
tp2025
a(I185
I152
tp2026
a(I186
I174
tp2027
a(I171
I121
tp2028
a(I200
I173
tp2029
a(I142
I200
tp2030
asg20
I200
sba(imain2
Polygon
p2031
(dp2032
g3
(I108
I155
tp2033
sg5
I200
sg6
(I41
I9
I8
I133
tp2034
sg8
(lp2035
(I149
I200
tp2036
a(I104
I136
tp2037
a(I122
I185
tp2038
a(I150
I146
tp2039
a(I73
I109
tp2040
a(I113
I128
tp2041
a(I153
I185
tp2042
a(I81
I167
tp2043
a(I154
I121
tp2044
a(I62
I132
tp2045
asg20
I200
sba(imain2
Polygon
p2046
(dp2047
g3
(I111
I194
tp2048
sg5
I200
sg6
(I209
I128
I120
I135
tp2049
sg8
(lp2050
(I84
I157
tp2051
a(I140
I200
tp2052
a(I94
I173
tp2053
a(I108
I197
tp2054
a(I63
I168
tp2055
a(I114
I200
tp2056
a(I110
I200
tp2057
a(I116
I200
tp2058
a(I87
I159
tp2059
a(I122
I200
tp2060
asg20
I200
sba(imain2
Polygon
p2061
(dp2062
g3
(I177
I88
tp2063
sg5
I200
sg6
(I205
I244
I84
I197
tp2064
sg8
(lp2065
(I189
I96
tp2066
a(I151
I51
tp2067
a(I146
I130
tp2068
a(I194
I107
tp2069
a(I188
I105
tp2070
a(I152
I64
tp2071
a(I184
I77
tp2072
a(I146
I81
tp2073
a(I128
I89
tp2074
a(I188
I102
tp2075
asg20
I200
sba(imain2
Polygon
p2076
(dp2077
g3
(I19
I120
tp2078
sg5
I200
sg6
(I139
I10
I112
I108
tp2079
sg8
(lp2080
(I5
I91
tp2081
a(I0
I107
tp2082
a(I8
I153
tp2083
a(I0
I97
tp2084
a(I10
I115
tp2085
a(I0
I96
tp2086
a(I0
I111
tp2087
a(I50
I140
tp2088
a(I26
I160
tp2089
a(I0
I83
tp2090
asg20
I200
sba(imain2
Polygon
p2091
(dp2092
g3
(I181
I88
tp2093
sg5
I200
sg6
(I98
I141
I155
I109
tp2094
sg8
(lp2095
(I159
I121
tp2096
a(I134
I65
tp2097
a(I146
I88
tp2098
a(I193
I127
tp2099
a(I185
I121
tp2100
a(I181
I134
tp2101
a(I154
I67
tp2102
a(I167
I50
tp2103
a(I187
I62
tp2104
a(I177
I107
tp2105
asg20
I200
sba(imain2
Polygon
p2106
(dp2107
g3
(I123
I4
tp2108
sg5
I200
sg6
(I173
I184
I169
I87
tp2109
sg8
(lp2110
(I142
I4
tp2111
a(I90
I7
tp2112
a(I83
I14
tp2113
a(I139
I0
tp2114
a(I135
I54
tp2115
a(I141
I0
tp2116
a(I167
I3
tp2117
a(I172
I16
tp2118
a(I84
I0
tp2119
a(I87
I0
tp2120
asg20
I200
sba(imain2
Polygon
p2121
(dp2122
g3
(I29
I164
tp2123
sg5
I200
sg6
(I128
I87
I94
I47
tp2124
sg8
(lp2125
(I14
I178
tp2126
a(I0
I149
tp2127
a(I28
I138
tp2128
a(I0
I130
tp2129
a(I0
I114
tp2130
a(I19
I187
tp2131
a(I38
I198
tp2132
a(I64
I120
tp2133
a(I43
I196
tp2134
a(I18
I142
tp2135
asg20
I200
sba(imain2
Polygon
p2136
(dp2137
g3
(I86
I152
tp2138
sg5
I200
sg6
(I219
I84
I251
I78
tp2139
sg8
(lp2140
(I76
I167
tp2141
a(I72
I145
tp2142
a(I104
I171
tp2143
a(I107
I161
tp2144
a(I75
I187
tp2145
a(I112
I149
tp2146
a(I36
I174
tp2147
a(I112
I193
tp2148
a(I113
I131
tp2149
a(I122
I189
tp2150
asg20
I200
sba(imain2
Polygon
p2151
(dp2152
g3
(I200
I178
tp2153
sg5
I200
sg6
(I221
I248
I101
I150
tp2154
sg8
(lp2155
(I200
I133
tp2156
a(I200
I154
tp2157
a(I200
I190
tp2158
a(I200
I192
tp2159
a(I200
I187
tp2160
a(I200
I165
tp2161
a(I195
I141
tp2162
a(I200
I163
tp2163
a(I160
I200
tp2164
a(I200
I138
tp2165
asg20
I200
sba(imain2
Polygon
p2166
(dp2167
g3
(I55
I63
tp2168
sg5
I200
sg6
(I137
I165
I129
I1
tp2169
sg8
(lp2170
(I64
I95
tp2171
a(I84
I25
tp2172
a(I22
I63
tp2173
a(I35
I52
tp2174
a(I60
I73
tp2175
a(I87
I66
tp2176
a(I30
I46
tp2177
a(I65
I108
tp2178
a(I46
I31
tp2179
a(I32
I28
tp2180
asg20
I200
sba(imain2
Polygon
p2181
(dp2182
g3
(I5
I105
tp2183
sg5
I200
sg6
(I158
I7
I213
I115
tp2184
sg8
(lp2185
(I0
I83
tp2186
a(I0
I111
tp2187
a(I0
I115
tp2188
a(I0
I62
tp2189
a(I32
I114
tp2190
a(I0
I132
tp2191
a(I28
I124
tp2192
a(I0
I110
tp2193
a(I42
I99
tp2194
a(I18
I81
tp2195
asg20
I200
sba(imain2
Polygon
p2196
(dp2197
g3
(I123
I48
tp2198
sg5
I200
sg6
(I96
I224
I236
I169
tp2199
sg8
(lp2200
(I106
I1
tp2201
a(I161
I26
tp2202
a(I159
I1
tp2203
a(I100
I21
tp2204
a(I157
I77
tp2205
a(I100
I39
tp2206
a(I141
I98
tp2207
a(I152
I58
tp2208
a(I173
I14
tp2209
a(I88
I54
tp2210
asg20
I200
sba(imain2
Polygon
p2211
(dp2212
g3
(I21
I85
tp2213
sg5
I200
sg6
(I173
I176
I212
I200
tp2214
sg8
(lp2215
(I42
I40
tp2216
a(I0
I85
tp2217
a(I0
I75
tp2218
a(I19
I95
tp2219
a(I0
I82
tp2220
a(I0
I51
tp2221
a(I67
I38
tp2222
a(I55
I51
tp2223
a(I2
I87
tp2224
a(I0
I93
tp2225
asg20
I200
sba(imain2
Polygon
p2226
(dp2227
g3
(I73
I176
tp2228
sg5
I200
sg6
(I143
I139
I164
I77
tp2229
sg8
(lp2230
(I85
I175
tp2231
a(I71
I200
tp2232
a(I76
I200
tp2233
a(I82
I200
tp2234
a(I36
I161
tp2235
a(I68
I200
tp2236
a(I67
I200
tp2237
a(I27
I145
tp2238
a(I82
I147
tp2239
a(I40
I200
tp2240
asg20
I200
sba(imain2
Polygon
p2241
(dp2242
g3
(I26
I153
tp2243
sg5
I200
sg6
(I107
I193
I131
I18
tp2244
sg8
(lp2245
(I28
I121
tp2246
a(I55
I190
tp2247
a(I62
I159
tp2248
a(I33
I107
tp2249
a(I64
I117
tp2250
a(I71
I200
tp2251
a(I73
I167
tp2252
a(I76
I174
tp2253
a(I12
I183
tp2254
a(I48
I129
tp2255
asg20
I200
sba(imain2
Polygon
p2256
(dp2257
g3
(I164
I173
tp2258
sg5
I200
sg6
(I205
I11
I2
I4
tp2259
sg8
(lp2260
(I200
I182
tp2261
a(I142
I141
tp2262
a(I200
I137
tp2263
a(I133
I186
tp2264
a(I200
I191
tp2265
a(I144
I166
tp2266
a(I123
I166
tp2267
a(I190
I129
tp2268
a(I185
I138
tp2269
a(I159
I123
tp2270
asg20
I200
sba(imain2
Polygon
p2271
(dp2272
g3
(I9
I18
tp2273
sg5
I200
sg6
(I95
I67
I232
I254
tp2274
sg8
(lp2275
(I15
I0
tp2276
a(I0
I36
tp2277
a(I33
I43
tp2278
a(I52
I23
tp2279
a(I27
I13
tp2280
a(I22
I42
tp2281
a(I0
I68
tp2282
a(I53
I62
tp2283
a(I26
I21
tp2284
a(I38
I0
tp2285
asg20
I200
sba(imain2
Polygon
p2286
(dp2287
g3
(I4
I2
tp2288
sg5
I200
sg6
(I53
I66
I199
I105
tp2289
sg8
(lp2290
(I0
I21
tp2291
a(I0
I51
tp2292
a(I0
I0
tp2293
a(I0
I45
tp2294
a(I0
I0
tp2295
a(I52
I50
tp2296
a(I18
I0
tp2297
a(I4
I9
tp2298
a(I26
I0
tp2299
a(I11
I0
tp2300
asg20
I200
sba(imain2
Polygon
p2301
(dp2302
g3
(I124
I192
tp2303
sg5
I200
sg6
(I70
I189
I147
I9
tp2304
sg8
(lp2305
(I97
I200
tp2306
a(I135
I200
tp2307
a(I170
I200
tp2308
a(I160
I200
tp2309
a(I92
I162
tp2310
a(I136
I187
tp2311
a(I98
I149
tp2312
a(I115
I152
tp2313
a(I122
I158
tp2314
a(I106
I180
tp2315
asg20
I200
sba(imain2
Polygon
p2316
(dp2317
g3
(I60
I154
tp2318
sg5
I200
sg6
(I119
I11
I16
I142
tp2319
sg8
(lp2320
(I75
I192
tp2321
a(I91
I136
tp2322
a(I48
I192
tp2323
a(I80
I170
tp2324
a(I23
I156
tp2325
a(I38
I157
tp2326
a(I84
I170
tp2327
a(I94
I178
tp2328
a(I94
I181
tp2329
a(I91
I124
tp2330
asg20
I200
sba(imain2
Polygon
p2331
(dp2332
g3
(I21
I58
tp2333
sg5
I200
sg6
(I161
I210
I29
I217
tp2334
sg8
(lp2335
(I0
I86
tp2336
a(I0
I102
tp2337
a(I6
I46
tp2338
a(I62
I37
tp2339
a(I0
I14
tp2340
a(I41
I34
tp2341
a(I35
I98
tp2342
a(I16
I80
tp2343
a(I36
I31
tp2344
a(I58
I25
tp2345
asg20
I200
sba(imain2
Polygon
p2346
(dp2347
g3
(I135
I81
tp2348
sg5
I200
sg6
(I210
I49
I154
I29
tp2349
sg8
(lp2350
(I129
I77
tp2351
a(I137
I98
tp2352
a(I144
I44
tp2353
a(I167
I31
tp2354
a(I108
I121
tp2355
a(I140
I80
tp2356
a(I127
I54
tp2357
a(I105
I31
tp2358
a(I88
I44
tp2359
a(I86
I51
tp2360
asg20
I200
sba(imain2
Polygon
p2361
(dp2362
g3
(I8
I164
tp2363
sg5
I200
sg6
(I63
I190
I151
I74
tp2364
sg8
(lp2365
(I58
I148
tp2366
a(I17
I198
tp2367
a(I0
I135
tp2368
a(I0
I128
tp2369
a(I31
I123
tp2370
a(I40
I121
tp2371
a(I0
I171
tp2372
a(I0
I191
tp2373
a(I0
I194
tp2374
a(I41
I184
tp2375
asg20
I200
sba(imain2
Polygon
p2376
(dp2377
g3
(I161
I60
tp2378
sg5
I200
sg6
(I29
I241
I138
I197
tp2379
sg8
(lp2380
(I119
I100
tp2381
a(I196
I59
tp2382
a(I194
I107
tp2383
a(I142
I79
tp2384
a(I194
I60
tp2385
a(I158
I45
tp2386
a(I114
I57
tp2387
a(I187
I88
tp2388
a(I141
I88
tp2389
a(I151
I70
tp2390
asg20
I200
sba(imain2
Polygon
p2391
(dp2392
g3
(I121
I171
tp2393
sg5
I200
sg6
(I180
I10
I30
I248
tp2394
sg8
(lp2395
(I119
I131
tp2396
a(I133
I179
tp2397
a(I155
I126
tp2398
a(I94
I160
tp2399
a(I73
I139
tp2400
a(I83
I158
tp2401
a(I118
I160
tp2402
a(I163
I200
tp2403
a(I128
I125
tp2404
a(I142
I162
tp2405
asg20
I200
sba(imain2
Polygon
p2406
(dp2407
g3
(I66
I20
tp2408
sg5
I200
sg6
(I94
I136
I162
I213
tp2409
sg8
(lp2410
(I99
I0
tp2411
a(I29
I64
tp2412
a(I94
I42
tp2413
a(I43
I0
tp2414
a(I82
I0
tp2415
a(I18
I0
tp2416
a(I50
I53
tp2417
a(I96
I0
tp2418
a(I96
I51
tp2419
a(I75
I44
tp2420
asg20
I200
sba(imain2
Polygon
p2421
(dp2422
g3
(I197
I164
tp2423
sg5
I200
sg6
(I155
I184
I184
I208
tp2424
sg8
(lp2425
(I200
I199
tp2426
a(I200
I115
tp2427
a(I200
I191
tp2428
a(I200
I180
tp2429
a(I159
I119
tp2430
a(I200
I185
tp2431
a(I156
I166
tp2432
a(I185
I145
tp2433
a(I200
I182
tp2434
a(I200
I167
tp2435
asg20
I200
sba(imain2
Polygon
p2436
(dp2437
g3
(I170
I103
tp2438
sg5
I200
sg6
(I30
I255
I188
I252
tp2439
sg8
(lp2440
(I158
I108
tp2441
a(I200
I73
tp2442
a(I134
I58
tp2443
a(I183
I151
tp2444
a(I167
I97
tp2445
a(I158
I124
tp2446
a(I200
I123
tp2447
a(I187
I84
tp2448
a(I123
I102
tp2449
a(I181
I129
tp2450
asg20
I200
sba(imain2
Polygon
p2451
(dp2452
g3
(I190
I64
tp2453
sg5
I200
sg6
(I134
I66
I115
I156
tp2454
sg8
(lp2455
(I178
I82
tp2456
a(I200
I38
tp2457
a(I200
I76
tp2458
a(I186
I26
tp2459
a(I200
I27
tp2460
a(I196
I68
tp2461
a(I198
I86
tp2462
a(I193
I39
tp2463
a(I200
I57
tp2464
a(I176
I77
tp2465
asg20
I200
sba(imain2
Polygon
p2466
(dp2467
g3
(I175
I42
tp2468
sg5
I200
sg6
(I235
I20
I25
I134
tp2469
sg8
(lp2470
(I200
I77
tp2471
a(I151
I78
tp2472
a(I200
I33
tp2473
a(I182
I90
tp2474
a(I145
I40
tp2475
a(I134
I34
tp2476
a(I136
I85
tp2477
a(I200
I21
tp2478
a(I162
I5
tp2479
a(I156
I29
tp2480
asg20
I200
sba(imain2
Polygon
p2481
(dp2482
g3
(I65
I173
tp2483
sg5
I200
sg6
(I42
I153
I11
I183
tp2484
sg8
(lp2485
(I23
I200
tp2486
a(I55
I200
tp2487
a(I103
I135
tp2488
a(I38
I191
tp2489
a(I57
I195
tp2490
a(I112
I180
tp2491
a(I100
I198
tp2492
a(I112
I180
tp2493
a(I76
I194
tp2494
a(I97
I200
tp2495
asg20
I200
sba(imain2
Polygon
p2496
(dp2497
g3
(I35
I125
tp2498
sg5
I200
sg6
(I245
I38
I57
I227
tp2499
sg8
(lp2500
(I50
I175
tp2501
a(I30
I131
tp2502
a(I20
I153
tp2503
a(I35
I76
tp2504
a(I52
I163
tp2505
a(I12
I141
tp2506
a(I43
I151
tp2507
a(I44
I135
tp2508
a(I58
I123
tp2509
a(I65
I83
tp2510
asg20
I200
sba(imain2
Polygon
p2511
(dp2512
g3
(I162
I20
tp2513
sg5
I200
sg6
(I141
I204
I246
I15
tp2514
sg8
(lp2515
(I153
I45
tp2516
a(I162
I0
tp2517
a(I200
I12
tp2518
a(I178
I0
tp2519
a(I143
I17
tp2520
a(I121
I53
tp2521
a(I128
I0
tp2522
a(I177
I25
tp2523
a(I200
I36
tp2524
a(I125
I30
tp2525
asg20
I200
sba(imain2
Polygon
p2526
(dp2527
g3
(I107
I25
tp2528
sg5
I200
sg6
(I163
I104
I211
I201
tp2529
sg8
(lp2530
(I64
I0
tp2531
a(I114
I4
tp2532
a(I112
I42
tp2533
a(I115
I63
tp2534
a(I109
I0
tp2535
a(I89
I42
tp2536
a(I148
I0
tp2537
a(I83
I0
tp2538
a(I114
I40
tp2539
a(I118
I0
tp2540
asg20
I200
sba(imain2
Polygon
p2541
(dp2542
g3
(I200
I62
tp2543
sg5
I200
sg6
(I77
I118
I210
I12
tp2544
sg8
(lp2545
(I200
I52
tp2546
a(I161
I79
tp2547
a(I200
I76
tp2548
a(I200
I107
tp2549
a(I200
I39
tp2550
a(I200
I110
tp2551
a(I200
I26
tp2552
a(I200
I99
tp2553
a(I200
I63
tp2554
a(I169
I38
tp2555
asg20
I200
sba(imain2
Polygon
p2556
(dp2557
g3
(I77
I159
tp2558
sg5
I200
sg6
(I53
I198
I192
I109
tp2559
sg8
(lp2560
(I97
I153
tp2561
a(I100
I160
tp2562
a(I49
I163
tp2563
a(I124
I136
tp2564
a(I98
I163
tp2565
a(I100
I172
tp2566
a(I111
I145
tp2567
a(I33
I171
tp2568
a(I73
I184
tp2569
a(I49
I129
tp2570
asg20
I200
sba(imain2
Polygon
p2571
(dp2572
g3
(I51
I74
tp2573
sg5
I200
sg6
(I215
I236
I130
I91
tp2574
sg8
(lp2575
(I29
I40
tp2576
a(I19
I88
tp2577
a(I27
I29
tp2578
a(I91
I54
tp2579
a(I19
I86
tp2580
a(I47
I71
tp2581
a(I52
I91
tp2582
a(I96
I112
tp2583
a(I27
I37
tp2584
a(I98
I31
tp2585
asg20
I200
sba(imain2
Polygon
p2586
(dp2587
g3
(I38
I199
tp2588
sg5
I200
sg6
(I235
I109
I212
I180
tp2589
sg8
(lp2590
(I30
I177
tp2591
a(I21
I200
tp2592
a(I20
I200
tp2593
a(I60
I200
tp2594
a(I54
I200
tp2595
a(I88
I200
tp2596
a(I35
I200
tp2597
a(I0
I185
tp2598
a(I32
I200
tp2599
a(I0
I183
tp2600
asg20
I200
sba(imain2
Polygon
p2601
(dp2602
g3
(I152
I139
tp2603
sg5
I200
sg6
(I141
I20
I186
I199
tp2604
sg8
(lp2605
(I124
I175
tp2606
a(I132
I106
tp2607
a(I138
I162
tp2608
a(I166
I171
tp2609
a(I195
I159
tp2610
a(I177
I120
tp2611
a(I105
I153
tp2612
a(I185
I150
tp2613
a(I134
I166
tp2614
a(I188
I181
tp2615
asg20
I200
sba(imain2
Polygon
p2616
(dp2617
g3
(I168
I14
tp2618
sg5
I200
sg6
(I237
I49
I125
I164
tp2619
sg8
(lp2620
(I137
I13
tp2621
a(I200
I9
tp2622
a(I147
I18
tp2623
a(I118
I0
tp2624
a(I163
I0
tp2625
a(I194
I0
tp2626
a(I126
I52
tp2627
a(I173
I0
tp2628
a(I144
I37
tp2629
a(I186
I21
tp2630
asg20
I200
sba(imain2
Polygon
p2631
(dp2632
g3
(I8
I177
tp2633
sg5
I200
sg6
(I117
I180
I80
I47
tp2634
sg8
(lp2635
(I0
I163
tp2636
a(I58
I166
tp2637
a(I53
I130
tp2638
a(I0
I200
tp2639
a(I23
I200
tp2640
a(I20
I136
tp2641
a(I52
I200
tp2642
a(I0
I145
tp2643
a(I0
I175
tp2644
a(I14
I154
tp2645
asg20
I200
sba(imain2
Polygon
p2646
(dp2647
g3
(I45
I79
tp2648
sg5
I200
sg6
(I246
I124
I139
I193
tp2649
sg8
(lp2650
(I56
I66
tp2651
a(I55
I75
tp2652
a(I36
I80
tp2653
a(I43
I125
tp2654
a(I9
I91
tp2655
a(I0
I110
tp2656
a(I43
I41
tp2657
a(I83
I34
tp2658
a(I25
I106
tp2659
a(I9
I47
tp2660
asg20
I200
sba(imain2
Polygon
p2661
(dp2662
g3
(I182
I172
tp2663
sg5
I200
sg6
(I178
I245
I151
I203
tp2664
sg8
(lp2665
(I180
I172
tp2666
a(I146
I188
tp2667
a(I190
I200
tp2668
a(I174
I175
tp2669
a(I151
I200
tp2670
a(I197
I126
tp2671
a(I178
I200
tp2672
a(I140
I155
tp2673
a(I136
I161
tp2674
a(I174
I133
tp2675
asg20
I200
sba(imain2
Polygon
p2676
(dp2677
g3
(I49
I60
tp2678
sg5
I200
sg6
(I207
I126
I32
I183
tp2679
sg8
(lp2680
(I56
I42
tp2681
a(I0
I65
tp2682
a(I14
I45
tp2683
a(I15
I46
tp2684
a(I44
I86
tp2685
a(I11
I108
tp2686
a(I92
I61
tp2687
a(I88
I42
tp2688
a(I92
I93
tp2689
a(I29
I28
tp2690
asg20
I200
sba(imain2
Polygon
p2691
(dp2692
g3
(I199
I102
tp2693
sg5
I200
sg6
(I33
I75
I117
I188
tp2694
sg8
(lp2695
(I200
I148
tp2696
a(I152
I105
tp2697
a(I155
I52
tp2698
a(I167
I139
tp2699
a(I200
I117
tp2700
a(I200
I147
tp2701
a(I164
I139
tp2702
a(I200
I92
tp2703
a(I185
I71
tp2704
a(I175
I106
tp2705
asg20
I200
sba(imain2
Polygon
p2706
(dp2707
g3
(I91
I30
tp2708
sg5
I200
sg6
(I26
I195
I169
I111
tp2709
sg8
(lp2710
(I58
I74
tp2711
a(I74
I17
tp2712
a(I90
I0
tp2713
a(I116
I29
tp2714
a(I52
I45
tp2715
a(I99
I0
tp2716
a(I115
I0
tp2717
a(I129
I0
tp2718
a(I54
I39
tp2719
a(I97
I18
tp2720
asg20
I200
sba(imain2
Polygon
p2721
(dp2722
g3
(I99
I38
tp2723
sg5
I200
sg6
(I150
I234
I205
I253
tp2724
sg8
(lp2725
(I84
I69
tp2726
a(I68
I0
tp2727
a(I140
I18
tp2728
a(I99
I13
tp2729
a(I134
I2
tp2730
a(I149
I7
tp2731
a(I130
I63
tp2732
a(I107
I83
tp2733
a(I58
I34
tp2734
a(I86
I68
tp2735
asg20
I200
sba(imain2
Polygon
p2736
(dp2737
g3
(I98
I163
tp2738
sg5
I200
sg6
(I112
I52
I230
I12
tp2739
sg8
(lp2740
(I92
I178
tp2741
a(I68
I121
tp2742
a(I64
I159
tp2743
a(I114
I165
tp2744
a(I49
I113
tp2745
a(I66
I188
tp2746
a(I144
I187
tp2747
a(I135
I200
tp2748
a(I66
I139
tp2749
a(I139
I118
tp2750
asg20
I200
sba(imain2
Polygon
p2751
(dp2752
g3
(I169
I128
tp2753
sg5
I200
sg6
(I99
I153
I253
I122
tp2754
sg8
(lp2755
(I173
I148
tp2756
a(I173
I114
tp2757
a(I169
I125
tp2758
a(I175
I153
tp2759
a(I137
I178
tp2760
a(I200
I162
tp2761
a(I200
I144
tp2762
a(I200
I91
tp2763
a(I200
I145
tp2764
a(I144
I134
tp2765
asg20
I200
sba(imain2
Polygon
p2766
(dp2767
g3
(I46
I55
tp2768
sg5
I200
sg6
(I254
I49
I225
I129
tp2769
sg8
(lp2770
(I24
I17
tp2771
a(I34
I80
tp2772
a(I47
I69
tp2773
a(I15
I60
tp2774
a(I48
I37
tp2775
a(I4
I15
tp2776
a(I40
I58
tp2777
a(I82
I89
tp2778
a(I13
I29
tp2779
a(I19
I5
tp2780
asg20
I200
sba(imain2
Polygon
p2781
(dp2782
g3
(I108
I11
tp2783
sg5
I200
sg6
(I234
I69
I45
I232
tp2784
sg8
(lp2785
(I69
I13
tp2786
a(I150
I0
tp2787
a(I75
I57
tp2788
a(I131
I0
tp2789
a(I75
I0
tp2790
a(I153
I29
tp2791
a(I157
I0
tp2792
a(I76
I41
tp2793
a(I110
I32
tp2794
a(I146
I33
tp2795
asg20
I200
sba(imain2
Polygon
p2796
(dp2797
g3
(I182
I85
tp2798
sg5
I200
sg6
(I47
I208
I250
I151
tp2799
sg8
(lp2800
(I200
I52
tp2801
a(I175
I39
tp2802
a(I154
I83
tp2803
a(I164
I98
tp2804
a(I200
I108
tp2805
a(I157
I108
tp2806
a(I188
I86
tp2807
a(I132
I135
tp2808
a(I149
I84
tp2809
a(I186
I50
tp2810
asg20
I200
sba(imain2
Polygon
p2811
(dp2812
g3
(I120
I15
tp2813
sg5
I200
sg6
(I50
I148
I226
I69
tp2814
sg8
(lp2815
(I144
I59
tp2816
a(I105
I0
tp2817
a(I141
I65
tp2818
a(I123
I0
tp2819
a(I76
I0
tp2820
a(I137
I0
tp2821
a(I115
I55
tp2822
a(I142
I0
tp2823
a(I138
I0
tp2824
a(I131
I21
tp2825
asg20
I200
sba(imain2
Polygon
p2826
(dp2827
g3
(I156
I99
tp2828
sg5
I200
sg6
(I252
I234
I32
I45
tp2829
sg8
(lp2830
(I165
I53
tp2831
a(I161
I63
tp2832
a(I186
I101
tp2833
a(I173
I75
tp2834
a(I200
I115
tp2835
a(I189
I84
tp2836
a(I132
I133
tp2837
a(I163
I77
tp2838
a(I151
I147
tp2839
a(I165
I134
tp2840
asg20
I200
sba(imain2
Polygon
p2841
(dp2842
g3
(I180
I95
tp2843
sg5
I200
sg6
(I32
I41
I129
I98
tp2844
sg8
(lp2845
(I186
I72
tp2846
a(I194
I70
tp2847
a(I200
I102
tp2848
a(I132
I99
tp2849
a(I200
I81
tp2850
a(I131
I90
tp2851
a(I133
I55
tp2852
a(I200
I131
tp2853
a(I151
I104
tp2854
a(I153
I77
tp2855
asg20
I200
sba(imain2
Polygon
p2856
(dp2857
g3
(I19
I160
tp2858
sg5
I200
sg6
(I114
I190
I35
I156
tp2859
sg8
(lp2860
(I0
I200
tp2861
a(I0
I200
tp2862
a(I37
I196
tp2863
a(I0
I200
tp2864
a(I0
I128
tp2865
a(I50
I186
tp2866
a(I30
I144
tp2867
a(I32
I148
tp2868
a(I67
I122
tp2869
a(I51
I164
tp2870
asg20
I200
sba(imain2
Polygon
p2871
(dp2872
g3
(I194
I72
tp2873
sg5
I200
sg6
(I184
I180
I68
I20
tp2874
sg8
(lp2875
(I200
I43
tp2876
a(I177
I30
tp2877
a(I200
I64
tp2878
a(I152
I78
tp2879
a(I200
I22
tp2880
a(I173
I35
tp2881
a(I165
I56
tp2882
a(I200
I30
tp2883
a(I200
I111
tp2884
a(I200
I85
tp2885
asg20
I200
sba(imain2
Polygon
p2886
(dp2887
g3
(I176
I192
tp2888
sg5
I200
sg6
(I201
I17
I201
I99
tp2889
sg8
(lp2890
(I200
I144
tp2891
a(I181
I192
tp2892
a(I200
I163
tp2893
a(I200
I180
tp2894
a(I174
I200
tp2895
a(I177
I168
tp2896
a(I186
I200
tp2897
a(I200
I200
tp2898
a(I200
I154
tp2899
a(I200
I169
tp2900
asg20
I200
sba(imain2
Polygon
p2901
(dp2902
g3
(I199
I148
tp2903
sg5
I200
sg6
(I103
I64
I203
I73
tp2904
sg8
(lp2905
(I151
I131
tp2906
a(I200
I194
tp2907
a(I200
I129
tp2908
a(I198
I100
tp2909
a(I160
I167
tp2910
a(I150
I191
tp2911
a(I184
I109
tp2912
a(I200
I145
tp2913
a(I180
I198
tp2914
a(I150
I122
tp2915
asg20
I200
sba(imain2
Polygon
p2916
(dp2917
g3
(I82
I192
tp2918
sg5
I200
sg6
(I88
I44
I120
I209
tp2919
sg8
(lp2920
(I94
I200
tp2921
a(I96
I200
tp2922
a(I114
I150
tp2923
a(I122
I165
tp2924
a(I44
I152
tp2925
a(I54
I200
tp2926
a(I62
I153
tp2927
a(I80
I153
tp2928
a(I78
I147
tp2929
a(I85
I143
tp2930
asg20
I200
sba(imain2
Polygon
p2931
(dp2932
g3
(I7
I165
tp2933
sg5
I200
sg6
(I135
I185
I240
I55
tp2934
sg8
(lp2935
(I50
I133
tp2936
a(I17
I136
tp2937
a(I0
I168
tp2938
a(I1
I197
tp2939
a(I30
I127
tp2940
a(I0
I158
tp2941
a(I55
I165
tp2942
a(I36
I166
tp2943
a(I0
I192
tp2944
a(I18
I123
tp2945
asg20
I200
sba(imain2
Polygon
p2946
(dp2947
g3
(I63
I110
tp2948
sg5
I200
sg6
(I235
I195
I197
I188
tp2949
sg8
(lp2950
(I92
I115
tp2951
a(I72
I102
tp2952
a(I75
I66
tp2953
a(I109
I68
tp2954
a(I38
I99
tp2955
a(I15
I96
tp2956
a(I90
I64
tp2957
a(I89
I140
tp2958
a(I30
I81
tp2959
a(I92
I118
tp2960
asg20
I200
sba(imain2
Polygon
p2961
(dp2962
g3
(I25
I118
tp2963
sg5
I200
sg6
(I5
I63
I226
I47
tp2964
sg8
(lp2965
(I33
I135
tp2966
a(I18
I140
tp2967
a(I54
I142
tp2968
a(I66
I76
tp2969
a(I6
I140
tp2970
a(I32
I119
tp2971
a(I0
I76
tp2972
a(I70
I99
tp2973
a(I0
I78
tp2974
a(I51
I82
tp2975
asg20
I200
sba(imain2
Polygon
p2976
(dp2977
g3
(I14
I86
tp2978
sg5
I200
sg6
(I86
I97
I192
I105
tp2979
sg8
(lp2980
(I19
I94
tp2981
a(I36
I72
tp2982
a(I61
I101
tp2983
a(I0
I117
tp2984
a(I7
I85
tp2985
a(I3
I109
tp2986
a(I9
I54
tp2987
a(I23
I121
tp2988
a(I0
I110
tp2989
a(I16
I56
tp2990
asg20
I200
sba(imain2
Polygon
p2991
(dp2992
g3
(I17
I49
tp2993
sg5
I200
sg6
(I34
I13
I165
I64
tp2994
sg8
(lp2995
(I0
I93
tp2996
a(I18
I91
tp2997
a(I0
I88
tp2998
a(I39
I7
tp2999
a(I0
I64
tp3000
a(I0
I27
tp3001
a(I58
I72
tp3002
a(I13
I94
tp3003
a(I12
I63
tp3004
a(I46
I70
tp3005
asg20
I200
sba.